ARM GAS  C:\Users\ANDREY~1\AppData\Local\Temp\cc0akFQM.s 			page 1


   1              		.syntax unified
   2              		.cpu cortex-m3
   3              		.fpu softvfp
   4              		.eabi_attribute 20, 1
   5              		.eabi_attribute 21, 1
   6              		.eabi_attribute 23, 3
   7              		.eabi_attribute 24, 1
   8              		.eabi_attribute 25, 1
   9              		.eabi_attribute 26, 1
  10              		.eabi_attribute 30, 1
  11              		.eabi_attribute 34, 1
  12              		.eabi_attribute 18, 4
  13              		.thumb
  14              		.syntax unified
  15              		.file	"ADC_GLV_V.c"
  16              		.text
  17              	.Ltext0:
  18              		.cfi_sections	.debug_frame
  19              		.section	.text.ADC_GLV_V_GainCompensation,"ax",%progbits
  20              		.align	2
  21              		.thumb
  22              		.thumb_func
  23              		.type	ADC_GLV_V_GainCompensation, %function
  24              	ADC_GLV_V_GainCompensation:
  25              	.LFB21:
  26              		.file 1 "Generated_Source\\PSoC5\\ADC_GLV_V.c"
   1:Generated_Source\PSoC5/ADC_GLV_V.c **** /*******************************************************************************
   2:Generated_Source\PSoC5/ADC_GLV_V.c **** * File Name: ADC_GLV_V.c
   3:Generated_Source\PSoC5/ADC_GLV_V.c **** * Version 3.20
   4:Generated_Source\PSoC5/ADC_GLV_V.c **** *
   5:Generated_Source\PSoC5/ADC_GLV_V.c **** * Description:
   6:Generated_Source\PSoC5/ADC_GLV_V.c **** *  This file provides the source code to the API for the Delta-Sigma ADC
   7:Generated_Source\PSoC5/ADC_GLV_V.c **** *  Component.
   8:Generated_Source\PSoC5/ADC_GLV_V.c **** *
   9:Generated_Source\PSoC5/ADC_GLV_V.c **** * Note:
  10:Generated_Source\PSoC5/ADC_GLV_V.c **** *
  11:Generated_Source\PSoC5/ADC_GLV_V.c **** ********************************************************************************
  12:Generated_Source\PSoC5/ADC_GLV_V.c **** * Copyright 2008-2015, Cypress Semiconductor Corporation.  All rights reserved.
  13:Generated_Source\PSoC5/ADC_GLV_V.c **** * You may use this file only in accordance with the license, terms, conditions,
  14:Generated_Source\PSoC5/ADC_GLV_V.c **** * disclaimers, and limitations in the end user license agreement accompanying
  15:Generated_Source\PSoC5/ADC_GLV_V.c **** * the software package with which this file was provided.
  16:Generated_Source\PSoC5/ADC_GLV_V.c **** *******************************************************************************/
  17:Generated_Source\PSoC5/ADC_GLV_V.c **** 
  18:Generated_Source\PSoC5/ADC_GLV_V.c **** #include "ADC_GLV_V.h"
  19:Generated_Source\PSoC5/ADC_GLV_V.c **** 
  20:Generated_Source\PSoC5/ADC_GLV_V.c **** #if(ADC_GLV_V_DEFAULT_INTERNAL_CLK)
  21:Generated_Source\PSoC5/ADC_GLV_V.c ****     #include "ADC_GLV_V_theACLK.h"
  22:Generated_Source\PSoC5/ADC_GLV_V.c **** #endif /* ADC_GLV_V_DEFAULT_INTERNAL_CLK */
  23:Generated_Source\PSoC5/ADC_GLV_V.c **** 
  24:Generated_Source\PSoC5/ADC_GLV_V.c **** #include "ADC_GLV_V_Ext_CP_Clk.h"
  25:Generated_Source\PSoC5/ADC_GLV_V.c **** 
  26:Generated_Source\PSoC5/ADC_GLV_V.c **** #if(ADC_GLV_V_DEFAULT_INPUT_MODE)
  27:Generated_Source\PSoC5/ADC_GLV_V.c ****     #include "ADC_GLV_V_AMux.h"
  28:Generated_Source\PSoC5/ADC_GLV_V.c **** #endif /* ADC_GLV_V_DEFAULT_INPUT_MODE */
  29:Generated_Source\PSoC5/ADC_GLV_V.c **** 
  30:Generated_Source\PSoC5/ADC_GLV_V.c **** 
  31:Generated_Source\PSoC5/ADC_GLV_V.c **** /***************************************
ARM GAS  C:\Users\ANDREY~1\AppData\Local\Temp\cc0akFQM.s 			page 2


  32:Generated_Source\PSoC5/ADC_GLV_V.c **** * Global data allocation
  33:Generated_Source\PSoC5/ADC_GLV_V.c **** ***************************************/
  34:Generated_Source\PSoC5/ADC_GLV_V.c **** 
  35:Generated_Source\PSoC5/ADC_GLV_V.c **** /* Software flag for checking conversion completed or not */
  36:Generated_Source\PSoC5/ADC_GLV_V.c **** volatile uint8 ADC_GLV_V_convDone = 0u;
  37:Generated_Source\PSoC5/ADC_GLV_V.c **** 
  38:Generated_Source\PSoC5/ADC_GLV_V.c **** /* Software flag to stop conversion for single sample conversion mode
  39:Generated_Source\PSoC5/ADC_GLV_V.c **** *   with resolution above 16 bits 
  40:Generated_Source\PSoC5/ADC_GLV_V.c **** */
  41:Generated_Source\PSoC5/ADC_GLV_V.c **** volatile uint8 ADC_GLV_V_stopConversion = 0u;
  42:Generated_Source\PSoC5/ADC_GLV_V.c **** 
  43:Generated_Source\PSoC5/ADC_GLV_V.c **** /* To run the initialization block only at the start up */
  44:Generated_Source\PSoC5/ADC_GLV_V.c **** uint8 ADC_GLV_V_initVar = 0u;
  45:Generated_Source\PSoC5/ADC_GLV_V.c **** 
  46:Generated_Source\PSoC5/ADC_GLV_V.c **** /* To check whether ADC started or not before switching the configuration */
  47:Generated_Source\PSoC5/ADC_GLV_V.c **** volatile uint8 ADC_GLV_V_started = 0u;
  48:Generated_Source\PSoC5/ADC_GLV_V.c **** 
  49:Generated_Source\PSoC5/ADC_GLV_V.c **** /* Flag to hold ADC config number. By default active config is 1. */
  50:Generated_Source\PSoC5/ADC_GLV_V.c **** volatile uint8 ADC_GLV_V_Config = 1u;
  51:Generated_Source\PSoC5/ADC_GLV_V.c **** 
  52:Generated_Source\PSoC5/ADC_GLV_V.c **** volatile int32 ADC_GLV_V_Offset;
  53:Generated_Source\PSoC5/ADC_GLV_V.c **** volatile int32 ADC_GLV_V_CountsPerVolt;
  54:Generated_Source\PSoC5/ADC_GLV_V.c **** 
  55:Generated_Source\PSoC5/ADC_GLV_V.c **** 
  56:Generated_Source\PSoC5/ADC_GLV_V.c **** /***************************************
  57:Generated_Source\PSoC5/ADC_GLV_V.c **** * Local data allocation
  58:Generated_Source\PSoC5/ADC_GLV_V.c **** ***************************************/
  59:Generated_Source\PSoC5/ADC_GLV_V.c **** 
  60:Generated_Source\PSoC5/ADC_GLV_V.c **** /* The array with precalculated gain compensation coefficients */
  61:Generated_Source\PSoC5/ADC_GLV_V.c **** static ADC_GLV_V_GCOR_STRUCT ADC_GLV_V_gcor[ADC_GLV_V_DEFAULT_NUM_CONFIGS];
  62:Generated_Source\PSoC5/ADC_GLV_V.c **** 
  63:Generated_Source\PSoC5/ADC_GLV_V.c **** 
  64:Generated_Source\PSoC5/ADC_GLV_V.c **** 
  65:Generated_Source\PSoC5/ADC_GLV_V.c **** /***************************************
  66:Generated_Source\PSoC5/ADC_GLV_V.c **** * Forward function references
  67:Generated_Source\PSoC5/ADC_GLV_V.c **** ***************************************/
  68:Generated_Source\PSoC5/ADC_GLV_V.c **** static void ADC_GLV_V_InitConfig(uint8 config) ;
  69:Generated_Source\PSoC5/ADC_GLV_V.c **** static void ADC_GLV_V_GainCompensation(uint8 inputRange, uint16 idealDecGain, uint16 idealOddDecGai
  70:Generated_Source\PSoC5/ADC_GLV_V.c ****                             uint8 resolution, uint8 config) ;
  71:Generated_Source\PSoC5/ADC_GLV_V.c **** static void ADC_GLV_V_SetDSMRef0Reg(uint8 value) ;
  72:Generated_Source\PSoC5/ADC_GLV_V.c **** 
  73:Generated_Source\PSoC5/ADC_GLV_V.c **** 
  74:Generated_Source\PSoC5/ADC_GLV_V.c **** /******************************************************************************
  75:Generated_Source\PSoC5/ADC_GLV_V.c **** * Function Name: ADC_GLV_V_Init
  76:Generated_Source\PSoC5/ADC_GLV_V.c **** *******************************************************************************
  77:Generated_Source\PSoC5/ADC_GLV_V.c **** *
  78:Generated_Source\PSoC5/ADC_GLV_V.c **** * Summary:
  79:Generated_Source\PSoC5/ADC_GLV_V.c **** *  Initialize component's parameters to the parameters set by user in the
  80:Generated_Source\PSoC5/ADC_GLV_V.c **** *  customizer of the component placed onto schematic. Usually called in
  81:Generated_Source\PSoC5/ADC_GLV_V.c **** * ADC_GLV_V_Start().
  82:Generated_Source\PSoC5/ADC_GLV_V.c **** *
  83:Generated_Source\PSoC5/ADC_GLV_V.c **** *
  84:Generated_Source\PSoC5/ADC_GLV_V.c **** * Parameters:
  85:Generated_Source\PSoC5/ADC_GLV_V.c **** *  None
  86:Generated_Source\PSoC5/ADC_GLV_V.c **** *
  87:Generated_Source\PSoC5/ADC_GLV_V.c **** * Return:
  88:Generated_Source\PSoC5/ADC_GLV_V.c **** *  None
ARM GAS  C:\Users\ANDREY~1\AppData\Local\Temp\cc0akFQM.s 			page 3


  89:Generated_Source\PSoC5/ADC_GLV_V.c **** *
  90:Generated_Source\PSoC5/ADC_GLV_V.c **** *******************************************************************************/
  91:Generated_Source\PSoC5/ADC_GLV_V.c **** void ADC_GLV_V_Init(void) 
  92:Generated_Source\PSoC5/ADC_GLV_V.c **** {
  93:Generated_Source\PSoC5/ADC_GLV_V.c **** 
  94:Generated_Source\PSoC5/ADC_GLV_V.c ****     ADC_GLV_V_Config = 1u;
  95:Generated_Source\PSoC5/ADC_GLV_V.c ****     ADC_GLV_V_convDone = 0u;
  96:Generated_Source\PSoC5/ADC_GLV_V.c **** 
  97:Generated_Source\PSoC5/ADC_GLV_V.c ****     ADC_GLV_V_Ext_CP_Clk_SetMode(CYCLK_DUTY);
  98:Generated_Source\PSoC5/ADC_GLV_V.c **** 
  99:Generated_Source\PSoC5/ADC_GLV_V.c ****     /* This is only valid if there is an internal clock */
 100:Generated_Source\PSoC5/ADC_GLV_V.c ****     #if(ADC_GLV_V_DEFAULT_INTERNAL_CLK)
 101:Generated_Source\PSoC5/ADC_GLV_V.c ****         ADC_GLV_V_theACLK_SetMode(CYCLK_DUTY);
 102:Generated_Source\PSoC5/ADC_GLV_V.c ****     #endif /* ADC_GLV_V_DEFAULT_INTERNAL_CLK */
 103:Generated_Source\PSoC5/ADC_GLV_V.c **** 
 104:Generated_Source\PSoC5/ADC_GLV_V.c ****     #if(ADC_GLV_V_IRQ_REMOVE == 0u)
 105:Generated_Source\PSoC5/ADC_GLV_V.c ****         /* Set interrupt priority */
 106:Generated_Source\PSoC5/ADC_GLV_V.c ****         CyIntSetPriority(ADC_GLV_V_INTC_NUMBER, ADC_GLV_V_INTC_PRIOR_NUMBER);
 107:Generated_Source\PSoC5/ADC_GLV_V.c ****     #endif   /* End ADC_GLV_V_IRQ_REMOVE */
 108:Generated_Source\PSoC5/ADC_GLV_V.c **** 
 109:Generated_Source\PSoC5/ADC_GLV_V.c ****     /* Init static registers with common configuration */
 110:Generated_Source\PSoC5/ADC_GLV_V.c ****     ADC_GLV_V_DSM_DEM0_REG    = ADC_GLV_V_CFG1_DSM_DEM0;
 111:Generated_Source\PSoC5/ADC_GLV_V.c ****     ADC_GLV_V_DSM_DEM1_REG    = ADC_GLV_V_CFG1_DSM_DEM1;
 112:Generated_Source\PSoC5/ADC_GLV_V.c ****     ADC_GLV_V_DSM_MISC_REG    = ADC_GLV_V_CFG1_DSM_MISC;
 113:Generated_Source\PSoC5/ADC_GLV_V.c ****     ADC_GLV_V_DSM_CLK_REG    |= ADC_GLV_V_CFG1_DSM_CLK;
 114:Generated_Source\PSoC5/ADC_GLV_V.c ****     ADC_GLV_V_DSM_REF1_REG    = ADC_GLV_V_CFG1_DSM_REF1;
 115:Generated_Source\PSoC5/ADC_GLV_V.c **** 
 116:Generated_Source\PSoC5/ADC_GLV_V.c ****     ADC_GLV_V_DSM_OUT0_REG    = ADC_GLV_V_CFG1_DSM_OUT0;
 117:Generated_Source\PSoC5/ADC_GLV_V.c ****     ADC_GLV_V_DSM_OUT1_REG    = ADC_GLV_V_CFG1_DSM_OUT1;
 118:Generated_Source\PSoC5/ADC_GLV_V.c **** 
 119:Generated_Source\PSoC5/ADC_GLV_V.c ****     ADC_GLV_V_DSM_CR0_REG     = ADC_GLV_V_CFG1_DSM_CR0;
 120:Generated_Source\PSoC5/ADC_GLV_V.c ****     ADC_GLV_V_DSM_CR1_REG     = ADC_GLV_V_CFG1_DSM_CR1;
 121:Generated_Source\PSoC5/ADC_GLV_V.c **** #if(ADC_GLV_V_MI_ENABLE != 0u) /* Enable Modulator Input */
 122:Generated_Source\PSoC5/ADC_GLV_V.c ****     ADC_GLV_V_DSM_CR3_REG     |= ADC_GLV_V_DSM_MODBIT_EN;
 123:Generated_Source\PSoC5/ADC_GLV_V.c **** #else
 124:Generated_Source\PSoC5/ADC_GLV_V.c ****     ADC_GLV_V_DSM_CR3_REG     = ADC_GLV_V_CFG1_DSM_CR3;
 125:Generated_Source\PSoC5/ADC_GLV_V.c **** #endif /* ADC_GLV_V_MI_ENABLE != 0u*/    
 126:Generated_Source\PSoC5/ADC_GLV_V.c ****     ADC_GLV_V_DSM_CR8_REG     = ADC_GLV_V_CFG1_DSM_CR8;
 127:Generated_Source\PSoC5/ADC_GLV_V.c ****     ADC_GLV_V_DSM_CR9_REG     = ADC_GLV_V_CFG1_DSM_CR9;
 128:Generated_Source\PSoC5/ADC_GLV_V.c ****     ADC_GLV_V_DSM_CR13_REG    = ADC_GLV_V_CFG1_DSM_CR13;
 129:Generated_Source\PSoC5/ADC_GLV_V.c **** 
 130:Generated_Source\PSoC5/ADC_GLV_V.c ****     ADC_GLV_V_DEC_SR_REG      = ADC_GLV_V_CFG1_DEC_SR;
 131:Generated_Source\PSoC5/ADC_GLV_V.c **** 
 132:Generated_Source\PSoC5/ADC_GLV_V.c ****     /* Calculate Gain compensation coefficients for all configurations */
 133:Generated_Source\PSoC5/ADC_GLV_V.c ****     ADC_GLV_V_GainCompensation(ADC_GLV_V_CFG1_INPUT_RANGE,
 134:Generated_Source\PSoC5/ADC_GLV_V.c ****                                       ADC_GLV_V_CFG1_IDEAL_DEC_GAIN,
 135:Generated_Source\PSoC5/ADC_GLV_V.c ****                                       ADC_GLV_V_CFG1_IDEAL_ODDDEC_GAIN,
 136:Generated_Source\PSoC5/ADC_GLV_V.c ****                                       ADC_GLV_V_CFG1_RESOLUTION,
 137:Generated_Source\PSoC5/ADC_GLV_V.c ****                                       ADC_GLV_V_CFG1);
 138:Generated_Source\PSoC5/ADC_GLV_V.c ****     #if(ADC_GLV_V_DEFAULT_NUM_CONFIGS > 1)
 139:Generated_Source\PSoC5/ADC_GLV_V.c ****         ADC_GLV_V_GainCompensation(ADC_GLV_V_CFG2_INPUT_RANGE,
 140:Generated_Source\PSoC5/ADC_GLV_V.c ****                                           ADC_GLV_V_CFG2_IDEAL_DEC_GAIN,
 141:Generated_Source\PSoC5/ADC_GLV_V.c ****                                           ADC_GLV_V_CFG2_IDEAL_ODDDEC_GAIN,
 142:Generated_Source\PSoC5/ADC_GLV_V.c ****                                           ADC_GLV_V_CFG2_RESOLUTION,
 143:Generated_Source\PSoC5/ADC_GLV_V.c ****                                           ADC_GLV_V_CFG2);
 144:Generated_Source\PSoC5/ADC_GLV_V.c ****     #endif /* ADC_GLV_V_DEFAULT_NUM_CONFIGS > 1 */
 145:Generated_Source\PSoC5/ADC_GLV_V.c ****     #if(ADC_GLV_V_DEFAULT_NUM_CONFIGS > 2)
ARM GAS  C:\Users\ANDREY~1\AppData\Local\Temp\cc0akFQM.s 			page 4


 146:Generated_Source\PSoC5/ADC_GLV_V.c ****         ADC_GLV_V_GainCompensation(ADC_GLV_V_CFG3_INPUT_RANGE,
 147:Generated_Source\PSoC5/ADC_GLV_V.c ****                                           ADC_GLV_V_CFG3_IDEAL_DEC_GAIN,
 148:Generated_Source\PSoC5/ADC_GLV_V.c ****                                           ADC_GLV_V_CFG3_IDEAL_ODDDEC_GAIN,
 149:Generated_Source\PSoC5/ADC_GLV_V.c ****                                           ADC_GLV_V_CFG3_RESOLUTION,
 150:Generated_Source\PSoC5/ADC_GLV_V.c ****                                           ADC_GLV_V_CFG3);
 151:Generated_Source\PSoC5/ADC_GLV_V.c ****     #endif /* ADC_GLV_V_DEFAULT_NUM_CONFIGS > 2 */
 152:Generated_Source\PSoC5/ADC_GLV_V.c ****     #if(ADC_GLV_V_DEFAULT_NUM_CONFIGS > 3)
 153:Generated_Source\PSoC5/ADC_GLV_V.c ****         ADC_GLV_V_GainCompensation(ADC_GLV_V_CFG4_INPUT_RANGE,
 154:Generated_Source\PSoC5/ADC_GLV_V.c ****                                           ADC_GLV_V_CFG4_IDEAL_DEC_GAIN,
 155:Generated_Source\PSoC5/ADC_GLV_V.c ****                                           ADC_GLV_V_CFG4_IDEAL_ODDDEC_GAIN,
 156:Generated_Source\PSoC5/ADC_GLV_V.c ****                                           ADC_GLV_V_CFG4_RESOLUTION,
 157:Generated_Source\PSoC5/ADC_GLV_V.c ****                                           ADC_GLV_V_CFG4);
 158:Generated_Source\PSoC5/ADC_GLV_V.c ****     #endif /* ADC_GLV_V_DEFAULT_NUM_CONFIGS > 3 */
 159:Generated_Source\PSoC5/ADC_GLV_V.c **** 
 160:Generated_Source\PSoC5/ADC_GLV_V.c ****     /* Set GCOR register for config1 */
 161:Generated_Source\PSoC5/ADC_GLV_V.c ****     ADC_GLV_V_DEC_GVAL_REG = ADC_GLV_V_gcor[ADC_GLV_V_Config - 1u].gval;
 162:Generated_Source\PSoC5/ADC_GLV_V.c ****     CY_SET_REG16(ADC_GLV_V_DEC_GCOR_16B_PTR, ADC_GLV_V_gcor[ADC_GLV_V_Config - 1u].gcor);
 163:Generated_Source\PSoC5/ADC_GLV_V.c **** 
 164:Generated_Source\PSoC5/ADC_GLV_V.c ****     /* Initialize the registers with default customizer settings for config1 */
 165:Generated_Source\PSoC5/ADC_GLV_V.c ****     ADC_GLV_V_InitConfig(ADC_GLV_V_Config);
 166:Generated_Source\PSoC5/ADC_GLV_V.c **** }
 167:Generated_Source\PSoC5/ADC_GLV_V.c **** 
 168:Generated_Source\PSoC5/ADC_GLV_V.c **** 
 169:Generated_Source\PSoC5/ADC_GLV_V.c **** /******************************************************************************
 170:Generated_Source\PSoC5/ADC_GLV_V.c **** * Function Name: ADC_GLV_V_Enable
 171:Generated_Source\PSoC5/ADC_GLV_V.c **** *******************************************************************************
 172:Generated_Source\PSoC5/ADC_GLV_V.c **** *
 173:Generated_Source\PSoC5/ADC_GLV_V.c **** * Summary:
 174:Generated_Source\PSoC5/ADC_GLV_V.c **** *  Enables the ADC DelSig block operation.
 175:Generated_Source\PSoC5/ADC_GLV_V.c **** *
 176:Generated_Source\PSoC5/ADC_GLV_V.c **** *
 177:Generated_Source\PSoC5/ADC_GLV_V.c **** * Parameters:
 178:Generated_Source\PSoC5/ADC_GLV_V.c **** *  None
 179:Generated_Source\PSoC5/ADC_GLV_V.c **** *
 180:Generated_Source\PSoC5/ADC_GLV_V.c **** * Return:
 181:Generated_Source\PSoC5/ADC_GLV_V.c **** *  None
 182:Generated_Source\PSoC5/ADC_GLV_V.c **** *
 183:Generated_Source\PSoC5/ADC_GLV_V.c **** *******************************************************************************/
 184:Generated_Source\PSoC5/ADC_GLV_V.c **** void ADC_GLV_V_Enable(void) 
 185:Generated_Source\PSoC5/ADC_GLV_V.c **** {
 186:Generated_Source\PSoC5/ADC_GLV_V.c **** 	uint8 config;
 187:Generated_Source\PSoC5/ADC_GLV_V.c ****     uint8 enableInterrupts;
 188:Generated_Source\PSoC5/ADC_GLV_V.c ****     enableInterrupts = CyEnterCriticalSection();
 189:Generated_Source\PSoC5/ADC_GLV_V.c **** 
 190:Generated_Source\PSoC5/ADC_GLV_V.c ****     /* Read volatile variable to the local variable */
 191:Generated_Source\PSoC5/ADC_GLV_V.c ****     config = ADC_GLV_V_Config;
 192:Generated_Source\PSoC5/ADC_GLV_V.c ****     
 193:Generated_Source\PSoC5/ADC_GLV_V.c ****     /* Enable active mode power for ADC */
 194:Generated_Source\PSoC5/ADC_GLV_V.c ****     ADC_GLV_V_PWRMGR_DEC_REG |= ADC_GLV_V_ACT_PWR_DEC_EN;
 195:Generated_Source\PSoC5/ADC_GLV_V.c ****     ADC_GLV_V_PWRMGR_DSM_REG |= ADC_GLV_V_ACT_PWR_DSM_EN;
 196:Generated_Source\PSoC5/ADC_GLV_V.c **** 
 197:Generated_Source\PSoC5/ADC_GLV_V.c ****      /* Enable alternative active mode power for ADC */
 198:Generated_Source\PSoC5/ADC_GLV_V.c ****     ADC_GLV_V_STBY_PWRMGR_DEC_REG |= ADC_GLV_V_STBY_PWR_DEC_EN;
 199:Generated_Source\PSoC5/ADC_GLV_V.c ****     ADC_GLV_V_STBY_PWRMGR_DSM_REG |= ADC_GLV_V_STBY_PWR_DSM_EN;
 200:Generated_Source\PSoC5/ADC_GLV_V.c **** 
 201:Generated_Source\PSoC5/ADC_GLV_V.c ****     /* Disable PRES, Enable power to VCMBUF0, REFBUF0 and REFBUF1, enable PRES */
 202:Generated_Source\PSoC5/ADC_GLV_V.c ****     ADC_GLV_V_RESET_CR4_REG |= ADC_GLV_V_IGNORE_PRESA1;
ARM GAS  C:\Users\ANDREY~1\AppData\Local\Temp\cc0akFQM.s 			page 5


 203:Generated_Source\PSoC5/ADC_GLV_V.c ****     ADC_GLV_V_RESET_CR5_REG |= ADC_GLV_V_IGNORE_PRESA2;
 204:Generated_Source\PSoC5/ADC_GLV_V.c **** 
 205:Generated_Source\PSoC5/ADC_GLV_V.c ****     ADC_GLV_V_DSM_CR17_REG |= (ADC_GLV_V_DSM_EN_BUF_VREF | ADC_GLV_V_DSM_EN_BUF_VCM);
 206:Generated_Source\PSoC5/ADC_GLV_V.c **** 
 207:Generated_Source\PSoC5/ADC_GLV_V.c ****     /* Code to disable the REFBUF0 if reference chosen is External ref */
 208:Generated_Source\PSoC5/ADC_GLV_V.c ****     #if (((ADC_GLV_V_CFG1_REFERENCE == ADC_GLV_V_EXT_REF_ON_P03) || \
 209:Generated_Source\PSoC5/ADC_GLV_V.c ****           (ADC_GLV_V_CFG1_REFERENCE == ADC_GLV_V_EXT_REF_ON_P32)) || \
 210:Generated_Source\PSoC5/ADC_GLV_V.c ****          ((ADC_GLV_V_DEFAULT_NUM_CONFIGS > 1) && \
 211:Generated_Source\PSoC5/ADC_GLV_V.c ****           ((ADC_GLV_V_CFG2_REFERENCE == ADC_GLV_V_EXT_REF_ON_P03) ||  \
 212:Generated_Source\PSoC5/ADC_GLV_V.c ****            (ADC_GLV_V_CFG2_REFERENCE == ADC_GLV_V_EXT_REF_ON_P32))) || \
 213:Generated_Source\PSoC5/ADC_GLV_V.c ****          ((ADC_GLV_V_DEFAULT_NUM_CONFIGS > 2) && \
 214:Generated_Source\PSoC5/ADC_GLV_V.c ****           ((ADC_GLV_V_CFG3_REFERENCE == ADC_GLV_V_EXT_REF_ON_P03) ||  \
 215:Generated_Source\PSoC5/ADC_GLV_V.c ****            (ADC_GLV_V_CFG3_REFERENCE == ADC_GLV_V_EXT_REF_ON_P32))) || \
 216:Generated_Source\PSoC5/ADC_GLV_V.c ****          ((ADC_GLV_V_DEFAULT_NUM_CONFIGS > 3) && \
 217:Generated_Source\PSoC5/ADC_GLV_V.c ****           ((ADC_GLV_V_CFG4_REFERENCE == ADC_GLV_V_EXT_REF_ON_P03) || \
 218:Generated_Source\PSoC5/ADC_GLV_V.c ****            (ADC_GLV_V_CFG4_REFERENCE == ADC_GLV_V_EXT_REF_ON_P32))))
 219:Generated_Source\PSoC5/ADC_GLV_V.c ****         if (((config == 1u) &&
 220:Generated_Source\PSoC5/ADC_GLV_V.c ****             ((ADC_GLV_V_CFG1_REFERENCE == ADC_GLV_V_EXT_REF_ON_P03) ||
 221:Generated_Source\PSoC5/ADC_GLV_V.c ****              (ADC_GLV_V_CFG1_REFERENCE == ADC_GLV_V_EXT_REF_ON_P32))) ||
 222:Generated_Source\PSoC5/ADC_GLV_V.c ****             ((config == 2u) &&
 223:Generated_Source\PSoC5/ADC_GLV_V.c ****             ((ADC_GLV_V_CFG2_REFERENCE == ADC_GLV_V_EXT_REF_ON_P03) ||
 224:Generated_Source\PSoC5/ADC_GLV_V.c ****              (ADC_GLV_V_CFG2_REFERENCE == ADC_GLV_V_EXT_REF_ON_P32))) ||
 225:Generated_Source\PSoC5/ADC_GLV_V.c ****             ((config == 3u) &&
 226:Generated_Source\PSoC5/ADC_GLV_V.c ****             ((ADC_GLV_V_CFG3_REFERENCE == ADC_GLV_V_EXT_REF_ON_P03) ||
 227:Generated_Source\PSoC5/ADC_GLV_V.c ****              (ADC_GLV_V_CFG3_REFERENCE == ADC_GLV_V_EXT_REF_ON_P32))) ||
 228:Generated_Source\PSoC5/ADC_GLV_V.c ****             ((config == 4u) &&
 229:Generated_Source\PSoC5/ADC_GLV_V.c ****             ((ADC_GLV_V_CFG4_REFERENCE == ADC_GLV_V_EXT_REF_ON_P03) ||
 230:Generated_Source\PSoC5/ADC_GLV_V.c ****              (ADC_GLV_V_CFG4_REFERENCE == ADC_GLV_V_EXT_REF_ON_P32))))
 231:Generated_Source\PSoC5/ADC_GLV_V.c ****         {
 232:Generated_Source\PSoC5/ADC_GLV_V.c ****             /* Disable the REFBUF0 */
 233:Generated_Source\PSoC5/ADC_GLV_V.c ****             ADC_GLV_V_DSM_CR17_REG &= (uint8)~ADC_GLV_V_DSM_EN_BUF_VREF;
 234:Generated_Source\PSoC5/ADC_GLV_V.c ****         }
 235:Generated_Source\PSoC5/ADC_GLV_V.c ****     #endif /* External ref */
 236:Generated_Source\PSoC5/ADC_GLV_V.c **** 
 237:Generated_Source\PSoC5/ADC_GLV_V.c ****     #if (((ADC_GLV_V_CFG1_INPUT_RANGE == ADC_GLV_V_IR_VSSA_TO_2VREF) || \
 238:Generated_Source\PSoC5/ADC_GLV_V.c ****          ((ADC_GLV_V_DEFAULT_NUM_CONFIGS > 1) && \
 239:Generated_Source\PSoC5/ADC_GLV_V.c ****           (ADC_GLV_V_CFG2_INPUT_RANGE == ADC_GLV_V_IR_VSSA_TO_2VREF)) || \
 240:Generated_Source\PSoC5/ADC_GLV_V.c ****          ((ADC_GLV_V_DEFAULT_NUM_CONFIGS > 2) && \
 241:Generated_Source\PSoC5/ADC_GLV_V.c ****           (ADC_GLV_V_CFG3_INPUT_RANGE == ADC_GLV_V_IR_VSSA_TO_2VREF)) || \
 242:Generated_Source\PSoC5/ADC_GLV_V.c ****          ((ADC_GLV_V_DEFAULT_NUM_CONFIGS > 3) && \
 243:Generated_Source\PSoC5/ADC_GLV_V.c ****           (ADC_GLV_V_CFG4_INPUT_RANGE == ADC_GLV_V_IR_VSSA_TO_2VREF))))
 244:Generated_Source\PSoC5/ADC_GLV_V.c ****         if(((config == 1u) &&
 245:Generated_Source\PSoC5/ADC_GLV_V.c ****             (ADC_GLV_V_CFG1_INPUT_RANGE == ADC_GLV_V_IR_VSSA_TO_2VREF) &&
 246:Generated_Source\PSoC5/ADC_GLV_V.c ****             ((ADC_GLV_V_CFG1_REFERENCE != ADC_GLV_V_EXT_REF_ON_P03) &&
 247:Generated_Source\PSoC5/ADC_GLV_V.c ****              (ADC_GLV_V_CFG1_REFERENCE != ADC_GLV_V_EXT_REF_ON_P32))) ||
 248:Generated_Source\PSoC5/ADC_GLV_V.c ****              ((config == 2u) &&
 249:Generated_Source\PSoC5/ADC_GLV_V.c ****               (ADC_GLV_V_CFG2_INPUT_RANGE == ADC_GLV_V_IR_VSSA_TO_2VREF) &&
 250:Generated_Source\PSoC5/ADC_GLV_V.c ****              ((ADC_GLV_V_CFG2_REFERENCE != ADC_GLV_V_EXT_REF_ON_P03) &&
 251:Generated_Source\PSoC5/ADC_GLV_V.c ****              (ADC_GLV_V_CFG2_REFERENCE != ADC_GLV_V_EXT_REF_ON_P32))) ||
 252:Generated_Source\PSoC5/ADC_GLV_V.c ****              ((config == 3u) &&
 253:Generated_Source\PSoC5/ADC_GLV_V.c ****               (ADC_GLV_V_CFG3_INPUT_RANGE == ADC_GLV_V_IR_VSSA_TO_2VREF) &&
 254:Generated_Source\PSoC5/ADC_GLV_V.c ****              ((ADC_GLV_V_CFG3_REFERENCE != ADC_GLV_V_EXT_REF_ON_P03) &&
 255:Generated_Source\PSoC5/ADC_GLV_V.c ****              (ADC_GLV_V_CFG3_REFERENCE != ADC_GLV_V_EXT_REF_ON_P32))) ||
 256:Generated_Source\PSoC5/ADC_GLV_V.c ****              ((config == 4u) &&
 257:Generated_Source\PSoC5/ADC_GLV_V.c ****               (ADC_GLV_V_CFG4_INPUT_RANGE == ADC_GLV_V_IR_VSSA_TO_2VREF) &&
 258:Generated_Source\PSoC5/ADC_GLV_V.c ****              ((ADC_GLV_V_CFG4_REFERENCE != ADC_GLV_V_EXT_REF_ON_P03) &&
 259:Generated_Source\PSoC5/ADC_GLV_V.c ****              (ADC_GLV_V_CFG4_REFERENCE != ADC_GLV_V_EXT_REF_ON_P32))))
ARM GAS  C:\Users\ANDREY~1\AppData\Local\Temp\cc0akFQM.s 			page 6


 260:Generated_Source\PSoC5/ADC_GLV_V.c ****         {
 261:Generated_Source\PSoC5/ADC_GLV_V.c ****             /* Enable the REFBUF1 */
 262:Generated_Source\PSoC5/ADC_GLV_V.c ****             ADC_GLV_V_DSM_REF0_REG |= ADC_GLV_V_DSM_EN_BUF_VREF_INN;
 263:Generated_Source\PSoC5/ADC_GLV_V.c ****         }
 264:Generated_Source\PSoC5/ADC_GLV_V.c ****     #endif /* VSSA_TO_2VREF */
 265:Generated_Source\PSoC5/ADC_GLV_V.c ****     if(config != 0u)
 266:Generated_Source\PSoC5/ADC_GLV_V.c ****     {
 267:Generated_Source\PSoC5/ADC_GLV_V.c ****         /* Suppress compiler warning */
 268:Generated_Source\PSoC5/ADC_GLV_V.c ****     }
 269:Generated_Source\PSoC5/ADC_GLV_V.c **** 
 270:Generated_Source\PSoC5/ADC_GLV_V.c ****     /* Wait for 3 microseconds */
 271:Generated_Source\PSoC5/ADC_GLV_V.c ****     CyDelayUs(ADC_GLV_V_PRES_DELAY_TIME);
 272:Generated_Source\PSoC5/ADC_GLV_V.c **** 
 273:Generated_Source\PSoC5/ADC_GLV_V.c ****     /* Enable the press circuit */
 274:Generated_Source\PSoC5/ADC_GLV_V.c ****     ADC_GLV_V_RESET_CR4_REG &= (uint8)~ADC_GLV_V_IGNORE_PRESA1;
 275:Generated_Source\PSoC5/ADC_GLV_V.c ****     ADC_GLV_V_RESET_CR5_REG &= (uint8)~ADC_GLV_V_IGNORE_PRESA2;
 276:Generated_Source\PSoC5/ADC_GLV_V.c **** 
 277:Generated_Source\PSoC5/ADC_GLV_V.c ****     /* Enable negative pumps for DSM  */
 278:Generated_Source\PSoC5/ADC_GLV_V.c ****     ADC_GLV_V_PUMP_CR1_REG  |= ( ADC_GLV_V_PUMP_CR1_CLKSEL | ADC_GLV_V_PUMP_CR1_FORCE );
 279:Generated_Source\PSoC5/ADC_GLV_V.c **** 
 280:Generated_Source\PSoC5/ADC_GLV_V.c ****     /* Enable Modulator Chopping if required */
 281:Generated_Source\PSoC5/ADC_GLV_V.c ****     ADC_GLV_V_DSM_CR2_REG = ADC_GLV_V_CFG1_DSM_CR2;
 282:Generated_Source\PSoC5/ADC_GLV_V.c **** 
 283:Generated_Source\PSoC5/ADC_GLV_V.c ****     /* This is only valid if there is an internal clock */
 284:Generated_Source\PSoC5/ADC_GLV_V.c ****     #if(ADC_GLV_V_DEFAULT_INTERNAL_CLK)
 285:Generated_Source\PSoC5/ADC_GLV_V.c ****         ADC_GLV_V_PWRMGR_CLK_REG |= ADC_GLV_V_ACT_PWR_CLK_EN;
 286:Generated_Source\PSoC5/ADC_GLV_V.c ****         ADC_GLV_V_STBY_PWRMGR_CLK_REG |= ADC_GLV_V_STBY_PWR_CLK_EN;
 287:Generated_Source\PSoC5/ADC_GLV_V.c ****     #endif /* ADC_GLV_V_DEFAULT_INTERNAL_CLK */
 288:Generated_Source\PSoC5/ADC_GLV_V.c **** 
 289:Generated_Source\PSoC5/ADC_GLV_V.c ****     /* Enable the active and alternate active power for charge pump clock */
 290:Generated_Source\PSoC5/ADC_GLV_V.c ****     ADC_GLV_V_PWRMGR_CHARGE_PUMP_CLK_REG |= ADC_GLV_V_ACT_PWR_CHARGE_PUMP_CLK_EN;
 291:Generated_Source\PSoC5/ADC_GLV_V.c ****     ADC_GLV_V_STBY_PWRMGR_CHARGE_PUMP_CLK_REG |= ADC_GLV_V_STBY_PWR_CHARGE_PUMP_CLK_EN;
 292:Generated_Source\PSoC5/ADC_GLV_V.c **** 
 293:Generated_Source\PSoC5/ADC_GLV_V.c ****     #if(ADC_GLV_V_IRQ_REMOVE == 0u)
 294:Generated_Source\PSoC5/ADC_GLV_V.c ****         /* Clear a pending interrupt */
 295:Generated_Source\PSoC5/ADC_GLV_V.c ****         CyIntClearPending(ADC_GLV_V_INTC_NUMBER);
 296:Generated_Source\PSoC5/ADC_GLV_V.c ****         /* Enable interrupt */
 297:Generated_Source\PSoC5/ADC_GLV_V.c ****         CyIntEnable(ADC_GLV_V_INTC_NUMBER);
 298:Generated_Source\PSoC5/ADC_GLV_V.c ****     #endif   /* End ADC_GLV_V_IRQ_REMOVE */
 299:Generated_Source\PSoC5/ADC_GLV_V.c **** 
 300:Generated_Source\PSoC5/ADC_GLV_V.c ****     CyExitCriticalSection(enableInterrupts);
 301:Generated_Source\PSoC5/ADC_GLV_V.c **** 
 302:Generated_Source\PSoC5/ADC_GLV_V.c **** }
 303:Generated_Source\PSoC5/ADC_GLV_V.c **** 
 304:Generated_Source\PSoC5/ADC_GLV_V.c **** 
 305:Generated_Source\PSoC5/ADC_GLV_V.c **** /*******************************************************************************
 306:Generated_Source\PSoC5/ADC_GLV_V.c **** * Function Name: ADC_GLV_V_Start
 307:Generated_Source\PSoC5/ADC_GLV_V.c **** ********************************************************************************
 308:Generated_Source\PSoC5/ADC_GLV_V.c **** *
 309:Generated_Source\PSoC5/ADC_GLV_V.c **** * Summary:
 310:Generated_Source\PSoC5/ADC_GLV_V.c **** *  Performs all required initialization for this component and enables
 311:Generated_Source\PSoC5/ADC_GLV_V.c **** *  the power. It configure all the register the first time it is called.
 312:Generated_Source\PSoC5/ADC_GLV_V.c **** *  Subsequent calls of the Start function only enable the ADC and turn
 313:Generated_Source\PSoC5/ADC_GLV_V.c **** *  on the power. If multiple configurations are selected, it will
 314:Generated_Source\PSoC5/ADC_GLV_V.c **** *  configure the ADC for configuration 1 by default, unless the
 315:Generated_Source\PSoC5/ADC_GLV_V.c **** *  ADC_GLV_V_SelectConfiguration( ) function has been called to change
 316:Generated_Source\PSoC5/ADC_GLV_V.c **** *  the default setting.
ARM GAS  C:\Users\ANDREY~1\AppData\Local\Temp\cc0akFQM.s 			page 7


 317:Generated_Source\PSoC5/ADC_GLV_V.c **** *
 318:Generated_Source\PSoC5/ADC_GLV_V.c **** * Parameters:
 319:Generated_Source\PSoC5/ADC_GLV_V.c **** *  None
 320:Generated_Source\PSoC5/ADC_GLV_V.c **** *
 321:Generated_Source\PSoC5/ADC_GLV_V.c **** * Return:
 322:Generated_Source\PSoC5/ADC_GLV_V.c **** *  None
 323:Generated_Source\PSoC5/ADC_GLV_V.c **** *
 324:Generated_Source\PSoC5/ADC_GLV_V.c **** * Global variables:
 325:Generated_Source\PSoC5/ADC_GLV_V.c **** *  ADC_GLV_V_initVar:  Used to check the initial configuration,
 326:Generated_Source\PSoC5/ADC_GLV_V.c **** *  modified when this function is called for the first time.
 327:Generated_Source\PSoC5/ADC_GLV_V.c **** *
 328:Generated_Source\PSoC5/ADC_GLV_V.c **** *******************************************************************************/
 329:Generated_Source\PSoC5/ADC_GLV_V.c **** void ADC_GLV_V_Start(void) 
 330:Generated_Source\PSoC5/ADC_GLV_V.c **** {
 331:Generated_Source\PSoC5/ADC_GLV_V.c ****     if(ADC_GLV_V_initVar == 0u)
 332:Generated_Source\PSoC5/ADC_GLV_V.c ****     {
 333:Generated_Source\PSoC5/ADC_GLV_V.c ****         if(ADC_GLV_V_started == 0u)
 334:Generated_Source\PSoC5/ADC_GLV_V.c ****         {
 335:Generated_Source\PSoC5/ADC_GLV_V.c ****             ADC_GLV_V_Init();
 336:Generated_Source\PSoC5/ADC_GLV_V.c ****         }
 337:Generated_Source\PSoC5/ADC_GLV_V.c ****         ADC_GLV_V_initVar = 1u;
 338:Generated_Source\PSoC5/ADC_GLV_V.c ****     }
 339:Generated_Source\PSoC5/ADC_GLV_V.c **** 
 340:Generated_Source\PSoC5/ADC_GLV_V.c ****     /* Enable the ADC */
 341:Generated_Source\PSoC5/ADC_GLV_V.c ****     ADC_GLV_V_Enable();
 342:Generated_Source\PSoC5/ADC_GLV_V.c **** }
 343:Generated_Source\PSoC5/ADC_GLV_V.c **** 
 344:Generated_Source\PSoC5/ADC_GLV_V.c **** 
 345:Generated_Source\PSoC5/ADC_GLV_V.c **** /*******************************************************************************
 346:Generated_Source\PSoC5/ADC_GLV_V.c **** * Function Name: ADC_GLV_V_Stop
 347:Generated_Source\PSoC5/ADC_GLV_V.c **** ********************************************************************************
 348:Generated_Source\PSoC5/ADC_GLV_V.c **** *
 349:Generated_Source\PSoC5/ADC_GLV_V.c **** * Summary:
 350:Generated_Source\PSoC5/ADC_GLV_V.c **** *  This function stops and powers down the ADC component and the internal
 351:Generated_Source\PSoC5/ADC_GLV_V.c **** *  clock if the external clock is not selected. If an external clock is
 352:Generated_Source\PSoC5/ADC_GLV_V.c **** *  used, it is up to the designer to power down the external clock it
 353:Generated_Source\PSoC5/ADC_GLV_V.c **** *  required.
 354:Generated_Source\PSoC5/ADC_GLV_V.c **** *
 355:Generated_Source\PSoC5/ADC_GLV_V.c **** * Parameters:
 356:Generated_Source\PSoC5/ADC_GLV_V.c **** *  None
 357:Generated_Source\PSoC5/ADC_GLV_V.c **** *
 358:Generated_Source\PSoC5/ADC_GLV_V.c **** * Return:
 359:Generated_Source\PSoC5/ADC_GLV_V.c **** *  None
 360:Generated_Source\PSoC5/ADC_GLV_V.c **** *
 361:Generated_Source\PSoC5/ADC_GLV_V.c **** *******************************************************************************/
 362:Generated_Source\PSoC5/ADC_GLV_V.c **** void ADC_GLV_V_Stop(void) 
 363:Generated_Source\PSoC5/ADC_GLV_V.c **** {
 364:Generated_Source\PSoC5/ADC_GLV_V.c ****     uint8 enableInterrupts;
 365:Generated_Source\PSoC5/ADC_GLV_V.c ****     enableInterrupts = CyEnterCriticalSection();
 366:Generated_Source\PSoC5/ADC_GLV_V.c **** 
 367:Generated_Source\PSoC5/ADC_GLV_V.c ****     /* Stop conversions */
 368:Generated_Source\PSoC5/ADC_GLV_V.c ****     ADC_GLV_V_DEC_CR_REG &= (uint8)~ADC_GLV_V_DEC_START_CONV;
 369:Generated_Source\PSoC5/ADC_GLV_V.c ****     ADC_GLV_V_DEC_SR_REG |=  ADC_GLV_V_DEC_INTR_CLEAR;
 370:Generated_Source\PSoC5/ADC_GLV_V.c **** 
 371:Generated_Source\PSoC5/ADC_GLV_V.c ****     /* Disable PRES, Disable power to VCMBUF0, REFBUF0 and REFBUF1,
 372:Generated_Source\PSoC5/ADC_GLV_V.c ****        enable PRES */
 373:Generated_Source\PSoC5/ADC_GLV_V.c ****     ADC_GLV_V_RESET_CR4_REG |= ADC_GLV_V_IGNORE_PRESA1;
ARM GAS  C:\Users\ANDREY~1\AppData\Local\Temp\cc0akFQM.s 			page 8


 374:Generated_Source\PSoC5/ADC_GLV_V.c ****     ADC_GLV_V_RESET_CR5_REG |= ADC_GLV_V_IGNORE_PRESA2;
 375:Generated_Source\PSoC5/ADC_GLV_V.c **** 
 376:Generated_Source\PSoC5/ADC_GLV_V.c ****     ADC_GLV_V_DSM_CR17_REG &= (uint8)~(ADC_GLV_V_DSM_EN_BUF_VREF | ADC_GLV_V_DSM_EN_BUF_VCM);
 377:Generated_Source\PSoC5/ADC_GLV_V.c ****     ADC_GLV_V_DSM_REF0_REG &= (uint8)~ADC_GLV_V_DSM_EN_BUF_VREF_INN;
 378:Generated_Source\PSoC5/ADC_GLV_V.c **** 
 379:Generated_Source\PSoC5/ADC_GLV_V.c ****     /* Wait for 3 microseconds. */
 380:Generated_Source\PSoC5/ADC_GLV_V.c ****     CyDelayUs(ADC_GLV_V_PRES_DELAY_TIME);
 381:Generated_Source\PSoC5/ADC_GLV_V.c **** 
 382:Generated_Source\PSoC5/ADC_GLV_V.c ****     /* Enable the press circuit */
 383:Generated_Source\PSoC5/ADC_GLV_V.c ****     ADC_GLV_V_RESET_CR4_REG &= (uint8)~ADC_GLV_V_IGNORE_PRESA1;
 384:Generated_Source\PSoC5/ADC_GLV_V.c ****     ADC_GLV_V_RESET_CR5_REG &= (uint8)~ADC_GLV_V_IGNORE_PRESA2;
 385:Generated_Source\PSoC5/ADC_GLV_V.c **** 
 386:Generated_Source\PSoC5/ADC_GLV_V.c ****     /* Disable power to the ADC */
 387:Generated_Source\PSoC5/ADC_GLV_V.c ****     ADC_GLV_V_PWRMGR_DSM_REG &= (uint8)~ADC_GLV_V_ACT_PWR_DSM_EN;
 388:Generated_Source\PSoC5/ADC_GLV_V.c **** 
 389:Generated_Source\PSoC5/ADC_GLV_V.c ****     /* Disable power to Decimator block */
 390:Generated_Source\PSoC5/ADC_GLV_V.c ****     ADC_GLV_V_PWRMGR_DEC_REG &= (uint8)~ADC_GLV_V_ACT_PWR_DEC_EN;
 391:Generated_Source\PSoC5/ADC_GLV_V.c **** 
 392:Generated_Source\PSoC5/ADC_GLV_V.c ****     /* Disable alternative active power to the ADC */
 393:Generated_Source\PSoC5/ADC_GLV_V.c ****     ADC_GLV_V_STBY_PWRMGR_DEC_REG &= (uint8)~ADC_GLV_V_STBY_PWR_DEC_EN;
 394:Generated_Source\PSoC5/ADC_GLV_V.c ****     ADC_GLV_V_STBY_PWRMGR_DSM_REG &= (uint8)~ADC_GLV_V_STBY_PWR_DSM_EN;
 395:Generated_Source\PSoC5/ADC_GLV_V.c **** 
 396:Generated_Source\PSoC5/ADC_GLV_V.c ****    /* Disable negative pumps for DSM  */
 397:Generated_Source\PSoC5/ADC_GLV_V.c ****     ADC_GLV_V_PUMP_CR1_REG &= (uint8)~(ADC_GLV_V_PUMP_CR1_CLKSEL | ADC_GLV_V_PUMP_CR1_FORCE );
 398:Generated_Source\PSoC5/ADC_GLV_V.c **** 
 399:Generated_Source\PSoC5/ADC_GLV_V.c ****     /* This is only valid if there is an internal clock */
 400:Generated_Source\PSoC5/ADC_GLV_V.c ****     #if(ADC_GLV_V_DEFAULT_INTERNAL_CLK)
 401:Generated_Source\PSoC5/ADC_GLV_V.c ****         ADC_GLV_V_PWRMGR_CLK_REG &= (uint8)~ADC_GLV_V_ACT_PWR_CLK_EN;
 402:Generated_Source\PSoC5/ADC_GLV_V.c ****         ADC_GLV_V_STBY_PWRMGR_CLK_REG &= (uint8)~ADC_GLV_V_STBY_PWR_CLK_EN;
 403:Generated_Source\PSoC5/ADC_GLV_V.c ****     #endif /* ADC_GLV_V_DEFAULT_INTERNAL_CLK */
 404:Generated_Source\PSoC5/ADC_GLV_V.c **** 
 405:Generated_Source\PSoC5/ADC_GLV_V.c ****     /* Disable Modulator Chopping */
 406:Generated_Source\PSoC5/ADC_GLV_V.c ****     ADC_GLV_V_DSM_CR2_REG &= (uint8)~ADC_GLV_V_DSM_MOD_CHOP_EN;
 407:Generated_Source\PSoC5/ADC_GLV_V.c ****     /* Disable power to charge pump clock */
 408:Generated_Source\PSoC5/ADC_GLV_V.c ****     ADC_GLV_V_PWRMGR_CHARGE_PUMP_CLK_REG &= (uint8)~ADC_GLV_V_ACT_PWR_CHARGE_PUMP_CLK_EN;
 409:Generated_Source\PSoC5/ADC_GLV_V.c ****     ADC_GLV_V_STBY_PWRMGR_CHARGE_PUMP_CLK_REG &= (uint8)~ADC_GLV_V_STBY_PWR_CHARGE_PUMP_CLK_EN;
 410:Generated_Source\PSoC5/ADC_GLV_V.c ****     
 411:Generated_Source\PSoC5/ADC_GLV_V.c ****     CyExitCriticalSection(enableInterrupts);
 412:Generated_Source\PSoC5/ADC_GLV_V.c **** }
 413:Generated_Source\PSoC5/ADC_GLV_V.c **** 
 414:Generated_Source\PSoC5/ADC_GLV_V.c **** 
 415:Generated_Source\PSoC5/ADC_GLV_V.c **** /*******************************************************************************
 416:Generated_Source\PSoC5/ADC_GLV_V.c **** * Function Name: ADC_GLV_V_SetBufferGain
 417:Generated_Source\PSoC5/ADC_GLV_V.c **** ********************************************************************************
 418:Generated_Source\PSoC5/ADC_GLV_V.c **** *
 419:Generated_Source\PSoC5/ADC_GLV_V.c **** * Summary:
 420:Generated_Source\PSoC5/ADC_GLV_V.c **** *  Sets input buffer gain.
 421:Generated_Source\PSoC5/ADC_GLV_V.c **** *
 422:Generated_Source\PSoC5/ADC_GLV_V.c **** * Parameters:
 423:Generated_Source\PSoC5/ADC_GLV_V.c **** *  gain:  Two bit value to select a gain of 1, 2, 4, or 8.
 424:Generated_Source\PSoC5/ADC_GLV_V.c **** *
 425:Generated_Source\PSoC5/ADC_GLV_V.c **** * Return:
 426:Generated_Source\PSoC5/ADC_GLV_V.c **** *  None
 427:Generated_Source\PSoC5/ADC_GLV_V.c **** *
 428:Generated_Source\PSoC5/ADC_GLV_V.c **** *******************************************************************************/
 429:Generated_Source\PSoC5/ADC_GLV_V.c **** void ADC_GLV_V_SetBufferGain(uint8 gain) 
 430:Generated_Source\PSoC5/ADC_GLV_V.c **** {
ARM GAS  C:\Users\ANDREY~1\AppData\Local\Temp\cc0akFQM.s 			page 9


 431:Generated_Source\PSoC5/ADC_GLV_V.c ****     uint8 tmpReg;
 432:Generated_Source\PSoC5/ADC_GLV_V.c ****     tmpReg = ADC_GLV_V_DSM_BUF1_REG & (uint8)~ADC_GLV_V_DSM_GAIN_MASK;
 433:Generated_Source\PSoC5/ADC_GLV_V.c ****     tmpReg |= (uint8)(gain << ADC_GLV_V_DSM_GAIN_SHIFT) & ADC_GLV_V_DSM_GAIN_MASK;
 434:Generated_Source\PSoC5/ADC_GLV_V.c ****     ADC_GLV_V_DSM_BUF1_REG = tmpReg;
 435:Generated_Source\PSoC5/ADC_GLV_V.c **** }
 436:Generated_Source\PSoC5/ADC_GLV_V.c **** 
 437:Generated_Source\PSoC5/ADC_GLV_V.c **** 
 438:Generated_Source\PSoC5/ADC_GLV_V.c **** /*******************************************************************************
 439:Generated_Source\PSoC5/ADC_GLV_V.c **** * Function Name: ADC_GLV_V_SetCoherency
 440:Generated_Source\PSoC5/ADC_GLV_V.c **** ********************************************************************************
 441:Generated_Source\PSoC5/ADC_GLV_V.c **** *
 442:Generated_Source\PSoC5/ADC_GLV_V.c **** * Summary:
 443:Generated_Source\PSoC5/ADC_GLV_V.c **** *  This function allows the user to change which of the ADC's 3 word
 444:Generated_Source\PSoC5/ADC_GLV_V.c **** *  result will trigger a coherency unlock. The ADC's result will not be
 445:Generated_Source\PSoC5/ADC_GLV_V.c **** *  updated until the set byte is read either by the ADC or DMA. 
 446:Generated_Source\PSoC5/ADC_GLV_V.c **** *  By default the LSB is the coherency byte for right alignment data format. 
 447:Generated_Source\PSoC5/ADC_GLV_V.c **** *  The middle or high byte is set automatically depend on left alignment 
 448:Generated_Source\PSoC5/ADC_GLV_V.c **** *  configuration for DMA data transfer.
 449:Generated_Source\PSoC5/ADC_GLV_V.c **** *  If DMA or if a custom API requires different byte to be read the last,
 450:Generated_Source\PSoC5/ADC_GLV_V.c **** *  this API should be used to set the last byte of the ADC result that is read. 
 451:Generated_Source\PSoC5/ADC_GLV_V.c **** *  If a multibyte read is performed either by DMA or the ARM processor, the
 452:Generated_Source\PSoC5/ADC_GLV_V.c **** *  coherency can be set to any byte in the last word read.
 453:Generated_Source\PSoC5/ADC_GLV_V.c **** *
 454:Generated_Source\PSoC5/ADC_GLV_V.c **** * Parameters:
 455:Generated_Source\PSoC5/ADC_GLV_V.c **** *  coherency:  Two bit value to set the coherency bit.
 456:Generated_Source\PSoC5/ADC_GLV_V.c **** *           00-Coherency checking off
 457:Generated_Source\PSoC5/ADC_GLV_V.c **** *           01-low byte is key byte
 458:Generated_Source\PSoC5/ADC_GLV_V.c **** *           02-middle byte is the key byte
 459:Generated_Source\PSoC5/ADC_GLV_V.c **** *           03-high byte is the key byte
 460:Generated_Source\PSoC5/ADC_GLV_V.c **** *
 461:Generated_Source\PSoC5/ADC_GLV_V.c **** * Return:
 462:Generated_Source\PSoC5/ADC_GLV_V.c **** *  None
 463:Generated_Source\PSoC5/ADC_GLV_V.c **** *
 464:Generated_Source\PSoC5/ADC_GLV_V.c **** *******************************************************************************/
 465:Generated_Source\PSoC5/ADC_GLV_V.c **** void ADC_GLV_V_SetCoherency(uint8 coherency) 
 466:Generated_Source\PSoC5/ADC_GLV_V.c **** {
 467:Generated_Source\PSoC5/ADC_GLV_V.c ****     uint8 tmpReg;
 468:Generated_Source\PSoC5/ADC_GLV_V.c **** 
 469:Generated_Source\PSoC5/ADC_GLV_V.c ****     tmpReg = ADC_GLV_V_DEC_COHER_REG & (uint8)~ADC_GLV_V_DEC_SAMP_KEY_MASK;
 470:Generated_Source\PSoC5/ADC_GLV_V.c ****     tmpReg |= coherency & ADC_GLV_V_DEC_SAMP_KEY_MASK;
 471:Generated_Source\PSoC5/ADC_GLV_V.c ****     ADC_GLV_V_DEC_COHER_REG = tmpReg;
 472:Generated_Source\PSoC5/ADC_GLV_V.c **** }
 473:Generated_Source\PSoC5/ADC_GLV_V.c **** 
 474:Generated_Source\PSoC5/ADC_GLV_V.c **** 
 475:Generated_Source\PSoC5/ADC_GLV_V.c **** /*******************************************************************************
 476:Generated_Source\PSoC5/ADC_GLV_V.c **** * Function Name: ADC_GLV_V_SetGCOR
 477:Generated_Source\PSoC5/ADC_GLV_V.c **** ********************************************************************************
 478:Generated_Source\PSoC5/ADC_GLV_V.c **** *
 479:Generated_Source\PSoC5/ADC_GLV_V.c **** * Summary:
 480:Generated_Source\PSoC5/ADC_GLV_V.c **** *  Calculates a new GCOR value and writes it into the GCOR register. 
 481:Generated_Source\PSoC5/ADC_GLV_V.c **** *  The GCOR value is a 16-bit value that represents a gain of 0 to 2. 
 482:Generated_Source\PSoC5/ADC_GLV_V.c **** *  The ADC result is multiplied by this value before it is placed in the ADC 
 483:Generated_Source\PSoC5/ADC_GLV_V.c **** *  output registers. The numerical format for the GCOR value is:
 484:Generated_Source\PSoC5/ADC_GLV_V.c **** *  0x0000 -> 0.000
 485:Generated_Source\PSoC5/ADC_GLV_V.c **** *  0x8000 -> 1.000
 486:Generated_Source\PSoC5/ADC_GLV_V.c **** *  0xFFFF -> 1.99997
 487:Generated_Source\PSoC5/ADC_GLV_V.c **** *  When executing the function, the old GCOR value is multiplied by
ARM GAS  C:\Users\ANDREY~1\AppData\Local\Temp\cc0akFQM.s 			page 10


 488:Generated_Source\PSoC5/ADC_GLV_V.c **** *  gainAdjust and reloaded into the GCOR register.
 489:Generated_Source\PSoC5/ADC_GLV_V.c **** *
 490:Generated_Source\PSoC5/ADC_GLV_V.c **** * Parameters:
 491:Generated_Source\PSoC5/ADC_GLV_V.c **** *  gainAdjust:  floating point value to set GCOR registers.
 492:Generated_Source\PSoC5/ADC_GLV_V.c **** *
 493:Generated_Source\PSoC5/ADC_GLV_V.c **** * Return:
 494:Generated_Source\PSoC5/ADC_GLV_V.c **** *  uint8: 0 - if GCOR value is within the expected range.
 495:Generated_Source\PSoC5/ADC_GLV_V.c **** *         1 - the correction value is outside GCOR value range of
 496:Generated_Source\PSoC5/ADC_GLV_V.c **** *             0.00 to 1.9999.
 497:Generated_Source\PSoC5/ADC_GLV_V.c **** *
 498:Generated_Source\PSoC5/ADC_GLV_V.c **** * Side Effects:  The GVAL register is set to the amount of valid bits in the
 499:Generated_Source\PSoC5/ADC_GLV_V.c **** *                GCOR  register minus one. If GVAL is 15 (0x0F), all 16 bits
 500:Generated_Source\PSoC5/ADC_GLV_V.c **** *                of the GCOR registers will be valid. If for example GVAL is
 501:Generated_Source\PSoC5/ADC_GLV_V.c **** *                11 (0x0B) only 12 bits will be valid. The least 4 bits will
 502:Generated_Source\PSoC5/ADC_GLV_V.c **** *                be lost when the GCOR value is shifted 4 places to the right.
 503:Generated_Source\PSoC5/ADC_GLV_V.c **** *
 504:Generated_Source\PSoC5/ADC_GLV_V.c **** ******************************************************************************/
 505:Generated_Source\PSoC5/ADC_GLV_V.c **** uint8 ADC_GLV_V_SetGCOR(float32 gainAdjust) 
 506:Generated_Source\PSoC5/ADC_GLV_V.c **** {
 507:Generated_Source\PSoC5/ADC_GLV_V.c ****     uint16 tmpReg;
 508:Generated_Source\PSoC5/ADC_GLV_V.c ****     uint8 status;
 509:Generated_Source\PSoC5/ADC_GLV_V.c ****     float32 tmpValue;
 510:Generated_Source\PSoC5/ADC_GLV_V.c **** 
 511:Generated_Source\PSoC5/ADC_GLV_V.c ****     tmpReg = ADC_GLV_V_gcor[ADC_GLV_V_Config - 1u].gcor;
 512:Generated_Source\PSoC5/ADC_GLV_V.c ****     tmpValue = ((float32)tmpReg / (float32)ADC_GLV_V_IDEAL_GAIN_CONST);
 513:Generated_Source\PSoC5/ADC_GLV_V.c ****     tmpValue = tmpValue * gainAdjust;
 514:Generated_Source\PSoC5/ADC_GLV_V.c **** 
 515:Generated_Source\PSoC5/ADC_GLV_V.c ****     if (tmpValue > 1.9999)
 516:Generated_Source\PSoC5/ADC_GLV_V.c ****     {
 517:Generated_Source\PSoC5/ADC_GLV_V.c ****         status = 1u;
 518:Generated_Source\PSoC5/ADC_GLV_V.c ****     }
 519:Generated_Source\PSoC5/ADC_GLV_V.c ****     else
 520:Generated_Source\PSoC5/ADC_GLV_V.c ****     {
 521:Generated_Source\PSoC5/ADC_GLV_V.c ****         tmpValue *= (float32)ADC_GLV_V_IDEAL_GAIN_CONST;
 522:Generated_Source\PSoC5/ADC_GLV_V.c **** 		tmpReg = (uint16)tmpValue;
 523:Generated_Source\PSoC5/ADC_GLV_V.c ****         CY_SET_REG16(ADC_GLV_V_DEC_GCOR_16B_PTR, tmpReg);
 524:Generated_Source\PSoC5/ADC_GLV_V.c ****         /* Update gain array to be used by SelectConfiguration() API */
 525:Generated_Source\PSoC5/ADC_GLV_V.c ****        ADC_GLV_V_gcor[ADC_GLV_V_Config - 1u].gcor = tmpReg;
 526:Generated_Source\PSoC5/ADC_GLV_V.c **** 
 527:Generated_Source\PSoC5/ADC_GLV_V.c ****         status = 0u;
 528:Generated_Source\PSoC5/ADC_GLV_V.c **** 
 529:Generated_Source\PSoC5/ADC_GLV_V.c ****     }
 530:Generated_Source\PSoC5/ADC_GLV_V.c ****     return(status);
 531:Generated_Source\PSoC5/ADC_GLV_V.c **** }
 532:Generated_Source\PSoC5/ADC_GLV_V.c **** 
 533:Generated_Source\PSoC5/ADC_GLV_V.c **** 
 534:Generated_Source\PSoC5/ADC_GLV_V.c **** /******************************************************************************
 535:Generated_Source\PSoC5/ADC_GLV_V.c **** * Function Name: ADC_GLV_V_ReadGCOR
 536:Generated_Source\PSoC5/ADC_GLV_V.c **** *******************************************************************************
 537:Generated_Source\PSoC5/ADC_GLV_V.c **** *
 538:Generated_Source\PSoC5/ADC_GLV_V.c **** * Summary:
 539:Generated_Source\PSoC5/ADC_GLV_V.c **** *  This API returns the current GCOR register value, normalized based on the
 540:Generated_Source\PSoC5/ADC_GLV_V.c **** *  GVAL register settings.
 541:Generated_Source\PSoC5/ADC_GLV_V.c **** *  For example, if the GCOR value is 0x0812 and the GVAL register is set to 
 542:Generated_Source\PSoC5/ADC_GLV_V.c **** *  11 (0x0B) then the returned value will be shifted by for bits to the left.
 543:Generated_Source\PSoC5/ADC_GLV_V.c **** *  (Actual GCOR value = 0x0812, returned value = 0x8120)
 544:Generated_Source\PSoC5/ADC_GLV_V.c **** *
ARM GAS  C:\Users\ANDREY~1\AppData\Local\Temp\cc0akFQM.s 			page 11


 545:Generated_Source\PSoC5/ADC_GLV_V.c **** * Parameters:
 546:Generated_Source\PSoC5/ADC_GLV_V.c **** *  None
 547:Generated_Source\PSoC5/ADC_GLV_V.c **** *
 548:Generated_Source\PSoC5/ADC_GLV_V.c **** * Return:
 549:Generated_Source\PSoC5/ADC_GLV_V.c **** *  uint16:  Normalized GCOR value.
 550:Generated_Source\PSoC5/ADC_GLV_V.c **** *
 551:Generated_Source\PSoC5/ADC_GLV_V.c **** *******************************************************************************/
 552:Generated_Source\PSoC5/ADC_GLV_V.c **** uint16 ADC_GLV_V_ReadGCOR(void) 
 553:Generated_Source\PSoC5/ADC_GLV_V.c **** {
 554:Generated_Source\PSoC5/ADC_GLV_V.c ****     uint8 gValue;
 555:Generated_Source\PSoC5/ADC_GLV_V.c ****     uint16 gcorValue;
 556:Generated_Source\PSoC5/ADC_GLV_V.c **** 
 557:Generated_Source\PSoC5/ADC_GLV_V.c ****     gValue = ADC_GLV_V_DEC_GVAL_REG;
 558:Generated_Source\PSoC5/ADC_GLV_V.c ****     gcorValue = CY_GET_REG16(ADC_GLV_V_DEC_GCOR_16B_PTR);
 559:Generated_Source\PSoC5/ADC_GLV_V.c **** 
 560:Generated_Source\PSoC5/ADC_GLV_V.c ****     if (gValue < ADC_GLV_V_MAX_GVAL)
 561:Generated_Source\PSoC5/ADC_GLV_V.c ****     {
 562:Generated_Source\PSoC5/ADC_GLV_V.c ****         gcorValue <<= ADC_GLV_V_MAX_GVAL - gValue;
 563:Generated_Source\PSoC5/ADC_GLV_V.c ****     }
 564:Generated_Source\PSoC5/ADC_GLV_V.c **** 
 565:Generated_Source\PSoC5/ADC_GLV_V.c ****     return gcorValue;
 566:Generated_Source\PSoC5/ADC_GLV_V.c **** }
 567:Generated_Source\PSoC5/ADC_GLV_V.c **** 
 568:Generated_Source\PSoC5/ADC_GLV_V.c **** 
 569:Generated_Source\PSoC5/ADC_GLV_V.c **** /*******************************************************************************
 570:Generated_Source\PSoC5/ADC_GLV_V.c **** * Function Name: ADC_GLV_V_StartConvert
 571:Generated_Source\PSoC5/ADC_GLV_V.c **** ********************************************************************************
 572:Generated_Source\PSoC5/ADC_GLV_V.c **** *
 573:Generated_Source\PSoC5/ADC_GLV_V.c **** * Summary:
 574:Generated_Source\PSoC5/ADC_GLV_V.c **** *  Forces the ADC to initiate a conversion. If in the "Single Sample"
 575:Generated_Source\PSoC5/ADC_GLV_V.c **** *  mode, one conversion will be performed then the ADC will halt. If in
 576:Generated_Source\PSoC5/ADC_GLV_V.c **** *  one of the other three conversion modes, the ADC will run
 577:Generated_Source\PSoC5/ADC_GLV_V.c **** *  continuously until the ADC_Stop() or ADC_StopConvert() is called.
 578:Generated_Source\PSoC5/ADC_GLV_V.c **** *
 579:Generated_Source\PSoC5/ADC_GLV_V.c **** * Parameters:
 580:Generated_Source\PSoC5/ADC_GLV_V.c **** *  None
 581:Generated_Source\PSoC5/ADC_GLV_V.c **** *
 582:Generated_Source\PSoC5/ADC_GLV_V.c **** * Return:
 583:Generated_Source\PSoC5/ADC_GLV_V.c **** *  None
 584:Generated_Source\PSoC5/ADC_GLV_V.c **** *
 585:Generated_Source\PSoC5/ADC_GLV_V.c **** *******************************************************************************/
 586:Generated_Source\PSoC5/ADC_GLV_V.c **** void ADC_GLV_V_StartConvert(void) 
 587:Generated_Source\PSoC5/ADC_GLV_V.c **** {
 588:Generated_Source\PSoC5/ADC_GLV_V.c ****     /* Start the conversion */
 589:Generated_Source\PSoC5/ADC_GLV_V.c ****     ADC_GLV_V_DEC_CR_REG |= ADC_GLV_V_DEC_START_CONV;
 590:Generated_Source\PSoC5/ADC_GLV_V.c **** }
 591:Generated_Source\PSoC5/ADC_GLV_V.c **** 
 592:Generated_Source\PSoC5/ADC_GLV_V.c **** 
 593:Generated_Source\PSoC5/ADC_GLV_V.c **** /*******************************************************************************
 594:Generated_Source\PSoC5/ADC_GLV_V.c **** * Function Name: ADC_GLV_V_StopConvert
 595:Generated_Source\PSoC5/ADC_GLV_V.c **** ********************************************************************************
 596:Generated_Source\PSoC5/ADC_GLV_V.c **** *
 597:Generated_Source\PSoC5/ADC_GLV_V.c **** * Summary:
 598:Generated_Source\PSoC5/ADC_GLV_V.c **** *  Forces the ADC to stop all conversions. If the ADC is in the middle of a
 599:Generated_Source\PSoC5/ADC_GLV_V.c **** *  conversion, the ADC will be reset and not provide a result for that partial
 600:Generated_Source\PSoC5/ADC_GLV_V.c **** *  conversion.
 601:Generated_Source\PSoC5/ADC_GLV_V.c **** *
ARM GAS  C:\Users\ANDREY~1\AppData\Local\Temp\cc0akFQM.s 			page 12


 602:Generated_Source\PSoC5/ADC_GLV_V.c **** * Parameters:
 603:Generated_Source\PSoC5/ADC_GLV_V.c **** *  None
 604:Generated_Source\PSoC5/ADC_GLV_V.c **** *
 605:Generated_Source\PSoC5/ADC_GLV_V.c **** * Return:
 606:Generated_Source\PSoC5/ADC_GLV_V.c **** *  None
 607:Generated_Source\PSoC5/ADC_GLV_V.c **** *
 608:Generated_Source\PSoC5/ADC_GLV_V.c **** *******************************************************************************/
 609:Generated_Source\PSoC5/ADC_GLV_V.c **** void ADC_GLV_V_StopConvert(void) 
 610:Generated_Source\PSoC5/ADC_GLV_V.c **** {
 611:Generated_Source\PSoC5/ADC_GLV_V.c ****     /* Stop all conversions */
 612:Generated_Source\PSoC5/ADC_GLV_V.c ****     ADC_GLV_V_DEC_CR_REG &= (uint8)~ADC_GLV_V_DEC_START_CONV;
 613:Generated_Source\PSoC5/ADC_GLV_V.c **** }
 614:Generated_Source\PSoC5/ADC_GLV_V.c **** 
 615:Generated_Source\PSoC5/ADC_GLV_V.c **** 
 616:Generated_Source\PSoC5/ADC_GLV_V.c **** /*******************************************************************************
 617:Generated_Source\PSoC5/ADC_GLV_V.c **** * Function Name: ADC_GLV_V_IsEndConversion
 618:Generated_Source\PSoC5/ADC_GLV_V.c **** ********************************************************************************
 619:Generated_Source\PSoC5/ADC_GLV_V.c **** *
 620:Generated_Source\PSoC5/ADC_GLV_V.c **** * Summary:
 621:Generated_Source\PSoC5/ADC_GLV_V.c **** *  Checks the status that the most recently started conversion has completed.
 622:Generated_Source\PSoC5/ADC_GLV_V.c **** *  The status is cleared by any of ADC_GetResult8(), ADC_GetResult16() or 
 623:Generated_Source\PSoC5/ADC_GLV_V.c **** *  ADC_GetResult32() API.
 624:Generated_Source\PSoC5/ADC_GLV_V.c **** *  This function provides the programmer with two options. In one mode this 
 625:Generated_Source\PSoC5/ADC_GLV_V.c **** *  function immediately returns with the conversion status. In the other mode,
 626:Generated_Source\PSoC5/ADC_GLV_V.c **** *  the function does not return (blocking) until the conversion has completed.
 627:Generated_Source\PSoC5/ADC_GLV_V.c **** *
 628:Generated_Source\PSoC5/ADC_GLV_V.c **** * Parameters:
 629:Generated_Source\PSoC5/ADC_GLV_V.c **** *  retMode: Check conversion return mode. See the following table for options.
 630:Generated_Source\PSoC5/ADC_GLV_V.c **** *   ADC_GLV_V_RETURN_STATUS -   Immediately returns conversion result
 631:Generated_Source\PSoC5/ADC_GLV_V.c **** *                                      status.
 632:Generated_Source\PSoC5/ADC_GLV_V.c **** *   ADC_GLV_V_WAIT_FOR_RESULT - Does not return until ADC conversion
 633:Generated_Source\PSoC5/ADC_GLV_V.c **** *                                      is complete.
 634:Generated_Source\PSoC5/ADC_GLV_V.c **** *
 635:Generated_Source\PSoC5/ADC_GLV_V.c **** * Return:
 636:Generated_Source\PSoC5/ADC_GLV_V.c **** *  If a nonzero value is returned, the last conversion has completed.
 637:Generated_Source\PSoC5/ADC_GLV_V.c **** *  If the returned value is zero, the ADC is still calculating the last result.
 638:Generated_Source\PSoC5/ADC_GLV_V.c **** *
 639:Generated_Source\PSoC5/ADC_GLV_V.c **** * Global variables:
 640:Generated_Source\PSoC5/ADC_GLV_V.c **** *  ADC_GLV_V_convDone:  Used to check whether conversion is complete
 641:Generated_Source\PSoC5/ADC_GLV_V.c **** *  or not for single sample mode with resolution is above 16
 642:Generated_Source\PSoC5/ADC_GLV_V.c **** *
 643:Generated_Source\PSoC5/ADC_GLV_V.c **** *******************************************************************************/
 644:Generated_Source\PSoC5/ADC_GLV_V.c **** uint8 ADC_GLV_V_IsEndConversion(uint8 retMode) 
 645:Generated_Source\PSoC5/ADC_GLV_V.c **** {
 646:Generated_Source\PSoC5/ADC_GLV_V.c ****     uint8 status;
 647:Generated_Source\PSoC5/ADC_GLV_V.c **** 
 648:Generated_Source\PSoC5/ADC_GLV_V.c ****     do
 649:Generated_Source\PSoC5/ADC_GLV_V.c ****     {
 650:Generated_Source\PSoC5/ADC_GLV_V.c ****         /* Check for stop convert if conversion mode is Single Sample with
 651:Generated_Source\PSoC5/ADC_GLV_V.c ****         *   resolution above 16 bit
 652:Generated_Source\PSoC5/ADC_GLV_V.c ****         */
 653:Generated_Source\PSoC5/ADC_GLV_V.c ****         if(ADC_GLV_V_stopConversion != 0u)
 654:Generated_Source\PSoC5/ADC_GLV_V.c ****         {
 655:Generated_Source\PSoC5/ADC_GLV_V.c ****             status = ADC_GLV_V_convDone;
 656:Generated_Source\PSoC5/ADC_GLV_V.c ****         }
 657:Generated_Source\PSoC5/ADC_GLV_V.c ****         else
 658:Generated_Source\PSoC5/ADC_GLV_V.c ****         {
ARM GAS  C:\Users\ANDREY~1\AppData\Local\Temp\cc0akFQM.s 			page 13


 659:Generated_Source\PSoC5/ADC_GLV_V.c ****             status = ADC_GLV_V_DEC_SR_REG & ADC_GLV_V_DEC_CONV_DONE;
 660:Generated_Source\PSoC5/ADC_GLV_V.c ****         }
 661:Generated_Source\PSoC5/ADC_GLV_V.c ****     }while((status != ADC_GLV_V_DEC_CONV_DONE) && (retMode == ADC_GLV_V_WAIT_FOR_RESULT));
 662:Generated_Source\PSoC5/ADC_GLV_V.c **** 
 663:Generated_Source\PSoC5/ADC_GLV_V.c ****     return(status);
 664:Generated_Source\PSoC5/ADC_GLV_V.c **** }
 665:Generated_Source\PSoC5/ADC_GLV_V.c **** 
 666:Generated_Source\PSoC5/ADC_GLV_V.c **** 
 667:Generated_Source\PSoC5/ADC_GLV_V.c **** /*******************************************************************************
 668:Generated_Source\PSoC5/ADC_GLV_V.c **** * Function Name: ADC_GLV_V_GetResult8
 669:Generated_Source\PSoC5/ADC_GLV_V.c **** ********************************************************************************
 670:Generated_Source\PSoC5/ADC_GLV_V.c **** *
 671:Generated_Source\PSoC5/ADC_GLV_V.c **** * Summary:
 672:Generated_Source\PSoC5/ADC_GLV_V.c **** *  This function returns the result of an 8-bit conversion. If the
 673:Generated_Source\PSoC5/ADC_GLV_V.c **** *  resolution is set greater than 8-bits, the LSB of the result will be
 674:Generated_Source\PSoC5/ADC_GLV_V.c **** *  returned. When the ADC is configured for 8-bit single ended mode,
 675:Generated_Source\PSoC5/ADC_GLV_V.c **** *  the ADC_GetResult16() function should be used instead. This
 676:Generated_Source\PSoC5/ADC_GLV_V.c **** *  function returns only signed 8-bit values. The maximum positive
 677:Generated_Source\PSoC5/ADC_GLV_V.c **** *  signed 8-bit value is 127, but in singled ended 8-bit mode, the
 678:Generated_Source\PSoC5/ADC_GLV_V.c **** *  maximum positive value is 255.
 679:Generated_Source\PSoC5/ADC_GLV_V.c **** *
 680:Generated_Source\PSoC5/ADC_GLV_V.c **** * Parameters:
 681:Generated_Source\PSoC5/ADC_GLV_V.c **** *  None
 682:Generated_Source\PSoC5/ADC_GLV_V.c **** *
 683:Generated_Source\PSoC5/ADC_GLV_V.c **** * Return:
 684:Generated_Source\PSoC5/ADC_GLV_V.c **** *  int8: The LSB of the last ADC conversion.
 685:Generated_Source\PSoC5/ADC_GLV_V.c **** *
 686:Generated_Source\PSoC5/ADC_GLV_V.c **** * Global variables:
 687:Generated_Source\PSoC5/ADC_GLV_V.c **** *  ADC_GLV_V_convDone:  Cleared in single sample mode with resolution
 688:Generated_Source\PSoC5/ADC_GLV_V.c **** *                              above 16 bits
 689:Generated_Source\PSoC5/ADC_GLV_V.c **** *
 690:Generated_Source\PSoC5/ADC_GLV_V.c **** *******************************************************************************/
 691:Generated_Source\PSoC5/ADC_GLV_V.c **** int8 ADC_GLV_V_GetResult8( void ) 
 692:Generated_Source\PSoC5/ADC_GLV_V.c **** {
 693:Generated_Source\PSoC5/ADC_GLV_V.c ****     int8 result;
 694:Generated_Source\PSoC5/ADC_GLV_V.c ****     uint8 coherency;
 695:Generated_Source\PSoC5/ADC_GLV_V.c **** 
 696:Generated_Source\PSoC5/ADC_GLV_V.c ****     /* Read active coherency configuration */
 697:Generated_Source\PSoC5/ADC_GLV_V.c ****     coherency = ADC_GLV_V_DEC_COHER_REG & ADC_GLV_V_DEC_SAMP_KEY_MASK;
 698:Generated_Source\PSoC5/ADC_GLV_V.c **** 
 699:Generated_Source\PSoC5/ADC_GLV_V.c ****     result = (int8)ADC_GLV_V_DEC_SAMP_REG;
 700:Generated_Source\PSoC5/ADC_GLV_V.c **** 
 701:Generated_Source\PSoC5/ADC_GLV_V.c ****     if(coherency == ADC_GLV_V_DEC_SAMP_KEY_MID)
 702:Generated_Source\PSoC5/ADC_GLV_V.c ****     {   /* Dummy read of the middle byte to unlock the coherency */
 703:Generated_Source\PSoC5/ADC_GLV_V.c ****         (void)ADC_GLV_V_DEC_SAMPM_REG;
 704:Generated_Source\PSoC5/ADC_GLV_V.c ****     }
 705:Generated_Source\PSoC5/ADC_GLV_V.c ****     else  if(coherency == ADC_GLV_V_DEC_SAMP_KEY_HIGH)
 706:Generated_Source\PSoC5/ADC_GLV_V.c ****     {   /* Dummy read of the MSB byte to unlock the coherency */
 707:Generated_Source\PSoC5/ADC_GLV_V.c ****         (void)ADC_GLV_V_DEC_SAMPH_REG;
 708:Generated_Source\PSoC5/ADC_GLV_V.c ****     }
 709:Generated_Source\PSoC5/ADC_GLV_V.c ****     else /*No action required for other coherency */
 710:Generated_Source\PSoC5/ADC_GLV_V.c ****     {
 711:Generated_Source\PSoC5/ADC_GLV_V.c ****     }
 712:Generated_Source\PSoC5/ADC_GLV_V.c ****     /* Clear conversion complete status in Single Sample mode with resolution above 16 bit */
 713:Generated_Source\PSoC5/ADC_GLV_V.c ****     if(ADC_GLV_V_stopConversion != 0u)
 714:Generated_Source\PSoC5/ADC_GLV_V.c ****     {
 715:Generated_Source\PSoC5/ADC_GLV_V.c ****         ADC_GLV_V_convDone = 0u;
ARM GAS  C:\Users\ANDREY~1\AppData\Local\Temp\cc0akFQM.s 			page 14


 716:Generated_Source\PSoC5/ADC_GLV_V.c ****     }
 717:Generated_Source\PSoC5/ADC_GLV_V.c ****     return (result);
 718:Generated_Source\PSoC5/ADC_GLV_V.c **** }
 719:Generated_Source\PSoC5/ADC_GLV_V.c **** 
 720:Generated_Source\PSoC5/ADC_GLV_V.c **** 
 721:Generated_Source\PSoC5/ADC_GLV_V.c **** /*******************************************************************************
 722:Generated_Source\PSoC5/ADC_GLV_V.c **** * Function Name: ADC_GLV_V_GetResult16
 723:Generated_Source\PSoC5/ADC_GLV_V.c **** ********************************************************************************
 724:Generated_Source\PSoC5/ADC_GLV_V.c **** *
 725:Generated_Source\PSoC5/ADC_GLV_V.c **** * Summary:
 726:Generated_Source\PSoC5/ADC_GLV_V.c **** *  Returns a 16-bit result for a conversion with a result that has a
 727:Generated_Source\PSoC5/ADC_GLV_V.c **** *  resolution of 8 to 16 bits. If the resolution is set greater than 16-bits,
 728:Generated_Source\PSoC5/ADC_GLV_V.c **** *  it will return the 16 least significant bits of the result. When the ADC
 729:Generated_Source\PSoC5/ADC_GLV_V.c **** *  is configured for 16-bit single ended mode, the ADC_GetResult32()
 730:Generated_Source\PSoC5/ADC_GLV_V.c **** *  function should be used instead. This function returns only signed
 731:Generated_Source\PSoC5/ADC_GLV_V.c **** *  16-bit result, which allows a maximum positive value of 32767, not 65535.
 732:Generated_Source\PSoC5/ADC_GLV_V.c **** *  This function supports different coherency settings.
 733:Generated_Source\PSoC5/ADC_GLV_V.c **** *
 734:Generated_Source\PSoC5/ADC_GLV_V.c **** * Parameters:
 735:Generated_Source\PSoC5/ADC_GLV_V.c **** *   void
 736:Generated_Source\PSoC5/ADC_GLV_V.c **** *
 737:Generated_Source\PSoC5/ADC_GLV_V.c **** * Return:
 738:Generated_Source\PSoC5/ADC_GLV_V.c **** *  int16:  ADC result.
 739:Generated_Source\PSoC5/ADC_GLV_V.c **** *
 740:Generated_Source\PSoC5/ADC_GLV_V.c **** * Global variables:
 741:Generated_Source\PSoC5/ADC_GLV_V.c **** *  ADC_GLV_V_convDone:  Cleared in single sample mode with resolution
 742:Generated_Source\PSoC5/ADC_GLV_V.c **** *                              above 16 bits
 743:Generated_Source\PSoC5/ADC_GLV_V.c **** *
 744:Generated_Source\PSoC5/ADC_GLV_V.c **** *******************************************************************************/
 745:Generated_Source\PSoC5/ADC_GLV_V.c **** int16 ADC_GLV_V_GetResult16(void) 
 746:Generated_Source\PSoC5/ADC_GLV_V.c **** {
 747:Generated_Source\PSoC5/ADC_GLV_V.c ****     uint16 result;
 748:Generated_Source\PSoC5/ADC_GLV_V.c ****     uint8 coherency;
 749:Generated_Source\PSoC5/ADC_GLV_V.c **** 
 750:Generated_Source\PSoC5/ADC_GLV_V.c ****     /* Read active coherency configuration */
 751:Generated_Source\PSoC5/ADC_GLV_V.c ****     coherency = ADC_GLV_V_DEC_COHER_REG & ADC_GLV_V_DEC_SAMP_KEY_MASK;
 752:Generated_Source\PSoC5/ADC_GLV_V.c **** 
 753:Generated_Source\PSoC5/ADC_GLV_V.c ****     if(coherency <= ADC_GLV_V_DEC_SAMP_KEY_LOW)
 754:Generated_Source\PSoC5/ADC_GLV_V.c ****     {   /*  Use default method to read result registers i.e. LSB byte read at the end*/
 755:Generated_Source\PSoC5/ADC_GLV_V.c ****         #if (CY_PSOC3)
 756:Generated_Source\PSoC5/ADC_GLV_V.c ****             result = ADC_GLV_V_DEC_SAMPM_REG;
 757:Generated_Source\PSoC5/ADC_GLV_V.c ****             result = (result << 8u) | ADC_GLV_V_DEC_SAMP_REG;
 758:Generated_Source\PSoC5/ADC_GLV_V.c ****         #else
 759:Generated_Source\PSoC5/ADC_GLV_V.c ****             result = (CY_GET_REG16(ADC_GLV_V_DEC_SAMP_16B_PTR));
 760:Generated_Source\PSoC5/ADC_GLV_V.c ****         #endif /* CY_PSOC3 */
 761:Generated_Source\PSoC5/ADC_GLV_V.c ****     }
 762:Generated_Source\PSoC5/ADC_GLV_V.c ****     else /* MID or HIGH */
 763:Generated_Source\PSoC5/ADC_GLV_V.c ****     {   /* Read middle byte at the end */
 764:Generated_Source\PSoC5/ADC_GLV_V.c ****         #if (CY_PSOC3)
 765:Generated_Source\PSoC5/ADC_GLV_V.c ****             result = (CY_GET_REG16(ADC_GLV_V_DEC_SAMP_16B_PTR));
 766:Generated_Source\PSoC5/ADC_GLV_V.c ****         #else
 767:Generated_Source\PSoC5/ADC_GLV_V.c ****             result = ADC_GLV_V_DEC_SAMP_REG;
 768:Generated_Source\PSoC5/ADC_GLV_V.c ****             result |=  (uint16)((uint16)ADC_GLV_V_DEC_SAMPM_REG << 8u);
 769:Generated_Source\PSoC5/ADC_GLV_V.c ****         #endif /* CY_PSOC3 */
 770:Generated_Source\PSoC5/ADC_GLV_V.c ****         if(coherency == ADC_GLV_V_DEC_SAMP_KEY_HIGH)
 771:Generated_Source\PSoC5/ADC_GLV_V.c ****         {   /* Dummy read of the MSB byte to unlock the coherency */
 772:Generated_Source\PSoC5/ADC_GLV_V.c ****             (void)ADC_GLV_V_DEC_SAMPH_REG;
ARM GAS  C:\Users\ANDREY~1\AppData\Local\Temp\cc0akFQM.s 			page 15


 773:Generated_Source\PSoC5/ADC_GLV_V.c ****         }
 774:Generated_Source\PSoC5/ADC_GLV_V.c ****     }
 775:Generated_Source\PSoC5/ADC_GLV_V.c ****     /* Clear conversion complete status in Single Sample mode with resolution above 16 bit */
 776:Generated_Source\PSoC5/ADC_GLV_V.c ****     if(ADC_GLV_V_stopConversion != 0u)
 777:Generated_Source\PSoC5/ADC_GLV_V.c ****     {
 778:Generated_Source\PSoC5/ADC_GLV_V.c ****         ADC_GLV_V_convDone = 0u;
 779:Generated_Source\PSoC5/ADC_GLV_V.c ****     }
 780:Generated_Source\PSoC5/ADC_GLV_V.c **** 
 781:Generated_Source\PSoC5/ADC_GLV_V.c ****     return ((int16)result);
 782:Generated_Source\PSoC5/ADC_GLV_V.c **** }
 783:Generated_Source\PSoC5/ADC_GLV_V.c **** 
 784:Generated_Source\PSoC5/ADC_GLV_V.c **** 
 785:Generated_Source\PSoC5/ADC_GLV_V.c **** /*******************************************************************************
 786:Generated_Source\PSoC5/ADC_GLV_V.c **** * Function Name: ADC_GLV_V_GetResult32
 787:Generated_Source\PSoC5/ADC_GLV_V.c **** ********************************************************************************
 788:Generated_Source\PSoC5/ADC_GLV_V.c **** *
 789:Generated_Source\PSoC5/ADC_GLV_V.c **** * Summary:
 790:Generated_Source\PSoC5/ADC_GLV_V.c **** *  Returns a 32-bit result for a conversion with a result that has a
 791:Generated_Source\PSoC5/ADC_GLV_V.c **** *  resolution of 8 to 20 bits.
 792:Generated_Source\PSoC5/ADC_GLV_V.c **** *  This function supports different coherency settings.
 793:Generated_Source\PSoC5/ADC_GLV_V.c **** *
 794:Generated_Source\PSoC5/ADC_GLV_V.c **** * Parameters:
 795:Generated_Source\PSoC5/ADC_GLV_V.c **** *  None
 796:Generated_Source\PSoC5/ADC_GLV_V.c **** *
 797:Generated_Source\PSoC5/ADC_GLV_V.c **** * Return:
 798:Generated_Source\PSoC5/ADC_GLV_V.c **** *  int32: Result of the last ADC conversion.
 799:Generated_Source\PSoC5/ADC_GLV_V.c **** *
 800:Generated_Source\PSoC5/ADC_GLV_V.c **** * Global variables:
 801:Generated_Source\PSoC5/ADC_GLV_V.c **** *  ADC_GLV_V_convDone:  Cleared in single sample mode with resolution
 802:Generated_Source\PSoC5/ADC_GLV_V.c **** *                              above 16 bits
 803:Generated_Source\PSoC5/ADC_GLV_V.c **** *
 804:Generated_Source\PSoC5/ADC_GLV_V.c **** *******************************************************************************/
 805:Generated_Source\PSoC5/ADC_GLV_V.c **** int32 ADC_GLV_V_GetResult32(void) 
 806:Generated_Source\PSoC5/ADC_GLV_V.c **** {
 807:Generated_Source\PSoC5/ADC_GLV_V.c ****     uint32 result;
 808:Generated_Source\PSoC5/ADC_GLV_V.c ****     uint8 coherency;
 809:Generated_Source\PSoC5/ADC_GLV_V.c ****     #if (CY_PSOC3)
 810:Generated_Source\PSoC5/ADC_GLV_V.c **** 	    uint16 tmp;
 811:Generated_Source\PSoC5/ADC_GLV_V.c ****     #endif /* CY_PSOC3 */
 812:Generated_Source\PSoC5/ADC_GLV_V.c **** 
 813:Generated_Source\PSoC5/ADC_GLV_V.c ****     /* Read active coherency configuration */
 814:Generated_Source\PSoC5/ADC_GLV_V.c ****     coherency = ADC_GLV_V_DEC_COHER_REG & ADC_GLV_V_DEC_SAMP_KEY_MASK;
 815:Generated_Source\PSoC5/ADC_GLV_V.c **** 
 816:Generated_Source\PSoC5/ADC_GLV_V.c ****     if(coherency <= ADC_GLV_V_DEC_SAMP_KEY_LOW)
 817:Generated_Source\PSoC5/ADC_GLV_V.c ****     {   /*  Use default method to read result registers i.e. LSB byte read at the end*/
 818:Generated_Source\PSoC5/ADC_GLV_V.c ****         #if (CY_PSOC3)
 819:Generated_Source\PSoC5/ADC_GLV_V.c ****             result = ADC_GLV_V_DEC_SAMPH_REG;
 820:Generated_Source\PSoC5/ADC_GLV_V.c ****             if((result & 0x80u) != 0u)
 821:Generated_Source\PSoC5/ADC_GLV_V.c ****             {   /* Sign extend */
 822:Generated_Source\PSoC5/ADC_GLV_V.c ****                 result |= 0xFF00u;
 823:Generated_Source\PSoC5/ADC_GLV_V.c ****             }
 824:Generated_Source\PSoC5/ADC_GLV_V.c ****             result = (result << 8u) | ADC_GLV_V_DEC_SAMPM_REG;
 825:Generated_Source\PSoC5/ADC_GLV_V.c ****             result = (result << 8u) | ADC_GLV_V_DEC_SAMP_REG;
 826:Generated_Source\PSoC5/ADC_GLV_V.c ****         #else
 827:Generated_Source\PSoC5/ADC_GLV_V.c ****             result = CY_GET_REG16(ADC_GLV_V_DEC_SAMPH_16B_PTR);
 828:Generated_Source\PSoC5/ADC_GLV_V.c ****             result = (result << 16u) | (CY_GET_REG16(ADC_GLV_V_DEC_SAMP_16B_PTR));
 829:Generated_Source\PSoC5/ADC_GLV_V.c ****         #endif /* CY_PSOC3 */
ARM GAS  C:\Users\ANDREY~1\AppData\Local\Temp\cc0akFQM.s 			page 16


 830:Generated_Source\PSoC5/ADC_GLV_V.c ****     }
 831:Generated_Source\PSoC5/ADC_GLV_V.c ****     else if(coherency == ADC_GLV_V_DEC_SAMP_KEY_MID)
 832:Generated_Source\PSoC5/ADC_GLV_V.c ****     {   /* Read middle byte at the end */
 833:Generated_Source\PSoC5/ADC_GLV_V.c ****         #if (CY_PSOC3)
 834:Generated_Source\PSoC5/ADC_GLV_V.c ****             result = ADC_GLV_V_DEC_SAMPH_REG;
 835:Generated_Source\PSoC5/ADC_GLV_V.c ****             if((result & 0x80u) != 0u)
 836:Generated_Source\PSoC5/ADC_GLV_V.c ****             {   /* Sign extend */
 837:Generated_Source\PSoC5/ADC_GLV_V.c ****                 result |= 0xFF00u;
 838:Generated_Source\PSoC5/ADC_GLV_V.c ****             }
 839:Generated_Source\PSoC5/ADC_GLV_V.c ****             result = (result << 16u) | (CY_GET_REG16(ADC_GLV_V_DEC_SAMP_16B_PTR));
 840:Generated_Source\PSoC5/ADC_GLV_V.c ****         #else
 841:Generated_Source\PSoC5/ADC_GLV_V.c ****             result = CY_GET_REG16(ADC_GLV_V_DEC_SAMPH_16B_PTR);
 842:Generated_Source\PSoC5/ADC_GLV_V.c ****             result = (result << 16u) | ADC_GLV_V_DEC_SAMP_REG;
 843:Generated_Source\PSoC5/ADC_GLV_V.c ****             result |=  (uint32)((uint32)ADC_GLV_V_DEC_SAMPM_REG << 8u);
 844:Generated_Source\PSoC5/ADC_GLV_V.c ****         #endif /* CY_PSOC3 */
 845:Generated_Source\PSoC5/ADC_GLV_V.c ****     }
 846:Generated_Source\PSoC5/ADC_GLV_V.c ****     else /*ADC_GLV_V_DEC_SAMP_KEY_HIGH */
 847:Generated_Source\PSoC5/ADC_GLV_V.c ****     {
 848:Generated_Source\PSoC5/ADC_GLV_V.c ****         /* Read MSB byte at the end */
 849:Generated_Source\PSoC5/ADC_GLV_V.c ****         #if (CY_PSOC3)
 850:Generated_Source\PSoC5/ADC_GLV_V.c ****             result = CY_GET_REG16(ADC_GLV_V_DEC_SAMP_16B_PTR);
 851:Generated_Source\PSoC5/ADC_GLV_V.c **** 			tmp = ADC_GLV_V_DEC_SAMPH_REG;
 852:Generated_Source\PSoC5/ADC_GLV_V.c ****             if((tmp & 0x80u) != 0u)
 853:Generated_Source\PSoC5/ADC_GLV_V.c ****             {   /* Sign extend */
 854:Generated_Source\PSoC5/ADC_GLV_V.c ****                 tmp |= 0xFF00u;
 855:Generated_Source\PSoC5/ADC_GLV_V.c ****             }
 856:Generated_Source\PSoC5/ADC_GLV_V.c ****             result |= (uint32)tmp << 16u;
 857:Generated_Source\PSoC5/ADC_GLV_V.c ****         #else
 858:Generated_Source\PSoC5/ADC_GLV_V.c ****             result = CY_GET_REG16(ADC_GLV_V_DEC_SAMP_16B_PTR);
 859:Generated_Source\PSoC5/ADC_GLV_V.c ****             result |= (uint32)((uint32)CY_GET_REG16(ADC_GLV_V_DEC_SAMPH_16B_PTR) << 16u);
 860:Generated_Source\PSoC5/ADC_GLV_V.c ****         #endif /* CY_PSOC3 */
 861:Generated_Source\PSoC5/ADC_GLV_V.c ****     }
 862:Generated_Source\PSoC5/ADC_GLV_V.c ****     /* Clear conversion complete status in Single Sample mode with resolution above 16 bit */
 863:Generated_Source\PSoC5/ADC_GLV_V.c ****     if(ADC_GLV_V_stopConversion != 0u)
 864:Generated_Source\PSoC5/ADC_GLV_V.c ****     {
 865:Generated_Source\PSoC5/ADC_GLV_V.c ****         ADC_GLV_V_convDone = 0u;
 866:Generated_Source\PSoC5/ADC_GLV_V.c ****     }
 867:Generated_Source\PSoC5/ADC_GLV_V.c **** 
 868:Generated_Source\PSoC5/ADC_GLV_V.c ****     return ((int32)result);
 869:Generated_Source\PSoC5/ADC_GLV_V.c **** }
 870:Generated_Source\PSoC5/ADC_GLV_V.c **** 
 871:Generated_Source\PSoC5/ADC_GLV_V.c **** 
 872:Generated_Source\PSoC5/ADC_GLV_V.c **** /*******************************************************************************
 873:Generated_Source\PSoC5/ADC_GLV_V.c **** * Function Name: ADC_GLV_V_SetOffset
 874:Generated_Source\PSoC5/ADC_GLV_V.c **** ********************************************************************************
 875:Generated_Source\PSoC5/ADC_GLV_V.c **** *
 876:Generated_Source\PSoC5/ADC_GLV_V.c **** * Summary:
 877:Generated_Source\PSoC5/ADC_GLV_V.c **** *  Sets the ADC offset which is used by the functions ADC_CountsTo_uVolts, 
 878:Generated_Source\PSoC5/ADC_GLV_V.c **** *  ADC_CountsTo_mVolts, and ADC_CountsTo_Volts to subtract the offset from the 
 879:Generated_Source\PSoC5/ADC_GLV_V.c **** *  given reading before calculating the voltage conversion.
 880:Generated_Source\PSoC5/ADC_GLV_V.c **** *
 881:Generated_Source\PSoC5/ADC_GLV_V.c **** * Parameters:
 882:Generated_Source\PSoC5/ADC_GLV_V.c **** *  int32:  This value is a measured value when the inputs are shorted or 
 883:Generated_Source\PSoC5/ADC_GLV_V.c **** *          connected to the same input voltage.
 884:Generated_Source\PSoC5/ADC_GLV_V.c **** *
 885:Generated_Source\PSoC5/ADC_GLV_V.c **** * Return:
 886:Generated_Source\PSoC5/ADC_GLV_V.c **** *  None
ARM GAS  C:\Users\ANDREY~1\AppData\Local\Temp\cc0akFQM.s 			page 17


 887:Generated_Source\PSoC5/ADC_GLV_V.c **** *
 888:Generated_Source\PSoC5/ADC_GLV_V.c **** * Global variables:
 889:Generated_Source\PSoC5/ADC_GLV_V.c **** *  ADC_GLV_V_Offset:  Modified to set the user provided offset. This
 890:Generated_Source\PSoC5/ADC_GLV_V.c **** *  variable is used for offset calibration purpose.
 891:Generated_Source\PSoC5/ADC_GLV_V.c **** *
 892:Generated_Source\PSoC5/ADC_GLV_V.c **** * Side Effects:
 893:Generated_Source\PSoC5/ADC_GLV_V.c **** *  Affects the ADC_GLV_V_CountsTo_Volts,
 894:Generated_Source\PSoC5/ADC_GLV_V.c **** *  ADC_GLV_V_CountsTo_mVolts, ADC_GLV_V_CountsTo_uVolts functions
 895:Generated_Source\PSoC5/ADC_GLV_V.c **** *  by subtracting the given offset.
 896:Generated_Source\PSoC5/ADC_GLV_V.c **** *
 897:Generated_Source\PSoC5/ADC_GLV_V.c **** *******************************************************************************/
 898:Generated_Source\PSoC5/ADC_GLV_V.c **** void ADC_GLV_V_SetOffset(int32 offset) 
 899:Generated_Source\PSoC5/ADC_GLV_V.c **** {
 900:Generated_Source\PSoC5/ADC_GLV_V.c **** 
 901:Generated_Source\PSoC5/ADC_GLV_V.c ****     ADC_GLV_V_Offset = offset;
 902:Generated_Source\PSoC5/ADC_GLV_V.c **** }
 903:Generated_Source\PSoC5/ADC_GLV_V.c **** 
 904:Generated_Source\PSoC5/ADC_GLV_V.c **** 
 905:Generated_Source\PSoC5/ADC_GLV_V.c **** /*******************************************************************************
 906:Generated_Source\PSoC5/ADC_GLV_V.c **** * Function Name: ADC_GLV_V_SetGain
 907:Generated_Source\PSoC5/ADC_GLV_V.c **** ********************************************************************************
 908:Generated_Source\PSoC5/ADC_GLV_V.c **** *
 909:Generated_Source\PSoC5/ADC_GLV_V.c **** * Summary:
 910:Generated_Source\PSoC5/ADC_GLV_V.c **** *  Sets the ADC gain in counts per volt for the voltage conversion
 911:Generated_Source\PSoC5/ADC_GLV_V.c **** *  functions below. This value is set by default by the reference and
 912:Generated_Source\PSoC5/ADC_GLV_V.c **** *  input range settings. It should only be used to further calibrate the
 913:Generated_Source\PSoC5/ADC_GLV_V.c **** *  ADC with a known input or if an external reference is used. This
 914:Generated_Source\PSoC5/ADC_GLV_V.c **** *  function may also be used to calibrate an entire signal chain, not
 915:Generated_Source\PSoC5/ADC_GLV_V.c **** *  just the ADC.
 916:Generated_Source\PSoC5/ADC_GLV_V.c **** *
 917:Generated_Source\PSoC5/ADC_GLV_V.c **** * Parameters:
 918:Generated_Source\PSoC5/ADC_GLV_V.c **** *  int32: ADC gain in counts per volt.
 919:Generated_Source\PSoC5/ADC_GLV_V.c **** *
 920:Generated_Source\PSoC5/ADC_GLV_V.c **** * Return:
 921:Generated_Source\PSoC5/ADC_GLV_V.c **** *  None
 922:Generated_Source\PSoC5/ADC_GLV_V.c **** *
 923:Generated_Source\PSoC5/ADC_GLV_V.c **** * Global variables:
 924:Generated_Source\PSoC5/ADC_GLV_V.c **** *  ADC_GLV_V_CountsPerVolt:  modified to set the ADC gain in counts
 925:Generated_Source\PSoC5/ADC_GLV_V.c **** *   per volt.
 926:Generated_Source\PSoC5/ADC_GLV_V.c **** *
 927:Generated_Source\PSoC5/ADC_GLV_V.c **** * Side Effects:
 928:Generated_Source\PSoC5/ADC_GLV_V.c **** *  Affects the ADC_GLV_V_CountsTo_Volts,
 929:Generated_Source\PSoC5/ADC_GLV_V.c **** *  ADC_GLV_V_CountsTo_mVolts, ADC_GLV_V_CountsTo_uVolts functions
 930:Generated_Source\PSoC5/ADC_GLV_V.c **** *  supplying the correct conversion between ADC counts and voltage.
 931:Generated_Source\PSoC5/ADC_GLV_V.c **** *
 932:Generated_Source\PSoC5/ADC_GLV_V.c **** *******************************************************************************/
 933:Generated_Source\PSoC5/ADC_GLV_V.c **** void ADC_GLV_V_SetGain(int32 adcGain) 
 934:Generated_Source\PSoC5/ADC_GLV_V.c **** {
 935:Generated_Source\PSoC5/ADC_GLV_V.c ****     ADC_GLV_V_CountsPerVolt = adcGain;
 936:Generated_Source\PSoC5/ADC_GLV_V.c **** }
 937:Generated_Source\PSoC5/ADC_GLV_V.c **** 
 938:Generated_Source\PSoC5/ADC_GLV_V.c **** 
 939:Generated_Source\PSoC5/ADC_GLV_V.c **** /*******************************************************************************
 940:Generated_Source\PSoC5/ADC_GLV_V.c **** * Function Name: ADC_GLV_V_CountsTo_mVolts
 941:Generated_Source\PSoC5/ADC_GLV_V.c **** ********************************************************************************
 942:Generated_Source\PSoC5/ADC_GLV_V.c **** *
 943:Generated_Source\PSoC5/ADC_GLV_V.c **** * Summary:
ARM GAS  C:\Users\ANDREY~1\AppData\Local\Temp\cc0akFQM.s 			page 18


 944:Generated_Source\PSoC5/ADC_GLV_V.c **** *  Converts the ADC counts output to mVolts as a 16-bit integer. For
 945:Generated_Source\PSoC5/ADC_GLV_V.c **** *  example, if the ADC measured 0.534 volts, the return value would
 946:Generated_Source\PSoC5/ADC_GLV_V.c **** *  be 534 mVolts.
 947:Generated_Source\PSoC5/ADC_GLV_V.c **** *
 948:Generated_Source\PSoC5/ADC_GLV_V.c **** * Parameters:
 949:Generated_Source\PSoC5/ADC_GLV_V.c **** *  int32: adcCounts Result from the ADC conversion.
 950:Generated_Source\PSoC5/ADC_GLV_V.c **** *
 951:Generated_Source\PSoC5/ADC_GLV_V.c **** * Return:
 952:Generated_Source\PSoC5/ADC_GLV_V.c **** *  int16:  Result in mVolts
 953:Generated_Source\PSoC5/ADC_GLV_V.c **** *
 954:Generated_Source\PSoC5/ADC_GLV_V.c **** * Global variables:
 955:Generated_Source\PSoC5/ADC_GLV_V.c **** *  ADC_GLV_V_CountsPerVolt:  used to convert ADC counts to mVolts.
 956:Generated_Source\PSoC5/ADC_GLV_V.c **** *  ADC_GLV_V_Offset:  Used as the offset while converting ADC counts
 957:Generated_Source\PSoC5/ADC_GLV_V.c **** *   to mVolts.
 958:Generated_Source\PSoC5/ADC_GLV_V.c **** *
 959:Generated_Source\PSoC5/ADC_GLV_V.c **** *******************************************************************************/
 960:Generated_Source\PSoC5/ADC_GLV_V.c **** int16 ADC_GLV_V_CountsTo_mVolts(int32 adcCounts) 
 961:Generated_Source\PSoC5/ADC_GLV_V.c **** {
 962:Generated_Source\PSoC5/ADC_GLV_V.c **** 
 963:Generated_Source\PSoC5/ADC_GLV_V.c ****     int16 mVolts;
 964:Generated_Source\PSoC5/ADC_GLV_V.c **** 
 965:Generated_Source\PSoC5/ADC_GLV_V.c ****     /* Convert adcCounts to the right align if left option selected */
 966:Generated_Source\PSoC5/ADC_GLV_V.c ****     #if(ADC_GLV_V_CFG1_DEC_DIV != 0)
 967:Generated_Source\PSoC5/ADC_GLV_V.c ****         if(ADC_GLV_V_Config == ADC_GLV_V_CFG1)
 968:Generated_Source\PSoC5/ADC_GLV_V.c ****         {
 969:Generated_Source\PSoC5/ADC_GLV_V.c ****             adcCounts /= ADC_GLV_V_CFG1_DEC_DIV;
 970:Generated_Source\PSoC5/ADC_GLV_V.c ****         }
 971:Generated_Source\PSoC5/ADC_GLV_V.c ****     #endif /* ADC_GLV_V_CFG1_DEC_DIV */
 972:Generated_Source\PSoC5/ADC_GLV_V.c ****     #if((ADC_GLV_V_CFG2_DEC_DIV != 0) && (ADC_GLV_V_DEFAULT_NUM_CONFIGS > 1))
 973:Generated_Source\PSoC5/ADC_GLV_V.c ****         if(ADC_GLV_V_Config == ADC_GLV_V_CFG2)
 974:Generated_Source\PSoC5/ADC_GLV_V.c ****         {
 975:Generated_Source\PSoC5/ADC_GLV_V.c ****             adcCounts /= ADC_GLV_V_CFG2_DEC_DIV;
 976:Generated_Source\PSoC5/ADC_GLV_V.c ****         }
 977:Generated_Source\PSoC5/ADC_GLV_V.c ****     #endif /* ADC_GLV_V_CFG2_DEC_DIV */
 978:Generated_Source\PSoC5/ADC_GLV_V.c ****     #if((ADC_GLV_V_CFG3_DEC_DIV != 0) && (ADC_GLV_V_DEFAULT_NUM_CONFIGS > 2))
 979:Generated_Source\PSoC5/ADC_GLV_V.c ****         if(ADC_GLV_V_Config == ADC_GLV_V_CFG3)
 980:Generated_Source\PSoC5/ADC_GLV_V.c ****         {
 981:Generated_Source\PSoC5/ADC_GLV_V.c ****             adcCounts /= ADC_GLV_V_CFG3_DEC_DIV;
 982:Generated_Source\PSoC5/ADC_GLV_V.c ****         }
 983:Generated_Source\PSoC5/ADC_GLV_V.c ****     #endif /* ADC_GLV_V_CFG2_DEC_DIV */
 984:Generated_Source\PSoC5/ADC_GLV_V.c ****     #if((ADC_GLV_V_CFG4_DEC_DIV != 0) && (ADC_GLV_V_DEFAULT_NUM_CONFIGS > 3))
 985:Generated_Source\PSoC5/ADC_GLV_V.c ****         if(ADC_GLV_V_Config == ADC_GLV_V_CFG4)
 986:Generated_Source\PSoC5/ADC_GLV_V.c ****         {
 987:Generated_Source\PSoC5/ADC_GLV_V.c ****             adcCounts /= ADC_GLV_V_CFG4_DEC_DIV;
 988:Generated_Source\PSoC5/ADC_GLV_V.c ****         }
 989:Generated_Source\PSoC5/ADC_GLV_V.c ****     #endif /* ADC_GLV_V_CFG2_DEC_DIV */
 990:Generated_Source\PSoC5/ADC_GLV_V.c **** 
 991:Generated_Source\PSoC5/ADC_GLV_V.c ****     /* Subtract ADC offset */
 992:Generated_Source\PSoC5/ADC_GLV_V.c ****     adcCounts -= ADC_GLV_V_Offset;
 993:Generated_Source\PSoC5/ADC_GLV_V.c **** 
 994:Generated_Source\PSoC5/ADC_GLV_V.c ****     mVolts = (int16)(( adcCounts * ADC_GLV_V_1MV_COUNTS ) / ADC_GLV_V_CountsPerVolt) ;
 995:Generated_Source\PSoC5/ADC_GLV_V.c **** 
 996:Generated_Source\PSoC5/ADC_GLV_V.c ****     return(mVolts);
 997:Generated_Source\PSoC5/ADC_GLV_V.c **** }
 998:Generated_Source\PSoC5/ADC_GLV_V.c **** 
 999:Generated_Source\PSoC5/ADC_GLV_V.c **** 
1000:Generated_Source\PSoC5/ADC_GLV_V.c **** /*******************************************************************************
ARM GAS  C:\Users\ANDREY~1\AppData\Local\Temp\cc0akFQM.s 			page 19


1001:Generated_Source\PSoC5/ADC_GLV_V.c **** * Function Name: ADC_GLV_V_CountsTo_Volts
1002:Generated_Source\PSoC5/ADC_GLV_V.c **** ********************************************************************************
1003:Generated_Source\PSoC5/ADC_GLV_V.c **** *
1004:Generated_Source\PSoC5/ADC_GLV_V.c **** * Summary:
1005:Generated_Source\PSoC5/ADC_GLV_V.c **** *  Converts the ADC output to Volts as a floating point number. For
1006:Generated_Source\PSoC5/ADC_GLV_V.c **** *  example, if the ADC measure a voltage of 1.2345 Volts, the
1007:Generated_Source\PSoC5/ADC_GLV_V.c **** *  returned result would be +1.2345 Volts.
1008:Generated_Source\PSoC5/ADC_GLV_V.c **** *
1009:Generated_Source\PSoC5/ADC_GLV_V.c **** * Parameters:
1010:Generated_Source\PSoC5/ADC_GLV_V.c **** *  int32 adcCounts:  Result from the ADC conversion.
1011:Generated_Source\PSoC5/ADC_GLV_V.c **** *
1012:Generated_Source\PSoC5/ADC_GLV_V.c **** * Return:
1013:Generated_Source\PSoC5/ADC_GLV_V.c **** *  float32: Result in Volts
1014:Generated_Source\PSoC5/ADC_GLV_V.c **** *
1015:Generated_Source\PSoC5/ADC_GLV_V.c **** * Global variables:
1016:Generated_Source\PSoC5/ADC_GLV_V.c **** *  ADC_GLV_V_CountsPerVolt:  used to convert to Volts.
1017:Generated_Source\PSoC5/ADC_GLV_V.c **** *  ADC_GLV_V_Offset:  Used as the offset while converting ADC counts
1018:Generated_Source\PSoC5/ADC_GLV_V.c **** *   to Volts.
1019:Generated_Source\PSoC5/ADC_GLV_V.c **** *
1020:Generated_Source\PSoC5/ADC_GLV_V.c **** *******************************************************************************/
1021:Generated_Source\PSoC5/ADC_GLV_V.c **** float32 ADC_GLV_V_CountsTo_Volts(int32 adcCounts) 
1022:Generated_Source\PSoC5/ADC_GLV_V.c **** {
1023:Generated_Source\PSoC5/ADC_GLV_V.c **** 
1024:Generated_Source\PSoC5/ADC_GLV_V.c ****     float32 Volts;
1025:Generated_Source\PSoC5/ADC_GLV_V.c **** 
1026:Generated_Source\PSoC5/ADC_GLV_V.c ****     /* Convert adcCounts to the right align if left option selected */
1027:Generated_Source\PSoC5/ADC_GLV_V.c ****     #if(ADC_GLV_V_CFG1_DEC_DIV != 0)
1028:Generated_Source\PSoC5/ADC_GLV_V.c ****         if(ADC_GLV_V_Config == ADC_GLV_V_CFG1)
1029:Generated_Source\PSoC5/ADC_GLV_V.c ****         {
1030:Generated_Source\PSoC5/ADC_GLV_V.c ****             adcCounts /= ADC_GLV_V_CFG1_DEC_DIV;
1031:Generated_Source\PSoC5/ADC_GLV_V.c ****         }
1032:Generated_Source\PSoC5/ADC_GLV_V.c ****     #endif /* ADC_GLV_V_CFG1_DEC_DIV */
1033:Generated_Source\PSoC5/ADC_GLV_V.c ****     #if((ADC_GLV_V_CFG2_DEC_DIV != 0) && (ADC_GLV_V_DEFAULT_NUM_CONFIGS > 1))
1034:Generated_Source\PSoC5/ADC_GLV_V.c ****         if(ADC_GLV_V_Config == ADC_GLV_V_CFG2)
1035:Generated_Source\PSoC5/ADC_GLV_V.c ****         {
1036:Generated_Source\PSoC5/ADC_GLV_V.c ****             adcCounts /= ADC_GLV_V_CFG2_DEC_DIV;
1037:Generated_Source\PSoC5/ADC_GLV_V.c ****         }
1038:Generated_Source\PSoC5/ADC_GLV_V.c ****     #endif /* ADC_GLV_V_CFG2_DEC_DIV */
1039:Generated_Source\PSoC5/ADC_GLV_V.c ****     #if((ADC_GLV_V_CFG3_DEC_DIV != 0) && (ADC_GLV_V_DEFAULT_NUM_CONFIGS > 2))
1040:Generated_Source\PSoC5/ADC_GLV_V.c ****         if(ADC_GLV_V_Config == ADC_GLV_V_CFG3)
1041:Generated_Source\PSoC5/ADC_GLV_V.c ****         {
1042:Generated_Source\PSoC5/ADC_GLV_V.c ****             adcCounts /= ADC_GLV_V_CFG3_DEC_DIV;
1043:Generated_Source\PSoC5/ADC_GLV_V.c ****         }
1044:Generated_Source\PSoC5/ADC_GLV_V.c ****     #endif /* ADC_GLV_V_CFG2_DEC_DIV */
1045:Generated_Source\PSoC5/ADC_GLV_V.c ****     #if((ADC_GLV_V_CFG4_DEC_DIV != 0) && (ADC_GLV_V_DEFAULT_NUM_CONFIGS > 3))
1046:Generated_Source\PSoC5/ADC_GLV_V.c ****         if(ADC_GLV_V_Config == ADC_GLV_V_CFG4)
1047:Generated_Source\PSoC5/ADC_GLV_V.c ****         {
1048:Generated_Source\PSoC5/ADC_GLV_V.c ****             adcCounts /= ADC_GLV_V_CFG4_DEC_DIV;
1049:Generated_Source\PSoC5/ADC_GLV_V.c ****         }
1050:Generated_Source\PSoC5/ADC_GLV_V.c ****     #endif /* ADC_GLV_V_CFG2_DEC_DIV */
1051:Generated_Source\PSoC5/ADC_GLV_V.c **** 
1052:Generated_Source\PSoC5/ADC_GLV_V.c ****     /* Subtract ADC offset */
1053:Generated_Source\PSoC5/ADC_GLV_V.c ****     adcCounts -= ADC_GLV_V_Offset;
1054:Generated_Source\PSoC5/ADC_GLV_V.c **** 
1055:Generated_Source\PSoC5/ADC_GLV_V.c ****     Volts = (float32)adcCounts / (float32)ADC_GLV_V_CountsPerVolt;
1056:Generated_Source\PSoC5/ADC_GLV_V.c **** 
1057:Generated_Source\PSoC5/ADC_GLV_V.c ****     return( Volts );
ARM GAS  C:\Users\ANDREY~1\AppData\Local\Temp\cc0akFQM.s 			page 20


1058:Generated_Source\PSoC5/ADC_GLV_V.c **** }
1059:Generated_Source\PSoC5/ADC_GLV_V.c **** 
1060:Generated_Source\PSoC5/ADC_GLV_V.c **** 
1061:Generated_Source\PSoC5/ADC_GLV_V.c **** /*******************************************************************************
1062:Generated_Source\PSoC5/ADC_GLV_V.c **** * Function Name: ADC_GLV_V_CountsTo_uVolts
1063:Generated_Source\PSoC5/ADC_GLV_V.c **** ********************************************************************************
1064:Generated_Source\PSoC5/ADC_GLV_V.c **** *
1065:Generated_Source\PSoC5/ADC_GLV_V.c **** * Summary:
1066:Generated_Source\PSoC5/ADC_GLV_V.c **** *  Converts the ADC output to uVolts as a 32-bit integer. For example,
1067:Generated_Source\PSoC5/ADC_GLV_V.c **** *  if the ADC measured -0.02345 Volts, the return value would be -23450 uVolts.
1068:Generated_Source\PSoC5/ADC_GLV_V.c **** *
1069:Generated_Source\PSoC5/ADC_GLV_V.c **** * Parameters:
1070:Generated_Source\PSoC5/ADC_GLV_V.c **** *  int32 adcCounts: Result from the ADC conversion.
1071:Generated_Source\PSoC5/ADC_GLV_V.c **** *
1072:Generated_Source\PSoC5/ADC_GLV_V.c **** * Return:
1073:Generated_Source\PSoC5/ADC_GLV_V.c **** *  int32:  Result in uVolts
1074:Generated_Source\PSoC5/ADC_GLV_V.c **** *
1075:Generated_Source\PSoC5/ADC_GLV_V.c **** * Global variables:
1076:Generated_Source\PSoC5/ADC_GLV_V.c **** *  ADC_GLV_V_CountsPerVolt:  used to convert ADC counts to mVolts.
1077:Generated_Source\PSoC5/ADC_GLV_V.c **** *  ADC_GLV_V_Offset:  Used as the offset while converting ADC counts
1078:Generated_Source\PSoC5/ADC_GLV_V.c **** *   to mVolts.
1079:Generated_Source\PSoC5/ADC_GLV_V.c **** *
1080:Generated_Source\PSoC5/ADC_GLV_V.c **** * Theory:
1081:Generated_Source\PSoC5/ADC_GLV_V.c **** *  Care must be taken to not exceed the maximum value for a 31 bit signed
1082:Generated_Source\PSoC5/ADC_GLV_V.c **** *  number in the conversion to uVolts and at the same time not lose resolution.
1083:Generated_Source\PSoC5/ADC_GLV_V.c **** *
1084:Generated_Source\PSoC5/ADC_GLV_V.c **** *  uVolts = ((A * adcCounts) / ((int32)ADC_GLV_V_CountsPerVolt / B));
1085:Generated_Source\PSoC5/ADC_GLV_V.c **** *
1086:Generated_Source\PSoC5/ADC_GLV_V.c **** *******************************************************************************/
1087:Generated_Source\PSoC5/ADC_GLV_V.c **** int32 ADC_GLV_V_CountsTo_uVolts(int32 adcCounts) 
1088:Generated_Source\PSoC5/ADC_GLV_V.c **** {
1089:Generated_Source\PSoC5/ADC_GLV_V.c **** 
1090:Generated_Source\PSoC5/ADC_GLV_V.c ****     int32 uVolts;
1091:Generated_Source\PSoC5/ADC_GLV_V.c ****     int32 coefA;
1092:Generated_Source\PSoC5/ADC_GLV_V.c ****     int32 coefB;
1093:Generated_Source\PSoC5/ADC_GLV_V.c ****     uint8 resolution;
1094:Generated_Source\PSoC5/ADC_GLV_V.c **** 
1095:Generated_Source\PSoC5/ADC_GLV_V.c ****     /* Set the resolution based on the configuration */
1096:Generated_Source\PSoC5/ADC_GLV_V.c ****     /* Convert adcCounts to the right align if left option selected */
1097:Generated_Source\PSoC5/ADC_GLV_V.c ****     if (ADC_GLV_V_Config == ADC_GLV_V_CFG1)
1098:Generated_Source\PSoC5/ADC_GLV_V.c ****     {
1099:Generated_Source\PSoC5/ADC_GLV_V.c ****         resolution = ADC_GLV_V_CFG1_RESOLUTION;
1100:Generated_Source\PSoC5/ADC_GLV_V.c ****         #if(ADC_GLV_V_CFG1_DEC_DIV != 0)
1101:Generated_Source\PSoC5/ADC_GLV_V.c ****             adcCounts /= ADC_GLV_V_CFG1_DEC_DIV;
1102:Generated_Source\PSoC5/ADC_GLV_V.c ****         #endif /* ADC_GLV_V_CFG1_DEC_DIV */
1103:Generated_Source\PSoC5/ADC_GLV_V.c ****     }
1104:Generated_Source\PSoC5/ADC_GLV_V.c ****     else if (ADC_GLV_V_Config == ADC_GLV_V_CFG2)
1105:Generated_Source\PSoC5/ADC_GLV_V.c ****     {
1106:Generated_Source\PSoC5/ADC_GLV_V.c ****         resolution = ADC_GLV_V_CFG2_RESOLUTION;
1107:Generated_Source\PSoC5/ADC_GLV_V.c ****         #if(ADC_GLV_V_CFG2_DEC_DIV != 0)
1108:Generated_Source\PSoC5/ADC_GLV_V.c ****             adcCounts /= ADC_GLV_V_CFG2_DEC_DIV;
1109:Generated_Source\PSoC5/ADC_GLV_V.c ****         #endif /* ADC_GLV_V_CFG2_DEC_DIV */
1110:Generated_Source\PSoC5/ADC_GLV_V.c ****     }
1111:Generated_Source\PSoC5/ADC_GLV_V.c ****     else if (ADC_GLV_V_Config == ADC_GLV_V_CFG3)
1112:Generated_Source\PSoC5/ADC_GLV_V.c ****     {
1113:Generated_Source\PSoC5/ADC_GLV_V.c ****         resolution = ADC_GLV_V_CFG3_RESOLUTION;
1114:Generated_Source\PSoC5/ADC_GLV_V.c ****         #if(ADC_GLV_V_CFG3_DEC_DIV != 0)
ARM GAS  C:\Users\ANDREY~1\AppData\Local\Temp\cc0akFQM.s 			page 21


1115:Generated_Source\PSoC5/ADC_GLV_V.c ****             adcCounts /= ADC_GLV_V_CFG3_DEC_DIV;
1116:Generated_Source\PSoC5/ADC_GLV_V.c ****         #endif /* ADC_GLV_V_CFG3_DEC_DIV */
1117:Generated_Source\PSoC5/ADC_GLV_V.c ****     }
1118:Generated_Source\PSoC5/ADC_GLV_V.c ****     else
1119:Generated_Source\PSoC5/ADC_GLV_V.c ****     {
1120:Generated_Source\PSoC5/ADC_GLV_V.c ****         resolution = ADC_GLV_V_CFG4_RESOLUTION;
1121:Generated_Source\PSoC5/ADC_GLV_V.c ****         #if(ADC_GLV_V_CFG4_DEC_DIV != 0)
1122:Generated_Source\PSoC5/ADC_GLV_V.c ****             adcCounts /= ADC_GLV_V_CFG4_DEC_DIV;
1123:Generated_Source\PSoC5/ADC_GLV_V.c ****         #endif /* ADC_GLV_V_CFG4_DEC_DIV */
1124:Generated_Source\PSoC5/ADC_GLV_V.c ****     }
1125:Generated_Source\PSoC5/ADC_GLV_V.c **** 
1126:Generated_Source\PSoC5/ADC_GLV_V.c ****     switch (resolution)
1127:Generated_Source\PSoC5/ADC_GLV_V.c ****     {
1128:Generated_Source\PSoC5/ADC_GLV_V.c ****         #if( (ADC_GLV_V_CFG1_RESOLUTION == ADC_GLV_V__BITS_12) || \
1129:Generated_Source\PSoC5/ADC_GLV_V.c ****              (ADC_GLV_V_CFG2_RESOLUTION == ADC_GLV_V__BITS_12) || \
1130:Generated_Source\PSoC5/ADC_GLV_V.c ****              (ADC_GLV_V_CFG3_RESOLUTION == ADC_GLV_V__BITS_12) || \
1131:Generated_Source\PSoC5/ADC_GLV_V.c ****              (ADC_GLV_V_CFG4_RESOLUTION == ADC_GLV_V__BITS_12) )
1132:Generated_Source\PSoC5/ADC_GLV_V.c ****             case (uint8)ADC_GLV_V__BITS_12:
1133:Generated_Source\PSoC5/ADC_GLV_V.c ****                 coefA = ADC_GLV_V_1UV_COUNTS / ADC_GLV_V_DIVISOR_2;
1134:Generated_Source\PSoC5/ADC_GLV_V.c ****                 coefB = ADC_GLV_V_DIVISOR_2;
1135:Generated_Source\PSoC5/ADC_GLV_V.c ****                 break;
1136:Generated_Source\PSoC5/ADC_GLV_V.c ****         #endif /* ADC_GLV_V__BITS_12 */    
1137:Generated_Source\PSoC5/ADC_GLV_V.c ****         #if( (ADC_GLV_V_CFG1_RESOLUTION == ADC_GLV_V__BITS_13) || \
1138:Generated_Source\PSoC5/ADC_GLV_V.c ****              (ADC_GLV_V_CFG2_RESOLUTION == ADC_GLV_V__BITS_13) || \
1139:Generated_Source\PSoC5/ADC_GLV_V.c ****              (ADC_GLV_V_CFG3_RESOLUTION == ADC_GLV_V__BITS_13) || \
1140:Generated_Source\PSoC5/ADC_GLV_V.c ****              (ADC_GLV_V_CFG4_RESOLUTION == ADC_GLV_V__BITS_13) )
1141:Generated_Source\PSoC5/ADC_GLV_V.c ****             case (uint8)ADC_GLV_V__BITS_13:
1142:Generated_Source\PSoC5/ADC_GLV_V.c ****                 coefA = ADC_GLV_V_1UV_COUNTS / ADC_GLV_V_DIVISOR_4;
1143:Generated_Source\PSoC5/ADC_GLV_V.c ****                 coefB = ADC_GLV_V_DIVISOR_4;
1144:Generated_Source\PSoC5/ADC_GLV_V.c ****                 break;
1145:Generated_Source\PSoC5/ADC_GLV_V.c ****         #endif /* ADC_GLV_V__BITS_13 */    
1146:Generated_Source\PSoC5/ADC_GLV_V.c ****         #if( (ADC_GLV_V_CFG1_RESOLUTION == ADC_GLV_V__BITS_14) || \
1147:Generated_Source\PSoC5/ADC_GLV_V.c ****              (ADC_GLV_V_CFG2_RESOLUTION == ADC_GLV_V__BITS_14) || \
1148:Generated_Source\PSoC5/ADC_GLV_V.c ****              (ADC_GLV_V_CFG3_RESOLUTION == ADC_GLV_V__BITS_14) || \
1149:Generated_Source\PSoC5/ADC_GLV_V.c ****              (ADC_GLV_V_CFG4_RESOLUTION == ADC_GLV_V__BITS_14) )
1150:Generated_Source\PSoC5/ADC_GLV_V.c ****             case (uint8)ADC_GLV_V__BITS_14:
1151:Generated_Source\PSoC5/ADC_GLV_V.c ****                 coefA = ADC_GLV_V_1UV_COUNTS / ADC_GLV_V_DIVISOR_8;
1152:Generated_Source\PSoC5/ADC_GLV_V.c ****                 coefB = ADC_GLV_V_DIVISOR_8;
1153:Generated_Source\PSoC5/ADC_GLV_V.c ****                 break;
1154:Generated_Source\PSoC5/ADC_GLV_V.c ****         #endif /* ADC_GLV_V__BITS_14 */    
1155:Generated_Source\PSoC5/ADC_GLV_V.c ****         #if( (ADC_GLV_V_CFG1_RESOLUTION == ADC_GLV_V__BITS_15) || \
1156:Generated_Source\PSoC5/ADC_GLV_V.c ****              (ADC_GLV_V_CFG2_RESOLUTION == ADC_GLV_V__BITS_15) || \
1157:Generated_Source\PSoC5/ADC_GLV_V.c ****              (ADC_GLV_V_CFG3_RESOLUTION == ADC_GLV_V__BITS_15) || \
1158:Generated_Source\PSoC5/ADC_GLV_V.c ****              (ADC_GLV_V_CFG4_RESOLUTION == ADC_GLV_V__BITS_15) )
1159:Generated_Source\PSoC5/ADC_GLV_V.c ****             case (uint8)ADC_GLV_V__BITS_15:
1160:Generated_Source\PSoC5/ADC_GLV_V.c ****                 coefA = ADC_GLV_V_1UV_COUNTS / ADC_GLV_V_DIVISOR_16;
1161:Generated_Source\PSoC5/ADC_GLV_V.c ****                 coefB = ADC_GLV_V_DIVISOR_16;
1162:Generated_Source\PSoC5/ADC_GLV_V.c ****                 break;
1163:Generated_Source\PSoC5/ADC_GLV_V.c ****         #endif /* ADC_GLV_V__BITS_15 */    
1164:Generated_Source\PSoC5/ADC_GLV_V.c ****         #if( (ADC_GLV_V_CFG1_RESOLUTION == ADC_GLV_V__BITS_16) || \
1165:Generated_Source\PSoC5/ADC_GLV_V.c ****              (ADC_GLV_V_CFG2_RESOLUTION == ADC_GLV_V__BITS_16) || \
1166:Generated_Source\PSoC5/ADC_GLV_V.c ****              (ADC_GLV_V_CFG3_RESOLUTION == ADC_GLV_V__BITS_16) || \
1167:Generated_Source\PSoC5/ADC_GLV_V.c ****              (ADC_GLV_V_CFG4_RESOLUTION == ADC_GLV_V__BITS_16) )
1168:Generated_Source\PSoC5/ADC_GLV_V.c ****             case (uint8)ADC_GLV_V__BITS_16:
1169:Generated_Source\PSoC5/ADC_GLV_V.c ****                 coefA = ADC_GLV_V_1UV_COUNTS / ADC_GLV_V_DIVISOR_32;
1170:Generated_Source\PSoC5/ADC_GLV_V.c ****                 coefB = ADC_GLV_V_DIVISOR_32;
1171:Generated_Source\PSoC5/ADC_GLV_V.c ****                 break;
ARM GAS  C:\Users\ANDREY~1\AppData\Local\Temp\cc0akFQM.s 			page 22


1172:Generated_Source\PSoC5/ADC_GLV_V.c ****         #endif /* ADC_GLV_V__BITS_16 */    
1173:Generated_Source\PSoC5/ADC_GLV_V.c ****         #if( (ADC_GLV_V_CFG1_RESOLUTION == ADC_GLV_V__BITS_17) || \
1174:Generated_Source\PSoC5/ADC_GLV_V.c ****              (ADC_GLV_V_CFG2_RESOLUTION == ADC_GLV_V__BITS_17) || \
1175:Generated_Source\PSoC5/ADC_GLV_V.c ****              (ADC_GLV_V_CFG3_RESOLUTION == ADC_GLV_V__BITS_17) || \
1176:Generated_Source\PSoC5/ADC_GLV_V.c ****              (ADC_GLV_V_CFG4_RESOLUTION == ADC_GLV_V__BITS_17) )
1177:Generated_Source\PSoC5/ADC_GLV_V.c ****             case (uint8)ADC_GLV_V__BITS_17:
1178:Generated_Source\PSoC5/ADC_GLV_V.c ****                 coefA = ADC_GLV_V_1UV_COUNTS / ADC_GLV_V_DIVISOR_64;
1179:Generated_Source\PSoC5/ADC_GLV_V.c ****                 coefB = ADC_GLV_V_DIVISOR_64;
1180:Generated_Source\PSoC5/ADC_GLV_V.c ****                 break;
1181:Generated_Source\PSoC5/ADC_GLV_V.c ****         #endif /* ADC_GLV_V__BITS_17 */    
1182:Generated_Source\PSoC5/ADC_GLV_V.c ****         #if( (ADC_GLV_V_CFG1_RESOLUTION == ADC_GLV_V__BITS_18) || \
1183:Generated_Source\PSoC5/ADC_GLV_V.c ****              (ADC_GLV_V_CFG2_RESOLUTION == ADC_GLV_V__BITS_18) || \
1184:Generated_Source\PSoC5/ADC_GLV_V.c ****              (ADC_GLV_V_CFG3_RESOLUTION == ADC_GLV_V__BITS_18) || \
1185:Generated_Source\PSoC5/ADC_GLV_V.c ****              (ADC_GLV_V_CFG4_RESOLUTION == ADC_GLV_V__BITS_18) )
1186:Generated_Source\PSoC5/ADC_GLV_V.c ****             case (uint8)ADC_GLV_V__BITS_18:
1187:Generated_Source\PSoC5/ADC_GLV_V.c ****                 coefA = ADC_GLV_V_1UV_COUNTS / ADC_GLV_V_DIVISOR_125;
1188:Generated_Source\PSoC5/ADC_GLV_V.c ****                 coefB = ADC_GLV_V_DIVISOR_125;
1189:Generated_Source\PSoC5/ADC_GLV_V.c ****                 break;
1190:Generated_Source\PSoC5/ADC_GLV_V.c ****         #endif /* ADC_GLV_V__BITS_18 */    
1191:Generated_Source\PSoC5/ADC_GLV_V.c ****         #if( (ADC_GLV_V_CFG1_RESOLUTION == ADC_GLV_V__BITS_19) || \
1192:Generated_Source\PSoC5/ADC_GLV_V.c ****              (ADC_GLV_V_CFG2_RESOLUTION == ADC_GLV_V__BITS_19) || \
1193:Generated_Source\PSoC5/ADC_GLV_V.c ****              (ADC_GLV_V_CFG3_RESOLUTION == ADC_GLV_V__BITS_19) || \
1194:Generated_Source\PSoC5/ADC_GLV_V.c ****              (ADC_GLV_V_CFG4_RESOLUTION == ADC_GLV_V__BITS_19) )
1195:Generated_Source\PSoC5/ADC_GLV_V.c ****             case (uint8)ADC_GLV_V__BITS_19:
1196:Generated_Source\PSoC5/ADC_GLV_V.c ****                 coefA = ADC_GLV_V_1UV_COUNTS / ADC_GLV_V_DIVISOR_250;
1197:Generated_Source\PSoC5/ADC_GLV_V.c ****                 coefB = ADC_GLV_V_DIVISOR_250;
1198:Generated_Source\PSoC5/ADC_GLV_V.c ****                 break;
1199:Generated_Source\PSoC5/ADC_GLV_V.c ****         #endif /* ADC_GLV_V__BITS_19 */    
1200:Generated_Source\PSoC5/ADC_GLV_V.c ****         #if( (ADC_GLV_V_CFG1_RESOLUTION == ADC_GLV_V__BITS_20) || \
1201:Generated_Source\PSoC5/ADC_GLV_V.c ****              (ADC_GLV_V_CFG2_RESOLUTION == ADC_GLV_V__BITS_20) || \
1202:Generated_Source\PSoC5/ADC_GLV_V.c ****              (ADC_GLV_V_CFG3_RESOLUTION == ADC_GLV_V__BITS_20) || \
1203:Generated_Source\PSoC5/ADC_GLV_V.c ****              (ADC_GLV_V_CFG4_RESOLUTION == ADC_GLV_V__BITS_20) )
1204:Generated_Source\PSoC5/ADC_GLV_V.c ****             case (uint8)ADC_GLV_V__BITS_20:
1205:Generated_Source\PSoC5/ADC_GLV_V.c ****                 coefA = ADC_GLV_V_1UV_COUNTS / ADC_GLV_V_DIVISOR_500;
1206:Generated_Source\PSoC5/ADC_GLV_V.c ****                 coefB = ADC_GLV_V_DIVISOR_500;
1207:Generated_Source\PSoC5/ADC_GLV_V.c ****                 break;
1208:Generated_Source\PSoC5/ADC_GLV_V.c ****         #endif /* ADC_GLV_V__BITS_20 */    
1209:Generated_Source\PSoC5/ADC_GLV_V.c ****         default:    /* resolution < 12 */
1210:Generated_Source\PSoC5/ADC_GLV_V.c ****             /* 11 bits ADC + 2^20(1048576) = 31 bits */
1211:Generated_Source\PSoC5/ADC_GLV_V.c ****             coefA = ADC_GLV_V_1UV_COUNTS;
1212:Generated_Source\PSoC5/ADC_GLV_V.c ****             coefB = ADC_GLV_V_DIVISOR_1;
1213:Generated_Source\PSoC5/ADC_GLV_V.c ****             break;
1214:Generated_Source\PSoC5/ADC_GLV_V.c ****     }
1215:Generated_Source\PSoC5/ADC_GLV_V.c ****     coefB = ADC_GLV_V_CountsPerVolt / coefB;
1216:Generated_Source\PSoC5/ADC_GLV_V.c ****     uVolts = ((coefA * adcCounts) / coefB) - ((coefA * ADC_GLV_V_Offset) / coefB);
1217:Generated_Source\PSoC5/ADC_GLV_V.c **** 
1218:Generated_Source\PSoC5/ADC_GLV_V.c ****     return( uVolts );
1219:Generated_Source\PSoC5/ADC_GLV_V.c **** }
1220:Generated_Source\PSoC5/ADC_GLV_V.c **** 
1221:Generated_Source\PSoC5/ADC_GLV_V.c **** 
1222:Generated_Source\PSoC5/ADC_GLV_V.c **** /*******************************************************************************
1223:Generated_Source\PSoC5/ADC_GLV_V.c **** * Function Name: ADC_GLV_V_InitConfig(uint8 config)
1224:Generated_Source\PSoC5/ADC_GLV_V.c **** ********************************************************************************
1225:Generated_Source\PSoC5/ADC_GLV_V.c **** *
1226:Generated_Source\PSoC5/ADC_GLV_V.c **** * Summary:
1227:Generated_Source\PSoC5/ADC_GLV_V.c **** *  Initializes all registers based on customizer settings
1228:Generated_Source\PSoC5/ADC_GLV_V.c **** *
ARM GAS  C:\Users\ANDREY~1\AppData\Local\Temp\cc0akFQM.s 			page 23


1229:Generated_Source\PSoC5/ADC_GLV_V.c **** * Parameters:
1230:Generated_Source\PSoC5/ADC_GLV_V.c **** *   void
1231:Generated_Source\PSoC5/ADC_GLV_V.c **** *
1232:Generated_Source\PSoC5/ADC_GLV_V.c **** * Return:
1233:Generated_Source\PSoC5/ADC_GLV_V.c **** *  None
1234:Generated_Source\PSoC5/ADC_GLV_V.c **** *
1235:Generated_Source\PSoC5/ADC_GLV_V.c **** * Global variables:
1236:Generated_Source\PSoC5/ADC_GLV_V.c **** *  ADC_GLV_V_CountsPerVolt:  Used to set the default counts per volt.
1237:Generated_Source\PSoC5/ADC_GLV_V.c **** *
1238:Generated_Source\PSoC5/ADC_GLV_V.c **** * Side Effects: Rewrites the coherency set by ADC_GLV_V_SetCoherency()
1239:Generated_Source\PSoC5/ADC_GLV_V.c **** *   API to the default value.
1240:Generated_Source\PSoC5/ADC_GLV_V.c **** *
1241:Generated_Source\PSoC5/ADC_GLV_V.c **** *******************************************************************************/
1242:Generated_Source\PSoC5/ADC_GLV_V.c **** static void ADC_GLV_V_InitConfig(uint8 config) 
1243:Generated_Source\PSoC5/ADC_GLV_V.c **** {
1244:Generated_Source\PSoC5/ADC_GLV_V.c ****     ADC_GLV_V_stopConversion = 0u;
1245:Generated_Source\PSoC5/ADC_GLV_V.c **** 
1246:Generated_Source\PSoC5/ADC_GLV_V.c ****     if (config == 1u)
1247:Generated_Source\PSoC5/ADC_GLV_V.c ****     {
1248:Generated_Source\PSoC5/ADC_GLV_V.c ****         /* Default Config */
1249:Generated_Source\PSoC5/ADC_GLV_V.c ****         ADC_GLV_V_DEC_CR_REG      = ADC_GLV_V_CFG1_DEC_CR;
1250:Generated_Source\PSoC5/ADC_GLV_V.c ****         ADC_GLV_V_DEC_SHIFT1_REG  = ADC_GLV_V_CFG1_DEC_SHIFT1;
1251:Generated_Source\PSoC5/ADC_GLV_V.c ****         ADC_GLV_V_DEC_SHIFT2_REG  = ADC_GLV_V_CFG1_DEC_SHIFT2;
1252:Generated_Source\PSoC5/ADC_GLV_V.c ****         ADC_GLV_V_DEC_DR2_REG     = ADC_GLV_V_CFG1_DEC_DR2;
1253:Generated_Source\PSoC5/ADC_GLV_V.c ****         ADC_GLV_V_DEC_DR2H_REG    = ADC_GLV_V_CFG1_DEC_DR2H;
1254:Generated_Source\PSoC5/ADC_GLV_V.c ****         ADC_GLV_V_DEC_DR1_REG     = ADC_GLV_V_CFG1_DEC_DR1;
1255:Generated_Source\PSoC5/ADC_GLV_V.c ****         ADC_GLV_V_DEC_OCOR_REG    = ADC_GLV_V_CFG1_DEC_OCOR;
1256:Generated_Source\PSoC5/ADC_GLV_V.c ****         ADC_GLV_V_DEC_OCORM_REG   = ADC_GLV_V_CFG1_DEC_OCORM;
1257:Generated_Source\PSoC5/ADC_GLV_V.c ****         ADC_GLV_V_DEC_OCORH_REG   = ADC_GLV_V_CFG1_DEC_OCORH;
1258:Generated_Source\PSoC5/ADC_GLV_V.c ****         ADC_GLV_V_DEC_COHER_REG   = ADC_GLV_V_CFG1_DEC_COHER;
1259:Generated_Source\PSoC5/ADC_GLV_V.c **** 
1260:Generated_Source\PSoC5/ADC_GLV_V.c ****         ADC_GLV_V_DSM_CR4_REG     = ADC_GLV_V_CFG1_DSM_CR4;
1261:Generated_Source\PSoC5/ADC_GLV_V.c ****         ADC_GLV_V_DSM_CR5_REG     = ADC_GLV_V_CFG1_DSM_CR5;
1262:Generated_Source\PSoC5/ADC_GLV_V.c ****         ADC_GLV_V_DSM_CR6_REG     = ADC_GLV_V_CFG1_DSM_CR6;
1263:Generated_Source\PSoC5/ADC_GLV_V.c ****         ADC_GLV_V_DSM_CR7_REG     = ADC_GLV_V_CFG1_DSM_CR7;
1264:Generated_Source\PSoC5/ADC_GLV_V.c ****         ADC_GLV_V_DSM_CR10_REG    = ADC_GLV_V_CFG1_DSM_CR10;
1265:Generated_Source\PSoC5/ADC_GLV_V.c ****         ADC_GLV_V_DSM_CR11_REG    = ADC_GLV_V_CFG1_DSM_CR11;
1266:Generated_Source\PSoC5/ADC_GLV_V.c ****         ADC_GLV_V_DSM_CR12_REG    = ADC_GLV_V_CFG1_DSM_CR12;
1267:Generated_Source\PSoC5/ADC_GLV_V.c ****         ADC_GLV_V_DSM_CR14_REG    = ADC_GLV_V_CFG1_DSM_CR14;
1268:Generated_Source\PSoC5/ADC_GLV_V.c ****         ADC_GLV_V_DSM_CR15_REG    = ADC_GLV_V_CFG1_DSM_CR15;
1269:Generated_Source\PSoC5/ADC_GLV_V.c ****         ADC_GLV_V_DSM_CR16_REG    = ADC_GLV_V_CFG1_DSM_CR16;
1270:Generated_Source\PSoC5/ADC_GLV_V.c ****         ADC_GLV_V_DSM_CR17_REG    = ADC_GLV_V_CFG1_DSM_CR17;
1271:Generated_Source\PSoC5/ADC_GLV_V.c ****         /* Set DSM_REF0_REG by disabling and enabling the PRESS circuit */
1272:Generated_Source\PSoC5/ADC_GLV_V.c ****         ADC_GLV_V_SetDSMRef0Reg(ADC_GLV_V_CFG1_DSM_REF0);
1273:Generated_Source\PSoC5/ADC_GLV_V.c ****         ADC_GLV_V_DSM_REF2_REG    = ADC_GLV_V_CFG1_DSM_REF2;
1274:Generated_Source\PSoC5/ADC_GLV_V.c ****         ADC_GLV_V_DSM_REF3_REG    = ADC_GLV_V_CFG1_DSM_REF3;
1275:Generated_Source\PSoC5/ADC_GLV_V.c **** 
1276:Generated_Source\PSoC5/ADC_GLV_V.c ****         ADC_GLV_V_DSM_BUF0_REG    = ADC_GLV_V_CFG1_DSM_BUF0;
1277:Generated_Source\PSoC5/ADC_GLV_V.c ****         ADC_GLV_V_DSM_BUF1_REG    = ADC_GLV_V_CFG1_DSM_BUF1;
1278:Generated_Source\PSoC5/ADC_GLV_V.c ****         ADC_GLV_V_DSM_BUF2_REG    = ADC_GLV_V_CFG1_DSM_BUF2;
1279:Generated_Source\PSoC5/ADC_GLV_V.c ****         ADC_GLV_V_DSM_BUF3_REG    = ADC_GLV_V_CFG1_DSM_BUF3;
1280:Generated_Source\PSoC5/ADC_GLV_V.c **** 
1281:Generated_Source\PSoC5/ADC_GLV_V.c ****         /* To select either Vssa or Vref to -ve input of DSM depending on
1282:Generated_Source\PSoC5/ADC_GLV_V.c ****         *  the input  range selected.
1283:Generated_Source\PSoC5/ADC_GLV_V.c ****         */
1284:Generated_Source\PSoC5/ADC_GLV_V.c ****         #if(ADC_GLV_V_DEFAULT_INPUT_MODE)
1285:Generated_Source\PSoC5/ADC_GLV_V.c ****             #if (ADC_GLV_V_CFG1_INPUT_RANGE == ADC_GLV_V_IR_VSSA_TO_2VREF)
ARM GAS  C:\Users\ANDREY~1\AppData\Local\Temp\cc0akFQM.s 			page 24


1286:Generated_Source\PSoC5/ADC_GLV_V.c ****                 ADC_GLV_V_AMux_Select(1u);
1287:Generated_Source\PSoC5/ADC_GLV_V.c ****             #else
1288:Generated_Source\PSoC5/ADC_GLV_V.c ****                 ADC_GLV_V_AMux_Select(0u);
1289:Generated_Source\PSoC5/ADC_GLV_V.c ****             #endif /* ADC_GLV_V_IR_VSSA_TO_2VREF) */
1290:Generated_Source\PSoC5/ADC_GLV_V.c ****         #endif /* ADC_GLV_V_DEFAULT_INPUT_MODE */
1291:Generated_Source\PSoC5/ADC_GLV_V.c **** 
1292:Generated_Source\PSoC5/ADC_GLV_V.c ****         /* Set the Conversion stop if resolution is above 16 bit and conversion
1293:Generated_Source\PSoC5/ADC_GLV_V.c ****         *   mode is Single sample
1294:Generated_Source\PSoC5/ADC_GLV_V.c ****         */
1295:Generated_Source\PSoC5/ADC_GLV_V.c ****         #if(ADC_GLV_V_CFG1_RESOLUTION > 16 && \
1296:Generated_Source\PSoC5/ADC_GLV_V.c ****             ADC_GLV_V_CFG1_CONV_MODE == ADC_GLV_V_MODE_SINGLE_SAMPLE)
1297:Generated_Source\PSoC5/ADC_GLV_V.c ****             ADC_GLV_V_stopConversion = 1u;
1298:Generated_Source\PSoC5/ADC_GLV_V.c ****         #endif /* Single sample with resolution above 16 bits. */
1299:Generated_Source\PSoC5/ADC_GLV_V.c **** 
1300:Generated_Source\PSoC5/ADC_GLV_V.c ****         ADC_GLV_V_CountsPerVolt = (int32)ADC_GLV_V_CFG1_COUNTS_PER_VOLT;
1301:Generated_Source\PSoC5/ADC_GLV_V.c **** 
1302:Generated_Source\PSoC5/ADC_GLV_V.c ****         ADC_GLV_V_Ext_CP_Clk_SetDividerRegister(ADC_GLV_V_CFG1_CP_CLK_DIVIDER, 1u);
1303:Generated_Source\PSoC5/ADC_GLV_V.c **** 
1304:Generated_Source\PSoC5/ADC_GLV_V.c ****         /* This is only valid if there is an internal clock */
1305:Generated_Source\PSoC5/ADC_GLV_V.c ****         #if(ADC_GLV_V_DEFAULT_INTERNAL_CLK)
1306:Generated_Source\PSoC5/ADC_GLV_V.c ****             ADC_GLV_V_theACLK_SetDividerRegister(ADC_GLV_V_CFG1_ADC_CLK_DIVIDER, 1u);
1307:Generated_Source\PSoC5/ADC_GLV_V.c ****         #endif /* ADC_GLV_V_DEFAULT_INTERNAL_CLK */
1308:Generated_Source\PSoC5/ADC_GLV_V.c **** 
1309:Generated_Source\PSoC5/ADC_GLV_V.c ****         #if(ADC_GLV_V_IRQ_REMOVE == 0u)
1310:Generated_Source\PSoC5/ADC_GLV_V.c ****             /* Set interrupt vector */
1311:Generated_Source\PSoC5/ADC_GLV_V.c ****             (void)CyIntSetVector(ADC_GLV_V_INTC_NUMBER, &ADC_GLV_V_ISR1);
1312:Generated_Source\PSoC5/ADC_GLV_V.c ****         #endif   /* End ADC_GLV_V_IRQ_REMOVE */
1313:Generated_Source\PSoC5/ADC_GLV_V.c ****     }
1314:Generated_Source\PSoC5/ADC_GLV_V.c **** 
1315:Generated_Source\PSoC5/ADC_GLV_V.c ****     #if(ADC_GLV_V_DEFAULT_NUM_CONFIGS > 1)
1316:Generated_Source\PSoC5/ADC_GLV_V.c ****         if(config == 2u)
1317:Generated_Source\PSoC5/ADC_GLV_V.c ****         {
1318:Generated_Source\PSoC5/ADC_GLV_V.c ****             /* Second Config */
1319:Generated_Source\PSoC5/ADC_GLV_V.c ****             ADC_GLV_V_DEC_CR_REG      = ADC_GLV_V_CFG2_DEC_CR;
1320:Generated_Source\PSoC5/ADC_GLV_V.c ****             ADC_GLV_V_DEC_SHIFT1_REG  = ADC_GLV_V_CFG2_DEC_SHIFT1;
1321:Generated_Source\PSoC5/ADC_GLV_V.c ****             ADC_GLV_V_DEC_SHIFT2_REG  = ADC_GLV_V_CFG2_DEC_SHIFT2;
1322:Generated_Source\PSoC5/ADC_GLV_V.c ****             ADC_GLV_V_DEC_DR2_REG     = ADC_GLV_V_CFG2_DEC_DR2;
1323:Generated_Source\PSoC5/ADC_GLV_V.c ****             ADC_GLV_V_DEC_DR2H_REG    = ADC_GLV_V_CFG2_DEC_DR2H;
1324:Generated_Source\PSoC5/ADC_GLV_V.c ****             ADC_GLV_V_DEC_DR1_REG     = ADC_GLV_V_CFG2_DEC_DR1;
1325:Generated_Source\PSoC5/ADC_GLV_V.c ****             ADC_GLV_V_DEC_OCOR_REG    = ADC_GLV_V_CFG2_DEC_OCOR;
1326:Generated_Source\PSoC5/ADC_GLV_V.c ****             ADC_GLV_V_DEC_OCORM_REG   = ADC_GLV_V_CFG2_DEC_OCORM;
1327:Generated_Source\PSoC5/ADC_GLV_V.c ****             ADC_GLV_V_DEC_OCORH_REG   = ADC_GLV_V_CFG2_DEC_OCORH;
1328:Generated_Source\PSoC5/ADC_GLV_V.c ****             ADC_GLV_V_DEC_COHER_REG   = ADC_GLV_V_CFG2_DEC_COHER;
1329:Generated_Source\PSoC5/ADC_GLV_V.c **** 
1330:Generated_Source\PSoC5/ADC_GLV_V.c ****             ADC_GLV_V_DSM_CR4_REG     = ADC_GLV_V_CFG2_DSM_CR4;
1331:Generated_Source\PSoC5/ADC_GLV_V.c ****             ADC_GLV_V_DSM_CR5_REG     = ADC_GLV_V_CFG2_DSM_CR5;
1332:Generated_Source\PSoC5/ADC_GLV_V.c ****             ADC_GLV_V_DSM_CR6_REG     = ADC_GLV_V_CFG2_DSM_CR6;
1333:Generated_Source\PSoC5/ADC_GLV_V.c ****             ADC_GLV_V_DSM_CR7_REG     = ADC_GLV_V_CFG2_DSM_CR7;
1334:Generated_Source\PSoC5/ADC_GLV_V.c ****             ADC_GLV_V_DSM_CR10_REG    = ADC_GLV_V_CFG2_DSM_CR10;
1335:Generated_Source\PSoC5/ADC_GLV_V.c ****             ADC_GLV_V_DSM_CR11_REG    = ADC_GLV_V_CFG2_DSM_CR11;
1336:Generated_Source\PSoC5/ADC_GLV_V.c ****             ADC_GLV_V_DSM_CR12_REG    = ADC_GLV_V_CFG2_DSM_CR12;
1337:Generated_Source\PSoC5/ADC_GLV_V.c ****             ADC_GLV_V_DSM_CR14_REG    = ADC_GLV_V_CFG2_DSM_CR14;
1338:Generated_Source\PSoC5/ADC_GLV_V.c ****             ADC_GLV_V_DSM_CR15_REG    = ADC_GLV_V_CFG2_DSM_CR15;
1339:Generated_Source\PSoC5/ADC_GLV_V.c ****             ADC_GLV_V_DSM_CR16_REG    = ADC_GLV_V_CFG2_DSM_CR16;
1340:Generated_Source\PSoC5/ADC_GLV_V.c ****             ADC_GLV_V_DSM_CR17_REG    = ADC_GLV_V_CFG2_DSM_CR17;
1341:Generated_Source\PSoC5/ADC_GLV_V.c ****             /* Set DSM_REF0_REG by disabling and enabling the PRESS cirucit */
1342:Generated_Source\PSoC5/ADC_GLV_V.c ****             ADC_GLV_V_SetDSMRef0Reg(ADC_GLV_V_CFG2_DSM_REF0);
ARM GAS  C:\Users\ANDREY~1\AppData\Local\Temp\cc0akFQM.s 			page 25


1343:Generated_Source\PSoC5/ADC_GLV_V.c ****             ADC_GLV_V_DSM_REF2_REG    = ADC_GLV_V_CFG2_DSM_REF2;
1344:Generated_Source\PSoC5/ADC_GLV_V.c ****             ADC_GLV_V_DSM_REF3_REG    = ADC_GLV_V_CFG2_DSM_REF3;
1345:Generated_Source\PSoC5/ADC_GLV_V.c **** 
1346:Generated_Source\PSoC5/ADC_GLV_V.c ****             ADC_GLV_V_DSM_BUF0_REG    = ADC_GLV_V_CFG2_DSM_BUF0;
1347:Generated_Source\PSoC5/ADC_GLV_V.c ****             ADC_GLV_V_DSM_BUF1_REG    = ADC_GLV_V_CFG2_DSM_BUF1;
1348:Generated_Source\PSoC5/ADC_GLV_V.c ****             ADC_GLV_V_DSM_BUF2_REG    = ADC_GLV_V_CFG2_DSM_BUF2;
1349:Generated_Source\PSoC5/ADC_GLV_V.c ****             ADC_GLV_V_DSM_BUF3_REG    = ADC_GLV_V_CFG2_DSM_BUF3;
1350:Generated_Source\PSoC5/ADC_GLV_V.c **** 
1351:Generated_Source\PSoC5/ADC_GLV_V.c ****             /* To select either Vssa or Vref to -ve input of DSM depending on
1352:Generated_Source\PSoC5/ADC_GLV_V.c ****             *  the input range selected.
1353:Generated_Source\PSoC5/ADC_GLV_V.c ****             */
1354:Generated_Source\PSoC5/ADC_GLV_V.c **** 
1355:Generated_Source\PSoC5/ADC_GLV_V.c ****             #if(ADC_GLV_V_DEFAULT_INPUT_MODE)
1356:Generated_Source\PSoC5/ADC_GLV_V.c ****                 #if (ADC_GLV_V_CFG2_INPUT_RANGE == ADC_GLV_V_IR_VSSA_TO_2VREF)
1357:Generated_Source\PSoC5/ADC_GLV_V.c ****                     ADC_GLV_V_AMux_Select(1u);
1358:Generated_Source\PSoC5/ADC_GLV_V.c ****                 #else
1359:Generated_Source\PSoC5/ADC_GLV_V.c ****                     ADC_GLV_V_AMux_Select(0u);
1360:Generated_Source\PSoC5/ADC_GLV_V.c ****                 #endif /* ADC_GLV_V_IR_VSSA_TO_2VREF) */
1361:Generated_Source\PSoC5/ADC_GLV_V.c ****             #endif /* ADC_GLV_V_DEFAULT_INPUT_MODE */
1362:Generated_Source\PSoC5/ADC_GLV_V.c **** 
1363:Generated_Source\PSoC5/ADC_GLV_V.c ****             /* Set the Conversion stop if resolution is above 16 bit and
1364:Generated_Source\PSoC5/ADC_GLV_V.c ****             *   conversion mode is Single sample
1365:Generated_Source\PSoC5/ADC_GLV_V.c ****             */
1366:Generated_Source\PSoC5/ADC_GLV_V.c ****             #if(ADC_GLV_V_CFG2_RESOLUTION > 16 && \
1367:Generated_Source\PSoC5/ADC_GLV_V.c ****                 ADC_GLV_V_CFG2_CONV_MODE == ADC_GLV_V_MODE_SINGLE_SAMPLE)
1368:Generated_Source\PSoC5/ADC_GLV_V.c ****                 ADC_GLV_V_stopConversion = 1u;
1369:Generated_Source\PSoC5/ADC_GLV_V.c ****             #endif /* Single sample with resolution above 16 bits. */
1370:Generated_Source\PSoC5/ADC_GLV_V.c **** 
1371:Generated_Source\PSoC5/ADC_GLV_V.c ****             ADC_GLV_V_CountsPerVolt = (int32)ADC_GLV_V_CFG2_COUNTS_PER_VOLT;
1372:Generated_Source\PSoC5/ADC_GLV_V.c **** 
1373:Generated_Source\PSoC5/ADC_GLV_V.c ****             ADC_GLV_V_Ext_CP_Clk_SetDividerRegister(ADC_GLV_V_CFG2_CP_CLK_DIVIDER, 1u);
1374:Generated_Source\PSoC5/ADC_GLV_V.c **** 
1375:Generated_Source\PSoC5/ADC_GLV_V.c ****             /* This is only valid if there is an internal clock */
1376:Generated_Source\PSoC5/ADC_GLV_V.c ****             #if(ADC_GLV_V_DEFAULT_INTERNAL_CLK)
1377:Generated_Source\PSoC5/ADC_GLV_V.c ****                 ADC_GLV_V_theACLK_SetDividerRegister(ADC_GLV_V_CFG2_ADC_CLK_DIVIDER, 1u);
1378:Generated_Source\PSoC5/ADC_GLV_V.c ****             #endif /* ADC_GLV_V_DEFAULT_INTERNAL_CLK */
1379:Generated_Source\PSoC5/ADC_GLV_V.c **** 
1380:Generated_Source\PSoC5/ADC_GLV_V.c ****             #if(ADC_GLV_V_IRQ_REMOVE == 0u)
1381:Generated_Source\PSoC5/ADC_GLV_V.c ****                 /* Set interrupt vector */
1382:Generated_Source\PSoC5/ADC_GLV_V.c ****                 (void)CyIntSetVector(ADC_GLV_V_INTC_NUMBER, &ADC_GLV_V_ISR2);
1383:Generated_Source\PSoC5/ADC_GLV_V.c ****             #endif   /* End ADC_GLV_V_IRQ_REMOVE */
1384:Generated_Source\PSoC5/ADC_GLV_V.c ****         }
1385:Generated_Source\PSoC5/ADC_GLV_V.c ****     #endif /* ADC_GLV_V_DEFAULT_NUM_CONFIGS > 1 */
1386:Generated_Source\PSoC5/ADC_GLV_V.c **** 
1387:Generated_Source\PSoC5/ADC_GLV_V.c ****     #if(ADC_GLV_V_DEFAULT_NUM_CONFIGS > 2)
1388:Generated_Source\PSoC5/ADC_GLV_V.c ****         if(config == 3u)
1389:Generated_Source\PSoC5/ADC_GLV_V.c ****         {
1390:Generated_Source\PSoC5/ADC_GLV_V.c ****             /* Third Config */
1391:Generated_Source\PSoC5/ADC_GLV_V.c ****             ADC_GLV_V_DEC_CR_REG      = ADC_GLV_V_CFG3_DEC_CR;
1392:Generated_Source\PSoC5/ADC_GLV_V.c ****             ADC_GLV_V_DEC_SHIFT1_REG  = ADC_GLV_V_CFG3_DEC_SHIFT1;
1393:Generated_Source\PSoC5/ADC_GLV_V.c ****             ADC_GLV_V_DEC_SHIFT2_REG  = ADC_GLV_V_CFG3_DEC_SHIFT2;
1394:Generated_Source\PSoC5/ADC_GLV_V.c ****             ADC_GLV_V_DEC_DR2_REG     = ADC_GLV_V_CFG3_DEC_DR2;
1395:Generated_Source\PSoC5/ADC_GLV_V.c ****             ADC_GLV_V_DEC_DR2H_REG    = ADC_GLV_V_CFG3_DEC_DR2H;
1396:Generated_Source\PSoC5/ADC_GLV_V.c ****             ADC_GLV_V_DEC_DR1_REG     = ADC_GLV_V_CFG3_DEC_DR1;
1397:Generated_Source\PSoC5/ADC_GLV_V.c ****             ADC_GLV_V_DEC_OCOR_REG    = ADC_GLV_V_CFG3_DEC_OCOR;
1398:Generated_Source\PSoC5/ADC_GLV_V.c ****             ADC_GLV_V_DEC_OCORM_REG   = ADC_GLV_V_CFG3_DEC_OCORM;
1399:Generated_Source\PSoC5/ADC_GLV_V.c ****             ADC_GLV_V_DEC_OCORH_REG   = ADC_GLV_V_CFG3_DEC_OCORH;
ARM GAS  C:\Users\ANDREY~1\AppData\Local\Temp\cc0akFQM.s 			page 26


1400:Generated_Source\PSoC5/ADC_GLV_V.c ****             ADC_GLV_V_DEC_COHER_REG   = ADC_GLV_V_CFG3_DEC_COHER;
1401:Generated_Source\PSoC5/ADC_GLV_V.c **** 
1402:Generated_Source\PSoC5/ADC_GLV_V.c ****             ADC_GLV_V_DSM_CR4_REG     = ADC_GLV_V_CFG3_DSM_CR4;
1403:Generated_Source\PSoC5/ADC_GLV_V.c ****             ADC_GLV_V_DSM_CR5_REG     = ADC_GLV_V_CFG3_DSM_CR5;
1404:Generated_Source\PSoC5/ADC_GLV_V.c ****             ADC_GLV_V_DSM_CR6_REG     = ADC_GLV_V_CFG3_DSM_CR6;
1405:Generated_Source\PSoC5/ADC_GLV_V.c ****             ADC_GLV_V_DSM_CR7_REG     = ADC_GLV_V_CFG3_DSM_CR7;
1406:Generated_Source\PSoC5/ADC_GLV_V.c ****             ADC_GLV_V_DSM_CR10_REG    = ADC_GLV_V_CFG3_DSM_CR10;
1407:Generated_Source\PSoC5/ADC_GLV_V.c ****             ADC_GLV_V_DSM_CR11_REG    = ADC_GLV_V_CFG3_DSM_CR11;
1408:Generated_Source\PSoC5/ADC_GLV_V.c ****             ADC_GLV_V_DSM_CR12_REG    = ADC_GLV_V_CFG3_DSM_CR12;
1409:Generated_Source\PSoC5/ADC_GLV_V.c ****             ADC_GLV_V_DSM_CR14_REG    = ADC_GLV_V_CFG3_DSM_CR14;
1410:Generated_Source\PSoC5/ADC_GLV_V.c ****             ADC_GLV_V_DSM_CR15_REG    = ADC_GLV_V_CFG3_DSM_CR15;
1411:Generated_Source\PSoC5/ADC_GLV_V.c ****             ADC_GLV_V_DSM_CR16_REG    = ADC_GLV_V_CFG3_DSM_CR16;
1412:Generated_Source\PSoC5/ADC_GLV_V.c ****             ADC_GLV_V_DSM_CR17_REG    = ADC_GLV_V_CFG3_DSM_CR17;
1413:Generated_Source\PSoC5/ADC_GLV_V.c ****             /* Set DSM_REF0_REG by disabling and enabling the PRESS circuit */
1414:Generated_Source\PSoC5/ADC_GLV_V.c ****             ADC_GLV_V_SetDSMRef0Reg(ADC_GLV_V_CFG3_DSM_REF0);
1415:Generated_Source\PSoC5/ADC_GLV_V.c ****             ADC_GLV_V_DSM_REF2_REG    = ADC_GLV_V_CFG3_DSM_REF2;
1416:Generated_Source\PSoC5/ADC_GLV_V.c ****             ADC_GLV_V_DSM_REF3_REG    = ADC_GLV_V_CFG3_DSM_REF3;
1417:Generated_Source\PSoC5/ADC_GLV_V.c **** 
1418:Generated_Source\PSoC5/ADC_GLV_V.c ****             ADC_GLV_V_DSM_BUF0_REG    = ADC_GLV_V_CFG3_DSM_BUF0;
1419:Generated_Source\PSoC5/ADC_GLV_V.c ****             ADC_GLV_V_DSM_BUF1_REG    = ADC_GLV_V_CFG3_DSM_BUF1;
1420:Generated_Source\PSoC5/ADC_GLV_V.c ****             ADC_GLV_V_DSM_BUF2_REG    = ADC_GLV_V_CFG3_DSM_BUF2;
1421:Generated_Source\PSoC5/ADC_GLV_V.c ****             ADC_GLV_V_DSM_BUF3_REG    = ADC_GLV_V_CFG3_DSM_BUF3;
1422:Generated_Source\PSoC5/ADC_GLV_V.c **** 
1423:Generated_Source\PSoC5/ADC_GLV_V.c ****             /* To select either Vssa or Vref to -ve input of DSM depending on
1424:Generated_Source\PSoC5/ADC_GLV_V.c ****             *  the input range selected.
1425:Generated_Source\PSoC5/ADC_GLV_V.c ****             */
1426:Generated_Source\PSoC5/ADC_GLV_V.c ****             #if(ADC_GLV_V_DEFAULT_INPUT_MODE)
1427:Generated_Source\PSoC5/ADC_GLV_V.c ****                 #if (ADC_GLV_V_CFG3_INPUT_RANGE == ADC_GLV_V_IR_VSSA_TO_2VREF)
1428:Generated_Source\PSoC5/ADC_GLV_V.c ****                     ADC_GLV_V_AMux_Select(1u);
1429:Generated_Source\PSoC5/ADC_GLV_V.c ****                 #else
1430:Generated_Source\PSoC5/ADC_GLV_V.c ****                     ADC_GLV_V_AMux_Select(0u);
1431:Generated_Source\PSoC5/ADC_GLV_V.c ****                 #endif /* ADC_GLV_V_IR_VSSA_TO_2VREF) */
1432:Generated_Source\PSoC5/ADC_GLV_V.c ****             #endif /* ADC_GLV_V_DEFAULT_INPUT_MODE */
1433:Generated_Source\PSoC5/ADC_GLV_V.c **** 
1434:Generated_Source\PSoC5/ADC_GLV_V.c ****             /* Set the Conversion stop if resolution is above 16 bit and
1435:Generated_Source\PSoC5/ADC_GLV_V.c ****                conversion  mode is Single sample */
1436:Generated_Source\PSoC5/ADC_GLV_V.c ****             #if(ADC_GLV_V_CFG3_RESOLUTION > 16 && \
1437:Generated_Source\PSoC5/ADC_GLV_V.c ****                 ADC_GLV_V_CFG3_CONV_MODE == ADC_GLV_V_MODE_SINGLE_SAMPLE)
1438:Generated_Source\PSoC5/ADC_GLV_V.c ****                 ADC_GLV_V_stopConversion = 1u;
1439:Generated_Source\PSoC5/ADC_GLV_V.c ****             #endif /* Single sample with resolution above 16 bits */
1440:Generated_Source\PSoC5/ADC_GLV_V.c **** 
1441:Generated_Source\PSoC5/ADC_GLV_V.c ****             ADC_GLV_V_CountsPerVolt = (int32)ADC_GLV_V_CFG3_COUNTS_PER_VOLT;
1442:Generated_Source\PSoC5/ADC_GLV_V.c **** 
1443:Generated_Source\PSoC5/ADC_GLV_V.c ****             ADC_GLV_V_Ext_CP_Clk_SetDividerRegister(ADC_GLV_V_CFG3_CP_CLK_DIVIDER, 1u);
1444:Generated_Source\PSoC5/ADC_GLV_V.c **** 
1445:Generated_Source\PSoC5/ADC_GLV_V.c ****             /* This is only valid if there is an internal clock */
1446:Generated_Source\PSoC5/ADC_GLV_V.c ****             #if(ADC_GLV_V_DEFAULT_INTERNAL_CLK)
1447:Generated_Source\PSoC5/ADC_GLV_V.c ****                 ADC_GLV_V_theACLK_SetDividerRegister(ADC_GLV_V_CFG3_ADC_CLK_DIVIDER, 1u);
1448:Generated_Source\PSoC5/ADC_GLV_V.c ****             #endif /* ADC_GLV_V_DEFAULT_INTERNAL_CLK */
1449:Generated_Source\PSoC5/ADC_GLV_V.c **** 
1450:Generated_Source\PSoC5/ADC_GLV_V.c ****             #if(ADC_GLV_V_IRQ_REMOVE == 0u)
1451:Generated_Source\PSoC5/ADC_GLV_V.c ****                 /* Set interrupt vector */
1452:Generated_Source\PSoC5/ADC_GLV_V.c ****                 (void)CyIntSetVector(ADC_GLV_V_INTC_NUMBER, &ADC_GLV_V_ISR3);
1453:Generated_Source\PSoC5/ADC_GLV_V.c ****             #endif   /* End ADC_GLV_V_IRQ_REMOVE */
1454:Generated_Source\PSoC5/ADC_GLV_V.c ****         }
1455:Generated_Source\PSoC5/ADC_GLV_V.c ****     #endif /* ADC_GLV_V_DEFAULT_NUM_CONFIGS > 2 */
1456:Generated_Source\PSoC5/ADC_GLV_V.c **** 
ARM GAS  C:\Users\ANDREY~1\AppData\Local\Temp\cc0akFQM.s 			page 27


1457:Generated_Source\PSoC5/ADC_GLV_V.c ****     #if(ADC_GLV_V_DEFAULT_NUM_CONFIGS > 3)
1458:Generated_Source\PSoC5/ADC_GLV_V.c ****         if (config == 4u)
1459:Generated_Source\PSoC5/ADC_GLV_V.c ****         {
1460:Generated_Source\PSoC5/ADC_GLV_V.c ****             /* Fourth Config */
1461:Generated_Source\PSoC5/ADC_GLV_V.c ****             ADC_GLV_V_DEC_CR_REG      = ADC_GLV_V_CFG4_DEC_CR;
1462:Generated_Source\PSoC5/ADC_GLV_V.c ****             ADC_GLV_V_DEC_SHIFT1_REG  = ADC_GLV_V_CFG4_DEC_SHIFT1;
1463:Generated_Source\PSoC5/ADC_GLV_V.c ****             ADC_GLV_V_DEC_SHIFT2_REG  = ADC_GLV_V_CFG4_DEC_SHIFT2;
1464:Generated_Source\PSoC5/ADC_GLV_V.c ****             ADC_GLV_V_DEC_DR2_REG     = ADC_GLV_V_CFG4_DEC_DR2;
1465:Generated_Source\PSoC5/ADC_GLV_V.c ****             ADC_GLV_V_DEC_DR2H_REG    = ADC_GLV_V_CFG4_DEC_DR2H;
1466:Generated_Source\PSoC5/ADC_GLV_V.c ****             ADC_GLV_V_DEC_DR1_REG     = ADC_GLV_V_CFG4_DEC_DR1;
1467:Generated_Source\PSoC5/ADC_GLV_V.c ****             ADC_GLV_V_DEC_OCOR_REG    = ADC_GLV_V_CFG4_DEC_OCOR;
1468:Generated_Source\PSoC5/ADC_GLV_V.c ****             ADC_GLV_V_DEC_OCORM_REG   = ADC_GLV_V_CFG4_DEC_OCORM;
1469:Generated_Source\PSoC5/ADC_GLV_V.c ****             ADC_GLV_V_DEC_OCORH_REG   = ADC_GLV_V_CFG4_DEC_OCORH;
1470:Generated_Source\PSoC5/ADC_GLV_V.c ****             ADC_GLV_V_DEC_COHER_REG   = ADC_GLV_V_CFG4_DEC_COHER;
1471:Generated_Source\PSoC5/ADC_GLV_V.c **** 
1472:Generated_Source\PSoC5/ADC_GLV_V.c ****             ADC_GLV_V_DSM_CR4_REG     = ADC_GLV_V_CFG4_DSM_CR4;
1473:Generated_Source\PSoC5/ADC_GLV_V.c ****             ADC_GLV_V_DSM_CR5_REG     = ADC_GLV_V_CFG4_DSM_CR5;
1474:Generated_Source\PSoC5/ADC_GLV_V.c ****             ADC_GLV_V_DSM_CR6_REG     = ADC_GLV_V_CFG4_DSM_CR6;
1475:Generated_Source\PSoC5/ADC_GLV_V.c ****             ADC_GLV_V_DSM_CR7_REG     = ADC_GLV_V_CFG4_DSM_CR7;
1476:Generated_Source\PSoC5/ADC_GLV_V.c ****             ADC_GLV_V_DSM_CR10_REG    = ADC_GLV_V_CFG4_DSM_CR10;
1477:Generated_Source\PSoC5/ADC_GLV_V.c ****             ADC_GLV_V_DSM_CR11_REG    = ADC_GLV_V_CFG4_DSM_CR11;
1478:Generated_Source\PSoC5/ADC_GLV_V.c ****             ADC_GLV_V_DSM_CR12_REG    = ADC_GLV_V_CFG4_DSM_CR12;
1479:Generated_Source\PSoC5/ADC_GLV_V.c ****             ADC_GLV_V_DSM_CR14_REG    = ADC_GLV_V_CFG4_DSM_CR14;
1480:Generated_Source\PSoC5/ADC_GLV_V.c ****             ADC_GLV_V_DSM_CR15_REG    = ADC_GLV_V_CFG4_DSM_CR15;
1481:Generated_Source\PSoC5/ADC_GLV_V.c ****             ADC_GLV_V_DSM_CR16_REG    = ADC_GLV_V_CFG4_DSM_CR16;
1482:Generated_Source\PSoC5/ADC_GLV_V.c ****             ADC_GLV_V_DSM_CR17_REG    = ADC_GLV_V_CFG4_DSM_CR17;
1483:Generated_Source\PSoC5/ADC_GLV_V.c ****             /* Set DSM_REF0_REG by disabling and enabling the PRESS circuit */
1484:Generated_Source\PSoC5/ADC_GLV_V.c ****             ADC_GLV_V_SetDSMRef0Reg(ADC_GLV_V_CFG4_DSM_REF0);
1485:Generated_Source\PSoC5/ADC_GLV_V.c ****             ADC_GLV_V_DSM_REF2_REG    = ADC_GLV_V_CFG4_DSM_REF2;
1486:Generated_Source\PSoC5/ADC_GLV_V.c ****             ADC_GLV_V_DSM_REF3_REG    = ADC_GLV_V_CFG4_DSM_REF3;
1487:Generated_Source\PSoC5/ADC_GLV_V.c **** 
1488:Generated_Source\PSoC5/ADC_GLV_V.c ****             ADC_GLV_V_DSM_BUF0_REG    = ADC_GLV_V_CFG4_DSM_BUF0;
1489:Generated_Source\PSoC5/ADC_GLV_V.c ****             ADC_GLV_V_DSM_BUF1_REG    = ADC_GLV_V_CFG4_DSM_BUF1;
1490:Generated_Source\PSoC5/ADC_GLV_V.c ****             ADC_GLV_V_DSM_BUF2_REG    = ADC_GLV_V_CFG4_DSM_BUF2;
1491:Generated_Source\PSoC5/ADC_GLV_V.c ****             ADC_GLV_V_DSM_BUF3_REG    = ADC_GLV_V_CFG4_DSM_BUF3;
1492:Generated_Source\PSoC5/ADC_GLV_V.c **** 
1493:Generated_Source\PSoC5/ADC_GLV_V.c ****             /* To select either Vssa or Vref to -ve input of DSM depending on
1494:Generated_Source\PSoC5/ADC_GLV_V.c ****             *  the input range selected.
1495:Generated_Source\PSoC5/ADC_GLV_V.c ****             */
1496:Generated_Source\PSoC5/ADC_GLV_V.c ****             #if(ADC_GLV_V_DEFAULT_INPUT_MODE)
1497:Generated_Source\PSoC5/ADC_GLV_V.c ****                 #if (ADC_GLV_V_CFG4_INPUT_RANGE == ADC_GLV_V_IR_VSSA_TO_2VREF)
1498:Generated_Source\PSoC5/ADC_GLV_V.c ****                     ADC_GLV_V_AMux_Select(1u);
1499:Generated_Source\PSoC5/ADC_GLV_V.c ****                 #else
1500:Generated_Source\PSoC5/ADC_GLV_V.c ****                     ADC_GLV_V_AMux_Select(0u);
1501:Generated_Source\PSoC5/ADC_GLV_V.c ****                 #endif /* ADC_GLV_V_IR_VSSA_TO_2VREF) */
1502:Generated_Source\PSoC5/ADC_GLV_V.c ****             #endif /* ADC_GLV_V_DEFAULT_INPUT_MODE */
1503:Generated_Source\PSoC5/ADC_GLV_V.c **** 
1504:Generated_Source\PSoC5/ADC_GLV_V.c ****             /* Set the Conversion stop if resolution is above 16 bit and
1505:Generated_Source\PSoC5/ADC_GLV_V.c ****                conversion mode is Single sample */
1506:Generated_Source\PSoC5/ADC_GLV_V.c ****             #if(ADC_GLV_V_CFG4_RESOLUTION > 16 && \
1507:Generated_Source\PSoC5/ADC_GLV_V.c ****                 ADC_GLV_V_CFG4_CONV_MODE == ADC_GLV_V_MODE_SINGLE_SAMPLE)
1508:Generated_Source\PSoC5/ADC_GLV_V.c ****                 ADC_GLV_V_stopConversion = 1u;
1509:Generated_Source\PSoC5/ADC_GLV_V.c ****             #endif /* Single sample with resolution above 16 bits */
1510:Generated_Source\PSoC5/ADC_GLV_V.c **** 
1511:Generated_Source\PSoC5/ADC_GLV_V.c ****             ADC_GLV_V_CountsPerVolt = (int32)ADC_GLV_V_CFG4_COUNTS_PER_VOLT;
1512:Generated_Source\PSoC5/ADC_GLV_V.c **** 
1513:Generated_Source\PSoC5/ADC_GLV_V.c ****             ADC_GLV_V_Ext_CP_Clk_SetDividerRegister(ADC_GLV_V_CFG4_CP_CLK_DIVIDER, 1u);
ARM GAS  C:\Users\ANDREY~1\AppData\Local\Temp\cc0akFQM.s 			page 28


1514:Generated_Source\PSoC5/ADC_GLV_V.c **** 
1515:Generated_Source\PSoC5/ADC_GLV_V.c ****             /* This is only valid if there is an internal clock */
1516:Generated_Source\PSoC5/ADC_GLV_V.c ****             #if(ADC_GLV_V_DEFAULT_INTERNAL_CLK)
1517:Generated_Source\PSoC5/ADC_GLV_V.c ****                 ADC_GLV_V_theACLK_SetDividerRegister(ADC_GLV_V_CFG4_ADC_CLK_DIVIDER, 1u);
1518:Generated_Source\PSoC5/ADC_GLV_V.c ****             #endif /* ADC_GLV_V_DEFAULT_INTERNAL_CLK */
1519:Generated_Source\PSoC5/ADC_GLV_V.c **** 
1520:Generated_Source\PSoC5/ADC_GLV_V.c ****             #if(ADC_GLV_V_IRQ_REMOVE == 0u)
1521:Generated_Source\PSoC5/ADC_GLV_V.c ****                 /* Set interrupt vector */
1522:Generated_Source\PSoC5/ADC_GLV_V.c ****                 (void)CyIntSetVector(ADC_GLV_V_INTC_NUMBER, &ADC_GLV_V_ISR4);
1523:Generated_Source\PSoC5/ADC_GLV_V.c ****             #endif   /* End ADC_GLV_V_IRQ_REMOVE */
1524:Generated_Source\PSoC5/ADC_GLV_V.c ****         }
1525:Generated_Source\PSoC5/ADC_GLV_V.c ****     #endif /* ADC_GLV_V_DEFAULT_NUM_CONFIGS > 3 */
1526:Generated_Source\PSoC5/ADC_GLV_V.c **** }
1527:Generated_Source\PSoC5/ADC_GLV_V.c **** 
1528:Generated_Source\PSoC5/ADC_GLV_V.c **** 
1529:Generated_Source\PSoC5/ADC_GLV_V.c **** /*******************************************************************************
1530:Generated_Source\PSoC5/ADC_GLV_V.c **** * Function Name: ADC_GLV_V_SelectCofiguration
1531:Generated_Source\PSoC5/ADC_GLV_V.c **** ********************************************************************************
1532:Generated_Source\PSoC5/ADC_GLV_V.c **** *
1533:Generated_Source\PSoC5/ADC_GLV_V.c **** * Summary:
1534:Generated_Source\PSoC5/ADC_GLV_V.c **** *  Sets one of up to four ADC configurations. Before setting the new
1535:Generated_Source\PSoC5/ADC_GLV_V.c **** *  configuration, the ADC is stopped and powered down. After setting
1536:Generated_Source\PSoC5/ADC_GLV_V.c **** *  the new configuration, the ADC can be powered and conversion
1537:Generated_Source\PSoC5/ADC_GLV_V.c **** *  can be restarted depending up on the value of second parameter
1538:Generated_Source\PSoC5/ADC_GLV_V.c **** *  restart. If the value of this parameter is 1, then ADC will be
1539:Generated_Source\PSoC5/ADC_GLV_V.c **** *  restarted. If this value is zero, then user must call ADC_GLV_V_Start
1540:Generated_Source\PSoC5/ADC_GLV_V.c **** *  and ADC_GLV_V_StartConvert() to restart the conversion.
1541:Generated_Source\PSoC5/ADC_GLV_V.c **** *
1542:Generated_Source\PSoC5/ADC_GLV_V.c **** * Parameters:
1543:Generated_Source\PSoC5/ADC_GLV_V.c **** *  config:  configuration user wants to select.
1544:Generated_Source\PSoC5/ADC_GLV_V.c **** *           Valid range: 1..4
1545:Generated_Source\PSoC5/ADC_GLV_V.c **** *  restart:  Restart option. 1 means start the ADC and restart the conversion.
1546:Generated_Source\PSoC5/ADC_GLV_V.c **** *                            0 means do not start the ADC and conversion.
1547:Generated_Source\PSoC5/ADC_GLV_V.c **** *
1548:Generated_Source\PSoC5/ADC_GLV_V.c **** * Return:
1549:Generated_Source\PSoC5/ADC_GLV_V.c **** *  None
1550:Generated_Source\PSoC5/ADC_GLV_V.c **** *
1551:Generated_Source\PSoC5/ADC_GLV_V.c **** *******************************************************************************/
1552:Generated_Source\PSoC5/ADC_GLV_V.c **** void ADC_GLV_V_SelectConfiguration(uint8 config, uint8 restart)
1553:Generated_Source\PSoC5/ADC_GLV_V.c ****                                               
1554:Generated_Source\PSoC5/ADC_GLV_V.c **** {
1555:Generated_Source\PSoC5/ADC_GLV_V.c ****     /* Check whether the configuration number is valid or not */
1556:Generated_Source\PSoC5/ADC_GLV_V.c ****     if((config > 0u) && (config <= ADC_GLV_V_DEFAULT_NUM_CONFIGS))
1557:Generated_Source\PSoC5/ADC_GLV_V.c ****     {
1558:Generated_Source\PSoC5/ADC_GLV_V.c ****         /* Set the flag to ensure Start() API doesn't override the 
1559:Generated_Source\PSoC5/ADC_GLV_V.c **** 		*  selected configuration
1560:Generated_Source\PSoC5/ADC_GLV_V.c **** 		*/
1561:Generated_Source\PSoC5/ADC_GLV_V.c ****         if(ADC_GLV_V_initVar == 0u)
1562:Generated_Source\PSoC5/ADC_GLV_V.c ****         {
1563:Generated_Source\PSoC5/ADC_GLV_V.c ****             ADC_GLV_V_started = 1u;
1564:Generated_Source\PSoC5/ADC_GLV_V.c ****         }
1565:Generated_Source\PSoC5/ADC_GLV_V.c **** 
1566:Generated_Source\PSoC5/ADC_GLV_V.c ****         /* Update the config flag */
1567:Generated_Source\PSoC5/ADC_GLV_V.c ****         ADC_GLV_V_Config = config;
1568:Generated_Source\PSoC5/ADC_GLV_V.c **** 
1569:Generated_Source\PSoC5/ADC_GLV_V.c ****         /* Stop the ADC  */
1570:Generated_Source\PSoC5/ADC_GLV_V.c ****         ADC_GLV_V_Stop();
ARM GAS  C:\Users\ANDREY~1\AppData\Local\Temp\cc0akFQM.s 			page 29


1571:Generated_Source\PSoC5/ADC_GLV_V.c **** 
1572:Generated_Source\PSoC5/ADC_GLV_V.c ****         /* Set the  ADC registers based on the configuration */
1573:Generated_Source\PSoC5/ADC_GLV_V.c ****         ADC_GLV_V_InitConfig(config);
1574:Generated_Source\PSoC5/ADC_GLV_V.c **** 
1575:Generated_Source\PSoC5/ADC_GLV_V.c ****         /* Compensate the gain */
1576:Generated_Source\PSoC5/ADC_GLV_V.c ****         ADC_GLV_V_DEC_GVAL_REG = ADC_GLV_V_gcor[config - 1u].gval;
1577:Generated_Source\PSoC5/ADC_GLV_V.c ****         CY_SET_REG16(ADC_GLV_V_DEC_GCOR_16B_PTR, ADC_GLV_V_gcor[config - 1u].gcor);
1578:Generated_Source\PSoC5/ADC_GLV_V.c **** 
1579:Generated_Source\PSoC5/ADC_GLV_V.c ****         if(restart == 1u)
1580:Generated_Source\PSoC5/ADC_GLV_V.c ****         {
1581:Generated_Source\PSoC5/ADC_GLV_V.c ****             /* Restart the ADC */
1582:Generated_Source\PSoC5/ADC_GLV_V.c ****             ADC_GLV_V_Start();
1583:Generated_Source\PSoC5/ADC_GLV_V.c **** 
1584:Generated_Source\PSoC5/ADC_GLV_V.c ****             /* Restart the ADC conversion */
1585:Generated_Source\PSoC5/ADC_GLV_V.c ****             ADC_GLV_V_StartConvert();
1586:Generated_Source\PSoC5/ADC_GLV_V.c ****         }
1587:Generated_Source\PSoC5/ADC_GLV_V.c ****     }
1588:Generated_Source\PSoC5/ADC_GLV_V.c ****     else
1589:Generated_Source\PSoC5/ADC_GLV_V.c ****     {
1590:Generated_Source\PSoC5/ADC_GLV_V.c ****         /* Halt CPU in debug mode if config is out of valid range */
1591:Generated_Source\PSoC5/ADC_GLV_V.c ****         CYASSERT(0u != 0u);
1592:Generated_Source\PSoC5/ADC_GLV_V.c ****     }
1593:Generated_Source\PSoC5/ADC_GLV_V.c **** }
1594:Generated_Source\PSoC5/ADC_GLV_V.c **** 
1595:Generated_Source\PSoC5/ADC_GLV_V.c **** 
1596:Generated_Source\PSoC5/ADC_GLV_V.c **** /*******************************************************************************
1597:Generated_Source\PSoC5/ADC_GLV_V.c **** * Function Name: ADC_GLV_V_GainCompensation
1598:Generated_Source\PSoC5/ADC_GLV_V.c **** ********************************************************************************
1599:Generated_Source\PSoC5/ADC_GLV_V.c **** *
1600:Generated_Source\PSoC5/ADC_GLV_V.c **** * Summary:
1601:Generated_Source\PSoC5/ADC_GLV_V.c **** *  This API calculates the trim value and then store this to gcor structure.
1602:Generated_Source\PSoC5/ADC_GLV_V.c **** *
1603:Generated_Source\PSoC5/ADC_GLV_V.c **** * Parameters:
1604:Generated_Source\PSoC5/ADC_GLV_V.c **** *  inputRange:  input range for which trim value is to be calculated.
1605:Generated_Source\PSoC5/ADC_GLV_V.c **** *  IdealDecGain:  Ideal Decimator gain for the selected resolution and
1606:Generated_Source\PSoC5/ADC_GLV_V.c **** *                 conversion  mode.
1607:Generated_Source\PSoC5/ADC_GLV_V.c **** *  IdealOddDecGain:  Ideal odd decimation gain for the selected resolution and
1608:Generated_Source\PSoC5/ADC_GLV_V.c ****                      conversion mode.
1609:Generated_Source\PSoC5/ADC_GLV_V.c **** *  resolution:  Resolution to select the proper flash location for trim value.
1610:Generated_Source\PSoC5/ADC_GLV_V.c **** *  config:      Specifies the configuration number
1611:Generated_Source\PSoC5/ADC_GLV_V.c **** *               Valid range: 1..4
1612:Generated_Source\PSoC5/ADC_GLV_V.c **** *
1613:Generated_Source\PSoC5/ADC_GLV_V.c **** * Return:
1614:Generated_Source\PSoC5/ADC_GLV_V.c **** *  None
1615:Generated_Source\PSoC5/ADC_GLV_V.c **** *
1616:Generated_Source\PSoC5/ADC_GLV_V.c **** *******************************************************************************/
1617:Generated_Source\PSoC5/ADC_GLV_V.c **** static void ADC_GLV_V_GainCompensation(uint8 inputRange, uint16 idealDecGain, uint16 idealOddDecGai
1618:Generated_Source\PSoC5/ADC_GLV_V.c ****                               uint8 resolution, uint8 config) 
1619:Generated_Source\PSoC5/ADC_GLV_V.c **** {
  27              		.loc 1 1619 0
  28              		.cfi_startproc
  29              		@ args = 4, pretend = 0, frame = 0
  30              		@ frame_needed = 0, uses_anonymous_args = 0
  31              	.LVL0:
  32 0000 10B5     		push	{r4, lr}
  33              		.cfi_def_cfa_offset 8
  34              		.cfi_offset 4, -8
ARM GAS  C:\Users\ANDREY~1\AppData\Local\Temp\cc0akFQM.s 			page 30


  35              		.cfi_offset 14, -4
  36 0002 9DF80840 		ldrb	r4, [sp, #8]	@ zero_extendqisi2
1620:Generated_Source\PSoC5/ADC_GLV_V.c ****     int8 flash;
1621:Generated_Source\PSoC5/ADC_GLV_V.c **** 	int32 normalised;
1622:Generated_Source\PSoC5/ADC_GLV_V.c **** 	uint16 gcorValue;
1623:Generated_Source\PSoC5/ADC_GLV_V.c ****     uint32 gcorTmp;
1624:Generated_Source\PSoC5/ADC_GLV_V.c **** 
1625:Generated_Source\PSoC5/ADC_GLV_V.c ****     if((config > 0u) && (config <= ADC_GLV_V_DEFAULT_NUM_CONFIGS))
  37              		.loc 1 1625 0
  38 0006 012C     		cmp	r4, #1
  39 0008 51D1     		bne	.L2
1626:Generated_Source\PSoC5/ADC_GLV_V.c ****     {
1627:Generated_Source\PSoC5/ADC_GLV_V.c ****         switch(inputRange)
  40              		.loc 1 1627 0
  41 000a 0138     		subs	r0, r0, #1
  42              	.LVL1:
  43 000c 0928     		cmp	r0, #9
  44 000e 2ED8     		bhi	.L16
  45 0010 DFE800F0 		tbb	[pc, r0]
  46              	.L5:
  47 0014 05       		.byte	(.L4-.L5)/2
  48 0015 2D       		.byte	(.L16-.L5)/2
  49 0016 2D       		.byte	(.L16-.L5)/2
  50 0017 05       		.byte	(.L4-.L5)/2
  51 0018 2D       		.byte	(.L16-.L5)/2
  52 0019 2D       		.byte	(.L16-.L5)/2
  53 001a 0F       		.byte	(.L6-.L5)/2
  54 001b 19       		.byte	(.L7-.L5)/2
  55 001c 2D       		.byte	(.L16-.L5)/2
  56 001d 23       		.byte	(.L8-.L5)/2
  57              		.p2align 1
  58              	.L4:
1628:Generated_Source\PSoC5/ADC_GLV_V.c ****         {
1629:Generated_Source\PSoC5/ADC_GLV_V.c ****             case ADC_GLV_V_IR_VNEG_VREF_DIFF:
1630:Generated_Source\PSoC5/ADC_GLV_V.c ****             case ADC_GLV_V_IR_VSSA_TO_2VREF:
1631:Generated_Source\PSoC5/ADC_GLV_V.c ****                 /* Normalize the flash Value */
1632:Generated_Source\PSoC5/ADC_GLV_V.c ****                 if(resolution > 15u)
  59              		.loc 1 1632 0
  60 001e 0F2B     		cmp	r3, #15
  61 0020 03D9     		bls	.L9
1633:Generated_Source\PSoC5/ADC_GLV_V.c ****                 {
1634:Generated_Source\PSoC5/ADC_GLV_V.c ****                     flash = ADC_GLV_V_DEC_TRIM_VREF_DIFF_16_20;
  62              		.loc 1 1634 0
  63 0022 2548     		ldr	r0, .L18
  64 0024 0078     		ldrb	r0, [r0]	@ zero_extendqisi2
  65 0026 40B2     		sxtb	r0, r0
  66              	.LVL2:
  67 0028 22E0     		b	.L3
  68              	.LVL3:
  69              	.L9:
1635:Generated_Source\PSoC5/ADC_GLV_V.c ****                 }
1636:Generated_Source\PSoC5/ADC_GLV_V.c ****                 else
1637:Generated_Source\PSoC5/ADC_GLV_V.c ****                 {
1638:Generated_Source\PSoC5/ADC_GLV_V.c ****                     flash = ADC_GLV_V_DEC_TRIM_VREF_DIFF_8_15;
  70              		.loc 1 1638 0
  71 002a 2448     		ldr	r0, .L18+4
  72 002c 0078     		ldrb	r0, [r0]	@ zero_extendqisi2
ARM GAS  C:\Users\ANDREY~1\AppData\Local\Temp\cc0akFQM.s 			page 31


  73 002e 40B2     		sxtb	r0, r0
  74              	.LVL4:
  75 0030 1EE0     		b	.L3
  76              	.LVL5:
  77              	.L6:
1639:Generated_Source\PSoC5/ADC_GLV_V.c ****                 }
1640:Generated_Source\PSoC5/ADC_GLV_V.c ****                 break;
1641:Generated_Source\PSoC5/ADC_GLV_V.c **** 
1642:Generated_Source\PSoC5/ADC_GLV_V.c ****             case ADC_GLV_V_IR_VNEG_VREF_2_DIFF:
1643:Generated_Source\PSoC5/ADC_GLV_V.c ****                 /* Normalize the flash Value */
1644:Generated_Source\PSoC5/ADC_GLV_V.c ****                 if(resolution > 15u)
  78              		.loc 1 1644 0
  79 0032 0F2B     		cmp	r3, #15
  80 0034 03D9     		bls	.L10
1645:Generated_Source\PSoC5/ADC_GLV_V.c ****                 {
1646:Generated_Source\PSoC5/ADC_GLV_V.c ****                     flash = ADC_GLV_V_DEC_TRIM_VREF_2_DIFF_16_20;
  81              		.loc 1 1646 0
  82 0036 2248     		ldr	r0, .L18+8
  83 0038 0078     		ldrb	r0, [r0]	@ zero_extendqisi2
  84 003a 40B2     		sxtb	r0, r0
  85              	.LVL6:
  86 003c 18E0     		b	.L3
  87              	.LVL7:
  88              	.L10:
1647:Generated_Source\PSoC5/ADC_GLV_V.c ****                 }
1648:Generated_Source\PSoC5/ADC_GLV_V.c ****                 else
1649:Generated_Source\PSoC5/ADC_GLV_V.c ****                 {
1650:Generated_Source\PSoC5/ADC_GLV_V.c ****                     flash = ADC_GLV_V_DEC_TRIM_VREF_2_DIFF_8_15;
  89              		.loc 1 1650 0
  90 003e 2148     		ldr	r0, .L18+12
  91 0040 0078     		ldrb	r0, [r0]	@ zero_extendqisi2
  92 0042 40B2     		sxtb	r0, r0
  93              	.LVL8:
  94 0044 14E0     		b	.L3
  95              	.LVL9:
  96              	.L7:
1651:Generated_Source\PSoC5/ADC_GLV_V.c ****                 }
1652:Generated_Source\PSoC5/ADC_GLV_V.c ****                 break;
1653:Generated_Source\PSoC5/ADC_GLV_V.c **** 
1654:Generated_Source\PSoC5/ADC_GLV_V.c ****             case ADC_GLV_V_IR_VNEG_VREF_4_DIFF:
1655:Generated_Source\PSoC5/ADC_GLV_V.c ****                 /* Normalize the flash Value */
1656:Generated_Source\PSoC5/ADC_GLV_V.c ****                 if(resolution > 15u)
  97              		.loc 1 1656 0
  98 0046 0F2B     		cmp	r3, #15
  99 0048 03D9     		bls	.L11
1657:Generated_Source\PSoC5/ADC_GLV_V.c ****                 {
1658:Generated_Source\PSoC5/ADC_GLV_V.c ****                     flash = ADC_GLV_V_DEC_TRIM_VREF_4_DIFF_16_20;
 100              		.loc 1 1658 0
 101 004a 1F48     		ldr	r0, .L18+16
 102 004c 0078     		ldrb	r0, [r0]	@ zero_extendqisi2
 103 004e 40B2     		sxtb	r0, r0
 104              	.LVL10:
 105 0050 0EE0     		b	.L3
 106              	.LVL11:
 107              	.L11:
1659:Generated_Source\PSoC5/ADC_GLV_V.c ****                 }
1660:Generated_Source\PSoC5/ADC_GLV_V.c ****                 else
ARM GAS  C:\Users\ANDREY~1\AppData\Local\Temp\cc0akFQM.s 			page 32


1661:Generated_Source\PSoC5/ADC_GLV_V.c ****                 {
1662:Generated_Source\PSoC5/ADC_GLV_V.c ****                     flash = ADC_GLV_V_DEC_TRIM_VREF_4_DIFF_8_15;
 108              		.loc 1 1662 0
 109 0052 1E48     		ldr	r0, .L18+20
 110 0054 0078     		ldrb	r0, [r0]	@ zero_extendqisi2
 111 0056 40B2     		sxtb	r0, r0
 112              	.LVL12:
 113 0058 0AE0     		b	.L3
 114              	.LVL13:
 115              	.L8:
1663:Generated_Source\PSoC5/ADC_GLV_V.c ****                 }
1664:Generated_Source\PSoC5/ADC_GLV_V.c ****                 break;
1665:Generated_Source\PSoC5/ADC_GLV_V.c **** 
1666:Generated_Source\PSoC5/ADC_GLV_V.c ****             case ADC_GLV_V_IR_VNEG_VREF_16_DIFF:
1667:Generated_Source\PSoC5/ADC_GLV_V.c ****                 /* Normalize the flash Value */
1668:Generated_Source\PSoC5/ADC_GLV_V.c ****                 if(resolution > 15u)
 116              		.loc 1 1668 0
 117 005a 0F2B     		cmp	r3, #15
 118 005c 03D9     		bls	.L12
1669:Generated_Source\PSoC5/ADC_GLV_V.c ****                 {
1670:Generated_Source\PSoC5/ADC_GLV_V.c ****                     flash = ADC_GLV_V_DEC_TRIM_VREF_16_DIFF_16_20;
 119              		.loc 1 1670 0
 120 005e 1C48     		ldr	r0, .L18+24
 121 0060 0078     		ldrb	r0, [r0]	@ zero_extendqisi2
 122 0062 40B2     		sxtb	r0, r0
 123              	.LVL14:
 124 0064 04E0     		b	.L3
 125              	.LVL15:
 126              	.L12:
1671:Generated_Source\PSoC5/ADC_GLV_V.c ****                 }
1672:Generated_Source\PSoC5/ADC_GLV_V.c ****                 else
1673:Generated_Source\PSoC5/ADC_GLV_V.c ****                 {
1674:Generated_Source\PSoC5/ADC_GLV_V.c ****                     flash = ADC_GLV_V_DEC_TRIM_VREF_16_DIFF_8_15;
 127              		.loc 1 1674 0
 128 0066 1B48     		ldr	r0, .L18+28
 129 0068 0078     		ldrb	r0, [r0]	@ zero_extendqisi2
 130 006a 40B2     		sxtb	r0, r0
 131              	.LVL16:
 132 006c 00E0     		b	.L3
 133              	.LVL17:
 134              	.L16:
1675:Generated_Source\PSoC5/ADC_GLV_V.c ****                 }
1676:Generated_Source\PSoC5/ADC_GLV_V.c ****                 break;
1677:Generated_Source\PSoC5/ADC_GLV_V.c **** 
1678:Generated_Source\PSoC5/ADC_GLV_V.c ****             default:
1679:Generated_Source\PSoC5/ADC_GLV_V.c ****                 flash = 0;
 135              		.loc 1 1679 0
 136 006e 0020     		movs	r0, #0
 137              	.L3:
 138              	.LVL18:
1680:Generated_Source\PSoC5/ADC_GLV_V.c ****                 break;
1681:Generated_Source\PSoC5/ADC_GLV_V.c ****         }
1682:Generated_Source\PSoC5/ADC_GLV_V.c **** 
1683:Generated_Source\PSoC5/ADC_GLV_V.c ****         /* Add two values */
1684:Generated_Source\PSoC5/ADC_GLV_V.c **** 		normalised = (int32)idealDecGain + ((int32)flash * 32);
 139              		.loc 1 1684 0
 140 0070 01EB4011 		add	r1, r1, r0, lsl #5
ARM GAS  C:\Users\ANDREY~1\AppData\Local\Temp\cc0akFQM.s 			page 33


 141              	.LVL19:
1685:Generated_Source\PSoC5/ADC_GLV_V.c ****         gcorTmp = (uint32)normalised * (uint32)idealOddDecGain;
 142              		.loc 1 1685 0
 143 0074 01FB02F1 		mul	r1, r1, r2
 144              	.LVL20:
1686:Generated_Source\PSoC5/ADC_GLV_V.c ****         gcorValue = (uint16)(gcorTmp / ADC_GLV_V_IDEAL_GAIN_CONST);
 145              		.loc 1 1686 0
 146 0078 C90B     		lsrs	r1, r1, #15
 147              	.LVL21:
 148 007a 8AB2     		uxth	r2, r1
 149              	.LVL22:
1687:Generated_Source\PSoC5/ADC_GLV_V.c **** 
1688:Generated_Source\PSoC5/ADC_GLV_V.c ****         if (resolution < (ADC_GLV_V_MAX_GVAL - 1u))
 150              		.loc 1 1688 0
 151 007c 0D2B     		cmp	r3, #13
 152 007e 0BD8     		bhi	.L13
1689:Generated_Source\PSoC5/ADC_GLV_V.c ****         {
1690:Generated_Source\PSoC5/ADC_GLV_V.c ****             gcorValue = (gcorValue >> (ADC_GLV_V_MAX_GVAL - (resolution + 1u)));
 153              		.loc 1 1690 0
 154 0080 C3F10E02 		rsb	r2, r3, #14
 155              	.LVL23:
 156 0084 89B2     		uxth	r1, r1
 157 0086 1141     		asrs	r1, r1, r2
 158              	.LVL24:
 159 0088 8AB2     		uxth	r2, r1
 160              	.LVL25:
1691:Generated_Source\PSoC5/ADC_GLV_V.c ****             ADC_GLV_V_gcor[config - 1u].gval = (resolution + 1u);
 161              		.loc 1 1691 0
 162 008a 611E     		subs	r1, r4, #1
 163 008c 1248     		ldr	r0, .L18+32
 164              	.LVL26:
 165 008e 00EB8101 		add	r1, r0, r1, lsl #2
 166 0092 0133     		adds	r3, r3, #1
 167              	.LVL27:
 168 0094 8B70     		strb	r3, [r1, #2]
 169 0096 05E0     		b	.L14
 170              	.LVL28:
 171              	.L13:
1692:Generated_Source\PSoC5/ADC_GLV_V.c ****         }
1693:Generated_Source\PSoC5/ADC_GLV_V.c ****         else
1694:Generated_Source\PSoC5/ADC_GLV_V.c ****         {
1695:Generated_Source\PSoC5/ADC_GLV_V.c ****             /* Use all 16 bits */
1696:Generated_Source\PSoC5/ADC_GLV_V.c ****             ADC_GLV_V_gcor[config - 1u].gval = ADC_GLV_V_MAX_GVAL;
 172              		.loc 1 1696 0
 173 0098 631E     		subs	r3, r4, #1
 174              	.LVL29:
 175 009a 0F49     		ldr	r1, .L18+32
 176 009c 01EB8303 		add	r3, r1, r3, lsl #2
 177 00a0 0F21     		movs	r1, #15
 178 00a2 9970     		strb	r1, [r3, #2]
 179              	.LVL30:
 180              	.L14:
1697:Generated_Source\PSoC5/ADC_GLV_V.c ****         }
1698:Generated_Source\PSoC5/ADC_GLV_V.c **** 
1699:Generated_Source\PSoC5/ADC_GLV_V.c ****         /* Save the gain correction register value */
1700:Generated_Source\PSoC5/ADC_GLV_V.c ****         ADC_GLV_V_gcor[config - 1u].gcor = gcorValue;
 181              		.loc 1 1700 0
ARM GAS  C:\Users\ANDREY~1\AppData\Local\Temp\cc0akFQM.s 			page 34


 182 00a4 013C     		subs	r4, r4, #1
 183 00a6 0C4B     		ldr	r3, .L18+32
 184 00a8 23F82420 		strh	r2, [r3, r4, lsl #2]	@ movhi
 185 00ac 10BD     		pop	{r4, pc}
 186              	.LVL31:
 187              	.L2:
1701:Generated_Source\PSoC5/ADC_GLV_V.c ****     }
1702:Generated_Source\PSoC5/ADC_GLV_V.c ****     else
1703:Generated_Source\PSoC5/ADC_GLV_V.c ****     {
1704:Generated_Source\PSoC5/ADC_GLV_V.c ****         /* Halt CPU in debug mode if config is out of valid range */
1705:Generated_Source\PSoC5/ADC_GLV_V.c ****         CYASSERT(0u != 0u);
 188              		.loc 1 1705 0 discriminator 1
 189 00ae 0020     		movs	r0, #0
 190              	.LVL32:
 191 00b0 FFF7FEFF 		bl	CyHalt
 192              	.LVL33:
 193 00b4 10BD     		pop	{r4, pc}
 194              	.LVL34:
 195              	.L19:
 196 00b6 00BF     		.align	2
 197              	.L18:
 198 00b8 18010049 		.word	1224737048
 199 00bc 1C010049 		.word	1224737052
 200 00c0 19010049 		.word	1224737049
 201 00c4 1D010049 		.word	1224737053
 202 00c8 1A010049 		.word	1224737050
 203 00cc 1E010049 		.word	1224737054
 204 00d0 1B010049 		.word	1224737051
 205 00d4 1F010049 		.word	1224737055
 206 00d8 00000000 		.word	.LANCHOR0
 207              		.cfi_endproc
 208              	.LFE21:
 209              		.size	ADC_GLV_V_GainCompensation, .-ADC_GLV_V_GainCompensation
 210              		.section	.text.ADC_GLV_V_SetDSMRef0Reg,"ax",%progbits
 211              		.align	2
 212              		.thumb
 213              		.thumb_func
 214              		.type	ADC_GLV_V_SetDSMRef0Reg, %function
 215              	ADC_GLV_V_SetDSMRef0Reg:
 216              	.LFB22:
1706:Generated_Source\PSoC5/ADC_GLV_V.c ****     }
1707:Generated_Source\PSoC5/ADC_GLV_V.c **** }
1708:Generated_Source\PSoC5/ADC_GLV_V.c **** 
1709:Generated_Source\PSoC5/ADC_GLV_V.c **** 
1710:Generated_Source\PSoC5/ADC_GLV_V.c **** /******************************************************************************
1711:Generated_Source\PSoC5/ADC_GLV_V.c **** * Function Name: ADC_GLV_V_SetDSMRef0Reg(uint8)
1712:Generated_Source\PSoC5/ADC_GLV_V.c **** ******************************************************************************
1713:Generated_Source\PSoC5/ADC_GLV_V.c **** *
1714:Generated_Source\PSoC5/ADC_GLV_V.c **** * Summary:
1715:Generated_Source\PSoC5/ADC_GLV_V.c **** *  This API sets the DSM_REF0 register. This is written for internal use.
1716:Generated_Source\PSoC5/ADC_GLV_V.c **** *
1717:Generated_Source\PSoC5/ADC_GLV_V.c **** * Parameters:
1718:Generated_Source\PSoC5/ADC_GLV_V.c **** *  value:  Value to be written to DSM_REF0 register.
1719:Generated_Source\PSoC5/ADC_GLV_V.c **** *
1720:Generated_Source\PSoC5/ADC_GLV_V.c **** * Return:
1721:Generated_Source\PSoC5/ADC_GLV_V.c **** *  None
1722:Generated_Source\PSoC5/ADC_GLV_V.c **** *
ARM GAS  C:\Users\ANDREY~1\AppData\Local\Temp\cc0akFQM.s 			page 35


1723:Generated_Source\PSoC5/ADC_GLV_V.c **** ******************************************************************************/
1724:Generated_Source\PSoC5/ADC_GLV_V.c **** static void ADC_GLV_V_SetDSMRef0Reg(uint8 value) 
1725:Generated_Source\PSoC5/ADC_GLV_V.c **** {
 217              		.loc 1 1725 0
 218              		.cfi_startproc
 219              		@ args = 0, pretend = 0, frame = 0
 220              		@ frame_needed = 0, uses_anonymous_args = 0
 221              	.LVL35:
 222 0000 F8B5     		push	{r3, r4, r5, r6, r7, lr}
 223              		.cfi_def_cfa_offset 24
 224              		.cfi_offset 3, -24
 225              		.cfi_offset 4, -20
 226              		.cfi_offset 5, -16
 227              		.cfi_offset 6, -12
 228              		.cfi_offset 7, -8
 229              		.cfi_offset 14, -4
 230 0002 0746     		mov	r7, r0
1726:Generated_Source\PSoC5/ADC_GLV_V.c ****     uint8 enableInterrupts;
1727:Generated_Source\PSoC5/ADC_GLV_V.c ****     enableInterrupts = CyEnterCriticalSection();
 231              		.loc 1 1727 0
 232 0004 FFF7FEFF 		bl	CyEnterCriticalSection
 233              	.LVL36:
 234 0008 0646     		mov	r6, r0
 235              	.LVL37:
1728:Generated_Source\PSoC5/ADC_GLV_V.c **** 
1729:Generated_Source\PSoC5/ADC_GLV_V.c ****     /* Disable PRES, Enable power to VCMBUF0, REFBUF0 and REFBUF1, enable PRES */
1730:Generated_Source\PSoC5/ADC_GLV_V.c ****     ADC_GLV_V_RESET_CR4_REG |= (ADC_GLV_V_IGNORE_PRESA1 | ADC_GLV_V_IGNORE_PRESD1);
 236              		.loc 1 1730 0
 237 000a 0D4D     		ldr	r5, .L22
 238 000c 2B78     		ldrb	r3, [r5]	@ zero_extendqisi2
 239 000e 43F00303 		orr	r3, r3, #3
 240 0012 2B70     		strb	r3, [r5]
1731:Generated_Source\PSoC5/ADC_GLV_V.c ****     ADC_GLV_V_RESET_CR5_REG |= (ADC_GLV_V_IGNORE_PRESA2 | ADC_GLV_V_IGNORE_PRESD2);
 241              		.loc 1 1731 0
 242 0014 0B4C     		ldr	r4, .L22+4
 243 0016 2378     		ldrb	r3, [r4]	@ zero_extendqisi2
 244 0018 43F00303 		orr	r3, r3, #3
 245 001c 2370     		strb	r3, [r4]
1732:Generated_Source\PSoC5/ADC_GLV_V.c ****     ADC_GLV_V_DSM_REF0_REG = value;
 246              		.loc 1 1732 0
 247 001e 0A4B     		ldr	r3, .L22+8
 248 0020 1F70     		strb	r7, [r3]
1733:Generated_Source\PSoC5/ADC_GLV_V.c **** 
1734:Generated_Source\PSoC5/ADC_GLV_V.c ****     /* Wait for 3 microseconds */
1735:Generated_Source\PSoC5/ADC_GLV_V.c ****     CyDelayUs(ADC_GLV_V_PRES_DELAY_TIME);
 249              		.loc 1 1735 0
 250 0022 0320     		movs	r0, #3
 251 0024 FFF7FEFF 		bl	CyDelayUs
 252              	.LVL38:
1736:Generated_Source\PSoC5/ADC_GLV_V.c ****     /* Enable the press circuit */
1737:Generated_Source\PSoC5/ADC_GLV_V.c ****     ADC_GLV_V_RESET_CR4_REG &= (uint8)~(ADC_GLV_V_IGNORE_PRESA1 | ADC_GLV_V_IGNORE_PRESD1);
 253              		.loc 1 1737 0
 254 0028 2B78     		ldrb	r3, [r5]	@ zero_extendqisi2
 255 002a 03F0FC03 		and	r3, r3, #252
 256 002e 2B70     		strb	r3, [r5]
1738:Generated_Source\PSoC5/ADC_GLV_V.c ****     ADC_GLV_V_RESET_CR5_REG &= (uint8)~(ADC_GLV_V_IGNORE_PRESA2 | ADC_GLV_V_IGNORE_PRESD2);
 257              		.loc 1 1738 0
ARM GAS  C:\Users\ANDREY~1\AppData\Local\Temp\cc0akFQM.s 			page 36


 258 0030 2378     		ldrb	r3, [r4]	@ zero_extendqisi2
 259 0032 03F0FC03 		and	r3, r3, #252
 260 0036 2370     		strb	r3, [r4]
1739:Generated_Source\PSoC5/ADC_GLV_V.c **** 
1740:Generated_Source\PSoC5/ADC_GLV_V.c ****     CyExitCriticalSection(enableInterrupts);
 261              		.loc 1 1740 0
 262 0038 3046     		mov	r0, r6
 263 003a FFF7FEFF 		bl	CyExitCriticalSection
 264              	.LVL39:
 265 003e F8BD     		pop	{r3, r4, r5, r6, r7, pc}
 266              	.LVL40:
 267              	.L23:
 268              		.align	2
 269              	.L22:
 270 0040 F8460040 		.word	1073759992
 271 0044 F9460040 		.word	1073759993
 272 0048 92580040 		.word	1073764498
 273              		.cfi_endproc
 274              	.LFE22:
 275              		.size	ADC_GLV_V_SetDSMRef0Reg, .-ADC_GLV_V_SetDSMRef0Reg
 276              		.section	.text.ADC_GLV_V_InitConfig,"ax",%progbits
 277              		.align	2
 278              		.thumb
 279              		.thumb_func
 280              		.type	ADC_GLV_V_InitConfig, %function
 281              	ADC_GLV_V_InitConfig:
 282              	.LFB19:
1243:Generated_Source\PSoC5/ADC_GLV_V.c ****     ADC_GLV_V_stopConversion = 0u;
 283              		.loc 1 1243 0
 284              		.cfi_startproc
 285              		@ args = 0, pretend = 0, frame = 0
 286              		@ frame_needed = 0, uses_anonymous_args = 0
 287              	.LVL41:
 288 0000 38B5     		push	{r3, r4, r5, lr}
 289              		.cfi_def_cfa_offset 16
 290              		.cfi_offset 3, -16
 291              		.cfi_offset 4, -12
 292              		.cfi_offset 5, -8
 293              		.cfi_offset 14, -4
1244:Generated_Source\PSoC5/ADC_GLV_V.c **** 
 294              		.loc 1 1244 0
 295 0002 0022     		movs	r2, #0
 296 0004 314B     		ldr	r3, .L27
 297 0006 1A71     		strb	r2, [r3, #4]
1246:Generated_Source\PSoC5/ADC_GLV_V.c ****     {
 298              		.loc 1 1246 0
 299 0008 0128     		cmp	r0, #1
 300 000a 5DD1     		bne	.L24
1249:Generated_Source\PSoC5/ADC_GLV_V.c ****         ADC_GLV_V_DEC_SHIFT1_REG  = ADC_GLV_V_CFG1_DEC_SHIFT1;
 301              		.loc 1 1249 0
 302 000c 3822     		movs	r2, #56
 303 000e 304B     		ldr	r3, .L27+4
 304 0010 1A70     		strb	r2, [r3]
1250:Generated_Source\PSoC5/ADC_GLV_V.c ****         ADC_GLV_V_DEC_SHIFT2_REG  = ADC_GLV_V_CFG1_DEC_SHIFT2;
 305              		.loc 1 1250 0
 306 0012 0422     		movs	r2, #4
 307 0014 0233     		adds	r3, r3, #2
ARM GAS  C:\Users\ANDREY~1\AppData\Local\Temp\cc0akFQM.s 			page 37


 308 0016 1A70     		strb	r2, [r3]
1251:Generated_Source\PSoC5/ADC_GLV_V.c ****         ADC_GLV_V_DEC_DR2_REG     = ADC_GLV_V_CFG1_DEC_DR2;
 309              		.loc 1 1251 0
 310 0018 0622     		movs	r2, #6
 311 001a 0133     		adds	r3, r3, #1
 312 001c 1A70     		strb	r2, [r3]
1252:Generated_Source\PSoC5/ADC_GLV_V.c ****         ADC_GLV_V_DEC_DR2H_REG    = ADC_GLV_V_CFG1_DEC_DR2H;
 313              		.loc 1 1252 0
 314 001e 0024     		movs	r4, #0
 315 0020 0133     		adds	r3, r3, #1
 316 0022 1C70     		strb	r4, [r3]
1253:Generated_Source\PSoC5/ADC_GLV_V.c ****         ADC_GLV_V_DEC_DR1_REG     = ADC_GLV_V_CFG1_DEC_DR1;
 317              		.loc 1 1253 0
 318 0024 0133     		adds	r3, r3, #1
 319 0026 1C70     		strb	r4, [r3]
1254:Generated_Source\PSoC5/ADC_GLV_V.c ****         ADC_GLV_V_DEC_OCOR_REG    = ADC_GLV_V_CFG1_DEC_OCOR;
 320              		.loc 1 1254 0
 321 0028 3F22     		movs	r2, #63
 322 002a 0133     		adds	r3, r3, #1
 323 002c 1A70     		strb	r2, [r3]
1255:Generated_Source\PSoC5/ADC_GLV_V.c ****         ADC_GLV_V_DEC_OCORM_REG   = ADC_GLV_V_CFG1_DEC_OCORM;
 324              		.loc 1 1255 0
 325 002e 0233     		adds	r3, r3, #2
 326 0030 1C70     		strb	r4, [r3]
1256:Generated_Source\PSoC5/ADC_GLV_V.c ****         ADC_GLV_V_DEC_OCORH_REG   = ADC_GLV_V_CFG1_DEC_OCORH;
 327              		.loc 1 1256 0
 328 0032 0133     		adds	r3, r3, #1
 329 0034 1C70     		strb	r4, [r3]
1257:Generated_Source\PSoC5/ADC_GLV_V.c ****         ADC_GLV_V_DEC_COHER_REG   = ADC_GLV_V_CFG1_DEC_COHER;
 330              		.loc 1 1257 0
 331 0036 0133     		adds	r3, r3, #1
 332 0038 1C70     		strb	r4, [r3]
1258:Generated_Source\PSoC5/ADC_GLV_V.c **** 
 333              		.loc 1 1258 0
 334 003a 0125     		movs	r5, #1
 335 003c 0A33     		adds	r3, r3, #10
 336 003e 1D70     		strb	r5, [r3]
1260:Generated_Source\PSoC5/ADC_GLV_V.c ****         ADC_GLV_V_DSM_CR5_REG     = ADC_GLV_V_CFG1_DSM_CR5;
 337              		.loc 1 1260 0
 338 0040 5022     		movs	r2, #80
 339 0042 03F52763 		add	r3, r3, #2672
 340 0046 1A70     		strb	r2, [r3]
1261:Generated_Source\PSoC5/ADC_GLV_V.c ****         ADC_GLV_V_DSM_CR6_REG     = ADC_GLV_V_CFG1_DSM_CR6;
 341              		.loc 1 1261 0
 342 0048 0722     		movs	r2, #7
 343 004a 0133     		adds	r3, r3, #1
 344 004c 1A70     		strb	r2, [r3]
1262:Generated_Source\PSoC5/ADC_GLV_V.c ****         ADC_GLV_V_DSM_CR7_REG     = ADC_GLV_V_CFG1_DSM_CR7;
 345              		.loc 1 1262 0
 346 004e 2922     		movs	r2, #41
 347 0050 0133     		adds	r3, r3, #1
 348 0052 1A70     		strb	r2, [r3]
1263:Generated_Source\PSoC5/ADC_GLV_V.c ****         ADC_GLV_V_DSM_CR10_REG    = ADC_GLV_V_CFG1_DSM_CR10;
 349              		.loc 1 1263 0
 350 0054 0133     		adds	r3, r3, #1
 351 0056 1C70     		strb	r4, [r3]
1264:Generated_Source\PSoC5/ADC_GLV_V.c ****         ADC_GLV_V_DSM_CR11_REG    = ADC_GLV_V_CFG1_DSM_CR11;
ARM GAS  C:\Users\ANDREY~1\AppData\Local\Temp\cc0akFQM.s 			page 38


 352              		.loc 1 1264 0
 353 0058 5522     		movs	r2, #85
 354 005a 0333     		adds	r3, r3, #3
 355 005c 1A70     		strb	r2, [r3]
1265:Generated_Source\PSoC5/ADC_GLV_V.c ****         ADC_GLV_V_DSM_CR12_REG    = ADC_GLV_V_CFG1_DSM_CR12;
 356              		.loc 1 1265 0
 357 005e 5A22     		movs	r2, #90
 358 0060 0133     		adds	r3, r3, #1
 359 0062 1A70     		strb	r2, [r3]
1266:Generated_Source\PSoC5/ADC_GLV_V.c ****         ADC_GLV_V_DSM_CR14_REG    = ADC_GLV_V_CFG1_DSM_CR14;
 360              		.loc 1 1266 0
 361 0064 0133     		adds	r3, r3, #1
 362 0066 1C70     		strb	r4, [r3]
1267:Generated_Source\PSoC5/ADC_GLV_V.c ****         ADC_GLV_V_DSM_CR15_REG    = ADC_GLV_V_CFG1_DSM_CR15;
 363              		.loc 1 1267 0
 364 0068 0233     		adds	r3, r3, #2
 365 006a 1D70     		strb	r5, [r3]
1268:Generated_Source\PSoC5/ADC_GLV_V.c ****         ADC_GLV_V_DSM_CR16_REG    = ADC_GLV_V_CFG1_DSM_CR16;
 366              		.loc 1 1268 0
 367 006c 1122     		movs	r2, #17
 368 006e 0133     		adds	r3, r3, #1
 369 0070 1A70     		strb	r2, [r3]
1269:Generated_Source\PSoC5/ADC_GLV_V.c ****         ADC_GLV_V_DSM_CR17_REG    = ADC_GLV_V_CFG1_DSM_CR17;
 370              		.loc 1 1269 0
 371 0072 1922     		movs	r2, #25
 372 0074 0133     		adds	r3, r3, #1
 373 0076 1A70     		strb	r2, [r3]
1270:Generated_Source\PSoC5/ADC_GLV_V.c ****         /* Set DSM_REF0_REG by disabling and enabling the PRESS circuit */
 374              		.loc 1 1270 0
 375 0078 9722     		movs	r2, #151
 376 007a 0133     		adds	r3, r3, #1
 377 007c 1A70     		strb	r2, [r3]
1272:Generated_Source\PSoC5/ADC_GLV_V.c ****         ADC_GLV_V_DSM_REF2_REG    = ADC_GLV_V_CFG1_DSM_REF2;
 378              		.loc 1 1272 0
 379 007e 4420     		movs	r0, #68
 380              	.LVL42:
 381 0080 FFF7FEFF 		bl	ADC_GLV_V_SetDSMRef0Reg
 382              	.LVL43:
1273:Generated_Source\PSoC5/ADC_GLV_V.c ****         ADC_GLV_V_DSM_REF3_REG    = ADC_GLV_V_CFG1_DSM_REF3;
 383              		.loc 1 1273 0
 384 0084 5822     		movs	r2, #88
 385 0086 134B     		ldr	r3, .L27+8
 386 0088 1A70     		strb	r2, [r3]
1274:Generated_Source\PSoC5/ADC_GLV_V.c **** 
 387              		.loc 1 1274 0
 388 008a 0133     		adds	r3, r3, #1
 389 008c 1C70     		strb	r4, [r3]
1276:Generated_Source\PSoC5/ADC_GLV_V.c ****         ADC_GLV_V_DSM_BUF1_REG    = ADC_GLV_V_CFG1_DSM_BUF1;
 390              		.loc 1 1276 0
 391 008e 0522     		movs	r2, #5
 392 0090 0533     		adds	r3, r3, #5
 393 0092 1A70     		strb	r2, [r3]
1277:Generated_Source\PSoC5/ADC_GLV_V.c ****         ADC_GLV_V_DSM_BUF2_REG    = ADC_GLV_V_CFG1_DSM_BUF2;
 394              		.loc 1 1277 0
 395 0094 0222     		movs	r2, #2
 396 0096 0133     		adds	r3, r3, #1
 397 0098 1A70     		strb	r2, [r3]
ARM GAS  C:\Users\ANDREY~1\AppData\Local\Temp\cc0akFQM.s 			page 39


1278:Generated_Source\PSoC5/ADC_GLV_V.c ****         ADC_GLV_V_DSM_BUF3_REG    = ADC_GLV_V_CFG1_DSM_BUF3;
 398              		.loc 1 1278 0
 399 009a 0133     		adds	r3, r3, #1
 400 009c 1C70     		strb	r4, [r3]
1279:Generated_Source\PSoC5/ADC_GLV_V.c **** 
 401              		.loc 1 1279 0
 402 009e 0133     		adds	r3, r3, #1
 403 00a0 1C70     		strb	r4, [r3]
1288:Generated_Source\PSoC5/ADC_GLV_V.c ****             #endif /* ADC_GLV_V_IR_VSSA_TO_2VREF) */
 404              		.loc 1 1288 0
 405 00a2 2046     		mov	r0, r4
 406 00a4 FFF7FEFF 		bl	ADC_GLV_V_AMux_Select
 407              	.LVL44:
1300:Generated_Source\PSoC5/ADC_GLV_V.c **** 
 408              		.loc 1 1300 0
 409 00a8 42F6AB12 		movw	r2, #10667
 410 00ac 0A4B     		ldr	r3, .L27+12
 411 00ae 1A60     		str	r2, [r3]
1302:Generated_Source\PSoC5/ADC_GLV_V.c **** 
 412              		.loc 1 1302 0
 413 00b0 2946     		mov	r1, r5
 414 00b2 0820     		movs	r0, #8
 415 00b4 FFF7FEFF 		bl	ADC_GLV_V_Ext_CP_Clk_SetDividerRegister
 416              	.LVL45:
1306:Generated_Source\PSoC5/ADC_GLV_V.c ****         #endif /* ADC_GLV_V_DEFAULT_INTERNAL_CLK */
 417              		.loc 1 1306 0
 418 00b8 2946     		mov	r1, r5
 419 00ba 2520     		movs	r0, #37
 420 00bc FFF7FEFF 		bl	ADC_GLV_V_theACLK_SetDividerRegister
 421              	.LVL46:
1311:Generated_Source\PSoC5/ADC_GLV_V.c ****         #endif   /* End ADC_GLV_V_IRQ_REMOVE */
 422              		.loc 1 1311 0
 423 00c0 0649     		ldr	r1, .L27+16
 424 00c2 1D20     		movs	r0, #29
 425 00c4 FFF7FEFF 		bl	CyIntSetVector
 426              	.LVL47:
 427              	.L24:
 428 00c8 38BD     		pop	{r3, r4, r5, pc}
 429              	.L28:
 430 00ca 00BF     		.align	2
 431              	.L27:
 432 00cc 00000000 		.word	.LANCHOR0
 433 00d0 004E0040 		.word	1073761792
 434 00d4 94580040 		.word	1073764500
 435 00d8 00000000 		.word	ADC_GLV_V_CountsPerVolt
 436 00dc 00000000 		.word	ADC_GLV_V_ISR1
 437              		.cfi_endproc
 438              	.LFE19:
 439              		.size	ADC_GLV_V_InitConfig, .-ADC_GLV_V_InitConfig
 440              		.section	.text.ADC_GLV_V_Init,"ax",%progbits
 441              		.align	2
 442              		.global	ADC_GLV_V_Init
 443              		.thumb
 444              		.thumb_func
 445              		.type	ADC_GLV_V_Init, %function
 446              	ADC_GLV_V_Init:
 447              	.LFB0:
ARM GAS  C:\Users\ANDREY~1\AppData\Local\Temp\cc0akFQM.s 			page 40


  92:Generated_Source\PSoC5/ADC_GLV_V.c **** 
 448              		.loc 1 92 0
 449              		.cfi_startproc
 450              		@ args = 0, pretend = 0, frame = 0
 451              		@ frame_needed = 0, uses_anonymous_args = 0
 452 0000 F0B5     		push	{r4, r5, r6, r7, lr}
 453              		.cfi_def_cfa_offset 20
 454              		.cfi_offset 4, -20
 455              		.cfi_offset 5, -16
 456              		.cfi_offset 6, -12
 457              		.cfi_offset 7, -8
 458              		.cfi_offset 14, -4
 459 0002 83B0     		sub	sp, sp, #12
 460              		.cfi_def_cfa_offset 32
  94:Generated_Source\PSoC5/ADC_GLV_V.c ****     ADC_GLV_V_convDone = 0u;
 461              		.loc 1 94 0
 462 0004 284D     		ldr	r5, .L31
 463 0006 0127     		movs	r7, #1
 464 0008 2F70     		strb	r7, [r5]
  95:Generated_Source\PSoC5/ADC_GLV_V.c **** 
 465              		.loc 1 95 0
 466 000a 284E     		ldr	r6, .L31+4
 467 000c 0024     		movs	r4, #0
 468 000e 7471     		strb	r4, [r6, #5]
  97:Generated_Source\PSoC5/ADC_GLV_V.c **** 
 469              		.loc 1 97 0
 470 0010 1020     		movs	r0, #16
 471 0012 FFF7FEFF 		bl	ADC_GLV_V_Ext_CP_Clk_SetModeRegister
 472              	.LVL48:
 101:Generated_Source\PSoC5/ADC_GLV_V.c ****     #endif /* ADC_GLV_V_DEFAULT_INTERNAL_CLK */
 473              		.loc 1 101 0
 474 0016 1020     		movs	r0, #16
 475 0018 FFF7FEFF 		bl	ADC_GLV_V_theACLK_SetModeRegister
 476              	.LVL49:
 106:Generated_Source\PSoC5/ADC_GLV_V.c ****     #endif   /* End ADC_GLV_V_IRQ_REMOVE */
 477              		.loc 1 106 0
 478 001c 0721     		movs	r1, #7
 479 001e 1D20     		movs	r0, #29
 480 0020 FFF7FEFF 		bl	CyIntSetPriority
 481              	.LVL50:
 110:Generated_Source\PSoC5/ADC_GLV_V.c ****     ADC_GLV_V_DSM_DEM1_REG    = ADC_GLV_V_CFG1_DSM_DEM1;
 482              		.loc 1 110 0
 483 0024 0422     		movs	r2, #4
 484 0026 224B     		ldr	r3, .L31+8
 485 0028 1A70     		strb	r2, [r3]
 111:Generated_Source\PSoC5/ADC_GLV_V.c ****     ADC_GLV_V_DSM_MISC_REG    = ADC_GLV_V_CFG1_DSM_MISC;
 486              		.loc 1 111 0
 487 002a 0133     		adds	r3, r3, #1
 488 002c 1C70     		strb	r4, [r3]
 112:Generated_Source\PSoC5/ADC_GLV_V.c ****     ADC_GLV_V_DSM_CLK_REG    |= ADC_GLV_V_CFG1_DSM_CLK;
 489              		.loc 1 112 0
 490 002e 0733     		adds	r3, r3, #7
 491 0030 1C70     		strb	r4, [r3]
 113:Generated_Source\PSoC5/ADC_GLV_V.c ****     ADC_GLV_V_DSM_REF1_REG    = ADC_GLV_V_CFG1_DSM_REF1;
 492              		.loc 1 113 0
 493 0032 204A     		ldr	r2, .L31+12
 494 0034 1378     		ldrb	r3, [r2]	@ zero_extendqisi2
ARM GAS  C:\Users\ANDREY~1\AppData\Local\Temp\cc0akFQM.s 			page 41


 495 0036 43F01803 		orr	r3, r3, #24
 496 003a 1370     		strb	r3, [r2]
 114:Generated_Source\PSoC5/ADC_GLV_V.c **** 
 497              		.loc 1 114 0
 498 003c 1E4B     		ldr	r3, .L31+16
 499 003e 1C70     		strb	r4, [r3]
 116:Generated_Source\PSoC5/ADC_GLV_V.c ****     ADC_GLV_V_DSM_OUT1_REG    = ADC_GLV_V_CFG1_DSM_OUT1;
 500              		.loc 1 116 0
 501 0040 03F2F523 		addw	r3, r3, #757
 502 0044 1C70     		strb	r4, [r3]
 117:Generated_Source\PSoC5/ADC_GLV_V.c **** 
 503              		.loc 1 117 0
 504 0046 0133     		adds	r3, r3, #1
 505 0048 1C70     		strb	r4, [r3]
 119:Generated_Source\PSoC5/ADC_GLV_V.c ****     ADC_GLV_V_DSM_CR1_REG     = ADC_GLV_V_CFG1_DSM_CR1;
 506              		.loc 1 119 0
 507 004a 0A22     		movs	r2, #10
 508 004c A3F20933 		subw	r3, r3, #777
 509 0050 1A70     		strb	r2, [r3]
 120:Generated_Source\PSoC5/ADC_GLV_V.c **** #if(ADC_GLV_V_MI_ENABLE != 0u) /* Enable Modulator Input */
 510              		.loc 1 120 0
 511 0052 0133     		adds	r3, r3, #1
 512 0054 1C70     		strb	r4, [r3]
 124:Generated_Source\PSoC5/ADC_GLV_V.c **** #endif /* ADC_GLV_V_MI_ENABLE != 0u*/    
 513              		.loc 1 124 0
 514 0056 0233     		adds	r3, r3, #2
 515 0058 1C70     		strb	r4, [r3]
 126:Generated_Source\PSoC5/ADC_GLV_V.c ****     ADC_GLV_V_DSM_CR9_REG     = ADC_GLV_V_CFG1_DSM_CR9;
 516              		.loc 1 126 0
 517 005a 5B22     		movs	r2, #91
 518 005c 0533     		adds	r3, r3, #5
 519 005e 1A70     		strb	r2, [r3]
 127:Generated_Source\PSoC5/ADC_GLV_V.c ****     ADC_GLV_V_DSM_CR13_REG    = ADC_GLV_V_CFG1_DSM_CR13;
 520              		.loc 1 127 0
 521 0060 5E22     		movs	r2, #94
 522 0062 0133     		adds	r3, r3, #1
 523 0064 1A70     		strb	r2, [r3]
 128:Generated_Source\PSoC5/ADC_GLV_V.c **** 
 524              		.loc 1 128 0
 525 0066 0433     		adds	r3, r3, #4
 526 0068 1C70     		strb	r4, [r3]
 130:Generated_Source\PSoC5/ADC_GLV_V.c **** 
 527              		.loc 1 130 0
 528 006a 1422     		movs	r2, #20
 529 006c A3F68C23 		subw	r3, r3, #2700
 530 0070 1A70     		strb	r2, [r3]
 133:Generated_Source\PSoC5/ADC_GLV_V.c ****                                       ADC_GLV_V_CFG1_IDEAL_DEC_GAIN,
 531              		.loc 1 133 0
 532 0072 0097     		str	r7, [sp]
 533 0074 1023     		movs	r3, #16
 534 0076 4FF40042 		mov	r2, #32768
 535 007a 47F60271 		movw	r1, #32514
 536 007e 0320     		movs	r0, #3
 537 0080 FFF7FEFF 		bl	ADC_GLV_V_GainCompensation
 538              	.LVL51:
 161:Generated_Source\PSoC5/ADC_GLV_V.c ****     CY_SET_REG16(ADC_GLV_V_DEC_GCOR_16B_PTR, ADC_GLV_V_gcor[ADC_GLV_V_Config - 1u].gcor);
 539              		.loc 1 161 0
ARM GAS  C:\Users\ANDREY~1\AppData\Local\Temp\cc0akFQM.s 			page 42


 540 0084 2B78     		ldrb	r3, [r5]	@ zero_extendqisi2
 541 0086 013B     		subs	r3, r3, #1
 542 0088 06EB8303 		add	r3, r6, r3, lsl #2
 543 008c 9A78     		ldrb	r2, [r3, #2]	@ zero_extendqisi2
 544 008e 0B4B     		ldr	r3, .L31+20
 545 0090 1A70     		strb	r2, [r3]
 162:Generated_Source\PSoC5/ADC_GLV_V.c **** 
 546              		.loc 1 162 0
 547 0092 2B78     		ldrb	r3, [r5]	@ zero_extendqisi2
 548 0094 013B     		subs	r3, r3, #1
 549 0096 36F82320 		ldrh	r2, [r6, r3, lsl #2]
 550 009a 094B     		ldr	r3, .L31+24
 551 009c 1A80     		strh	r2, [r3]	@ movhi
 165:Generated_Source\PSoC5/ADC_GLV_V.c **** }
 552              		.loc 1 165 0
 553 009e 2878     		ldrb	r0, [r5]	@ zero_extendqisi2
 554 00a0 FFF7FEFF 		bl	ADC_GLV_V_InitConfig
 555              	.LVL52:
 166:Generated_Source\PSoC5/ADC_GLV_V.c **** 
 556              		.loc 1 166 0
 557 00a4 03B0     		add	sp, sp, #12
 558              		.cfi_def_cfa_offset 20
 559              		@ sp needed
 560 00a6 F0BD     		pop	{r4, r5, r6, r7, pc}
 561              	.L32:
 562              		.align	2
 563              	.L31:
 564 00a8 00000000 		.word	.LANCHOR1
 565 00ac 00000000 		.word	.LANCHOR0
 566 00b0 96580040 		.word	1073764502
 567 00b4 075B0040 		.word	1073765127
 568 00b8 93580040 		.word	1073764499
 569 00bc 0E4E0040 		.word	1073761806
 570 00c0 0C4E0040 		.word	1073761804
 571              		.cfi_endproc
 572              	.LFE0:
 573              		.size	ADC_GLV_V_Init, .-ADC_GLV_V_Init
 574              		.section	.text.ADC_GLV_V_Enable,"ax",%progbits
 575              		.align	2
 576              		.global	ADC_GLV_V_Enable
 577              		.thumb
 578              		.thumb_func
 579              		.type	ADC_GLV_V_Enable, %function
 580              	ADC_GLV_V_Enable:
 581              	.LFB1:
 185:Generated_Source\PSoC5/ADC_GLV_V.c **** 	uint8 config;
 582              		.loc 1 185 0
 583              		.cfi_startproc
 584              		@ args = 0, pretend = 0, frame = 0
 585              		@ frame_needed = 0, uses_anonymous_args = 0
 586 0000 70B5     		push	{r4, r5, r6, lr}
 587              		.cfi_def_cfa_offset 16
 588              		.cfi_offset 4, -16
 589              		.cfi_offset 5, -12
 590              		.cfi_offset 6, -8
 591              		.cfi_offset 14, -4
 188:Generated_Source\PSoC5/ADC_GLV_V.c **** 
ARM GAS  C:\Users\ANDREY~1\AppData\Local\Temp\cc0akFQM.s 			page 43


 592              		.loc 1 188 0
 593 0002 FFF7FEFF 		bl	CyEnterCriticalSection
 594              	.LVL53:
 595 0006 0646     		mov	r6, r0
 596              	.LVL54:
 191:Generated_Source\PSoC5/ADC_GLV_V.c ****     
 597              		.loc 1 191 0
 598 0008 2A4B     		ldr	r3, .L35
 599 000a 1B78     		ldrb	r3, [r3]	@ zero_extendqisi2
 600              	.LVL55:
 194:Generated_Source\PSoC5/ADC_GLV_V.c ****     ADC_GLV_V_PWRMGR_DSM_REG |= ADC_GLV_V_ACT_PWR_DSM_EN;
 601              		.loc 1 194 0
 602 000c 2A4B     		ldr	r3, .L35+4
 603 000e 1A78     		ldrb	r2, [r3]	@ zero_extendqisi2
 604 0010 42F00102 		orr	r2, r2, #1
 605 0014 1A70     		strb	r2, [r3]
 195:Generated_Source\PSoC5/ADC_GLV_V.c **** 
 606              		.loc 1 195 0
 607 0016 1A78     		ldrb	r2, [r3]	@ zero_extendqisi2
 608 0018 42F01002 		orr	r2, r2, #16
 609 001c 1A70     		strb	r2, [r3]
 198:Generated_Source\PSoC5/ADC_GLV_V.c ****     ADC_GLV_V_STBY_PWRMGR_DSM_REG |= ADC_GLV_V_STBY_PWR_DSM_EN;
 610              		.loc 1 198 0
 611 001e 1033     		adds	r3, r3, #16
 612 0020 1A78     		ldrb	r2, [r3]	@ zero_extendqisi2
 613 0022 42F00102 		orr	r2, r2, #1
 614 0026 1A70     		strb	r2, [r3]
 199:Generated_Source\PSoC5/ADC_GLV_V.c **** 
 615              		.loc 1 199 0
 616 0028 1A78     		ldrb	r2, [r3]	@ zero_extendqisi2
 617 002a 42F01002 		orr	r2, r2, #16
 618 002e 1A70     		strb	r2, [r3]
 202:Generated_Source\PSoC5/ADC_GLV_V.c ****     ADC_GLV_V_RESET_CR5_REG |= ADC_GLV_V_IGNORE_PRESA2;
 619              		.loc 1 202 0
 620 0030 224D     		ldr	r5, .L35+8
 621 0032 2B78     		ldrb	r3, [r5]	@ zero_extendqisi2
 622 0034 43F00203 		orr	r3, r3, #2
 623 0038 2B70     		strb	r3, [r5]
 203:Generated_Source\PSoC5/ADC_GLV_V.c **** 
 624              		.loc 1 203 0
 625 003a 214C     		ldr	r4, .L35+12
 626 003c 2378     		ldrb	r3, [r4]	@ zero_extendqisi2
 627 003e 43F00203 		orr	r3, r3, #2
 628 0042 2370     		strb	r3, [r4]
 205:Generated_Source\PSoC5/ADC_GLV_V.c **** 
 629              		.loc 1 205 0
 630 0044 1F4A     		ldr	r2, .L35+16
 631 0046 1378     		ldrb	r3, [r2]	@ zero_extendqisi2
 632 0048 43F00303 		orr	r3, r3, #3
 633 004c 1370     		strb	r3, [r2]
 271:Generated_Source\PSoC5/ADC_GLV_V.c **** 
 634              		.loc 1 271 0
 635 004e 0320     		movs	r0, #3
 636 0050 FFF7FEFF 		bl	CyDelayUs
 637              	.LVL56:
 274:Generated_Source\PSoC5/ADC_GLV_V.c ****     ADC_GLV_V_RESET_CR5_REG &= (uint8)~ADC_GLV_V_IGNORE_PRESA2;
 638              		.loc 1 274 0
ARM GAS  C:\Users\ANDREY~1\AppData\Local\Temp\cc0akFQM.s 			page 44


 639 0054 2B78     		ldrb	r3, [r5]	@ zero_extendqisi2
 640 0056 03F0FD03 		and	r3, r3, #253
 641 005a 2B70     		strb	r3, [r5]
 275:Generated_Source\PSoC5/ADC_GLV_V.c **** 
 642              		.loc 1 275 0
 643 005c 2378     		ldrb	r3, [r4]	@ zero_extendqisi2
 644 005e 03F0FD03 		and	r3, r3, #253
 645 0062 2370     		strb	r3, [r4]
 278:Generated_Source\PSoC5/ADC_GLV_V.c **** 
 646              		.loc 1 278 0
 647 0064 184A     		ldr	r2, .L35+20
 648 0066 1378     		ldrb	r3, [r2]	@ zero_extendqisi2
 649 0068 43F00603 		orr	r3, r3, #6
 650 006c 1370     		strb	r3, [r2]
 281:Generated_Source\PSoC5/ADC_GLV_V.c **** 
 651              		.loc 1 281 0
 652 006e 7A22     		movs	r2, #122
 653 0070 164B     		ldr	r3, .L35+24
 654 0072 1A70     		strb	r2, [r3]
 285:Generated_Source\PSoC5/ADC_GLV_V.c ****         ADC_GLV_V_STBY_PWRMGR_CLK_REG |= ADC_GLV_V_STBY_PWR_CLK_EN;
 655              		.loc 1 285 0
 656 0074 164A     		ldr	r2, .L35+28
 657 0076 1378     		ldrb	r3, [r2]	@ zero_extendqisi2
 658 0078 43F00103 		orr	r3, r3, #1
 659 007c 1370     		strb	r3, [r2]
 286:Generated_Source\PSoC5/ADC_GLV_V.c ****     #endif /* ADC_GLV_V_DEFAULT_INTERNAL_CLK */
 660              		.loc 1 286 0
 661 007e 1032     		adds	r2, r2, #16
 662 0080 1378     		ldrb	r3, [r2]	@ zero_extendqisi2
 663 0082 43F00103 		orr	r3, r3, #1
 664 0086 1370     		strb	r3, [r2]
 290:Generated_Source\PSoC5/ADC_GLV_V.c ****     ADC_GLV_V_STBY_PWRMGR_CHARGE_PUMP_CLK_REG |= ADC_GLV_V_STBY_PWR_CHARGE_PUMP_CLK_EN;
 665              		.loc 1 290 0
 666 0088 0F3A     		subs	r2, r2, #15
 667 008a 1378     		ldrb	r3, [r2]	@ zero_extendqisi2
 668 008c 43F00103 		orr	r3, r3, #1
 669 0090 1370     		strb	r3, [r2]
 291:Generated_Source\PSoC5/ADC_GLV_V.c **** 
 670              		.loc 1 291 0
 671 0092 1032     		adds	r2, r2, #16
 672 0094 1378     		ldrb	r3, [r2]	@ zero_extendqisi2
 673 0096 43F00103 		orr	r3, r3, #1
 674 009a 1370     		strb	r3, [r2]
 295:Generated_Source\PSoC5/ADC_GLV_V.c ****         /* Enable interrupt */
 675              		.loc 1 295 0
 676 009c 4FF00053 		mov	r3, #536870912
 677 00a0 0C4A     		ldr	r2, .L35+32
 678 00a2 1360     		str	r3, [r2]
 297:Generated_Source\PSoC5/ADC_GLV_V.c ****     #endif   /* End ADC_GLV_V_IRQ_REMOVE */
 679              		.loc 1 297 0
 680 00a4 A2F5C072 		sub	r2, r2, #384
 681 00a8 1360     		str	r3, [r2]
 300:Generated_Source\PSoC5/ADC_GLV_V.c **** 
 682              		.loc 1 300 0
 683 00aa 3046     		mov	r0, r6
 684 00ac FFF7FEFF 		bl	CyExitCriticalSection
 685              	.LVL57:
ARM GAS  C:\Users\ANDREY~1\AppData\Local\Temp\cc0akFQM.s 			page 45


 686 00b0 70BD     		pop	{r4, r5, r6, pc}
 687              	.LVL58:
 688              	.L36:
 689 00b2 00BF     		.align	2
 690              	.L35:
 691 00b4 00000000 		.word	.LANCHOR1
 692 00b8 AA430040 		.word	1073759146
 693 00bc F8460040 		.word	1073759992
 694 00c0 F9460040 		.word	1073759993
 695 00c4 91580040 		.word	1073764497
 696 00c8 77580040 		.word	1073764471
 697 00cc 82580040 		.word	1073764482
 698 00d0 A1430040 		.word	1073759137
 699 00d4 80E200E0 		.word	-536812928
 700              		.cfi_endproc
 701              	.LFE1:
 702              		.size	ADC_GLV_V_Enable, .-ADC_GLV_V_Enable
 703              		.section	.text.ADC_GLV_V_Start,"ax",%progbits
 704              		.align	2
 705              		.global	ADC_GLV_V_Start
 706              		.thumb
 707              		.thumb_func
 708              		.type	ADC_GLV_V_Start, %function
 709              	ADC_GLV_V_Start:
 710              	.LFB2:
 330:Generated_Source\PSoC5/ADC_GLV_V.c ****     if(ADC_GLV_V_initVar == 0u)
 711              		.loc 1 330 0
 712              		.cfi_startproc
 713              		@ args = 0, pretend = 0, frame = 0
 714              		@ frame_needed = 0, uses_anonymous_args = 0
 715 0000 08B5     		push	{r3, lr}
 716              		.cfi_def_cfa_offset 8
 717              		.cfi_offset 3, -8
 718              		.cfi_offset 14, -4
 331:Generated_Source\PSoC5/ADC_GLV_V.c ****     {
 719              		.loc 1 331 0
 720 0002 084B     		ldr	r3, .L41
 721 0004 9B79     		ldrb	r3, [r3, #6]	@ zero_extendqisi2
 722 0006 4BB9     		cbnz	r3, .L38
 333:Generated_Source\PSoC5/ADC_GLV_V.c ****         {
 723              		.loc 1 333 0
 724 0008 064B     		ldr	r3, .L41
 725 000a DB79     		ldrb	r3, [r3, #7]	@ zero_extendqisi2
 726 000c 13F0FF0F 		tst	r3, #255
 727 0010 01D1     		bne	.L39
 335:Generated_Source\PSoC5/ADC_GLV_V.c ****         }
 728              		.loc 1 335 0
 729 0012 FFF7FEFF 		bl	ADC_GLV_V_Init
 730              	.LVL59:
 731              	.L39:
 337:Generated_Source\PSoC5/ADC_GLV_V.c ****     }
 732              		.loc 1 337 0
 733 0016 0122     		movs	r2, #1
 734 0018 024B     		ldr	r3, .L41
 735 001a 9A71     		strb	r2, [r3, #6]
 736              	.L38:
 341:Generated_Source\PSoC5/ADC_GLV_V.c **** }
ARM GAS  C:\Users\ANDREY~1\AppData\Local\Temp\cc0akFQM.s 			page 46


 737              		.loc 1 341 0
 738 001c FFF7FEFF 		bl	ADC_GLV_V_Enable
 739              	.LVL60:
 740 0020 08BD     		pop	{r3, pc}
 741              	.L42:
 742 0022 00BF     		.align	2
 743              	.L41:
 744 0024 00000000 		.word	.LANCHOR0
 745              		.cfi_endproc
 746              	.LFE2:
 747              		.size	ADC_GLV_V_Start, .-ADC_GLV_V_Start
 748              		.section	.text.ADC_GLV_V_Stop,"ax",%progbits
 749              		.align	2
 750              		.global	ADC_GLV_V_Stop
 751              		.thumb
 752              		.thumb_func
 753              		.type	ADC_GLV_V_Stop, %function
 754              	ADC_GLV_V_Stop:
 755              	.LFB3:
 363:Generated_Source\PSoC5/ADC_GLV_V.c ****     uint8 enableInterrupts;
 756              		.loc 1 363 0
 757              		.cfi_startproc
 758              		@ args = 0, pretend = 0, frame = 0
 759              		@ frame_needed = 0, uses_anonymous_args = 0
 760 0000 70B5     		push	{r4, r5, r6, lr}
 761              		.cfi_def_cfa_offset 16
 762              		.cfi_offset 4, -16
 763              		.cfi_offset 5, -12
 764              		.cfi_offset 6, -8
 765              		.cfi_offset 14, -4
 365:Generated_Source\PSoC5/ADC_GLV_V.c **** 
 766              		.loc 1 365 0
 767 0002 FFF7FEFF 		bl	CyEnterCriticalSection
 768              	.LVL61:
 769 0006 0646     		mov	r6, r0
 770              	.LVL62:
 368:Generated_Source\PSoC5/ADC_GLV_V.c ****     ADC_GLV_V_DEC_SR_REG |=  ADC_GLV_V_DEC_INTR_CLEAR;
 771              		.loc 1 368 0
 772 0008 314A     		ldr	r2, .L45
 773 000a 1378     		ldrb	r3, [r2]	@ zero_extendqisi2
 774 000c 03F0FE03 		and	r3, r3, #254
 775 0010 1370     		strb	r3, [r2]
 369:Generated_Source\PSoC5/ADC_GLV_V.c **** 
 776              		.loc 1 369 0
 777 0012 0132     		adds	r2, r2, #1
 778 0014 1378     		ldrb	r3, [r2]	@ zero_extendqisi2
 779 0016 43F00403 		orr	r3, r3, #4
 780 001a 1370     		strb	r3, [r2]
 373:Generated_Source\PSoC5/ADC_GLV_V.c ****     ADC_GLV_V_RESET_CR5_REG |= ADC_GLV_V_IGNORE_PRESA2;
 781              		.loc 1 373 0
 782 001c 2D4D     		ldr	r5, .L45+4
 783 001e 2B78     		ldrb	r3, [r5]	@ zero_extendqisi2
 784 0020 43F00203 		orr	r3, r3, #2
 785 0024 2B70     		strb	r3, [r5]
 374:Generated_Source\PSoC5/ADC_GLV_V.c **** 
 786              		.loc 1 374 0
 787 0026 2C4C     		ldr	r4, .L45+8
ARM GAS  C:\Users\ANDREY~1\AppData\Local\Temp\cc0akFQM.s 			page 47


 788 0028 2378     		ldrb	r3, [r4]	@ zero_extendqisi2
 789 002a 43F00203 		orr	r3, r3, #2
 790 002e 2370     		strb	r3, [r4]
 376:Generated_Source\PSoC5/ADC_GLV_V.c ****     ADC_GLV_V_DSM_REF0_REG &= (uint8)~ADC_GLV_V_DSM_EN_BUF_VREF_INN;
 791              		.loc 1 376 0
 792 0030 02F52962 		add	r2, r2, #2704
 793 0034 1378     		ldrb	r3, [r2]	@ zero_extendqisi2
 794 0036 03F0FC03 		and	r3, r3, #252
 795 003a 1370     		strb	r3, [r2]
 377:Generated_Source\PSoC5/ADC_GLV_V.c **** 
 796              		.loc 1 377 0
 797 003c 0132     		adds	r2, r2, #1
 798 003e 1378     		ldrb	r3, [r2]	@ zero_extendqisi2
 799 0040 03F0F703 		and	r3, r3, #247
 800 0044 1370     		strb	r3, [r2]
 380:Generated_Source\PSoC5/ADC_GLV_V.c **** 
 801              		.loc 1 380 0
 802 0046 0320     		movs	r0, #3
 803 0048 FFF7FEFF 		bl	CyDelayUs
 804              	.LVL63:
 383:Generated_Source\PSoC5/ADC_GLV_V.c ****     ADC_GLV_V_RESET_CR5_REG &= (uint8)~ADC_GLV_V_IGNORE_PRESA2;
 805              		.loc 1 383 0
 806 004c 2B78     		ldrb	r3, [r5]	@ zero_extendqisi2
 807 004e 03F0FD03 		and	r3, r3, #253
 808 0052 2B70     		strb	r3, [r5]
 384:Generated_Source\PSoC5/ADC_GLV_V.c **** 
 809              		.loc 1 384 0
 810 0054 2378     		ldrb	r3, [r4]	@ zero_extendqisi2
 811 0056 03F0FD03 		and	r3, r3, #253
 812 005a 2370     		strb	r3, [r4]
 387:Generated_Source\PSoC5/ADC_GLV_V.c **** 
 813              		.loc 1 387 0
 814 005c 1F4B     		ldr	r3, .L45+12
 815 005e 1A78     		ldrb	r2, [r3]	@ zero_extendqisi2
 816 0060 02F0EF02 		and	r2, r2, #239
 817 0064 1A70     		strb	r2, [r3]
 390:Generated_Source\PSoC5/ADC_GLV_V.c **** 
 818              		.loc 1 390 0
 819 0066 1A78     		ldrb	r2, [r3]	@ zero_extendqisi2
 820 0068 02F0FE02 		and	r2, r2, #254
 821 006c 1A70     		strb	r2, [r3]
 393:Generated_Source\PSoC5/ADC_GLV_V.c ****     ADC_GLV_V_STBY_PWRMGR_DSM_REG &= (uint8)~ADC_GLV_V_STBY_PWR_DSM_EN;
 822              		.loc 1 393 0
 823 006e 1033     		adds	r3, r3, #16
 824 0070 1A78     		ldrb	r2, [r3]	@ zero_extendqisi2
 825 0072 02F0FE02 		and	r2, r2, #254
 826 0076 1A70     		strb	r2, [r3]
 394:Generated_Source\PSoC5/ADC_GLV_V.c **** 
 827              		.loc 1 394 0
 828 0078 1A78     		ldrb	r2, [r3]	@ zero_extendqisi2
 829 007a 02F0EF02 		and	r2, r2, #239
 830 007e 1A70     		strb	r2, [r3]
 397:Generated_Source\PSoC5/ADC_GLV_V.c **** 
 831              		.loc 1 397 0
 832 0080 174A     		ldr	r2, .L45+16
 833 0082 1378     		ldrb	r3, [r2]	@ zero_extendqisi2
 834 0084 03F0F903 		and	r3, r3, #249
ARM GAS  C:\Users\ANDREY~1\AppData\Local\Temp\cc0akFQM.s 			page 48


 835 0088 1370     		strb	r3, [r2]
 401:Generated_Source\PSoC5/ADC_GLV_V.c ****         ADC_GLV_V_STBY_PWRMGR_CLK_REG &= (uint8)~ADC_GLV_V_STBY_PWR_CLK_EN;
 836              		.loc 1 401 0
 837 008a A2F5A652 		sub	r2, r2, #5312
 838 008e 163A     		subs	r2, r2, #22
 839 0090 1378     		ldrb	r3, [r2]	@ zero_extendqisi2
 840 0092 03F0FE03 		and	r3, r3, #254
 841 0096 1370     		strb	r3, [r2]
 402:Generated_Source\PSoC5/ADC_GLV_V.c ****     #endif /* ADC_GLV_V_DEFAULT_INTERNAL_CLK */
 842              		.loc 1 402 0
 843 0098 1032     		adds	r2, r2, #16
 844 009a 1378     		ldrb	r3, [r2]	@ zero_extendqisi2
 845 009c 03F0FE03 		and	r3, r3, #254
 846 00a0 1370     		strb	r3, [r2]
 406:Generated_Source\PSoC5/ADC_GLV_V.c ****     /* Disable power to charge pump clock */
 847              		.loc 1 406 0
 848 00a2 02F5A652 		add	r2, r2, #5312
 849 00a6 1132     		adds	r2, r2, #17
 850 00a8 1378     		ldrb	r3, [r2]	@ zero_extendqisi2
 851 00aa 03F0F703 		and	r3, r3, #247
 852 00ae 1370     		strb	r3, [r2]
 408:Generated_Source\PSoC5/ADC_GLV_V.c ****     ADC_GLV_V_STBY_PWRMGR_CHARGE_PUMP_CLK_REG &= (uint8)~ADC_GLV_V_STBY_PWR_CHARGE_PUMP_CLK_EN;
 853              		.loc 1 408 0
 854 00b0 A2F5A752 		sub	r2, r2, #5344
 855 00b4 1378     		ldrb	r3, [r2]	@ zero_extendqisi2
 856 00b6 03F0FE03 		and	r3, r3, #254
 857 00ba 1370     		strb	r3, [r2]
 409:Generated_Source\PSoC5/ADC_GLV_V.c ****     
 858              		.loc 1 409 0
 859 00bc 1032     		adds	r2, r2, #16
 860 00be 1378     		ldrb	r3, [r2]	@ zero_extendqisi2
 861 00c0 03F0FE03 		and	r3, r3, #254
 862 00c4 1370     		strb	r3, [r2]
 411:Generated_Source\PSoC5/ADC_GLV_V.c **** }
 863              		.loc 1 411 0
 864 00c6 3046     		mov	r0, r6
 865 00c8 FFF7FEFF 		bl	CyExitCriticalSection
 866              	.LVL64:
 867 00cc 70BD     		pop	{r4, r5, r6, pc}
 868              	.LVL65:
 869              	.L46:
 870 00ce 00BF     		.align	2
 871              	.L45:
 872 00d0 004E0040 		.word	1073761792
 873 00d4 F8460040 		.word	1073759992
 874 00d8 F9460040 		.word	1073759993
 875 00dc AA430040 		.word	1073759146
 876 00e0 77580040 		.word	1073764471
 877              		.cfi_endproc
 878              	.LFE3:
 879              		.size	ADC_GLV_V_Stop, .-ADC_GLV_V_Stop
 880              		.section	.text.ADC_GLV_V_SetBufferGain,"ax",%progbits
 881              		.align	2
 882              		.global	ADC_GLV_V_SetBufferGain
 883              		.thumb
 884              		.thumb_func
 885              		.type	ADC_GLV_V_SetBufferGain, %function
ARM GAS  C:\Users\ANDREY~1\AppData\Local\Temp\cc0akFQM.s 			page 49


 886              	ADC_GLV_V_SetBufferGain:
 887              	.LFB4:
 430:Generated_Source\PSoC5/ADC_GLV_V.c ****     uint8 tmpReg;
 888              		.loc 1 430 0
 889              		.cfi_startproc
 890              		@ args = 0, pretend = 0, frame = 0
 891              		@ frame_needed = 0, uses_anonymous_args = 0
 892              		@ link register save eliminated.
 893              	.LVL66:
 432:Generated_Source\PSoC5/ADC_GLV_V.c ****     tmpReg |= (uint8)(gain << ADC_GLV_V_DSM_GAIN_SHIFT) & ADC_GLV_V_DSM_GAIN_MASK;
 894              		.loc 1 432 0
 895 0000 044A     		ldr	r2, .L48
 896 0002 1378     		ldrb	r3, [r2]	@ zero_extendqisi2
 897 0004 03F0F303 		and	r3, r3, #243
 898              	.LVL67:
 433:Generated_Source\PSoC5/ADC_GLV_V.c ****     ADC_GLV_V_DSM_BUF1_REG = tmpReg;
 899              		.loc 1 433 0
 900 0008 8000     		lsls	r0, r0, #2
 901              	.LVL68:
 902 000a 00F00C00 		and	r0, r0, #12
 903 000e 1843     		orrs	r0, r0, r3
 904              	.LVL69:
 434:Generated_Source\PSoC5/ADC_GLV_V.c **** }
 905              		.loc 1 434 0
 906 0010 1070     		strb	r0, [r2]
 907 0012 7047     		bx	lr
 908              	.L49:
 909              		.align	2
 910              	.L48:
 911 0014 9B580040 		.word	1073764507
 912              		.cfi_endproc
 913              	.LFE4:
 914              		.size	ADC_GLV_V_SetBufferGain, .-ADC_GLV_V_SetBufferGain
 915              		.section	.text.ADC_GLV_V_SetCoherency,"ax",%progbits
 916              		.align	2
 917              		.global	ADC_GLV_V_SetCoherency
 918              		.thumb
 919              		.thumb_func
 920              		.type	ADC_GLV_V_SetCoherency, %function
 921              	ADC_GLV_V_SetCoherency:
 922              	.LFB5:
 466:Generated_Source\PSoC5/ADC_GLV_V.c ****     uint8 tmpReg;
 923              		.loc 1 466 0
 924              		.cfi_startproc
 925              		@ args = 0, pretend = 0, frame = 0
 926              		@ frame_needed = 0, uses_anonymous_args = 0
 927              		@ link register save eliminated.
 928              	.LVL70:
 469:Generated_Source\PSoC5/ADC_GLV_V.c ****     tmpReg |= coherency & ADC_GLV_V_DEC_SAMP_KEY_MASK;
 929              		.loc 1 469 0
 930 0000 044A     		ldr	r2, .L51
 931 0002 1378     		ldrb	r3, [r2]	@ zero_extendqisi2
 932 0004 03F0FC03 		and	r3, r3, #252
 933              	.LVL71:
 470:Generated_Source\PSoC5/ADC_GLV_V.c ****     ADC_GLV_V_DEC_COHER_REG = tmpReg;
 934              		.loc 1 470 0
 935 0008 00F00300 		and	r0, r0, #3
ARM GAS  C:\Users\ANDREY~1\AppData\Local\Temp\cc0akFQM.s 			page 50


 936              	.LVL72:
 937 000c 1843     		orrs	r0, r0, r3
 938              	.LVL73:
 471:Generated_Source\PSoC5/ADC_GLV_V.c **** }
 939              		.loc 1 471 0
 940 000e 1070     		strb	r0, [r2]
 941 0010 7047     		bx	lr
 942              	.L52:
 943 0012 00BF     		.align	2
 944              	.L51:
 945 0014 144E0040 		.word	1073761812
 946              		.cfi_endproc
 947              	.LFE5:
 948              		.size	ADC_GLV_V_SetCoherency, .-ADC_GLV_V_SetCoherency
 949              		.global	__aeabi_ui2f
 950              		.global	__aeabi_fmul
 951              		.global	__aeabi_f2d
 952              		.global	__aeabi_dcmpgt
 953              		.global	__aeabi_f2uiz
 954              		.section	.text.ADC_GLV_V_SetGCOR,"ax",%progbits
 955              		.align	2
 956              		.global	ADC_GLV_V_SetGCOR
 957              		.thumb
 958              		.thumb_func
 959              		.type	ADC_GLV_V_SetGCOR, %function
 960              	ADC_GLV_V_SetGCOR:
 961              	.LFB6:
 506:Generated_Source\PSoC5/ADC_GLV_V.c ****     uint16 tmpReg;
 962              		.loc 1 506 0
 963              		.cfi_startproc
 964              		@ args = 0, pretend = 0, frame = 0
 965              		@ frame_needed = 0, uses_anonymous_args = 0
 966              	.LVL74:
 967 0000 10B5     		push	{r4, lr}
 968              		.cfi_def_cfa_offset 8
 969              		.cfi_offset 4, -8
 970              		.cfi_offset 14, -4
 971 0002 0446     		mov	r4, r0
 511:Generated_Source\PSoC5/ADC_GLV_V.c ****     tmpValue = ((float32)tmpReg / (float32)ADC_GLV_V_IDEAL_GAIN_CONST);
 972              		.loc 1 511 0
 973 0004 184B     		ldr	r3, .L57+8
 974 0006 1B78     		ldrb	r3, [r3]	@ zero_extendqisi2
 975 0008 013B     		subs	r3, r3, #1
 976              	.LVL75:
 512:Generated_Source\PSoC5/ADC_GLV_V.c ****     tmpValue = tmpValue * gainAdjust;
 977              		.loc 1 512 0
 978 000a 184A     		ldr	r2, .L57+12
 979 000c 32F82300 		ldrh	r0, [r2, r3, lsl #2]
 980              	.LVL76:
 981 0010 FFF7FEFF 		bl	__aeabi_ui2f
 982              	.LVL77:
 983 0014 4FF06051 		mov	r1, #939524096
 984 0018 FFF7FEFF 		bl	__aeabi_fmul
 985              	.LVL78:
 513:Generated_Source\PSoC5/ADC_GLV_V.c **** 
 986              		.loc 1 513 0
 987 001c 2146     		mov	r1, r4
ARM GAS  C:\Users\ANDREY~1\AppData\Local\Temp\cc0akFQM.s 			page 51


 988 001e FFF7FEFF 		bl	__aeabi_fmul
 989              	.LVL79:
 990 0022 0446     		mov	r4, r0
 991              	.LVL80:
 515:Generated_Source\PSoC5/ADC_GLV_V.c ****     {
 992              		.loc 1 515 0
 993 0024 FFF7FEFF 		bl	__aeabi_f2d
 994              	.LVL81:
 995 0028 0DA3     		adr	r3, .L57
 996 002a D3E90023 		ldrd	r2, [r3]
 997 002e FFF7FEFF 		bl	__aeabi_dcmpgt
 998              	.LVL82:
 999 0032 88B9     		cbnz	r0, .L55
 521:Generated_Source\PSoC5/ADC_GLV_V.c **** 		tmpReg = (uint16)tmpValue;
 1000              		.loc 1 521 0
 1001 0034 4FF08E41 		mov	r1, #1191182336
 1002 0038 2046     		mov	r0, r4
 1003 003a FFF7FEFF 		bl	__aeabi_fmul
 1004              	.LVL83:
 522:Generated_Source\PSoC5/ADC_GLV_V.c ****         CY_SET_REG16(ADC_GLV_V_DEC_GCOR_16B_PTR, tmpReg);
 1005              		.loc 1 522 0
 1006 003e FFF7FEFF 		bl	__aeabi_f2uiz
 1007              	.LVL84:
 1008 0042 80B2     		uxth	r0, r0
 1009              	.LVL85:
 523:Generated_Source\PSoC5/ADC_GLV_V.c ****         /* Update gain array to be used by SelectConfiguration() API */
 1010              		.loc 1 523 0
 1011 0044 0A4B     		ldr	r3, .L57+16
 1012 0046 1880     		strh	r0, [r3]	@ movhi
 525:Generated_Source\PSoC5/ADC_GLV_V.c **** 
 1013              		.loc 1 525 0
 1014 0048 074B     		ldr	r3, .L57+8
 1015 004a 1B78     		ldrb	r3, [r3]	@ zero_extendqisi2
 1016 004c 013B     		subs	r3, r3, #1
 1017 004e 074A     		ldr	r2, .L57+12
 1018 0050 22F82300 		strh	r0, [r2, r3, lsl #2]	@ movhi
 1019              	.LVL86:
 527:Generated_Source\PSoC5/ADC_GLV_V.c **** 
 1020              		.loc 1 527 0
 1021 0054 0020     		movs	r0, #0
 1022              	.LVL87:
 1023 0056 10BD     		pop	{r4, pc}
 1024              	.LVL88:
 1025              	.L55:
 517:Generated_Source\PSoC5/ADC_GLV_V.c ****     }
 1026              		.loc 1 517 0
 1027 0058 0120     		movs	r0, #1
 1028              	.LVL89:
 531:Generated_Source\PSoC5/ADC_GLV_V.c **** 
 1029              		.loc 1 531 0
 1030 005a 10BD     		pop	{r4, pc}
 1031              	.LVL90:
 1032              	.L58:
 1033 005c AFF30080 		.align	3
 1034              	.L57:
 1035 0060 8F537424 		.word	611603343
 1036 0064 97FFFF3F 		.word	1073741719
ARM GAS  C:\Users\ANDREY~1\AppData\Local\Temp\cc0akFQM.s 			page 52


 1037 0068 00000000 		.word	.LANCHOR1
 1038 006c 00000000 		.word	.LANCHOR0
 1039 0070 0C4E0040 		.word	1073761804
 1040              		.cfi_endproc
 1041              	.LFE6:
 1042              		.size	ADC_GLV_V_SetGCOR, .-ADC_GLV_V_SetGCOR
 1043              		.section	.text.ADC_GLV_V_ReadGCOR,"ax",%progbits
 1044              		.align	2
 1045              		.global	ADC_GLV_V_ReadGCOR
 1046              		.thumb
 1047              		.thumb_func
 1048              		.type	ADC_GLV_V_ReadGCOR, %function
 1049              	ADC_GLV_V_ReadGCOR:
 1050              	.LFB7:
 553:Generated_Source\PSoC5/ADC_GLV_V.c ****     uint8 gValue;
 1051              		.loc 1 553 0
 1052              		.cfi_startproc
 1053              		@ args = 0, pretend = 0, frame = 0
 1054              		@ frame_needed = 0, uses_anonymous_args = 0
 1055              		@ link register save eliminated.
 557:Generated_Source\PSoC5/ADC_GLV_V.c ****     gcorValue = CY_GET_REG16(ADC_GLV_V_DEC_GCOR_16B_PTR);
 1056              		.loc 1 557 0
 1057 0000 064B     		ldr	r3, .L61
 1058 0002 1B78     		ldrb	r3, [r3]	@ zero_extendqisi2
 1059 0004 DBB2     		uxtb	r3, r3
 1060              	.LVL91:
 558:Generated_Source\PSoC5/ADC_GLV_V.c **** 
 1061              		.loc 1 558 0
 1062 0006 064A     		ldr	r2, .L61+4
 1063 0008 1088     		ldrh	r0, [r2]
 1064 000a 80B2     		uxth	r0, r0
 1065              	.LVL92:
 560:Generated_Source\PSoC5/ADC_GLV_V.c ****     {
 1066              		.loc 1 560 0
 1067 000c 0E2B     		cmp	r3, #14
 1068 000e 03D8     		bhi	.L60
 562:Generated_Source\PSoC5/ADC_GLV_V.c ****     }
 1069              		.loc 1 562 0
 1070 0010 C3F10F03 		rsb	r3, r3, #15
 1071              	.LVL93:
 1072 0014 9840     		lsls	r0, r0, r3
 1073              	.LVL94:
 1074 0016 80B2     		uxth	r0, r0
 1075              	.LVL95:
 1076              	.L60:
 566:Generated_Source\PSoC5/ADC_GLV_V.c **** 
 1077              		.loc 1 566 0
 1078 0018 7047     		bx	lr
 1079              	.L62:
 1080 001a 00BF     		.align	2
 1081              	.L61:
 1082 001c 0E4E0040 		.word	1073761806
 1083 0020 0C4E0040 		.word	1073761804
 1084              		.cfi_endproc
 1085              	.LFE7:
 1086              		.size	ADC_GLV_V_ReadGCOR, .-ADC_GLV_V_ReadGCOR
 1087              		.section	.text.ADC_GLV_V_StartConvert,"ax",%progbits
ARM GAS  C:\Users\ANDREY~1\AppData\Local\Temp\cc0akFQM.s 			page 53


 1088              		.align	2
 1089              		.global	ADC_GLV_V_StartConvert
 1090              		.thumb
 1091              		.thumb_func
 1092              		.type	ADC_GLV_V_StartConvert, %function
 1093              	ADC_GLV_V_StartConvert:
 1094              	.LFB8:
 587:Generated_Source\PSoC5/ADC_GLV_V.c ****     /* Start the conversion */
 1095              		.loc 1 587 0
 1096              		.cfi_startproc
 1097              		@ args = 0, pretend = 0, frame = 0
 1098              		@ frame_needed = 0, uses_anonymous_args = 0
 1099              		@ link register save eliminated.
 589:Generated_Source\PSoC5/ADC_GLV_V.c **** }
 1100              		.loc 1 589 0
 1101 0000 024A     		ldr	r2, .L64
 1102 0002 1378     		ldrb	r3, [r2]	@ zero_extendqisi2
 1103 0004 43F00103 		orr	r3, r3, #1
 1104 0008 1370     		strb	r3, [r2]
 1105 000a 7047     		bx	lr
 1106              	.L65:
 1107              		.align	2
 1108              	.L64:
 1109 000c 004E0040 		.word	1073761792
 1110              		.cfi_endproc
 1111              	.LFE8:
 1112              		.size	ADC_GLV_V_StartConvert, .-ADC_GLV_V_StartConvert
 1113              		.section	.text.ADC_GLV_V_StopConvert,"ax",%progbits
 1114              		.align	2
 1115              		.global	ADC_GLV_V_StopConvert
 1116              		.thumb
 1117              		.thumb_func
 1118              		.type	ADC_GLV_V_StopConvert, %function
 1119              	ADC_GLV_V_StopConvert:
 1120              	.LFB9:
 610:Generated_Source\PSoC5/ADC_GLV_V.c ****     /* Stop all conversions */
 1121              		.loc 1 610 0
 1122              		.cfi_startproc
 1123              		@ args = 0, pretend = 0, frame = 0
 1124              		@ frame_needed = 0, uses_anonymous_args = 0
 1125              		@ link register save eliminated.
 612:Generated_Source\PSoC5/ADC_GLV_V.c **** }
 1126              		.loc 1 612 0
 1127 0000 024A     		ldr	r2, .L67
 1128 0002 1378     		ldrb	r3, [r2]	@ zero_extendqisi2
 1129 0004 03F0FE03 		and	r3, r3, #254
 1130 0008 1370     		strb	r3, [r2]
 1131 000a 7047     		bx	lr
 1132              	.L68:
 1133              		.align	2
 1134              	.L67:
 1135 000c 004E0040 		.word	1073761792
 1136              		.cfi_endproc
 1137              	.LFE9:
 1138              		.size	ADC_GLV_V_StopConvert, .-ADC_GLV_V_StopConvert
 1139              		.section	.text.ADC_GLV_V_IsEndConversion,"ax",%progbits
 1140              		.align	2
ARM GAS  C:\Users\ANDREY~1\AppData\Local\Temp\cc0akFQM.s 			page 54


 1141              		.global	ADC_GLV_V_IsEndConversion
 1142              		.thumb
 1143              		.thumb_func
 1144              		.type	ADC_GLV_V_IsEndConversion, %function
 1145              	ADC_GLV_V_IsEndConversion:
 1146              	.LFB10:
 645:Generated_Source\PSoC5/ADC_GLV_V.c ****     uint8 status;
 1147              		.loc 1 645 0
 1148              		.cfi_startproc
 1149              		@ args = 0, pretend = 0, frame = 0
 1150              		@ frame_needed = 0, uses_anonymous_args = 0
 1151              		@ link register save eliminated.
 1152              	.LVL96:
 1153              	.L73:
 653:Generated_Source\PSoC5/ADC_GLV_V.c ****         {
 1154              		.loc 1 653 0
 1155 0000 094B     		ldr	r3, .L74
 1156 0002 1B79     		ldrb	r3, [r3, #4]	@ zero_extendqisi2
 1157 0004 13F0FF0F 		tst	r3, #255
 1158 0008 03D0     		beq	.L70
 655:Generated_Source\PSoC5/ADC_GLV_V.c ****         }
 1159              		.loc 1 655 0
 1160 000a 074B     		ldr	r3, .L74
 1161 000c 5B79     		ldrb	r3, [r3, #5]	@ zero_extendqisi2
 1162 000e DBB2     		uxtb	r3, r3
 1163              	.LVL97:
 1164 0010 03E0     		b	.L71
 1165              	.LVL98:
 1166              	.L70:
 659:Generated_Source\PSoC5/ADC_GLV_V.c ****         }
 1167              		.loc 1 659 0
 1168 0012 064B     		ldr	r3, .L74+4
 1169 0014 1B78     		ldrb	r3, [r3]	@ zero_extendqisi2
 1170 0016 03F00103 		and	r3, r3, #1
 1171              	.LVL99:
 1172              	.L71:
 661:Generated_Source\PSoC5/ADC_GLV_V.c **** 
 1173              		.loc 1 661 0
 1174 001a 012B     		cmp	r3, #1
 1175 001c 01D0     		beq	.L72
 661:Generated_Source\PSoC5/ADC_GLV_V.c **** 
 1176              		.loc 1 661 0 is_stmt 0 discriminator 1
 1177 001e 0028     		cmp	r0, #0
 1178 0020 EED0     		beq	.L73
 1179              	.L72:
 664:Generated_Source\PSoC5/ADC_GLV_V.c **** 
 1180              		.loc 1 664 0 is_stmt 1
 1181 0022 1846     		mov	r0, r3
 1182              	.LVL100:
 1183 0024 7047     		bx	lr
 1184              	.L75:
 1185 0026 00BF     		.align	2
 1186              	.L74:
 1187 0028 00000000 		.word	.LANCHOR0
 1188 002c 014E0040 		.word	1073761793
 1189              		.cfi_endproc
 1190              	.LFE10:
ARM GAS  C:\Users\ANDREY~1\AppData\Local\Temp\cc0akFQM.s 			page 55


 1191              		.size	ADC_GLV_V_IsEndConversion, .-ADC_GLV_V_IsEndConversion
 1192              		.section	.text.ADC_GLV_V_GetResult8,"ax",%progbits
 1193              		.align	2
 1194              		.global	ADC_GLV_V_GetResult8
 1195              		.thumb
 1196              		.thumb_func
 1197              		.type	ADC_GLV_V_GetResult8, %function
 1198              	ADC_GLV_V_GetResult8:
 1199              	.LFB11:
 692:Generated_Source\PSoC5/ADC_GLV_V.c ****     int8 result;
 1200              		.loc 1 692 0
 1201              		.cfi_startproc
 1202              		@ args = 0, pretend = 0, frame = 0
 1203              		@ frame_needed = 0, uses_anonymous_args = 0
 1204              		@ link register save eliminated.
 697:Generated_Source\PSoC5/ADC_GLV_V.c **** 
 1205              		.loc 1 697 0
 1206 0000 0C4B     		ldr	r3, .L80
 1207 0002 1B78     		ldrb	r3, [r3]	@ zero_extendqisi2
 1208 0004 03F00303 		and	r3, r3, #3
 1209              	.LVL101:
 699:Generated_Source\PSoC5/ADC_GLV_V.c **** 
 1210              		.loc 1 699 0
 1211 0008 0B4A     		ldr	r2, .L80+4
 1212 000a 1078     		ldrb	r0, [r2]	@ zero_extendqisi2
 1213 000c 40B2     		sxtb	r0, r0
 1214              	.LVL102:
 701:Generated_Source\PSoC5/ADC_GLV_V.c ****     {   /* Dummy read of the middle byte to unlock the coherency */
 1215              		.loc 1 701 0
 1216 000e 022B     		cmp	r3, #2
 1217 0010 02D1     		bne	.L77
 703:Generated_Source\PSoC5/ADC_GLV_V.c ****     }
 1218              		.loc 1 703 0
 1219 0012 0A4B     		ldr	r3, .L80+8
 1220              	.LVL103:
 1221 0014 1B78     		ldrb	r3, [r3]	@ zero_extendqisi2
 1222 0016 03E0     		b	.L78
 1223              	.LVL104:
 1224              	.L77:
 705:Generated_Source\PSoC5/ADC_GLV_V.c ****     {   /* Dummy read of the MSB byte to unlock the coherency */
 1225              		.loc 1 705 0
 1226 0018 032B     		cmp	r3, #3
 1227 001a 01D1     		bne	.L78
 707:Generated_Source\PSoC5/ADC_GLV_V.c ****     }
 1228              		.loc 1 707 0
 1229 001c 084B     		ldr	r3, .L80+12
 1230              	.LVL105:
 1231 001e 1B78     		ldrb	r3, [r3]	@ zero_extendqisi2
 1232              	.L78:
 713:Generated_Source\PSoC5/ADC_GLV_V.c ****     {
 1233              		.loc 1 713 0
 1234 0020 084B     		ldr	r3, .L80+16
 1235 0022 1B79     		ldrb	r3, [r3, #4]	@ zero_extendqisi2
 1236 0024 13F0FF0F 		tst	r3, #255
 1237 0028 02D0     		beq	.L79
 715:Generated_Source\PSoC5/ADC_GLV_V.c ****     }
 1238              		.loc 1 715 0
ARM GAS  C:\Users\ANDREY~1\AppData\Local\Temp\cc0akFQM.s 			page 56


 1239 002a 0022     		movs	r2, #0
 1240 002c 054B     		ldr	r3, .L80+16
 1241 002e 5A71     		strb	r2, [r3, #5]
 1242              	.L79:
 718:Generated_Source\PSoC5/ADC_GLV_V.c **** 
 1243              		.loc 1 718 0
 1244 0030 7047     		bx	lr
 1245              	.L81:
 1246 0032 00BF     		.align	2
 1247              	.L80:
 1248 0034 144E0040 		.word	1073761812
 1249 0038 104E0040 		.word	1073761808
 1250 003c 114E0040 		.word	1073761809
 1251 0040 124E0040 		.word	1073761810
 1252 0044 00000000 		.word	.LANCHOR0
 1253              		.cfi_endproc
 1254              	.LFE11:
 1255              		.size	ADC_GLV_V_GetResult8, .-ADC_GLV_V_GetResult8
 1256              		.section	.text.ADC_GLV_V_GetResult16,"ax",%progbits
 1257              		.align	2
 1258              		.global	ADC_GLV_V_GetResult16
 1259              		.thumb
 1260              		.thumb_func
 1261              		.type	ADC_GLV_V_GetResult16, %function
 1262              	ADC_GLV_V_GetResult16:
 1263              	.LFB12:
 746:Generated_Source\PSoC5/ADC_GLV_V.c ****     uint16 result;
 1264              		.loc 1 746 0
 1265              		.cfi_startproc
 1266              		@ args = 0, pretend = 0, frame = 0
 1267              		@ frame_needed = 0, uses_anonymous_args = 0
 1268              		@ link register save eliminated.
 751:Generated_Source\PSoC5/ADC_GLV_V.c **** 
 1269              		.loc 1 751 0
 1270 0000 0E4B     		ldr	r3, .L86
 1271 0002 1B78     		ldrb	r3, [r3]	@ zero_extendqisi2
 1272 0004 03F00303 		and	r3, r3, #3
 1273              	.LVL106:
 753:Generated_Source\PSoC5/ADC_GLV_V.c ****     {   /*  Use default method to read result registers i.e. LSB byte read at the end*/
 1274              		.loc 1 753 0
 1275 0008 012B     		cmp	r3, #1
 1276 000a 03D8     		bhi	.L83
 759:Generated_Source\PSoC5/ADC_GLV_V.c ****         #endif /* CY_PSOC3 */
 1277              		.loc 1 759 0
 1278 000c 0C4B     		ldr	r3, .L86+4
 1279              	.LVL107:
 1280 000e 1888     		ldrh	r0, [r3]
 1281 0010 80B2     		uxth	r0, r0
 1282              	.LVL108:
 1283 0012 09E0     		b	.L84
 1284              	.LVL109:
 1285              	.L83:
 767:Generated_Source\PSoC5/ADC_GLV_V.c ****             result |=  (uint16)((uint16)ADC_GLV_V_DEC_SAMPM_REG << 8u);
 1286              		.loc 1 767 0
 1287 0014 0A4A     		ldr	r2, .L86+4
 1288 0016 1278     		ldrb	r2, [r2]	@ zero_extendqisi2
 1289              	.LVL110:
ARM GAS  C:\Users\ANDREY~1\AppData\Local\Temp\cc0akFQM.s 			page 57


 768:Generated_Source\PSoC5/ADC_GLV_V.c ****         #endif /* CY_PSOC3 */
 1290              		.loc 1 768 0
 1291 0018 0A49     		ldr	r1, .L86+8
 1292 001a 0878     		ldrb	r0, [r1]	@ zero_extendqisi2
 1293 001c 42EA0020 		orr	r0, r2, r0, lsl #8
 1294              	.LVL111:
 770:Generated_Source\PSoC5/ADC_GLV_V.c ****         {   /* Dummy read of the MSB byte to unlock the coherency */
 1295              		.loc 1 770 0
 1296 0020 032B     		cmp	r3, #3
 1297 0022 01D1     		bne	.L84
 772:Generated_Source\PSoC5/ADC_GLV_V.c ****         }
 1298              		.loc 1 772 0
 1299 0024 084B     		ldr	r3, .L86+12
 1300              	.LVL112:
 1301 0026 1B78     		ldrb	r3, [r3]	@ zero_extendqisi2
 1302              	.L84:
 776:Generated_Source\PSoC5/ADC_GLV_V.c ****     {
 1303              		.loc 1 776 0
 1304 0028 084B     		ldr	r3, .L86+16
 1305 002a 1B79     		ldrb	r3, [r3, #4]	@ zero_extendqisi2
 1306 002c 13F0FF0F 		tst	r3, #255
 1307 0030 02D0     		beq	.L85
 778:Generated_Source\PSoC5/ADC_GLV_V.c ****     }
 1308              		.loc 1 778 0
 1309 0032 0022     		movs	r2, #0
 1310 0034 054B     		ldr	r3, .L86+16
 1311 0036 5A71     		strb	r2, [r3, #5]
 1312              	.L85:
 782:Generated_Source\PSoC5/ADC_GLV_V.c **** 
 1313              		.loc 1 782 0
 1314 0038 00B2     		sxth	r0, r0
 1315 003a 7047     		bx	lr
 1316              	.L87:
 1317              		.align	2
 1318              	.L86:
 1319 003c 144E0040 		.word	1073761812
 1320 0040 104E0040 		.word	1073761808
 1321 0044 114E0040 		.word	1073761809
 1322 0048 124E0040 		.word	1073761810
 1323 004c 00000000 		.word	.LANCHOR0
 1324              		.cfi_endproc
 1325              	.LFE12:
 1326              		.size	ADC_GLV_V_GetResult16, .-ADC_GLV_V_GetResult16
 1327              		.section	.text.ADC_GLV_V_GetResult32,"ax",%progbits
 1328              		.align	2
 1329              		.global	ADC_GLV_V_GetResult32
 1330              		.thumb
 1331              		.thumb_func
 1332              		.type	ADC_GLV_V_GetResult32, %function
 1333              	ADC_GLV_V_GetResult32:
 1334              	.LFB13:
 806:Generated_Source\PSoC5/ADC_GLV_V.c ****     uint32 result;
 1335              		.loc 1 806 0
 1336              		.cfi_startproc
 1337              		@ args = 0, pretend = 0, frame = 0
 1338              		@ frame_needed = 0, uses_anonymous_args = 0
 1339              		@ link register save eliminated.
ARM GAS  C:\Users\ANDREY~1\AppData\Local\Temp\cc0akFQM.s 			page 58


 814:Generated_Source\PSoC5/ADC_GLV_V.c **** 
 1340              		.loc 1 814 0
 1341 0000 154B     		ldr	r3, .L93
 1342 0002 1B78     		ldrb	r3, [r3]	@ zero_extendqisi2
 1343 0004 03F00303 		and	r3, r3, #3
 1344              	.LVL113:
 816:Generated_Source\PSoC5/ADC_GLV_V.c ****     {   /*  Use default method to read result registers i.e. LSB byte read at the end*/
 1345              		.loc 1 816 0
 1346 0008 012B     		cmp	r3, #1
 1347 000a 07D8     		bhi	.L89
 827:Generated_Source\PSoC5/ADC_GLV_V.c ****             result = (result << 16u) | (CY_GET_REG16(ADC_GLV_V_DEC_SAMP_16B_PTR));
 1348              		.loc 1 827 0
 1349 000c 134B     		ldr	r3, .L93+4
 1350              	.LVL114:
 1351 000e 1888     		ldrh	r0, [r3]
 1352              	.LVL115:
 828:Generated_Source\PSoC5/ADC_GLV_V.c ****         #endif /* CY_PSOC3 */
 1353              		.loc 1 828 0
 1354 0010 023B     		subs	r3, r3, #2
 1355 0012 1B88     		ldrh	r3, [r3]
 1356 0014 9BB2     		uxth	r3, r3
 1357 0016 43EA0040 		orr	r0, r3, r0, lsl #16
 1358              	.LVL116:
 1359 001a 13E0     		b	.L90
 1360              	.LVL117:
 1361              	.L89:
 831:Generated_Source\PSoC5/ADC_GLV_V.c ****     {   /* Read middle byte at the end */
 1362              		.loc 1 831 0
 1363 001c 022B     		cmp	r3, #2
 1364 001e 0AD1     		bne	.L91
 841:Generated_Source\PSoC5/ADC_GLV_V.c ****             result = (result << 16u) | ADC_GLV_V_DEC_SAMP_REG;
 1365              		.loc 1 841 0
 1366 0020 0E4B     		ldr	r3, .L93+4
 1367              	.LVL118:
 1368 0022 1888     		ldrh	r0, [r3]
 1369              	.LVL119:
 842:Generated_Source\PSoC5/ADC_GLV_V.c ****             result |=  (uint32)((uint32)ADC_GLV_V_DEC_SAMPM_REG << 8u);
 1370              		.loc 1 842 0
 1371 0024 023B     		subs	r3, r3, #2
 1372 0026 1B78     		ldrb	r3, [r3]	@ zero_extendqisi2
 1373 0028 43EA0043 		orr	r3, r3, r0, lsl #16
 1374              	.LVL120:
 843:Generated_Source\PSoC5/ADC_GLV_V.c ****         #endif /* CY_PSOC3 */
 1375              		.loc 1 843 0
 1376 002c 0C4A     		ldr	r2, .L93+8
 1377 002e 1078     		ldrb	r0, [r2]	@ zero_extendqisi2
 1378 0030 43EA0020 		orr	r0, r3, r0, lsl #8
 1379              	.LVL121:
 1380 0034 06E0     		b	.L90
 1381              	.LVL122:
 1382              	.L91:
 858:Generated_Source\PSoC5/ADC_GLV_V.c ****             result |= (uint32)((uint32)CY_GET_REG16(ADC_GLV_V_DEC_SAMPH_16B_PTR) << 16u);
 1383              		.loc 1 858 0
 1384 0036 0B4B     		ldr	r3, .L93+12
 1385              	.LVL123:
 1386 0038 1888     		ldrh	r0, [r3]
 1387 003a 83B2     		uxth	r3, r0
ARM GAS  C:\Users\ANDREY~1\AppData\Local\Temp\cc0akFQM.s 			page 59


 1388              	.LVL124:
 859:Generated_Source\PSoC5/ADC_GLV_V.c ****         #endif /* CY_PSOC3 */
 1389              		.loc 1 859 0
 1390 003c 074A     		ldr	r2, .L93+4
 1391 003e 1088     		ldrh	r0, [r2]
 1392 0040 43EA0040 		orr	r0, r3, r0, lsl #16
 1393              	.LVL125:
 1394              	.L90:
 863:Generated_Source\PSoC5/ADC_GLV_V.c ****     {
 1395              		.loc 1 863 0
 1396 0044 084B     		ldr	r3, .L93+16
 1397 0046 1B79     		ldrb	r3, [r3, #4]	@ zero_extendqisi2
 1398 0048 13F0FF0F 		tst	r3, #255
 1399 004c 02D0     		beq	.L92
 865:Generated_Source\PSoC5/ADC_GLV_V.c ****     }
 1400              		.loc 1 865 0
 1401 004e 0022     		movs	r2, #0
 1402 0050 054B     		ldr	r3, .L93+16
 1403 0052 5A71     		strb	r2, [r3, #5]
 1404              	.L92:
 869:Generated_Source\PSoC5/ADC_GLV_V.c **** 
 1405              		.loc 1 869 0
 1406 0054 7047     		bx	lr
 1407              	.L94:
 1408 0056 00BF     		.align	2
 1409              	.L93:
 1410 0058 144E0040 		.word	1073761812
 1411 005c 124E0040 		.word	1073761810
 1412 0060 114E0040 		.word	1073761809
 1413 0064 104E0040 		.word	1073761808
 1414 0068 00000000 		.word	.LANCHOR0
 1415              		.cfi_endproc
 1416              	.LFE13:
 1417              		.size	ADC_GLV_V_GetResult32, .-ADC_GLV_V_GetResult32
 1418              		.section	.text.ADC_GLV_V_SetOffset,"ax",%progbits
 1419              		.align	2
 1420              		.global	ADC_GLV_V_SetOffset
 1421              		.thumb
 1422              		.thumb_func
 1423              		.type	ADC_GLV_V_SetOffset, %function
 1424              	ADC_GLV_V_SetOffset:
 1425              	.LFB14:
 899:Generated_Source\PSoC5/ADC_GLV_V.c **** 
 1426              		.loc 1 899 0
 1427              		.cfi_startproc
 1428              		@ args = 0, pretend = 0, frame = 0
 1429              		@ frame_needed = 0, uses_anonymous_args = 0
 1430              		@ link register save eliminated.
 1431              	.LVL126:
 901:Generated_Source\PSoC5/ADC_GLV_V.c **** }
 1432              		.loc 1 901 0
 1433 0000 014B     		ldr	r3, .L96
 1434 0002 1860     		str	r0, [r3]
 1435 0004 7047     		bx	lr
 1436              	.L97:
 1437 0006 00BF     		.align	2
 1438              	.L96:
ARM GAS  C:\Users\ANDREY~1\AppData\Local\Temp\cc0akFQM.s 			page 60


 1439 0008 00000000 		.word	ADC_GLV_V_Offset
 1440              		.cfi_endproc
 1441              	.LFE14:
 1442              		.size	ADC_GLV_V_SetOffset, .-ADC_GLV_V_SetOffset
 1443              		.section	.text.ADC_GLV_V_SetGain,"ax",%progbits
 1444              		.align	2
 1445              		.global	ADC_GLV_V_SetGain
 1446              		.thumb
 1447              		.thumb_func
 1448              		.type	ADC_GLV_V_SetGain, %function
 1449              	ADC_GLV_V_SetGain:
 1450              	.LFB15:
 934:Generated_Source\PSoC5/ADC_GLV_V.c ****     ADC_GLV_V_CountsPerVolt = adcGain;
 1451              		.loc 1 934 0
 1452              		.cfi_startproc
 1453              		@ args = 0, pretend = 0, frame = 0
 1454              		@ frame_needed = 0, uses_anonymous_args = 0
 1455              		@ link register save eliminated.
 1456              	.LVL127:
 935:Generated_Source\PSoC5/ADC_GLV_V.c **** }
 1457              		.loc 1 935 0
 1458 0000 014B     		ldr	r3, .L99
 1459 0002 1860     		str	r0, [r3]
 1460 0004 7047     		bx	lr
 1461              	.L100:
 1462 0006 00BF     		.align	2
 1463              	.L99:
 1464 0008 00000000 		.word	ADC_GLV_V_CountsPerVolt
 1465              		.cfi_endproc
 1466              	.LFE15:
 1467              		.size	ADC_GLV_V_SetGain, .-ADC_GLV_V_SetGain
 1468              		.section	.text.ADC_GLV_V_CountsTo_mVolts,"ax",%progbits
 1469              		.align	2
 1470              		.global	ADC_GLV_V_CountsTo_mVolts
 1471              		.thumb
 1472              		.thumb_func
 1473              		.type	ADC_GLV_V_CountsTo_mVolts, %function
 1474              	ADC_GLV_V_CountsTo_mVolts:
 1475              	.LFB16:
 961:Generated_Source\PSoC5/ADC_GLV_V.c **** 
 1476              		.loc 1 961 0
 1477              		.cfi_startproc
 1478              		@ args = 0, pretend = 0, frame = 0
 1479              		@ frame_needed = 0, uses_anonymous_args = 0
 1480              		@ link register save eliminated.
 1481              	.LVL128:
 992:Generated_Source\PSoC5/ADC_GLV_V.c **** 
 1482              		.loc 1 992 0
 1483 0000 064B     		ldr	r3, .L102
 1484 0002 1B68     		ldr	r3, [r3]
 1485 0004 C01A     		subs	r0, r0, r3
 1486              	.LVL129:
 994:Generated_Source\PSoC5/ADC_GLV_V.c **** 
 1487              		.loc 1 994 0
 1488 0006 4FF47A73 		mov	r3, #1000
 1489 000a 03FB00F0 		mul	r0, r3, r0
 1490              	.LVL130:
ARM GAS  C:\Users\ANDREY~1\AppData\Local\Temp\cc0akFQM.s 			page 61


 1491 000e 044B     		ldr	r3, .L102+4
 1492 0010 1B68     		ldr	r3, [r3]
 1493 0012 90FBF3F0 		sdiv	r0, r0, r3
 1494              	.LVL131:
 997:Generated_Source\PSoC5/ADC_GLV_V.c **** 
 1495              		.loc 1 997 0
 1496 0016 00B2     		sxth	r0, r0
 1497 0018 7047     		bx	lr
 1498              	.L103:
 1499 001a 00BF     		.align	2
 1500              	.L102:
 1501 001c 00000000 		.word	ADC_GLV_V_Offset
 1502 0020 00000000 		.word	ADC_GLV_V_CountsPerVolt
 1503              		.cfi_endproc
 1504              	.LFE16:
 1505              		.size	ADC_GLV_V_CountsTo_mVolts, .-ADC_GLV_V_CountsTo_mVolts
 1506              		.global	__aeabi_i2f
 1507              		.global	__aeabi_fdiv
 1508              		.section	.text.ADC_GLV_V_CountsTo_Volts,"ax",%progbits
 1509              		.align	2
 1510              		.global	ADC_GLV_V_CountsTo_Volts
 1511              		.thumb
 1512              		.thumb_func
 1513              		.type	ADC_GLV_V_CountsTo_Volts, %function
 1514              	ADC_GLV_V_CountsTo_Volts:
 1515              	.LFB17:
1022:Generated_Source\PSoC5/ADC_GLV_V.c **** 
 1516              		.loc 1 1022 0
 1517              		.cfi_startproc
 1518              		@ args = 0, pretend = 0, frame = 0
 1519              		@ frame_needed = 0, uses_anonymous_args = 0
 1520              	.LVL132:
 1521 0000 10B5     		push	{r4, lr}
 1522              		.cfi_def_cfa_offset 8
 1523              		.cfi_offset 4, -8
 1524              		.cfi_offset 14, -4
1053:Generated_Source\PSoC5/ADC_GLV_V.c **** 
 1525              		.loc 1 1053 0
 1526 0002 074B     		ldr	r3, .L106
 1527 0004 1B68     		ldr	r3, [r3]
 1528              	.LVL133:
1055:Generated_Source\PSoC5/ADC_GLV_V.c **** 
 1529              		.loc 1 1055 0
 1530 0006 C01A     		subs	r0, r0, r3
 1531              	.LVL134:
 1532 0008 FFF7FEFF 		bl	__aeabi_i2f
 1533              	.LVL135:
 1534 000c 0446     		mov	r4, r0
 1535 000e 054B     		ldr	r3, .L106+4
 1536 0010 1868     		ldr	r0, [r3]
 1537 0012 FFF7FEFF 		bl	__aeabi_i2f
 1538              	.LVL136:
 1539 0016 0146     		mov	r1, r0
 1540 0018 2046     		mov	r0, r4
 1541 001a FFF7FEFF 		bl	__aeabi_fdiv
 1542              	.LVL137:
1058:Generated_Source\PSoC5/ADC_GLV_V.c **** 
ARM GAS  C:\Users\ANDREY~1\AppData\Local\Temp\cc0akFQM.s 			page 62


 1543              		.loc 1 1058 0
 1544 001e 10BD     		pop	{r4, pc}
 1545              	.L107:
 1546              		.align	2
 1547              	.L106:
 1548 0020 00000000 		.word	ADC_GLV_V_Offset
 1549 0024 00000000 		.word	ADC_GLV_V_CountsPerVolt
 1550              		.cfi_endproc
 1551              	.LFE17:
 1552              		.size	ADC_GLV_V_CountsTo_Volts, .-ADC_GLV_V_CountsTo_Volts
 1553              		.section	.text.ADC_GLV_V_CountsTo_uVolts,"ax",%progbits
 1554              		.align	2
 1555              		.global	ADC_GLV_V_CountsTo_uVolts
 1556              		.thumb
 1557              		.thumb_func
 1558              		.type	ADC_GLV_V_CountsTo_uVolts, %function
 1559              	ADC_GLV_V_CountsTo_uVolts:
 1560              	.LFB18:
1088:Generated_Source\PSoC5/ADC_GLV_V.c **** 
 1561              		.loc 1 1088 0
 1562              		.cfi_startproc
 1563              		@ args = 0, pretend = 0, frame = 0
 1564              		@ frame_needed = 0, uses_anonymous_args = 0
 1565              		@ link register save eliminated.
 1566              	.LVL138:
1097:Generated_Source\PSoC5/ADC_GLV_V.c ****     {
 1567              		.loc 1 1097 0
 1568 0000 0F4B     		ldr	r3, .L111
 1569 0002 1B78     		ldrb	r3, [r3]	@ zero_extendqisi2
 1570 0004 DBB2     		uxtb	r3, r3
 1571 0006 012B     		cmp	r3, #1
 1572 0008 06D0     		beq	.L109
1104:Generated_Source\PSoC5/ADC_GLV_V.c ****     {
 1573              		.loc 1 1104 0
 1574 000a 0D4B     		ldr	r3, .L111
 1575 000c 1B78     		ldrb	r3, [r3]	@ zero_extendqisi2
 1576 000e DBB2     		uxtb	r3, r3
 1577 0010 022B     		cmp	r3, #2
 1578 0012 01D0     		beq	.L109
1111:Generated_Source\PSoC5/ADC_GLV_V.c ****     {
 1579              		.loc 1 1111 0
 1580 0014 0A4B     		ldr	r3, .L111
 1581 0016 1B78     		ldrb	r3, [r3]	@ zero_extendqisi2
 1582              	.L109:
 1583              	.LVL139:
1215:Generated_Source\PSoC5/ADC_GLV_V.c ****     uVolts = ((coefA * adcCounts) / coefB) - ((coefA * ADC_GLV_V_Offset) / coefB);
 1584              		.loc 1 1215 0
 1585 0018 0A4B     		ldr	r3, .L111+4
 1586 001a 1B68     		ldr	r3, [r3]
 1587 001c 002B     		cmp	r3, #0
 1588 001e 00DA     		bge	.L110
 1589 0020 1F33     		adds	r3, r3, #31
 1590              	.L110:
 1591 0022 5A11     		asrs	r2, r3, #5
 1592              	.LVL140:
1216:Generated_Source\PSoC5/ADC_GLV_V.c **** 
 1593              		.loc 1 1216 0
ARM GAS  C:\Users\ANDREY~1\AppData\Local\Temp\cc0akFQM.s 			page 63


 1594 0024 47F61223 		movw	r3, #31250
 1595 0028 03FB00F0 		mul	r0, r3, r0
 1596              	.LVL141:
 1597 002c 90FBF2F0 		sdiv	r0, r0, r2
 1598 0030 0549     		ldr	r1, .L111+8
 1599 0032 0968     		ldr	r1, [r1]
 1600 0034 03FB01F3 		mul	r3, r3, r1
 1601 0038 93FBF2F3 		sdiv	r3, r3, r2
 1602              	.LVL142:
1219:Generated_Source\PSoC5/ADC_GLV_V.c **** 
 1603              		.loc 1 1219 0
 1604 003c C01A     		subs	r0, r0, r3
 1605              	.LVL143:
 1606 003e 7047     		bx	lr
 1607              	.L112:
 1608              		.align	2
 1609              	.L111:
 1610 0040 00000000 		.word	.LANCHOR1
 1611 0044 00000000 		.word	ADC_GLV_V_CountsPerVolt
 1612 0048 00000000 		.word	ADC_GLV_V_Offset
 1613              		.cfi_endproc
 1614              	.LFE18:
 1615              		.size	ADC_GLV_V_CountsTo_uVolts, .-ADC_GLV_V_CountsTo_uVolts
 1616              		.section	.text.ADC_GLV_V_SelectConfiguration,"ax",%progbits
 1617              		.align	2
 1618              		.global	ADC_GLV_V_SelectConfiguration
 1619              		.thumb
 1620              		.thumb_func
 1621              		.type	ADC_GLV_V_SelectConfiguration, %function
 1622              	ADC_GLV_V_SelectConfiguration:
 1623              	.LFB20:
1554:Generated_Source\PSoC5/ADC_GLV_V.c ****     /* Check whether the configuration number is valid or not */
 1624              		.loc 1 1554 0
 1625              		.cfi_startproc
 1626              		@ args = 0, pretend = 0, frame = 0
 1627              		@ frame_needed = 0, uses_anonymous_args = 0
 1628              	.LVL144:
 1629 0000 38B5     		push	{r3, r4, r5, lr}
 1630              		.cfi_def_cfa_offset 16
 1631              		.cfi_offset 3, -16
 1632              		.cfi_offset 4, -12
 1633              		.cfi_offset 5, -8
 1634              		.cfi_offset 14, -4
1556:Generated_Source\PSoC5/ADC_GLV_V.c ****     {
 1635              		.loc 1 1556 0
 1636 0002 0128     		cmp	r0, #1
 1637 0004 20D1     		bne	.L114
 1638 0006 0446     		mov	r4, r0
 1639 0008 0D46     		mov	r5, r1
1561:Generated_Source\PSoC5/ADC_GLV_V.c ****         {
 1640              		.loc 1 1561 0
 1641 000a 114B     		ldr	r3, .L118
 1642 000c 9B79     		ldrb	r3, [r3, #6]	@ zero_extendqisi2
 1643 000e 13B9     		cbnz	r3, .L115
1563:Generated_Source\PSoC5/ADC_GLV_V.c ****         }
 1644              		.loc 1 1563 0
 1645 0010 0122     		movs	r2, #1
ARM GAS  C:\Users\ANDREY~1\AppData\Local\Temp\cc0akFQM.s 			page 64


 1646 0012 0F4B     		ldr	r3, .L118
 1647 0014 DA71     		strb	r2, [r3, #7]
 1648              	.L115:
1567:Generated_Source\PSoC5/ADC_GLV_V.c **** 
 1649              		.loc 1 1567 0
 1650 0016 0F4B     		ldr	r3, .L118+4
 1651 0018 1C70     		strb	r4, [r3]
1570:Generated_Source\PSoC5/ADC_GLV_V.c **** 
 1652              		.loc 1 1570 0
 1653 001a FFF7FEFF 		bl	ADC_GLV_V_Stop
 1654              	.LVL145:
1573:Generated_Source\PSoC5/ADC_GLV_V.c **** 
 1655              		.loc 1 1573 0
 1656 001e 2046     		mov	r0, r4
 1657 0020 FFF7FEFF 		bl	ADC_GLV_V_InitConfig
 1658              	.LVL146:
1576:Generated_Source\PSoC5/ADC_GLV_V.c ****         CY_SET_REG16(ADC_GLV_V_DEC_GCOR_16B_PTR, ADC_GLV_V_gcor[config - 1u].gcor);
 1659              		.loc 1 1576 0
 1660 0024 013C     		subs	r4, r4, #1
 1661 0026 0A4B     		ldr	r3, .L118
 1662 0028 03EB8402 		add	r2, r3, r4, lsl #2
 1663 002c 9178     		ldrb	r1, [r2, #2]	@ zero_extendqisi2
 1664 002e 0A4A     		ldr	r2, .L118+8
 1665 0030 1170     		strb	r1, [r2]
1577:Generated_Source\PSoC5/ADC_GLV_V.c **** 
 1666              		.loc 1 1577 0
 1667 0032 33F82420 		ldrh	r2, [r3, r4, lsl #2]
 1668 0036 094B     		ldr	r3, .L118+12
 1669 0038 1A80     		strh	r2, [r3]	@ movhi
1579:Generated_Source\PSoC5/ADC_GLV_V.c ****         {
 1670              		.loc 1 1579 0
 1671 003a 012D     		cmp	r5, #1
 1672 003c 07D1     		bne	.L113
1582:Generated_Source\PSoC5/ADC_GLV_V.c **** 
 1673              		.loc 1 1582 0
 1674 003e FFF7FEFF 		bl	ADC_GLV_V_Start
 1675              	.LVL147:
1585:Generated_Source\PSoC5/ADC_GLV_V.c ****         }
 1676              		.loc 1 1585 0
 1677 0042 FFF7FEFF 		bl	ADC_GLV_V_StartConvert
 1678              	.LVL148:
 1679 0046 38BD     		pop	{r3, r4, r5, pc}
 1680              	.LVL149:
 1681              	.L114:
1591:Generated_Source\PSoC5/ADC_GLV_V.c ****     }
 1682              		.loc 1 1591 0 discriminator 1
 1683 0048 0020     		movs	r0, #0
 1684              	.LVL150:
 1685 004a FFF7FEFF 		bl	CyHalt
 1686              	.LVL151:
 1687              	.L113:
 1688 004e 38BD     		pop	{r3, r4, r5, pc}
 1689              	.L119:
 1690              		.align	2
 1691              	.L118:
 1692 0050 00000000 		.word	.LANCHOR0
 1693 0054 00000000 		.word	.LANCHOR1
ARM GAS  C:\Users\ANDREY~1\AppData\Local\Temp\cc0akFQM.s 			page 65


 1694 0058 0E4E0040 		.word	1073761806
 1695 005c 0C4E0040 		.word	1073761804
 1696              		.cfi_endproc
 1697              	.LFE20:
 1698              		.size	ADC_GLV_V_SelectConfiguration, .-ADC_GLV_V_SelectConfiguration
 1699              		.section	.text.ADC_GLV_V_Read8,"ax",%progbits
 1700              		.align	2
 1701              		.global	ADC_GLV_V_Read8
 1702              		.thumb
 1703              		.thumb_func
 1704              		.type	ADC_GLV_V_Read8, %function
 1705              	ADC_GLV_V_Read8:
 1706              	.LFB23:
1741:Generated_Source\PSoC5/ADC_GLV_V.c **** }
1742:Generated_Source\PSoC5/ADC_GLV_V.c **** 
1743:Generated_Source\PSoC5/ADC_GLV_V.c **** 
1744:Generated_Source\PSoC5/ADC_GLV_V.c **** /*******************************************************************************
1745:Generated_Source\PSoC5/ADC_GLV_V.c **** * Function Name: ADC_GLV_V_Read8
1746:Generated_Source\PSoC5/ADC_GLV_V.c **** ********************************************************************************
1747:Generated_Source\PSoC5/ADC_GLV_V.c **** *
1748:Generated_Source\PSoC5/ADC_GLV_V.c **** * Summary:
1749:Generated_Source\PSoC5/ADC_GLV_V.c **** *  This function simplifies getting results from the ADC when only a
1750:Generated_Source\PSoC5/ADC_GLV_V.c **** *  single reading is required. When called, it will start ADC
1751:Generated_Source\PSoC5/ADC_GLV_V.c **** *  conversions, wait for the conversion to be complete, stop ADC
1752:Generated_Source\PSoC5/ADC_GLV_V.c **** *  conversion and return the result. This is a blocking function and will
1753:Generated_Source\PSoC5/ADC_GLV_V.c **** *  not return until the result is ready.
1754:Generated_Source\PSoC5/ADC_GLV_V.c **** *
1755:Generated_Source\PSoC5/ADC_GLV_V.c **** * Parameters:
1756:Generated_Source\PSoC5/ADC_GLV_V.c **** *  None
1757:Generated_Source\PSoC5/ADC_GLV_V.c **** *
1758:Generated_Source\PSoC5/ADC_GLV_V.c **** * Return:
1759:Generated_Source\PSoC5/ADC_GLV_V.c **** *  int8:  ADC result.
1760:Generated_Source\PSoC5/ADC_GLV_V.c **** *
1761:Generated_Source\PSoC5/ADC_GLV_V.c **** *******************************************************************************/
1762:Generated_Source\PSoC5/ADC_GLV_V.c **** int8 ADC_GLV_V_Read8(void) 
1763:Generated_Source\PSoC5/ADC_GLV_V.c **** {
 1707              		.loc 1 1763 0
 1708              		.cfi_startproc
 1709              		@ args = 0, pretend = 0, frame = 0
 1710              		@ frame_needed = 0, uses_anonymous_args = 0
 1711 0000 10B5     		push	{r4, lr}
 1712              		.cfi_def_cfa_offset 8
 1713              		.cfi_offset 4, -8
 1714              		.cfi_offset 14, -4
1764:Generated_Source\PSoC5/ADC_GLV_V.c ****     int8 result;
1765:Generated_Source\PSoC5/ADC_GLV_V.c **** 
1766:Generated_Source\PSoC5/ADC_GLV_V.c ****     /* Clear pending conversion done status */
1767:Generated_Source\PSoC5/ADC_GLV_V.c ****     ADC_GLV_V_DEC_SR_REG |= ADC_GLV_V_DEC_INTR_CLEAR;
 1715              		.loc 1 1767 0
 1716 0002 084A     		ldr	r2, .L122
 1717 0004 1378     		ldrb	r3, [r2]	@ zero_extendqisi2
 1718 0006 43F00403 		orr	r3, r3, #4
 1719 000a 1370     		strb	r3, [r2]
1768:Generated_Source\PSoC5/ADC_GLV_V.c ****     ADC_GLV_V_StartConvert();
 1720              		.loc 1 1768 0
 1721 000c FFF7FEFF 		bl	ADC_GLV_V_StartConvert
 1722              	.LVL152:
ARM GAS  C:\Users\ANDREY~1\AppData\Local\Temp\cc0akFQM.s 			page 66


1769:Generated_Source\PSoC5/ADC_GLV_V.c ****     (void)ADC_GLV_V_IsEndConversion(ADC_GLV_V_WAIT_FOR_RESULT);
 1723              		.loc 1 1769 0
 1724 0010 0020     		movs	r0, #0
 1725 0012 FFF7FEFF 		bl	ADC_GLV_V_IsEndConversion
 1726              	.LVL153:
1770:Generated_Source\PSoC5/ADC_GLV_V.c ****      result = ADC_GLV_V_GetResult8();
 1727              		.loc 1 1770 0
 1728 0016 FFF7FEFF 		bl	ADC_GLV_V_GetResult8
 1729              	.LVL154:
 1730 001a 0446     		mov	r4, r0
 1731              	.LVL155:
1771:Generated_Source\PSoC5/ADC_GLV_V.c ****     ADC_GLV_V_StopConvert();
 1732              		.loc 1 1771 0
 1733 001c FFF7FEFF 		bl	ADC_GLV_V_StopConvert
 1734              	.LVL156:
1772:Generated_Source\PSoC5/ADC_GLV_V.c ****     
1773:Generated_Source\PSoC5/ADC_GLV_V.c ****      return(result);
1774:Generated_Source\PSoC5/ADC_GLV_V.c **** }
 1735              		.loc 1 1774 0
 1736 0020 2046     		mov	r0, r4
 1737 0022 10BD     		pop	{r4, pc}
 1738              	.LVL157:
 1739              	.L123:
 1740              		.align	2
 1741              	.L122:
 1742 0024 014E0040 		.word	1073761793
 1743              		.cfi_endproc
 1744              	.LFE23:
 1745              		.size	ADC_GLV_V_Read8, .-ADC_GLV_V_Read8
 1746              		.section	.text.ADC_GLV_V_Read16,"ax",%progbits
 1747              		.align	2
 1748              		.global	ADC_GLV_V_Read16
 1749              		.thumb
 1750              		.thumb_func
 1751              		.type	ADC_GLV_V_Read16, %function
 1752              	ADC_GLV_V_Read16:
 1753              	.LFB24:
1775:Generated_Source\PSoC5/ADC_GLV_V.c **** 
1776:Generated_Source\PSoC5/ADC_GLV_V.c **** 
1777:Generated_Source\PSoC5/ADC_GLV_V.c **** /*******************************************************************************
1778:Generated_Source\PSoC5/ADC_GLV_V.c **** * Function Name: ADC_GLV_V_Read16
1779:Generated_Source\PSoC5/ADC_GLV_V.c **** ********************************************************************************
1780:Generated_Source\PSoC5/ADC_GLV_V.c **** *
1781:Generated_Source\PSoC5/ADC_GLV_V.c **** * Summary:
1782:Generated_Source\PSoC5/ADC_GLV_V.c **** *  This function simplifies getting results from the ADC when only a
1783:Generated_Source\PSoC5/ADC_GLV_V.c **** *  single reading is required. When called, it will start ADC
1784:Generated_Source\PSoC5/ADC_GLV_V.c **** *  conversions, wait for the conversion to be complete, stop ADC
1785:Generated_Source\PSoC5/ADC_GLV_V.c **** *  conversion and return the result. This is a blocking function and will
1786:Generated_Source\PSoC5/ADC_GLV_V.c **** *  not return until the result is ready.
1787:Generated_Source\PSoC5/ADC_GLV_V.c **** *
1788:Generated_Source\PSoC5/ADC_GLV_V.c **** * Parameters:
1789:Generated_Source\PSoC5/ADC_GLV_V.c **** *   void
1790:Generated_Source\PSoC5/ADC_GLV_V.c **** *
1791:Generated_Source\PSoC5/ADC_GLV_V.c **** * Return:
1792:Generated_Source\PSoC5/ADC_GLV_V.c **** *  int16:  ADC result.
1793:Generated_Source\PSoC5/ADC_GLV_V.c **** *
1794:Generated_Source\PSoC5/ADC_GLV_V.c **** *******************************************************************************/
ARM GAS  C:\Users\ANDREY~1\AppData\Local\Temp\cc0akFQM.s 			page 67


1795:Generated_Source\PSoC5/ADC_GLV_V.c **** int16 ADC_GLV_V_Read16(void) 
1796:Generated_Source\PSoC5/ADC_GLV_V.c **** {
 1754              		.loc 1 1796 0
 1755              		.cfi_startproc
 1756              		@ args = 0, pretend = 0, frame = 0
 1757              		@ frame_needed = 0, uses_anonymous_args = 0
 1758 0000 10B5     		push	{r4, lr}
 1759              		.cfi_def_cfa_offset 8
 1760              		.cfi_offset 4, -8
 1761              		.cfi_offset 14, -4
1797:Generated_Source\PSoC5/ADC_GLV_V.c ****     int16 result;
1798:Generated_Source\PSoC5/ADC_GLV_V.c **** 
1799:Generated_Source\PSoC5/ADC_GLV_V.c ****     /* Clear pending conversion done status */
1800:Generated_Source\PSoC5/ADC_GLV_V.c ****     ADC_GLV_V_DEC_SR_REG |= ADC_GLV_V_DEC_INTR_CLEAR;
 1762              		.loc 1 1800 0
 1763 0002 084A     		ldr	r2, .L126
 1764 0004 1378     		ldrb	r3, [r2]	@ zero_extendqisi2
 1765 0006 43F00403 		orr	r3, r3, #4
 1766 000a 1370     		strb	r3, [r2]
1801:Generated_Source\PSoC5/ADC_GLV_V.c ****     ADC_GLV_V_StartConvert();
 1767              		.loc 1 1801 0
 1768 000c FFF7FEFF 		bl	ADC_GLV_V_StartConvert
 1769              	.LVL158:
1802:Generated_Source\PSoC5/ADC_GLV_V.c ****     (void)ADC_GLV_V_IsEndConversion(ADC_GLV_V_WAIT_FOR_RESULT);
 1770              		.loc 1 1802 0
 1771 0010 0020     		movs	r0, #0
 1772 0012 FFF7FEFF 		bl	ADC_GLV_V_IsEndConversion
 1773              	.LVL159:
1803:Generated_Source\PSoC5/ADC_GLV_V.c ****      result = ADC_GLV_V_GetResult16();
 1774              		.loc 1 1803 0
 1775 0016 FFF7FEFF 		bl	ADC_GLV_V_GetResult16
 1776              	.LVL160:
 1777 001a 0446     		mov	r4, r0
 1778              	.LVL161:
1804:Generated_Source\PSoC5/ADC_GLV_V.c ****     ADC_GLV_V_StopConvert();
 1779              		.loc 1 1804 0
 1780 001c FFF7FEFF 		bl	ADC_GLV_V_StopConvert
 1781              	.LVL162:
1805:Generated_Source\PSoC5/ADC_GLV_V.c ****     
1806:Generated_Source\PSoC5/ADC_GLV_V.c ****      return(result);
1807:Generated_Source\PSoC5/ADC_GLV_V.c **** }
 1782              		.loc 1 1807 0
 1783 0020 2046     		mov	r0, r4
 1784 0022 10BD     		pop	{r4, pc}
 1785              	.LVL163:
 1786              	.L127:
 1787              		.align	2
 1788              	.L126:
 1789 0024 014E0040 		.word	1073761793
 1790              		.cfi_endproc
 1791              	.LFE24:
 1792              		.size	ADC_GLV_V_Read16, .-ADC_GLV_V_Read16
 1793              		.section	.text.ADC_GLV_V_Read32,"ax",%progbits
 1794              		.align	2
 1795              		.global	ADC_GLV_V_Read32
 1796              		.thumb
 1797              		.thumb_func
ARM GAS  C:\Users\ANDREY~1\AppData\Local\Temp\cc0akFQM.s 			page 68


 1798              		.type	ADC_GLV_V_Read32, %function
 1799              	ADC_GLV_V_Read32:
 1800              	.LFB25:
1808:Generated_Source\PSoC5/ADC_GLV_V.c **** 
1809:Generated_Source\PSoC5/ADC_GLV_V.c **** 
1810:Generated_Source\PSoC5/ADC_GLV_V.c **** /*******************************************************************************
1811:Generated_Source\PSoC5/ADC_GLV_V.c **** * Function Name: ADC_GLV_V_Read32
1812:Generated_Source\PSoC5/ADC_GLV_V.c **** ********************************************************************************
1813:Generated_Source\PSoC5/ADC_GLV_V.c **** *
1814:Generated_Source\PSoC5/ADC_GLV_V.c **** * Summary:
1815:Generated_Source\PSoC5/ADC_GLV_V.c **** *  This function simplifies getting results from the ADC when only a
1816:Generated_Source\PSoC5/ADC_GLV_V.c **** *  single reading is required. When called, it will start ADC
1817:Generated_Source\PSoC5/ADC_GLV_V.c **** *  conversions, wait for the conversion to be complete, stop ADC
1818:Generated_Source\PSoC5/ADC_GLV_V.c **** *  conversion and return the result. This is a blocking function and will
1819:Generated_Source\PSoC5/ADC_GLV_V.c **** *  not return until the result is ready.
1820:Generated_Source\PSoC5/ADC_GLV_V.c **** *
1821:Generated_Source\PSoC5/ADC_GLV_V.c **** * Parameters:
1822:Generated_Source\PSoC5/ADC_GLV_V.c **** *  None
1823:Generated_Source\PSoC5/ADC_GLV_V.c **** *
1824:Generated_Source\PSoC5/ADC_GLV_V.c **** * Return:
1825:Generated_Source\PSoC5/ADC_GLV_V.c **** *  int32: ADC result.
1826:Generated_Source\PSoC5/ADC_GLV_V.c **** *
1827:Generated_Source\PSoC5/ADC_GLV_V.c **** *******************************************************************************/
1828:Generated_Source\PSoC5/ADC_GLV_V.c **** int32 ADC_GLV_V_Read32(void) 
1829:Generated_Source\PSoC5/ADC_GLV_V.c **** {
 1801              		.loc 1 1829 0
 1802              		.cfi_startproc
 1803              		@ args = 0, pretend = 0, frame = 0
 1804              		@ frame_needed = 0, uses_anonymous_args = 0
 1805 0000 10B5     		push	{r4, lr}
 1806              		.cfi_def_cfa_offset 8
 1807              		.cfi_offset 4, -8
 1808              		.cfi_offset 14, -4
1830:Generated_Source\PSoC5/ADC_GLV_V.c ****     int32 result;
1831:Generated_Source\PSoC5/ADC_GLV_V.c ****     
1832:Generated_Source\PSoC5/ADC_GLV_V.c ****     /* Clear pending conversion done status */
1833:Generated_Source\PSoC5/ADC_GLV_V.c ****     ADC_GLV_V_DEC_SR_REG |= ADC_GLV_V_DEC_INTR_CLEAR;
 1809              		.loc 1 1833 0
 1810 0002 084A     		ldr	r2, .L130
 1811 0004 1378     		ldrb	r3, [r2]	@ zero_extendqisi2
 1812 0006 43F00403 		orr	r3, r3, #4
 1813 000a 1370     		strb	r3, [r2]
1834:Generated_Source\PSoC5/ADC_GLV_V.c ****     ADC_GLV_V_StartConvert();
 1814              		.loc 1 1834 0
 1815 000c FFF7FEFF 		bl	ADC_GLV_V_StartConvert
 1816              	.LVL164:
1835:Generated_Source\PSoC5/ADC_GLV_V.c ****     (void)ADC_GLV_V_IsEndConversion(ADC_GLV_V_WAIT_FOR_RESULT);
 1817              		.loc 1 1835 0
 1818 0010 0020     		movs	r0, #0
 1819 0012 FFF7FEFF 		bl	ADC_GLV_V_IsEndConversion
 1820              	.LVL165:
1836:Generated_Source\PSoC5/ADC_GLV_V.c ****      result = ADC_GLV_V_GetResult32();
 1821              		.loc 1 1836 0
 1822 0016 FFF7FEFF 		bl	ADC_GLV_V_GetResult32
 1823              	.LVL166:
 1824 001a 0446     		mov	r4, r0
 1825              	.LVL167:
ARM GAS  C:\Users\ANDREY~1\AppData\Local\Temp\cc0akFQM.s 			page 69


1837:Generated_Source\PSoC5/ADC_GLV_V.c ****     ADC_GLV_V_StopConvert();
 1826              		.loc 1 1837 0
 1827 001c FFF7FEFF 		bl	ADC_GLV_V_StopConvert
 1828              	.LVL168:
1838:Generated_Source\PSoC5/ADC_GLV_V.c ****     
1839:Generated_Source\PSoC5/ADC_GLV_V.c ****      return(result);
1840:Generated_Source\PSoC5/ADC_GLV_V.c **** }
 1829              		.loc 1 1840 0
 1830 0020 2046     		mov	r0, r4
 1831 0022 10BD     		pop	{r4, pc}
 1832              	.LVL169:
 1833              	.L131:
 1834              		.align	2
 1835              	.L130:
 1836 0024 014E0040 		.word	1073761793
 1837              		.cfi_endproc
 1838              	.LFE25:
 1839              		.size	ADC_GLV_V_Read32, .-ADC_GLV_V_Read32
 1840              		.comm	ADC_GLV_V_CountsPerVolt,4,4
 1841              		.comm	ADC_GLV_V_Offset,4,4
 1842              		.global	ADC_GLV_V_Config
 1843              		.global	ADC_GLV_V_started
 1844              		.global	ADC_GLV_V_initVar
 1845              		.global	ADC_GLV_V_stopConversion
 1846              		.global	ADC_GLV_V_convDone
 1847              		.data
 1848              		.set	.LANCHOR1,. + 0
 1849              		.type	ADC_GLV_V_Config, %object
 1850              		.size	ADC_GLV_V_Config, 1
 1851              	ADC_GLV_V_Config:
 1852 0000 01       		.byte	1
 1853              		.bss
 1854              		.align	2
 1855              		.set	.LANCHOR0,. + 0
 1856              		.type	ADC_GLV_V_gcor, %object
 1857              		.size	ADC_GLV_V_gcor, 4
 1858              	ADC_GLV_V_gcor:
 1859 0000 00000000 		.space	4
 1860              		.type	ADC_GLV_V_stopConversion, %object
 1861              		.size	ADC_GLV_V_stopConversion, 1
 1862              	ADC_GLV_V_stopConversion:
 1863 0004 00       		.space	1
 1864              		.type	ADC_GLV_V_convDone, %object
 1865              		.size	ADC_GLV_V_convDone, 1
 1866              	ADC_GLV_V_convDone:
 1867 0005 00       		.space	1
 1868              		.type	ADC_GLV_V_initVar, %object
 1869              		.size	ADC_GLV_V_initVar, 1
 1870              	ADC_GLV_V_initVar:
 1871 0006 00       		.space	1
 1872              		.type	ADC_GLV_V_started, %object
 1873              		.size	ADC_GLV_V_started, 1
 1874              	ADC_GLV_V_started:
 1875 0007 00       		.space	1
 1876              		.text
 1877              	.Letext0:
 1878              		.file 2 "Generated_Source\\PSoC5\\cytypes.h"
ARM GAS  C:\Users\ANDREY~1\AppData\Local\Temp\cc0akFQM.s 			page 70


 1879              		.file 3 "Generated_Source\\PSoC5\\ADC_GLV_V.h"
 1880              		.file 4 "Generated_Source\\PSoC5\\CyLib.h"
 1881              		.file 5 "Generated_Source\\PSoC5\\ADC_GLV_V_AMux.h"
 1882              		.file 6 "Generated_Source\\PSoC5\\ADC_GLV_V_Ext_CP_Clk.h"
 1883              		.file 7 "Generated_Source\\PSoC5\\ADC_GLV_V_theACLK.h"
 1884              		.section	.debug_info,"",%progbits
 1885              	.Ldebug_info0:
 1886 0000 140A0000 		.4byte	0xa14
 1887 0004 0400     		.2byte	0x4
 1888 0006 00000000 		.4byte	.Ldebug_abbrev0
 1889 000a 04       		.byte	0x4
 1890 000b 01       		.uleb128 0x1
 1891 000c D3040000 		.4byte	.LASF101
 1892 0010 0C       		.byte	0xc
 1893 0011 21040000 		.4byte	.LASF102
 1894 0015 D8010000 		.4byte	.LASF103
 1895 0019 00000000 		.4byte	.Ldebug_ranges0+0
 1896 001d 00000000 		.4byte	0
 1897 0021 00000000 		.4byte	.Ldebug_line0
 1898 0025 02       		.uleb128 0x2
 1899 0026 04       		.byte	0x4
 1900 0027 04       		.byte	0x4
 1901 0028 16040000 		.4byte	.LASF0
 1902 002c 02       		.uleb128 0x2
 1903 002d 01       		.byte	0x1
 1904 002e 06       		.byte	0x6
 1905 002f 3D010000 		.4byte	.LASF1
 1906 0033 02       		.uleb128 0x2
 1907 0034 01       		.byte	0x1
 1908 0035 08       		.byte	0x8
 1909 0036 7D040000 		.4byte	.LASF2
 1910 003a 02       		.uleb128 0x2
 1911 003b 02       		.byte	0x2
 1912 003c 05       		.byte	0x5
 1913 003d B2040000 		.4byte	.LASF3
 1914 0041 02       		.uleb128 0x2
 1915 0042 02       		.byte	0x2
 1916 0043 07       		.byte	0x7
 1917 0044 41030000 		.4byte	.LASF4
 1918 0048 02       		.uleb128 0x2
 1919 0049 04       		.byte	0x4
 1920 004a 05       		.byte	0x5
 1921 004b A3010000 		.4byte	.LASF5
 1922 004f 02       		.uleb128 0x2
 1923 0050 04       		.byte	0x4
 1924 0051 07       		.byte	0x7
 1925 0052 DB020000 		.4byte	.LASF6
 1926 0056 02       		.uleb128 0x2
 1927 0057 08       		.byte	0x8
 1928 0058 05       		.byte	0x5
 1929 0059 2F010000 		.4byte	.LASF7
 1930 005d 02       		.uleb128 0x2
 1931 005e 08       		.byte	0x8
 1932 005f 07       		.byte	0x7
 1933 0060 B9000000 		.4byte	.LASF8
 1934 0064 03       		.uleb128 0x3
 1935 0065 04       		.byte	0x4
ARM GAS  C:\Users\ANDREY~1\AppData\Local\Temp\cc0akFQM.s 			page 71


 1936 0066 05       		.byte	0x5
 1937 0067 696E7400 		.ascii	"int\000"
 1938 006b 02       		.uleb128 0x2
 1939 006c 04       		.byte	0x4
 1940 006d 07       		.byte	0x7
 1941 006e AF020000 		.4byte	.LASF9
 1942 0072 04       		.uleb128 0x4
 1943 0073 C1010000 		.4byte	.LASF10
 1944 0077 02       		.byte	0x2
 1945 0078 3801     		.2byte	0x138
 1946 007a 33000000 		.4byte	0x33
 1947 007e 04       		.uleb128 0x4
 1948 007f 14000000 		.4byte	.LASF11
 1949 0083 02       		.byte	0x2
 1950 0084 3901     		.2byte	0x139
 1951 0086 41000000 		.4byte	0x41
 1952 008a 04       		.uleb128 0x4
 1953 008b 4A020000 		.4byte	.LASF12
 1954 008f 02       		.byte	0x2
 1955 0090 3A01     		.2byte	0x13a
 1956 0092 4F000000 		.4byte	0x4f
 1957 0096 04       		.uleb128 0x4
 1958 0097 54030000 		.4byte	.LASF13
 1959 009b 02       		.byte	0x2
 1960 009c 3B01     		.2byte	0x13b
 1961 009e 2C000000 		.4byte	0x2c
 1962 00a2 04       		.uleb128 0x4
 1963 00a3 8F060000 		.4byte	.LASF14
 1964 00a7 02       		.byte	0x2
 1965 00a8 3C01     		.2byte	0x13c
 1966 00aa 3A000000 		.4byte	0x3a
 1967 00ae 04       		.uleb128 0x4
 1968 00af 60010000 		.4byte	.LASF15
 1969 00b3 02       		.byte	0x2
 1970 00b4 3D01     		.2byte	0x13d
 1971 00b6 48000000 		.4byte	0x48
 1972 00ba 04       		.uleb128 0x4
 1973 00bb AD030000 		.4byte	.LASF16
 1974 00bf 02       		.byte	0x2
 1975 00c0 3E01     		.2byte	0x13e
 1976 00c2 25000000 		.4byte	0x25
 1977 00c6 02       		.uleb128 0x2
 1978 00c7 08       		.byte	0x8
 1979 00c8 04       		.byte	0x4
 1980 00c9 D1010000 		.4byte	.LASF17
 1981 00cd 02       		.uleb128 0x2
 1982 00ce 01       		.byte	0x1
 1983 00cf 08       		.byte	0x8
 1984 00d0 DD050000 		.4byte	.LASF18
 1985 00d4 04       		.uleb128 0x4
 1986 00d5 1C040000 		.4byte	.LASF19
 1987 00d9 02       		.byte	0x2
 1988 00da E201     		.2byte	0x1e2
 1989 00dc E0000000 		.4byte	0xe0
 1990 00e0 05       		.uleb128 0x5
 1991 00e1 72000000 		.4byte	0x72
 1992 00e5 04       		.uleb128 0x4
ARM GAS  C:\Users\ANDREY~1\AppData\Local\Temp\cc0akFQM.s 			page 72


 1993 00e6 AC010000 		.4byte	.LASF20
 1994 00ea 02       		.byte	0x2
 1995 00eb E301     		.2byte	0x1e3
 1996 00ed F1000000 		.4byte	0xf1
 1997 00f1 05       		.uleb128 0x5
 1998 00f2 7E000000 		.4byte	0x7e
 1999 00f6 04       		.uleb128 0x4
 2000 00f7 A7030000 		.4byte	.LASF21
 2001 00fb 02       		.byte	0x2
 2002 00fc E401     		.2byte	0x1e4
 2003 00fe 02010000 		.4byte	0x102
 2004 0102 05       		.uleb128 0x5
 2005 0103 8A000000 		.4byte	0x8a
 2006 0107 02       		.uleb128 0x2
 2007 0108 08       		.byte	0x8
 2008 0109 04       		.byte	0x4
 2009 010a BE030000 		.4byte	.LASF22
 2010 010e 02       		.uleb128 0x2
 2011 010f 04       		.byte	0x4
 2012 0110 07       		.byte	0x7
 2013 0111 B5030000 		.4byte	.LASF23
 2014 0115 06       		.uleb128 0x6
 2015 0116 04       		.byte	0x4
 2016 0117 03       		.byte	0x3
 2017 0118 2F       		.byte	0x2f
 2018 0119 36010000 		.4byte	0x136
 2019 011d 07       		.uleb128 0x7
 2020 011e 77000000 		.4byte	.LASF24
 2021 0122 03       		.byte	0x3
 2022 0123 31       		.byte	0x31
 2023 0124 7E000000 		.4byte	0x7e
 2024 0128 00       		.byte	0
 2025 0129 07       		.uleb128 0x7
 2026 012a 1C060000 		.4byte	.LASF25
 2027 012e 03       		.byte	0x3
 2028 012f 32       		.byte	0x32
 2029 0130 72000000 		.4byte	0x72
 2030 0134 02       		.byte	0x2
 2031 0135 00       		.byte	0
 2032 0136 08       		.uleb128 0x8
 2033 0137 A9050000 		.4byte	.LASF26
 2034 013b 03       		.byte	0x3
 2035 013c 33       		.byte	0x33
 2036 013d 15010000 		.4byte	0x115
 2037 0141 09       		.uleb128 0x9
 2038 0142 0F030000 		.4byte	.LASF36
 2039 0146 01       		.byte	0x1
 2040 0147 5106     		.2byte	0x651
 2041 0149 00000000 		.4byte	.LFB21
 2042 014d DC000000 		.4byte	.LFE21-.LFB21
 2043 0151 01       		.uleb128 0x1
 2044 0152 9C       		.byte	0x9c
 2045 0153 F7010000 		.4byte	0x1f7
 2046 0157 0A       		.uleb128 0xa
 2047 0158 4E000000 		.4byte	.LASF27
 2048 015c 01       		.byte	0x1
 2049 015d 5106     		.2byte	0x651
ARM GAS  C:\Users\ANDREY~1\AppData\Local\Temp\cc0akFQM.s 			page 73


 2050 015f 72000000 		.4byte	0x72
 2051 0163 00000000 		.4byte	.LLST0
 2052 0167 0A       		.uleb128 0xa
 2053 0168 44040000 		.4byte	.LASF28
 2054 016c 01       		.byte	0x1
 2055 016d 5106     		.2byte	0x651
 2056 016f 7E000000 		.4byte	0x7e
 2057 0173 3A000000 		.4byte	.LLST1
 2058 0177 0A       		.uleb128 0xa
 2059 0178 1F010000 		.4byte	.LASF29
 2060 017c 01       		.byte	0x1
 2061 017d 5106     		.2byte	0x651
 2062 017f 7E000000 		.4byte	0x7e
 2063 0183 74000000 		.4byte	.LLST2
 2064 0187 0A       		.uleb128 0xa
 2065 0188 88050000 		.4byte	.LASF30
 2066 018c 01       		.byte	0x1
 2067 018d 5206     		.2byte	0x652
 2068 018f 72000000 		.4byte	0x72
 2069 0193 AE000000 		.4byte	.LLST3
 2070 0197 0A       		.uleb128 0xa
 2071 0198 02060000 		.4byte	.LASF31
 2072 019c 01       		.byte	0x1
 2073 019d 5206     		.2byte	0x652
 2074 019f 72000000 		.4byte	0x72
 2075 01a3 01010000 		.4byte	.LLST4
 2076 01a7 0B       		.uleb128 0xb
 2077 01a8 A1030000 		.4byte	.LASF32
 2078 01ac 01       		.byte	0x1
 2079 01ad 5406     		.2byte	0x654
 2080 01af 96000000 		.4byte	0x96
 2081 01b3 2D010000 		.4byte	.LLST5
 2082 01b7 0B       		.uleb128 0xb
 2083 01b8 51040000 		.4byte	.LASF33
 2084 01bc 01       		.byte	0x1
 2085 01bd 5506     		.2byte	0x655
 2086 01bf AE000000 		.4byte	0xae
 2087 01c3 A3010000 		.4byte	.LLST6
 2088 01c7 0B       		.uleb128 0xb
 2089 01c8 59030000 		.4byte	.LASF34
 2090 01cc 01       		.byte	0x1
 2091 01cd 5606     		.2byte	0x656
 2092 01cf 7E000000 		.4byte	0x7e
 2093 01d3 B6010000 		.4byte	.LLST7
 2094 01d7 0B       		.uleb128 0xb
 2095 01d8 BC040000 		.4byte	.LASF35
 2096 01dc 01       		.byte	0x1
 2097 01dd 5706     		.2byte	0x657
 2098 01df 8A000000 		.4byte	0x8a
 2099 01e3 DF010000 		.4byte	.LLST8
 2100 01e7 0C       		.uleb128 0xc
 2101 01e8 B4000000 		.4byte	.LVL33
 2102 01ec 9E090000 		.4byte	0x99e
 2103 01f0 0D       		.uleb128 0xd
 2104 01f1 01       		.uleb128 0x1
 2105 01f2 50       		.byte	0x50
 2106 01f3 01       		.uleb128 0x1
ARM GAS  C:\Users\ANDREY~1\AppData\Local\Temp\cc0akFQM.s 			page 74


 2107 01f4 30       		.byte	0x30
 2108 01f5 00       		.byte	0
 2109 01f6 00       		.byte	0
 2110 01f7 09       		.uleb128 0x9
 2111 01f8 BC020000 		.4byte	.LASF37
 2112 01fc 01       		.byte	0x1
 2113 01fd BC06     		.2byte	0x6bc
 2114 01ff 00000000 		.4byte	.LFB22
 2115 0203 4C000000 		.4byte	.LFE22-.LFB22
 2116 0207 01       		.uleb128 0x1
 2117 0208 9C       		.byte	0x9c
 2118 0209 5A020000 		.4byte	0x25a
 2119 020d 0A       		.uleb128 0xa
 2120 020e A1020000 		.4byte	.LASF38
 2121 0212 01       		.byte	0x1
 2122 0213 BC06     		.2byte	0x6bc
 2123 0215 72000000 		.4byte	0x72
 2124 0219 F2010000 		.4byte	.LLST9
 2125 021d 0B       		.uleb128 0xb
 2126 021e 6C060000 		.4byte	.LASF39
 2127 0222 01       		.byte	0x1
 2128 0223 BE06     		.2byte	0x6be
 2129 0225 72000000 		.4byte	0x72
 2130 0229 13020000 		.4byte	.LLST10
 2131 022d 0E       		.uleb128 0xe
 2132 022e 08000000 		.4byte	.LVL36
 2133 0232 A9090000 		.4byte	0x9a9
 2134 0236 0F       		.uleb128 0xf
 2135 0237 28000000 		.4byte	.LVL38
 2136 023b B4090000 		.4byte	0x9b4
 2137 023f 49020000 		.4byte	0x249
 2138 0243 0D       		.uleb128 0xd
 2139 0244 01       		.uleb128 0x1
 2140 0245 50       		.byte	0x50
 2141 0246 01       		.uleb128 0x1
 2142 0247 33       		.byte	0x33
 2143 0248 00       		.byte	0
 2144 0249 0C       		.uleb128 0xc
 2145 024a 3E000000 		.4byte	.LVL39
 2146 024e BF090000 		.4byte	0x9bf
 2147 0252 0D       		.uleb128 0xd
 2148 0253 01       		.uleb128 0x1
 2149 0254 50       		.byte	0x50
 2150 0255 02       		.uleb128 0x2
 2151 0256 76       		.byte	0x76
 2152 0257 00       		.sleb128 0
 2153 0258 00       		.byte	0
 2154 0259 00       		.byte	0
 2155 025a 09       		.uleb128 0x9
 2156 025b 73050000 		.4byte	.LASF40
 2157 025f 01       		.byte	0x1
 2158 0260 DA04     		.2byte	0x4da
 2159 0262 00000000 		.4byte	.LFB19
 2160 0266 E0000000 		.4byte	.LFE19-.LFB19
 2161 026a 01       		.uleb128 0x1
 2162 026b 9C       		.byte	0x9c
 2163 026c EB020000 		.4byte	0x2eb
ARM GAS  C:\Users\ANDREY~1\AppData\Local\Temp\cc0akFQM.s 			page 75


 2164 0270 0A       		.uleb128 0xa
 2165 0271 02060000 		.4byte	.LASF31
 2166 0275 01       		.byte	0x1
 2167 0276 DA04     		.2byte	0x4da
 2168 0278 72000000 		.4byte	0x72
 2169 027c 26020000 		.4byte	.LLST11
 2170 0280 0F       		.uleb128 0xf
 2171 0281 84000000 		.4byte	.LVL43
 2172 0285 F7010000 		.4byte	0x1f7
 2173 0289 94020000 		.4byte	0x294
 2174 028d 0D       		.uleb128 0xd
 2175 028e 01       		.uleb128 0x1
 2176 028f 50       		.byte	0x50
 2177 0290 02       		.uleb128 0x2
 2178 0291 08       		.byte	0x8
 2179 0292 44       		.byte	0x44
 2180 0293 00       		.byte	0
 2181 0294 0F       		.uleb128 0xf
 2182 0295 A8000000 		.4byte	.LVL44
 2183 0299 CA090000 		.4byte	0x9ca
 2184 029d A8020000 		.4byte	0x2a8
 2185 02a1 0D       		.uleb128 0xd
 2186 02a2 01       		.uleb128 0x1
 2187 02a3 50       		.byte	0x50
 2188 02a4 02       		.uleb128 0x2
 2189 02a5 74       		.byte	0x74
 2190 02a6 00       		.sleb128 0
 2191 02a7 00       		.byte	0
 2192 02a8 0F       		.uleb128 0xf
 2193 02a9 B8000000 		.4byte	.LVL45
 2194 02ad D5090000 		.4byte	0x9d5
 2195 02b1 C1020000 		.4byte	0x2c1
 2196 02b5 0D       		.uleb128 0xd
 2197 02b6 01       		.uleb128 0x1
 2198 02b7 50       		.byte	0x50
 2199 02b8 01       		.uleb128 0x1
 2200 02b9 38       		.byte	0x38
 2201 02ba 0D       		.uleb128 0xd
 2202 02bb 01       		.uleb128 0x1
 2203 02bc 51       		.byte	0x51
 2204 02bd 02       		.uleb128 0x2
 2205 02be 75       		.byte	0x75
 2206 02bf 00       		.sleb128 0
 2207 02c0 00       		.byte	0
 2208 02c1 0F       		.uleb128 0xf
 2209 02c2 C0000000 		.4byte	.LVL46
 2210 02c6 E0090000 		.4byte	0x9e0
 2211 02ca DB020000 		.4byte	0x2db
 2212 02ce 0D       		.uleb128 0xd
 2213 02cf 01       		.uleb128 0x1
 2214 02d0 50       		.byte	0x50
 2215 02d1 02       		.uleb128 0x2
 2216 02d2 08       		.byte	0x8
 2217 02d3 25       		.byte	0x25
 2218 02d4 0D       		.uleb128 0xd
 2219 02d5 01       		.uleb128 0x1
 2220 02d6 51       		.byte	0x51
ARM GAS  C:\Users\ANDREY~1\AppData\Local\Temp\cc0akFQM.s 			page 76


 2221 02d7 02       		.uleb128 0x2
 2222 02d8 75       		.byte	0x75
 2223 02d9 00       		.sleb128 0
 2224 02da 00       		.byte	0
 2225 02db 0C       		.uleb128 0xc
 2226 02dc C8000000 		.4byte	.LVL47
 2227 02e0 EB090000 		.4byte	0x9eb
 2228 02e4 0D       		.uleb128 0xd
 2229 02e5 01       		.uleb128 0x1
 2230 02e6 50       		.byte	0x50
 2231 02e7 01       		.uleb128 0x1
 2232 02e8 4D       		.byte	0x4d
 2233 02e9 00       		.byte	0
 2234 02ea 00       		.byte	0
 2235 02eb 10       		.uleb128 0x10
 2236 02ec B2010000 		.4byte	.LASF41
 2237 02f0 01       		.byte	0x1
 2238 02f1 5B       		.byte	0x5b
 2239 02f2 00000000 		.4byte	.LFB0
 2240 02f6 C4000000 		.4byte	.LFE0-.LFB0
 2241 02fa 01       		.uleb128 0x1
 2242 02fb 9C       		.byte	0x9c
 2243 02fc 75030000 		.4byte	0x375
 2244 0300 0F       		.uleb128 0xf
 2245 0301 16000000 		.4byte	.LVL48
 2246 0305 F6090000 		.4byte	0x9f6
 2247 0309 13030000 		.4byte	0x313
 2248 030d 0D       		.uleb128 0xd
 2249 030e 01       		.uleb128 0x1
 2250 030f 50       		.byte	0x50
 2251 0310 01       		.uleb128 0x1
 2252 0311 40       		.byte	0x40
 2253 0312 00       		.byte	0
 2254 0313 0F       		.uleb128 0xf
 2255 0314 1C000000 		.4byte	.LVL49
 2256 0318 010A0000 		.4byte	0xa01
 2257 031c 26030000 		.4byte	0x326
 2258 0320 0D       		.uleb128 0xd
 2259 0321 01       		.uleb128 0x1
 2260 0322 50       		.byte	0x50
 2261 0323 01       		.uleb128 0x1
 2262 0324 40       		.byte	0x40
 2263 0325 00       		.byte	0
 2264 0326 0F       		.uleb128 0xf
 2265 0327 24000000 		.4byte	.LVL50
 2266 032b 0C0A0000 		.4byte	0xa0c
 2267 032f 3E030000 		.4byte	0x33e
 2268 0333 0D       		.uleb128 0xd
 2269 0334 01       		.uleb128 0x1
 2270 0335 50       		.byte	0x50
 2271 0336 01       		.uleb128 0x1
 2272 0337 4D       		.byte	0x4d
 2273 0338 0D       		.uleb128 0xd
 2274 0339 01       		.uleb128 0x1
 2275 033a 51       		.byte	0x51
 2276 033b 01       		.uleb128 0x1
 2277 033c 37       		.byte	0x37
ARM GAS  C:\Users\ANDREY~1\AppData\Local\Temp\cc0akFQM.s 			page 77


 2278 033d 00       		.byte	0
 2279 033e 0F       		.uleb128 0xf
 2280 033f 84000000 		.4byte	.LVL51
 2281 0343 41010000 		.4byte	0x141
 2282 0347 6B030000 		.4byte	0x36b
 2283 034b 0D       		.uleb128 0xd
 2284 034c 01       		.uleb128 0x1
 2285 034d 50       		.byte	0x50
 2286 034e 01       		.uleb128 0x1
 2287 034f 33       		.byte	0x33
 2288 0350 0D       		.uleb128 0xd
 2289 0351 01       		.uleb128 0x1
 2290 0352 51       		.byte	0x51
 2291 0353 03       		.uleb128 0x3
 2292 0354 0A       		.byte	0xa
 2293 0355 027F     		.2byte	0x7f02
 2294 0357 0D       		.uleb128 0xd
 2295 0358 01       		.uleb128 0x1
 2296 0359 52       		.byte	0x52
 2297 035a 03       		.uleb128 0x3
 2298 035b 0B       		.byte	0xb
 2299 035c 0080     		.2byte	0x8000
 2300 035e 0D       		.uleb128 0xd
 2301 035f 01       		.uleb128 0x1
 2302 0360 53       		.byte	0x53
 2303 0361 01       		.uleb128 0x1
 2304 0362 40       		.byte	0x40
 2305 0363 0D       		.uleb128 0xd
 2306 0364 02       		.uleb128 0x2
 2307 0365 7D       		.byte	0x7d
 2308 0366 00       		.sleb128 0
 2309 0367 02       		.uleb128 0x2
 2310 0368 77       		.byte	0x77
 2311 0369 00       		.sleb128 0
 2312 036a 00       		.byte	0
 2313 036b 0E       		.uleb128 0xe
 2314 036c A4000000 		.4byte	.LVL52
 2315 0370 5A020000 		.4byte	0x25a
 2316 0374 00       		.byte	0
 2317 0375 10       		.uleb128 0x10
 2318 0376 92000000 		.4byte	.LASF42
 2319 037a 01       		.byte	0x1
 2320 037b B8       		.byte	0xb8
 2321 037c 00000000 		.4byte	.LFB1
 2322 0380 D8000000 		.4byte	.LFE1-.LFB1
 2323 0384 01       		.uleb128 0x1
 2324 0385 9C       		.byte	0x9c
 2325 0386 D1030000 		.4byte	0x3d1
 2326 038a 11       		.uleb128 0x11
 2327 038b 02060000 		.4byte	.LASF31
 2328 038f 01       		.byte	0x1
 2329 0390 BA       		.byte	0xba
 2330 0391 72000000 		.4byte	0x72
 2331 0395 12       		.uleb128 0x12
 2332 0396 6C060000 		.4byte	.LASF39
 2333 039a 01       		.byte	0x1
 2334 039b BB       		.byte	0xbb
ARM GAS  C:\Users\ANDREY~1\AppData\Local\Temp\cc0akFQM.s 			page 78


 2335 039c 72000000 		.4byte	0x72
 2336 03a0 47020000 		.4byte	.LLST12
 2337 03a4 0E       		.uleb128 0xe
 2338 03a5 06000000 		.4byte	.LVL53
 2339 03a9 A9090000 		.4byte	0x9a9
 2340 03ad 0F       		.uleb128 0xf
 2341 03ae 54000000 		.4byte	.LVL56
 2342 03b2 B4090000 		.4byte	0x9b4
 2343 03b6 C0030000 		.4byte	0x3c0
 2344 03ba 0D       		.uleb128 0xd
 2345 03bb 01       		.uleb128 0x1
 2346 03bc 50       		.byte	0x50
 2347 03bd 01       		.uleb128 0x1
 2348 03be 33       		.byte	0x33
 2349 03bf 00       		.byte	0
 2350 03c0 0C       		.uleb128 0xc
 2351 03c1 B0000000 		.4byte	.LVL57
 2352 03c5 BF090000 		.4byte	0x9bf
 2353 03c9 0D       		.uleb128 0xd
 2354 03ca 01       		.uleb128 0x1
 2355 03cb 50       		.byte	0x50
 2356 03cc 02       		.uleb128 0x2
 2357 03cd 76       		.byte	0x76
 2358 03ce 00       		.sleb128 0
 2359 03cf 00       		.byte	0
 2360 03d0 00       		.byte	0
 2361 03d1 13       		.uleb128 0x13
 2362 03d2 51020000 		.4byte	.LASF43
 2363 03d6 01       		.byte	0x1
 2364 03d7 4901     		.2byte	0x149
 2365 03d9 00000000 		.4byte	.LFB2
 2366 03dd 28000000 		.4byte	.LFE2-.LFB2
 2367 03e1 01       		.uleb128 0x1
 2368 03e2 9C       		.byte	0x9c
 2369 03e3 FA030000 		.4byte	0x3fa
 2370 03e7 0E       		.uleb128 0xe
 2371 03e8 16000000 		.4byte	.LVL59
 2372 03ec EB020000 		.4byte	0x2eb
 2373 03f0 0E       		.uleb128 0xe
 2374 03f1 20000000 		.4byte	.LVL60
 2375 03f5 75030000 		.4byte	0x375
 2376 03f9 00       		.byte	0
 2377 03fa 13       		.uleb128 0x13
 2378 03fb 39060000 		.4byte	.LASF44
 2379 03ff 01       		.byte	0x1
 2380 0400 6A01     		.2byte	0x16a
 2381 0402 00000000 		.4byte	.LFB3
 2382 0406 E4000000 		.4byte	.LFE3-.LFB3
 2383 040a 01       		.uleb128 0x1
 2384 040b 9C       		.byte	0x9c
 2385 040c 4D040000 		.4byte	0x44d
 2386 0410 0B       		.uleb128 0xb
 2387 0411 6C060000 		.4byte	.LASF39
 2388 0415 01       		.byte	0x1
 2389 0416 6C01     		.2byte	0x16c
 2390 0418 72000000 		.4byte	0x72
 2391 041c 5A020000 		.4byte	.LLST13
ARM GAS  C:\Users\ANDREY~1\AppData\Local\Temp\cc0akFQM.s 			page 79


 2392 0420 0E       		.uleb128 0xe
 2393 0421 06000000 		.4byte	.LVL61
 2394 0425 A9090000 		.4byte	0x9a9
 2395 0429 0F       		.uleb128 0xf
 2396 042a 4C000000 		.4byte	.LVL63
 2397 042e B4090000 		.4byte	0x9b4
 2398 0432 3C040000 		.4byte	0x43c
 2399 0436 0D       		.uleb128 0xd
 2400 0437 01       		.uleb128 0x1
 2401 0438 50       		.byte	0x50
 2402 0439 01       		.uleb128 0x1
 2403 043a 33       		.byte	0x33
 2404 043b 00       		.byte	0
 2405 043c 0C       		.uleb128 0xc
 2406 043d CC000000 		.4byte	.LVL64
 2407 0441 BF090000 		.4byte	0x9bf
 2408 0445 0D       		.uleb128 0xd
 2409 0446 01       		.uleb128 0x1
 2410 0447 50       		.byte	0x50
 2411 0448 02       		.uleb128 0x2
 2412 0449 76       		.byte	0x76
 2413 044a 00       		.sleb128 0
 2414 044b 00       		.byte	0
 2415 044c 00       		.byte	0
 2416 044d 13       		.uleb128 0x13
 2417 044e 66010000 		.4byte	.LASF45
 2418 0452 01       		.byte	0x1
 2419 0453 AD01     		.2byte	0x1ad
 2420 0455 00000000 		.4byte	.LFB4
 2421 0459 18000000 		.4byte	.LFE4-.LFB4
 2422 045d 01       		.uleb128 0x1
 2423 045e 9C       		.byte	0x9c
 2424 045f 84040000 		.4byte	0x484
 2425 0463 0A       		.uleb128 0xa
 2426 0464 11040000 		.4byte	.LASF46
 2427 0468 01       		.byte	0x1
 2428 0469 AD01     		.2byte	0x1ad
 2429 046b 72000000 		.4byte	0x72
 2430 046f 6D020000 		.4byte	.LLST14
 2431 0473 0B       		.uleb128 0xb
 2432 0474 A6060000 		.4byte	.LASF47
 2433 0478 01       		.byte	0x1
 2434 0479 AF01     		.2byte	0x1af
 2435 047b 72000000 		.4byte	0x72
 2436 047f 8E020000 		.4byte	.LLST15
 2437 0483 00       		.byte	0
 2438 0484 13       		.uleb128 0x13
 2439 0485 49010000 		.4byte	.LASF48
 2440 0489 01       		.byte	0x1
 2441 048a D101     		.2byte	0x1d1
 2442 048c 00000000 		.4byte	.LFB5
 2443 0490 18000000 		.4byte	.LFE5-.LFB5
 2444 0494 01       		.uleb128 0x1
 2445 0495 9C       		.byte	0x9c
 2446 0496 BB040000 		.4byte	0x4bb
 2447 049a 0A       		.uleb128 0xa
 2448 049b F6030000 		.4byte	.LASF49
ARM GAS  C:\Users\ANDREY~1\AppData\Local\Temp\cc0akFQM.s 			page 80


 2449 049f 01       		.byte	0x1
 2450 04a0 D101     		.2byte	0x1d1
 2451 04a2 72000000 		.4byte	0x72
 2452 04a6 AC020000 		.4byte	.LLST16
 2453 04aa 0B       		.uleb128 0xb
 2454 04ab A6060000 		.4byte	.LASF47
 2455 04af 01       		.byte	0x1
 2456 04b0 D301     		.2byte	0x1d3
 2457 04b2 72000000 		.4byte	0x72
 2458 04b6 CD020000 		.4byte	.LLST17
 2459 04ba 00       		.byte	0
 2460 04bb 14       		.uleb128 0x14
 2461 04bc 61050000 		.4byte	.LASF53
 2462 04c0 01       		.byte	0x1
 2463 04c1 F901     		.2byte	0x1f9
 2464 04c3 72000000 		.4byte	0x72
 2465 04c7 00000000 		.4byte	.LFB6
 2466 04cb 74000000 		.4byte	.LFE6-.LFB6
 2467 04cf 01       		.uleb128 0x1
 2468 04d0 9C       		.byte	0x9c
 2469 04d1 16050000 		.4byte	0x516
 2470 04d5 0A       		.uleb128 0xa
 2471 04d6 84060000 		.4byte	.LASF50
 2472 04da 01       		.byte	0x1
 2473 04db F901     		.2byte	0x1f9
 2474 04dd BA000000 		.4byte	0xba
 2475 04e1 EB020000 		.4byte	.LLST18
 2476 04e5 0B       		.uleb128 0xb
 2477 04e6 A6060000 		.4byte	.LASF47
 2478 04ea 01       		.byte	0x1
 2479 04eb FB01     		.2byte	0x1fb
 2480 04ed 7E000000 		.4byte	0x7e
 2481 04f1 19030000 		.4byte	.LLST19
 2482 04f5 0B       		.uleb128 0xb
 2483 04f6 7D060000 		.4byte	.LASF51
 2484 04fa 01       		.byte	0x1
 2485 04fb FC01     		.2byte	0x1fc
 2486 04fd 72000000 		.4byte	0x72
 2487 0501 51030000 		.4byte	.LLST20
 2488 0505 0B       		.uleb128 0xb
 2489 0506 29060000 		.4byte	.LASF52
 2490 050a 01       		.byte	0x1
 2491 050b FD01     		.2byte	0x1fd
 2492 050d BA000000 		.4byte	0xba
 2493 0511 70030000 		.4byte	.LLST21
 2494 0515 00       		.byte	0
 2495 0516 15       		.uleb128 0x15
 2496 0517 37020000 		.4byte	.LASF54
 2497 051b 01       		.byte	0x1
 2498 051c 2802     		.2byte	0x228
 2499 051e 7E000000 		.4byte	0x7e
 2500 0522 00000000 		.4byte	.LFB7
 2501 0526 24000000 		.4byte	.LFE7-.LFB7
 2502 052a 01       		.uleb128 0x1
 2503 052b 9C       		.byte	0x9c
 2504 052c 51050000 		.4byte	0x551
 2505 0530 0B       		.uleb128 0xb
ARM GAS  C:\Users\ANDREY~1\AppData\Local\Temp\cc0akFQM.s 			page 81


 2506 0531 E2050000 		.4byte	.LASF55
 2507 0535 01       		.byte	0x1
 2508 0536 2A02     		.2byte	0x22a
 2509 0538 72000000 		.4byte	0x72
 2510 053c AF030000 		.4byte	.LLST22
 2511 0540 0B       		.uleb128 0xb
 2512 0541 59030000 		.4byte	.LASF34
 2513 0545 01       		.byte	0x1
 2514 0546 2B02     		.2byte	0x22b
 2515 0548 7E000000 		.4byte	0x7e
 2516 054c C2030000 		.4byte	.LLST23
 2517 0550 00       		.byte	0
 2518 0551 16       		.uleb128 0x16
 2519 0552 08010000 		.4byte	.LASF56
 2520 0556 01       		.byte	0x1
 2521 0557 4A02     		.2byte	0x24a
 2522 0559 00000000 		.4byte	.LFB8
 2523 055d 10000000 		.4byte	.LFE8-.LFB8
 2524 0561 01       		.uleb128 0x1
 2525 0562 9C       		.byte	0x9c
 2526 0563 16       		.uleb128 0x16
 2527 0564 7C000000 		.4byte	.LASF57
 2528 0568 01       		.byte	0x1
 2529 0569 6102     		.2byte	0x261
 2530 056b 00000000 		.4byte	.LFB9
 2531 056f 10000000 		.4byte	.LFE9-.LFB9
 2532 0573 01       		.uleb128 0x1
 2533 0574 9C       		.byte	0x9c
 2534 0575 15       		.uleb128 0x15
 2535 0576 52060000 		.4byte	.LASF58
 2536 057a 01       		.byte	0x1
 2537 057b 8402     		.2byte	0x284
 2538 057d 72000000 		.4byte	0x72
 2539 0581 00000000 		.4byte	.LFB10
 2540 0585 30000000 		.4byte	.LFE10-.LFB10
 2541 0589 01       		.uleb128 0x1
 2542 058a 9C       		.byte	0x9c
 2543 058b B0050000 		.4byte	0x5b0
 2544 058f 0A       		.uleb128 0xa
 2545 0590 A7020000 		.4byte	.LASF59
 2546 0594 01       		.byte	0x1
 2547 0595 8402     		.2byte	0x284
 2548 0597 72000000 		.4byte	0x72
 2549 059b E0030000 		.4byte	.LLST24
 2550 059f 0B       		.uleb128 0xb
 2551 05a0 7D060000 		.4byte	.LASF51
 2552 05a4 01       		.byte	0x1
 2553 05a5 8602     		.2byte	0x286
 2554 05a7 72000000 		.4byte	0x72
 2555 05ab 01040000 		.4byte	.LLST25
 2556 05af 00       		.byte	0
 2557 05b0 15       		.uleb128 0x15
 2558 05b1 1B000000 		.4byte	.LASF60
 2559 05b5 01       		.byte	0x1
 2560 05b6 B302     		.2byte	0x2b3
 2561 05b8 96000000 		.4byte	0x96
 2562 05bc 00000000 		.4byte	.LFB11
ARM GAS  C:\Users\ANDREY~1\AppData\Local\Temp\cc0akFQM.s 			page 82


 2563 05c0 48000000 		.4byte	.LFE11-.LFB11
 2564 05c4 01       		.uleb128 0x1
 2565 05c5 9C       		.byte	0x9c
 2566 05c6 E9050000 		.4byte	0x5e9
 2567 05ca 17       		.uleb128 0x17
 2568 05cb AD060000 		.4byte	.LASF61
 2569 05cf 01       		.byte	0x1
 2570 05d0 B502     		.2byte	0x2b5
 2571 05d2 96000000 		.4byte	0x96
 2572 05d6 01       		.uleb128 0x1
 2573 05d7 50       		.byte	0x50
 2574 05d8 0B       		.uleb128 0xb
 2575 05d9 F6030000 		.4byte	.LASF49
 2576 05dd 01       		.byte	0x1
 2577 05de B602     		.2byte	0x2b6
 2578 05e0 72000000 		.4byte	0x72
 2579 05e4 1F040000 		.4byte	.LLST26
 2580 05e8 00       		.byte	0
 2581 05e9 15       		.uleb128 0x15
 2582 05ea 8B040000 		.4byte	.LASF62
 2583 05ee 01       		.byte	0x1
 2584 05ef E902     		.2byte	0x2e9
 2585 05f1 A2000000 		.4byte	0xa2
 2586 05f5 00000000 		.4byte	.LFB12
 2587 05f9 50000000 		.4byte	.LFE12-.LFB12
 2588 05fd 01       		.uleb128 0x1
 2589 05fe 9C       		.byte	0x9c
 2590 05ff 24060000 		.4byte	0x624
 2591 0603 0B       		.uleb128 0xb
 2592 0604 AD060000 		.4byte	.LASF61
 2593 0608 01       		.byte	0x1
 2594 0609 EB02     		.2byte	0x2eb
 2595 060b 7E000000 		.4byte	0x7e
 2596 060f 3D040000 		.4byte	.LLST27
 2597 0613 0B       		.uleb128 0xb
 2598 0614 F6030000 		.4byte	.LASF49
 2599 0618 01       		.byte	0x1
 2600 0619 EC02     		.2byte	0x2ec
 2601 061b 72000000 		.4byte	0x72
 2602 061f 66040000 		.4byte	.LLST28
 2603 0623 00       		.byte	0
 2604 0624 15       		.uleb128 0x15
 2605 0625 93050000 		.4byte	.LASF63
 2606 0629 01       		.byte	0x1
 2607 062a 2503     		.2byte	0x325
 2608 062c AE000000 		.4byte	0xae
 2609 0630 00000000 		.4byte	.LFB13
 2610 0634 6C000000 		.4byte	.LFE13-.LFB13
 2611 0638 01       		.uleb128 0x1
 2612 0639 9C       		.byte	0x9c
 2613 063a 5F060000 		.4byte	0x65f
 2614 063e 0B       		.uleb128 0xb
 2615 063f AD060000 		.4byte	.LASF61
 2616 0643 01       		.byte	0x1
 2617 0644 2703     		.2byte	0x327
 2618 0646 8A000000 		.4byte	0x8a
 2619 064a 84040000 		.4byte	.LLST29
ARM GAS  C:\Users\ANDREY~1\AppData\Local\Temp\cc0akFQM.s 			page 83


 2620 064e 0B       		.uleb128 0xb
 2621 064f F6030000 		.4byte	.LASF49
 2622 0653 01       		.byte	0x1
 2623 0654 2803     		.2byte	0x328
 2624 0656 72000000 		.4byte	0x72
 2625 065a E5040000 		.4byte	.LLST30
 2626 065e 00       		.byte	0
 2627 065f 13       		.uleb128 0x13
 2628 0660 00000000 		.4byte	.LASF64
 2629 0664 01       		.byte	0x1
 2630 0665 8203     		.2byte	0x382
 2631 0667 00000000 		.4byte	.LFB14
 2632 066b 0C000000 		.4byte	.LFE14-.LFB14
 2633 066f 01       		.uleb128 0x1
 2634 0670 9C       		.byte	0x9c
 2635 0671 84060000 		.4byte	0x684
 2636 0675 18       		.uleb128 0x18
 2637 0676 32060000 		.4byte	.LASF65
 2638 067a 01       		.byte	0x1
 2639 067b 8203     		.2byte	0x382
 2640 067d AE000000 		.4byte	0xae
 2641 0681 01       		.uleb128 0x1
 2642 0682 50       		.byte	0x50
 2643 0683 00       		.byte	0
 2644 0684 13       		.uleb128 0x13
 2645 0685 CB050000 		.4byte	.LASF66
 2646 0689 01       		.byte	0x1
 2647 068a A503     		.2byte	0x3a5
 2648 068c 00000000 		.4byte	.LFB15
 2649 0690 0C000000 		.4byte	.LFE15-.LFB15
 2650 0694 01       		.uleb128 0x1
 2651 0695 9C       		.byte	0x9c
 2652 0696 A9060000 		.4byte	0x6a9
 2653 069a 18       		.uleb128 0x18
 2654 069b 30000000 		.4byte	.LASF67
 2655 069f 01       		.byte	0x1
 2656 06a0 A503     		.2byte	0x3a5
 2657 06a2 AE000000 		.4byte	0xae
 2658 06a6 01       		.uleb128 0x1
 2659 06a7 50       		.byte	0x50
 2660 06a8 00       		.byte	0
 2661 06a9 15       		.uleb128 0x15
 2662 06aa 63040000 		.4byte	.LASF68
 2663 06ae 01       		.byte	0x1
 2664 06af C003     		.2byte	0x3c0
 2665 06b1 A2000000 		.4byte	0xa2
 2666 06b5 00000000 		.4byte	.LFB16
 2667 06b9 24000000 		.4byte	.LFE16-.LFB16
 2668 06bd 01       		.uleb128 0x1
 2669 06be 9C       		.byte	0x9c
 2670 06bf E2060000 		.4byte	0x6e2
 2671 06c3 0A       		.uleb128 0xa
 2672 06c4 48060000 		.4byte	.LASF69
 2673 06c8 01       		.byte	0x1
 2674 06c9 C003     		.2byte	0x3c0
 2675 06cb AE000000 		.4byte	0xae
 2676 06cf 0E050000 		.4byte	.LLST31
ARM GAS  C:\Users\ANDREY~1\AppData\Local\Temp\cc0akFQM.s 			page 84


 2677 06d3 17       		.uleb128 0x17
 2678 06d4 88030000 		.4byte	.LASF70
 2679 06d8 01       		.byte	0x1
 2680 06d9 C303     		.2byte	0x3c3
 2681 06db A2000000 		.4byte	0xa2
 2682 06df 01       		.uleb128 0x1
 2683 06e0 50       		.byte	0x50
 2684 06e1 00       		.byte	0
 2685 06e2 14       		.uleb128 0x14
 2686 06e3 E9050000 		.4byte	.LASF71
 2687 06e7 01       		.byte	0x1
 2688 06e8 FD03     		.2byte	0x3fd
 2689 06ea BA000000 		.4byte	0xba
 2690 06ee 00000000 		.4byte	.LFB17
 2691 06f2 28000000 		.4byte	.LFE17-.LFB17
 2692 06f6 01       		.uleb128 0x1
 2693 06f7 9C       		.byte	0x9c
 2694 06f8 1B070000 		.4byte	0x71b
 2695 06fc 0A       		.uleb128 0xa
 2696 06fd 48060000 		.4byte	.LASF69
 2697 0701 01       		.byte	0x1
 2698 0702 FD03     		.2byte	0x3fd
 2699 0704 AE000000 		.4byte	0xae
 2700 0708 2C050000 		.4byte	.LLST32
 2701 070c 17       		.uleb128 0x17
 2702 070d 20020000 		.4byte	.LASF72
 2703 0711 01       		.byte	0x1
 2704 0712 0004     		.2byte	0x400
 2705 0714 BA000000 		.4byte	0xba
 2706 0718 01       		.uleb128 0x1
 2707 0719 50       		.byte	0x50
 2708 071a 00       		.byte	0
 2709 071b 15       		.uleb128 0x15
 2710 071c DC030000 		.4byte	.LASF73
 2711 0720 01       		.byte	0x1
 2712 0721 3F04     		.2byte	0x43f
 2713 0723 AE000000 		.4byte	0xae
 2714 0727 00000000 		.4byte	.LFB18
 2715 072b 4C000000 		.4byte	.LFE18-.LFB18
 2716 072f 01       		.uleb128 0x1
 2717 0730 9C       		.byte	0x9c
 2718 0731 81070000 		.4byte	0x781
 2719 0735 0A       		.uleb128 0xa
 2720 0736 48060000 		.4byte	.LASF69
 2721 073a 01       		.byte	0x1
 2722 073b 3F04     		.2byte	0x43f
 2723 073d AE000000 		.4byte	0xae
 2724 0741 5A050000 		.4byte	.LLST33
 2725 0745 0B       		.uleb128 0xb
 2726 0746 D4020000 		.4byte	.LASF74
 2727 074a 01       		.byte	0x1
 2728 074b 4204     		.2byte	0x442
 2729 074d AE000000 		.4byte	0xae
 2730 0751 7B050000 		.4byte	.LLST34
 2731 0755 19       		.uleb128 0x19
 2732 0756 BF050000 		.4byte	.LASF75
 2733 075a 01       		.byte	0x1
ARM GAS  C:\Users\ANDREY~1\AppData\Local\Temp\cc0akFQM.s 			page 85


 2734 075b 4304     		.2byte	0x443
 2735 075d AE000000 		.4byte	0xae
 2736 0761 127A     		.2byte	0x7a12
 2737 0763 0B       		.uleb128 0xb
 2738 0764 C5050000 		.4byte	.LASF76
 2739 0768 01       		.byte	0x1
 2740 0769 4404     		.2byte	0x444
 2741 076b AE000000 		.4byte	0xae
 2742 076f 9E050000 		.4byte	.LLST35
 2743 0773 1A       		.uleb128 0x1a
 2744 0774 88050000 		.4byte	.LASF30
 2745 0778 01       		.byte	0x1
 2746 0779 4504     		.2byte	0x445
 2747 077b 72000000 		.4byte	0x72
 2748 077f 10       		.byte	0x10
 2749 0780 00       		.byte	0
 2750 0781 13       		.uleb128 0x13
 2751 0782 59000000 		.4byte	.LASF77
 2752 0786 01       		.byte	0x1
 2753 0787 1006     		.2byte	0x610
 2754 0789 00000000 		.4byte	.LFB20
 2755 078d 60000000 		.4byte	.LFE20-.LFB20
 2756 0791 01       		.uleb128 0x1
 2757 0792 9C       		.byte	0x9c
 2758 0793 F6070000 		.4byte	0x7f6
 2759 0797 0A       		.uleb128 0xa
 2760 0798 02060000 		.4byte	.LASF31
 2761 079c 01       		.byte	0x1
 2762 079d 1006     		.2byte	0x610
 2763 079f 72000000 		.4byte	0x72
 2764 07a3 BE050000 		.4byte	.LLST36
 2765 07a7 0A       		.uleb128 0xa
 2766 07a8 21060000 		.4byte	.LASF78
 2767 07ac 01       		.byte	0x1
 2768 07ad 1006     		.2byte	0x610
 2769 07af 72000000 		.4byte	0x72
 2770 07b3 F8050000 		.4byte	.LLST37
 2771 07b7 0E       		.uleb128 0xe
 2772 07b8 1E000000 		.4byte	.LVL145
 2773 07bc FA030000 		.4byte	0x3fa
 2774 07c0 0F       		.uleb128 0xf
 2775 07c1 24000000 		.4byte	.LVL146
 2776 07c5 5A020000 		.4byte	0x25a
 2777 07c9 D4070000 		.4byte	0x7d4
 2778 07cd 0D       		.uleb128 0xd
 2779 07ce 01       		.uleb128 0x1
 2780 07cf 50       		.byte	0x50
 2781 07d0 02       		.uleb128 0x2
 2782 07d1 74       		.byte	0x74
 2783 07d2 00       		.sleb128 0
 2784 07d3 00       		.byte	0
 2785 07d4 0E       		.uleb128 0xe
 2786 07d5 42000000 		.4byte	.LVL147
 2787 07d9 D1030000 		.4byte	0x3d1
 2788 07dd 0E       		.uleb128 0xe
 2789 07de 46000000 		.4byte	.LVL148
 2790 07e2 51050000 		.4byte	0x551
ARM GAS  C:\Users\ANDREY~1\AppData\Local\Temp\cc0akFQM.s 			page 86


 2791 07e6 0C       		.uleb128 0xc
 2792 07e7 4E000000 		.4byte	.LVL151
 2793 07eb 9E090000 		.4byte	0x99e
 2794 07ef 0D       		.uleb128 0xd
 2795 07f0 01       		.uleb128 0x1
 2796 07f1 50       		.byte	0x50
 2797 07f2 01       		.uleb128 0x1
 2798 07f3 30       		.byte	0x30
 2799 07f4 00       		.byte	0
 2800 07f5 00       		.byte	0
 2801 07f6 15       		.uleb128 0x15
 2802 07f7 F8000000 		.4byte	.LASF79
 2803 07fb 01       		.byte	0x1
 2804 07fc E206     		.2byte	0x6e2
 2805 07fe 96000000 		.4byte	0x96
 2806 0802 00000000 		.4byte	.LFB23
 2807 0806 28000000 		.4byte	.LFE23-.LFB23
 2808 080a 01       		.uleb128 0x1
 2809 080b 9C       		.byte	0x9c
 2810 080c 4F080000 		.4byte	0x84f
 2811 0810 0B       		.uleb128 0xb
 2812 0811 AD060000 		.4byte	.LASF61
 2813 0815 01       		.byte	0x1
 2814 0816 E406     		.2byte	0x6e4
 2815 0818 96000000 		.4byte	0x96
 2816 081c 32060000 		.4byte	.LLST38
 2817 0820 0E       		.uleb128 0xe
 2818 0821 10000000 		.4byte	.LVL152
 2819 0825 51050000 		.4byte	0x551
 2820 0829 0F       		.uleb128 0xf
 2821 082a 16000000 		.4byte	.LVL153
 2822 082e 75050000 		.4byte	0x575
 2823 0832 3C080000 		.4byte	0x83c
 2824 0836 0D       		.uleb128 0xd
 2825 0837 01       		.uleb128 0x1
 2826 0838 50       		.byte	0x50
 2827 0839 01       		.uleb128 0x1
 2828 083a 30       		.byte	0x30
 2829 083b 00       		.byte	0
 2830 083c 0E       		.uleb128 0xe
 2831 083d 1A000000 		.4byte	.LVL154
 2832 0841 B0050000 		.4byte	0x5b0
 2833 0845 0E       		.uleb128 0xe
 2834 0846 20000000 		.4byte	.LVL156
 2835 084a 63050000 		.4byte	0x563
 2836 084e 00       		.byte	0
 2837 084f 15       		.uleb128 0x15
 2838 0850 B4060000 		.4byte	.LASF80
 2839 0854 01       		.byte	0x1
 2840 0855 0307     		.2byte	0x703
 2841 0857 A2000000 		.4byte	0xa2
 2842 085b 00000000 		.4byte	.LFB24
 2843 085f 28000000 		.4byte	.LFE24-.LFB24
 2844 0863 01       		.uleb128 0x1
 2845 0864 9C       		.byte	0x9c
 2846 0865 A8080000 		.4byte	0x8a8
 2847 0869 0B       		.uleb128 0xb
ARM GAS  C:\Users\ANDREY~1\AppData\Local\Temp\cc0akFQM.s 			page 87


 2848 086a AD060000 		.4byte	.LASF61
 2849 086e 01       		.byte	0x1
 2850 086f 0507     		.2byte	0x705
 2851 0871 A2000000 		.4byte	0xa2
 2852 0875 45060000 		.4byte	.LLST39
 2853 0879 0E       		.uleb128 0xe
 2854 087a 10000000 		.4byte	.LVL158
 2855 087e 51050000 		.4byte	0x551
 2856 0882 0F       		.uleb128 0xf
 2857 0883 16000000 		.4byte	.LVL159
 2858 0887 75050000 		.4byte	0x575
 2859 088b 95080000 		.4byte	0x895
 2860 088f 0D       		.uleb128 0xd
 2861 0890 01       		.uleb128 0x1
 2862 0891 50       		.byte	0x50
 2863 0892 01       		.uleb128 0x1
 2864 0893 30       		.byte	0x30
 2865 0894 00       		.byte	0
 2866 0895 0E       		.uleb128 0xe
 2867 0896 1A000000 		.4byte	.LVL160
 2868 089a E9050000 		.4byte	0x5e9
 2869 089e 0E       		.uleb128 0xe
 2870 089f 20000000 		.4byte	.LVL162
 2871 08a3 63050000 		.4byte	0x563
 2872 08a7 00       		.byte	0
 2873 08a8 15       		.uleb128 0x15
 2874 08a9 26020000 		.4byte	.LASF81
 2875 08ad 01       		.byte	0x1
 2876 08ae 2407     		.2byte	0x724
 2877 08b0 AE000000 		.4byte	0xae
 2878 08b4 00000000 		.4byte	.LFB25
 2879 08b8 28000000 		.4byte	.LFE25-.LFB25
 2880 08bc 01       		.uleb128 0x1
 2881 08bd 9C       		.byte	0x9c
 2882 08be 01090000 		.4byte	0x901
 2883 08c2 0B       		.uleb128 0xb
 2884 08c3 AD060000 		.4byte	.LASF61
 2885 08c7 01       		.byte	0x1
 2886 08c8 2607     		.2byte	0x726
 2887 08ca AE000000 		.4byte	0xae
 2888 08ce 58060000 		.4byte	.LLST40
 2889 08d2 0E       		.uleb128 0xe
 2890 08d3 10000000 		.4byte	.LVL164
 2891 08d7 51050000 		.4byte	0x551
 2892 08db 0F       		.uleb128 0xf
 2893 08dc 16000000 		.4byte	.LVL165
 2894 08e0 75050000 		.4byte	0x575
 2895 08e4 EE080000 		.4byte	0x8ee
 2896 08e8 0D       		.uleb128 0xd
 2897 08e9 01       		.uleb128 0x1
 2898 08ea 50       		.byte	0x50
 2899 08eb 01       		.uleb128 0x1
 2900 08ec 30       		.byte	0x30
 2901 08ed 00       		.byte	0
 2902 08ee 0E       		.uleb128 0xe
 2903 08ef 1A000000 		.4byte	.LVL166
 2904 08f3 24060000 		.4byte	0x624
ARM GAS  C:\Users\ANDREY~1\AppData\Local\Temp\cc0akFQM.s 			page 88


 2905 08f7 0E       		.uleb128 0xe
 2906 08f8 20000000 		.4byte	.LVL168
 2907 08fc 63050000 		.4byte	0x563
 2908 0900 00       		.byte	0
 2909 0901 1B       		.uleb128 0x1b
 2910 0902 36010000 		.4byte	0x136
 2911 0906 11090000 		.4byte	0x911
 2912 090a 1C       		.uleb128 0x1c
 2913 090b 0E010000 		.4byte	0x10e
 2914 090f 00       		.byte	0
 2915 0910 00       		.byte	0
 2916 0911 1D       		.uleb128 0x1d
 2917 0912 C4040000 		.4byte	.LASF82
 2918 0916 01       		.byte	0x1
 2919 0917 3D       		.byte	0x3d
 2920 0918 01090000 		.4byte	0x901
 2921 091c 05       		.uleb128 0x5
 2922 091d 03       		.byte	0x3
 2923 091e 00000000 		.4byte	ADC_GLV_V_gcor
 2924 0922 1E       		.uleb128 0x1e
 2925 0923 8F030000 		.4byte	.LASF83
 2926 0927 01       		.byte	0x1
 2927 0928 2C       		.byte	0x2c
 2928 0929 72000000 		.4byte	0x72
 2929 092d 05       		.uleb128 0x5
 2930 092e 03       		.byte	0x3
 2931 092f 00000000 		.4byte	ADC_GLV_V_initVar
 2932 0933 1E       		.uleb128 0x1e
 2933 0934 09060000 		.4byte	.LASF84
 2934 0938 01       		.byte	0x1
 2935 0939 24       		.byte	0x24
 2936 093a E0000000 		.4byte	0xe0
 2937 093e 05       		.uleb128 0x5
 2938 093f 03       		.byte	0x3
 2939 0940 00000000 		.4byte	ADC_GLV_V_convDone
 2940 0944 1E       		.uleb128 0x1e
 2941 0945 70020000 		.4byte	.LASF85
 2942 0949 01       		.byte	0x1
 2943 094a 29       		.byte	0x29
 2944 094b E0000000 		.4byte	0xe0
 2945 094f 05       		.uleb128 0x5
 2946 0950 03       		.byte	0x3
 2947 0951 00000000 		.4byte	ADC_GLV_V_stopConversion
 2948 0955 1E       		.uleb128 0x1e
 2949 0956 CA030000 		.4byte	.LASF86
 2950 095a 01       		.byte	0x1
 2951 095b 2F       		.byte	0x2f
 2952 095c E0000000 		.4byte	0xe0
 2953 0960 05       		.uleb128 0x5
 2954 0961 03       		.byte	0x3
 2955 0962 00000000 		.4byte	ADC_GLV_V_started
 2956 0966 1E       		.uleb128 0x1e
 2957 0967 95060000 		.4byte	.LASF87
 2958 096b 01       		.byte	0x1
 2959 096c 32       		.byte	0x32
 2960 096d E0000000 		.4byte	0xe0
 2961 0971 05       		.uleb128 0x5
ARM GAS  C:\Users\ANDREY~1\AppData\Local\Temp\cc0akFQM.s 			page 89


 2962 0972 03       		.byte	0x3
 2963 0973 00000000 		.4byte	ADC_GLV_V_Config
 2964 0977 1E       		.uleb128 0x1e
 2965 0978 A1040000 		.4byte	.LASF88
 2966 097c 01       		.byte	0x1
 2967 097d 34       		.byte	0x34
 2968 097e 88090000 		.4byte	0x988
 2969 0982 05       		.uleb128 0x5
 2970 0983 03       		.byte	0x3
 2971 0984 00000000 		.4byte	ADC_GLV_V_Offset
 2972 0988 05       		.uleb128 0x5
 2973 0989 AE000000 		.4byte	0xae
 2974 098d 1E       		.uleb128 0x1e
 2975 098e 89020000 		.4byte	.LASF89
 2976 0992 01       		.byte	0x1
 2977 0993 35       		.byte	0x35
 2978 0994 88090000 		.4byte	0x988
 2979 0998 05       		.uleb128 0x5
 2980 0999 03       		.byte	0x3
 2981 099a 00000000 		.4byte	ADC_GLV_V_CountsPerVolt
 2982 099e 1F       		.uleb128 0x1f
 2983 099f 5C040000 		.4byte	.LASF90
 2984 09a3 5C040000 		.4byte	.LASF90
 2985 09a7 04       		.byte	0x4
 2986 09a8 80       		.byte	0x80
 2987 09a9 1F       		.uleb128 0x1f
 2988 09aa 2A030000 		.4byte	.LASF91
 2989 09ae 2A030000 		.4byte	.LASF91
 2990 09b2 04       		.byte	0x4
 2991 09b3 7E       		.byte	0x7e
 2992 09b4 1F       		.uleb128 0x1f
 2993 09b5 C7010000 		.4byte	.LASF92
 2994 09b9 C7010000 		.4byte	.LASF92
 2995 09bd 04       		.byte	0x4
 2996 09be 78       		.byte	0x78
 2997 09bf 1F       		.uleb128 0x1f
 2998 09c0 38000000 		.4byte	.LASF93
 2999 09c4 38000000 		.4byte	.LASF93
 3000 09c8 04       		.byte	0x4
 3001 09c9 7F       		.byte	0x7f
 3002 09ca 1F       		.uleb128 0x1f
 3003 09cb A3000000 		.4byte	.LASF94
 3004 09cf A3000000 		.4byte	.LASF94
 3005 09d3 05       		.byte	0x5
 3006 09d4 57       		.byte	0x57
 3007 09d5 1F       		.uleb128 0x1f
 3008 09d6 D0000000 		.4byte	.LASF95
 3009 09da D0000000 		.4byte	.LASF95
 3010 09de 06       		.byte	0x6
 3011 09df 2F       		.byte	0x2f
 3012 09e0 1F       		.uleb128 0x1f
 3013 09e1 7E010000 		.4byte	.LASF96
 3014 09e5 7E010000 		.4byte	.LASF96
 3015 09e9 07       		.byte	0x7
 3016 09ea 2F       		.byte	0x2f
 3017 09eb 1F       		.uleb128 0x1f
 3018 09ec 61020000 		.4byte	.LASF97
ARM GAS  C:\Users\ANDREY~1\AppData\Local\Temp\cc0akFQM.s 			page 90


 3019 09f0 61020000 		.4byte	.LASF97
 3020 09f4 04       		.byte	0x4
 3021 09f5 89       		.byte	0x89
 3022 09f6 1F       		.uleb128 0x1f
 3023 09f7 63030000 		.4byte	.LASF98
 3024 09fb 63030000 		.4byte	.LASF98
 3025 09ff 06       		.byte	0x6
 3026 0a00 32       		.byte	0x32
 3027 0a01 1F       		.uleb128 0x1f
 3028 0a02 ED020000 		.4byte	.LASF99
 3029 0a06 ED020000 		.4byte	.LASF99
 3030 0a0a 07       		.byte	0x7
 3031 0a0b 32       		.byte	0x32
 3032 0a0c 1F       		.uleb128 0x1f
 3033 0a0d 00040000 		.4byte	.LASF100
 3034 0a11 00040000 		.4byte	.LASF100
 3035 0a15 04       		.byte	0x4
 3036 0a16 8C       		.byte	0x8c
 3037 0a17 00       		.byte	0
 3038              		.section	.debug_abbrev,"",%progbits
 3039              	.Ldebug_abbrev0:
 3040 0000 01       		.uleb128 0x1
 3041 0001 11       		.uleb128 0x11
 3042 0002 01       		.byte	0x1
 3043 0003 25       		.uleb128 0x25
 3044 0004 0E       		.uleb128 0xe
 3045 0005 13       		.uleb128 0x13
 3046 0006 0B       		.uleb128 0xb
 3047 0007 03       		.uleb128 0x3
 3048 0008 0E       		.uleb128 0xe
 3049 0009 1B       		.uleb128 0x1b
 3050 000a 0E       		.uleb128 0xe
 3051 000b 55       		.uleb128 0x55
 3052 000c 17       		.uleb128 0x17
 3053 000d 11       		.uleb128 0x11
 3054 000e 01       		.uleb128 0x1
 3055 000f 10       		.uleb128 0x10
 3056 0010 17       		.uleb128 0x17
 3057 0011 00       		.byte	0
 3058 0012 00       		.byte	0
 3059 0013 02       		.uleb128 0x2
 3060 0014 24       		.uleb128 0x24
 3061 0015 00       		.byte	0
 3062 0016 0B       		.uleb128 0xb
 3063 0017 0B       		.uleb128 0xb
 3064 0018 3E       		.uleb128 0x3e
 3065 0019 0B       		.uleb128 0xb
 3066 001a 03       		.uleb128 0x3
 3067 001b 0E       		.uleb128 0xe
 3068 001c 00       		.byte	0
 3069 001d 00       		.byte	0
 3070 001e 03       		.uleb128 0x3
 3071 001f 24       		.uleb128 0x24
 3072 0020 00       		.byte	0
 3073 0021 0B       		.uleb128 0xb
 3074 0022 0B       		.uleb128 0xb
 3075 0023 3E       		.uleb128 0x3e
ARM GAS  C:\Users\ANDREY~1\AppData\Local\Temp\cc0akFQM.s 			page 91


 3076 0024 0B       		.uleb128 0xb
 3077 0025 03       		.uleb128 0x3
 3078 0026 08       		.uleb128 0x8
 3079 0027 00       		.byte	0
 3080 0028 00       		.byte	0
 3081 0029 04       		.uleb128 0x4
 3082 002a 16       		.uleb128 0x16
 3083 002b 00       		.byte	0
 3084 002c 03       		.uleb128 0x3
 3085 002d 0E       		.uleb128 0xe
 3086 002e 3A       		.uleb128 0x3a
 3087 002f 0B       		.uleb128 0xb
 3088 0030 3B       		.uleb128 0x3b
 3089 0031 05       		.uleb128 0x5
 3090 0032 49       		.uleb128 0x49
 3091 0033 13       		.uleb128 0x13
 3092 0034 00       		.byte	0
 3093 0035 00       		.byte	0
 3094 0036 05       		.uleb128 0x5
 3095 0037 35       		.uleb128 0x35
 3096 0038 00       		.byte	0
 3097 0039 49       		.uleb128 0x49
 3098 003a 13       		.uleb128 0x13
 3099 003b 00       		.byte	0
 3100 003c 00       		.byte	0
 3101 003d 06       		.uleb128 0x6
 3102 003e 13       		.uleb128 0x13
 3103 003f 01       		.byte	0x1
 3104 0040 0B       		.uleb128 0xb
 3105 0041 0B       		.uleb128 0xb
 3106 0042 3A       		.uleb128 0x3a
 3107 0043 0B       		.uleb128 0xb
 3108 0044 3B       		.uleb128 0x3b
 3109 0045 0B       		.uleb128 0xb
 3110 0046 01       		.uleb128 0x1
 3111 0047 13       		.uleb128 0x13
 3112 0048 00       		.byte	0
 3113 0049 00       		.byte	0
 3114 004a 07       		.uleb128 0x7
 3115 004b 0D       		.uleb128 0xd
 3116 004c 00       		.byte	0
 3117 004d 03       		.uleb128 0x3
 3118 004e 0E       		.uleb128 0xe
 3119 004f 3A       		.uleb128 0x3a
 3120 0050 0B       		.uleb128 0xb
 3121 0051 3B       		.uleb128 0x3b
 3122 0052 0B       		.uleb128 0xb
 3123 0053 49       		.uleb128 0x49
 3124 0054 13       		.uleb128 0x13
 3125 0055 38       		.uleb128 0x38
 3126 0056 0B       		.uleb128 0xb
 3127 0057 00       		.byte	0
 3128 0058 00       		.byte	0
 3129 0059 08       		.uleb128 0x8
 3130 005a 16       		.uleb128 0x16
 3131 005b 00       		.byte	0
 3132 005c 03       		.uleb128 0x3
ARM GAS  C:\Users\ANDREY~1\AppData\Local\Temp\cc0akFQM.s 			page 92


 3133 005d 0E       		.uleb128 0xe
 3134 005e 3A       		.uleb128 0x3a
 3135 005f 0B       		.uleb128 0xb
 3136 0060 3B       		.uleb128 0x3b
 3137 0061 0B       		.uleb128 0xb
 3138 0062 49       		.uleb128 0x49
 3139 0063 13       		.uleb128 0x13
 3140 0064 00       		.byte	0
 3141 0065 00       		.byte	0
 3142 0066 09       		.uleb128 0x9
 3143 0067 2E       		.uleb128 0x2e
 3144 0068 01       		.byte	0x1
 3145 0069 03       		.uleb128 0x3
 3146 006a 0E       		.uleb128 0xe
 3147 006b 3A       		.uleb128 0x3a
 3148 006c 0B       		.uleb128 0xb
 3149 006d 3B       		.uleb128 0x3b
 3150 006e 05       		.uleb128 0x5
 3151 006f 27       		.uleb128 0x27
 3152 0070 19       		.uleb128 0x19
 3153 0071 11       		.uleb128 0x11
 3154 0072 01       		.uleb128 0x1
 3155 0073 12       		.uleb128 0x12
 3156 0074 06       		.uleb128 0x6
 3157 0075 40       		.uleb128 0x40
 3158 0076 18       		.uleb128 0x18
 3159 0077 9742     		.uleb128 0x2117
 3160 0079 19       		.uleb128 0x19
 3161 007a 01       		.uleb128 0x1
 3162 007b 13       		.uleb128 0x13
 3163 007c 00       		.byte	0
 3164 007d 00       		.byte	0
 3165 007e 0A       		.uleb128 0xa
 3166 007f 05       		.uleb128 0x5
 3167 0080 00       		.byte	0
 3168 0081 03       		.uleb128 0x3
 3169 0082 0E       		.uleb128 0xe
 3170 0083 3A       		.uleb128 0x3a
 3171 0084 0B       		.uleb128 0xb
 3172 0085 3B       		.uleb128 0x3b
 3173 0086 05       		.uleb128 0x5
 3174 0087 49       		.uleb128 0x49
 3175 0088 13       		.uleb128 0x13
 3176 0089 02       		.uleb128 0x2
 3177 008a 17       		.uleb128 0x17
 3178 008b 00       		.byte	0
 3179 008c 00       		.byte	0
 3180 008d 0B       		.uleb128 0xb
 3181 008e 34       		.uleb128 0x34
 3182 008f 00       		.byte	0
 3183 0090 03       		.uleb128 0x3
 3184 0091 0E       		.uleb128 0xe
 3185 0092 3A       		.uleb128 0x3a
 3186 0093 0B       		.uleb128 0xb
 3187 0094 3B       		.uleb128 0x3b
 3188 0095 05       		.uleb128 0x5
 3189 0096 49       		.uleb128 0x49
ARM GAS  C:\Users\ANDREY~1\AppData\Local\Temp\cc0akFQM.s 			page 93


 3190 0097 13       		.uleb128 0x13
 3191 0098 02       		.uleb128 0x2
 3192 0099 17       		.uleb128 0x17
 3193 009a 00       		.byte	0
 3194 009b 00       		.byte	0
 3195 009c 0C       		.uleb128 0xc
 3196 009d 898201   		.uleb128 0x4109
 3197 00a0 01       		.byte	0x1
 3198 00a1 11       		.uleb128 0x11
 3199 00a2 01       		.uleb128 0x1
 3200 00a3 31       		.uleb128 0x31
 3201 00a4 13       		.uleb128 0x13
 3202 00a5 00       		.byte	0
 3203 00a6 00       		.byte	0
 3204 00a7 0D       		.uleb128 0xd
 3205 00a8 8A8201   		.uleb128 0x410a
 3206 00ab 00       		.byte	0
 3207 00ac 02       		.uleb128 0x2
 3208 00ad 18       		.uleb128 0x18
 3209 00ae 9142     		.uleb128 0x2111
 3210 00b0 18       		.uleb128 0x18
 3211 00b1 00       		.byte	0
 3212 00b2 00       		.byte	0
 3213 00b3 0E       		.uleb128 0xe
 3214 00b4 898201   		.uleb128 0x4109
 3215 00b7 00       		.byte	0
 3216 00b8 11       		.uleb128 0x11
 3217 00b9 01       		.uleb128 0x1
 3218 00ba 31       		.uleb128 0x31
 3219 00bb 13       		.uleb128 0x13
 3220 00bc 00       		.byte	0
 3221 00bd 00       		.byte	0
 3222 00be 0F       		.uleb128 0xf
 3223 00bf 898201   		.uleb128 0x4109
 3224 00c2 01       		.byte	0x1
 3225 00c3 11       		.uleb128 0x11
 3226 00c4 01       		.uleb128 0x1
 3227 00c5 31       		.uleb128 0x31
 3228 00c6 13       		.uleb128 0x13
 3229 00c7 01       		.uleb128 0x1
 3230 00c8 13       		.uleb128 0x13
 3231 00c9 00       		.byte	0
 3232 00ca 00       		.byte	0
 3233 00cb 10       		.uleb128 0x10
 3234 00cc 2E       		.uleb128 0x2e
 3235 00cd 01       		.byte	0x1
 3236 00ce 3F       		.uleb128 0x3f
 3237 00cf 19       		.uleb128 0x19
 3238 00d0 03       		.uleb128 0x3
 3239 00d1 0E       		.uleb128 0xe
 3240 00d2 3A       		.uleb128 0x3a
 3241 00d3 0B       		.uleb128 0xb
 3242 00d4 3B       		.uleb128 0x3b
 3243 00d5 0B       		.uleb128 0xb
 3244 00d6 27       		.uleb128 0x27
 3245 00d7 19       		.uleb128 0x19
 3246 00d8 11       		.uleb128 0x11
ARM GAS  C:\Users\ANDREY~1\AppData\Local\Temp\cc0akFQM.s 			page 94


 3247 00d9 01       		.uleb128 0x1
 3248 00da 12       		.uleb128 0x12
 3249 00db 06       		.uleb128 0x6
 3250 00dc 40       		.uleb128 0x40
 3251 00dd 18       		.uleb128 0x18
 3252 00de 9742     		.uleb128 0x2117
 3253 00e0 19       		.uleb128 0x19
 3254 00e1 01       		.uleb128 0x1
 3255 00e2 13       		.uleb128 0x13
 3256 00e3 00       		.byte	0
 3257 00e4 00       		.byte	0
 3258 00e5 11       		.uleb128 0x11
 3259 00e6 34       		.uleb128 0x34
 3260 00e7 00       		.byte	0
 3261 00e8 03       		.uleb128 0x3
 3262 00e9 0E       		.uleb128 0xe
 3263 00ea 3A       		.uleb128 0x3a
 3264 00eb 0B       		.uleb128 0xb
 3265 00ec 3B       		.uleb128 0x3b
 3266 00ed 0B       		.uleb128 0xb
 3267 00ee 49       		.uleb128 0x49
 3268 00ef 13       		.uleb128 0x13
 3269 00f0 00       		.byte	0
 3270 00f1 00       		.byte	0
 3271 00f2 12       		.uleb128 0x12
 3272 00f3 34       		.uleb128 0x34
 3273 00f4 00       		.byte	0
 3274 00f5 03       		.uleb128 0x3
 3275 00f6 0E       		.uleb128 0xe
 3276 00f7 3A       		.uleb128 0x3a
 3277 00f8 0B       		.uleb128 0xb
 3278 00f9 3B       		.uleb128 0x3b
 3279 00fa 0B       		.uleb128 0xb
 3280 00fb 49       		.uleb128 0x49
 3281 00fc 13       		.uleb128 0x13
 3282 00fd 02       		.uleb128 0x2
 3283 00fe 17       		.uleb128 0x17
 3284 00ff 00       		.byte	0
 3285 0100 00       		.byte	0
 3286 0101 13       		.uleb128 0x13
 3287 0102 2E       		.uleb128 0x2e
 3288 0103 01       		.byte	0x1
 3289 0104 3F       		.uleb128 0x3f
 3290 0105 19       		.uleb128 0x19
 3291 0106 03       		.uleb128 0x3
 3292 0107 0E       		.uleb128 0xe
 3293 0108 3A       		.uleb128 0x3a
 3294 0109 0B       		.uleb128 0xb
 3295 010a 3B       		.uleb128 0x3b
 3296 010b 05       		.uleb128 0x5
 3297 010c 27       		.uleb128 0x27
 3298 010d 19       		.uleb128 0x19
 3299 010e 11       		.uleb128 0x11
 3300 010f 01       		.uleb128 0x1
 3301 0110 12       		.uleb128 0x12
 3302 0111 06       		.uleb128 0x6
 3303 0112 40       		.uleb128 0x40
ARM GAS  C:\Users\ANDREY~1\AppData\Local\Temp\cc0akFQM.s 			page 95


 3304 0113 18       		.uleb128 0x18
 3305 0114 9742     		.uleb128 0x2117
 3306 0116 19       		.uleb128 0x19
 3307 0117 01       		.uleb128 0x1
 3308 0118 13       		.uleb128 0x13
 3309 0119 00       		.byte	0
 3310 011a 00       		.byte	0
 3311 011b 14       		.uleb128 0x14
 3312 011c 2E       		.uleb128 0x2e
 3313 011d 01       		.byte	0x1
 3314 011e 3F       		.uleb128 0x3f
 3315 011f 19       		.uleb128 0x19
 3316 0120 03       		.uleb128 0x3
 3317 0121 0E       		.uleb128 0xe
 3318 0122 3A       		.uleb128 0x3a
 3319 0123 0B       		.uleb128 0xb
 3320 0124 3B       		.uleb128 0x3b
 3321 0125 05       		.uleb128 0x5
 3322 0126 27       		.uleb128 0x27
 3323 0127 19       		.uleb128 0x19
 3324 0128 49       		.uleb128 0x49
 3325 0129 13       		.uleb128 0x13
 3326 012a 11       		.uleb128 0x11
 3327 012b 01       		.uleb128 0x1
 3328 012c 12       		.uleb128 0x12
 3329 012d 06       		.uleb128 0x6
 3330 012e 40       		.uleb128 0x40
 3331 012f 18       		.uleb128 0x18
 3332 0130 9642     		.uleb128 0x2116
 3333 0132 19       		.uleb128 0x19
 3334 0133 01       		.uleb128 0x1
 3335 0134 13       		.uleb128 0x13
 3336 0135 00       		.byte	0
 3337 0136 00       		.byte	0
 3338 0137 15       		.uleb128 0x15
 3339 0138 2E       		.uleb128 0x2e
 3340 0139 01       		.byte	0x1
 3341 013a 3F       		.uleb128 0x3f
 3342 013b 19       		.uleb128 0x19
 3343 013c 03       		.uleb128 0x3
 3344 013d 0E       		.uleb128 0xe
 3345 013e 3A       		.uleb128 0x3a
 3346 013f 0B       		.uleb128 0xb
 3347 0140 3B       		.uleb128 0x3b
 3348 0141 05       		.uleb128 0x5
 3349 0142 27       		.uleb128 0x27
 3350 0143 19       		.uleb128 0x19
 3351 0144 49       		.uleb128 0x49
 3352 0145 13       		.uleb128 0x13
 3353 0146 11       		.uleb128 0x11
 3354 0147 01       		.uleb128 0x1
 3355 0148 12       		.uleb128 0x12
 3356 0149 06       		.uleb128 0x6
 3357 014a 40       		.uleb128 0x40
 3358 014b 18       		.uleb128 0x18
 3359 014c 9742     		.uleb128 0x2117
 3360 014e 19       		.uleb128 0x19
ARM GAS  C:\Users\ANDREY~1\AppData\Local\Temp\cc0akFQM.s 			page 96


 3361 014f 01       		.uleb128 0x1
 3362 0150 13       		.uleb128 0x13
 3363 0151 00       		.byte	0
 3364 0152 00       		.byte	0
 3365 0153 16       		.uleb128 0x16
 3366 0154 2E       		.uleb128 0x2e
 3367 0155 00       		.byte	0
 3368 0156 3F       		.uleb128 0x3f
 3369 0157 19       		.uleb128 0x19
 3370 0158 03       		.uleb128 0x3
 3371 0159 0E       		.uleb128 0xe
 3372 015a 3A       		.uleb128 0x3a
 3373 015b 0B       		.uleb128 0xb
 3374 015c 3B       		.uleb128 0x3b
 3375 015d 05       		.uleb128 0x5
 3376 015e 27       		.uleb128 0x27
 3377 015f 19       		.uleb128 0x19
 3378 0160 11       		.uleb128 0x11
 3379 0161 01       		.uleb128 0x1
 3380 0162 12       		.uleb128 0x12
 3381 0163 06       		.uleb128 0x6
 3382 0164 40       		.uleb128 0x40
 3383 0165 18       		.uleb128 0x18
 3384 0166 9742     		.uleb128 0x2117
 3385 0168 19       		.uleb128 0x19
 3386 0169 00       		.byte	0
 3387 016a 00       		.byte	0
 3388 016b 17       		.uleb128 0x17
 3389 016c 34       		.uleb128 0x34
 3390 016d 00       		.byte	0
 3391 016e 03       		.uleb128 0x3
 3392 016f 0E       		.uleb128 0xe
 3393 0170 3A       		.uleb128 0x3a
 3394 0171 0B       		.uleb128 0xb
 3395 0172 3B       		.uleb128 0x3b
 3396 0173 05       		.uleb128 0x5
 3397 0174 49       		.uleb128 0x49
 3398 0175 13       		.uleb128 0x13
 3399 0176 02       		.uleb128 0x2
 3400 0177 18       		.uleb128 0x18
 3401 0178 00       		.byte	0
 3402 0179 00       		.byte	0
 3403 017a 18       		.uleb128 0x18
 3404 017b 05       		.uleb128 0x5
 3405 017c 00       		.byte	0
 3406 017d 03       		.uleb128 0x3
 3407 017e 0E       		.uleb128 0xe
 3408 017f 3A       		.uleb128 0x3a
 3409 0180 0B       		.uleb128 0xb
 3410 0181 3B       		.uleb128 0x3b
 3411 0182 05       		.uleb128 0x5
 3412 0183 49       		.uleb128 0x49
 3413 0184 13       		.uleb128 0x13
 3414 0185 02       		.uleb128 0x2
 3415 0186 18       		.uleb128 0x18
 3416 0187 00       		.byte	0
 3417 0188 00       		.byte	0
ARM GAS  C:\Users\ANDREY~1\AppData\Local\Temp\cc0akFQM.s 			page 97


 3418 0189 19       		.uleb128 0x19
 3419 018a 34       		.uleb128 0x34
 3420 018b 00       		.byte	0
 3421 018c 03       		.uleb128 0x3
 3422 018d 0E       		.uleb128 0xe
 3423 018e 3A       		.uleb128 0x3a
 3424 018f 0B       		.uleb128 0xb
 3425 0190 3B       		.uleb128 0x3b
 3426 0191 05       		.uleb128 0x5
 3427 0192 49       		.uleb128 0x49
 3428 0193 13       		.uleb128 0x13
 3429 0194 1C       		.uleb128 0x1c
 3430 0195 05       		.uleb128 0x5
 3431 0196 00       		.byte	0
 3432 0197 00       		.byte	0
 3433 0198 1A       		.uleb128 0x1a
 3434 0199 34       		.uleb128 0x34
 3435 019a 00       		.byte	0
 3436 019b 03       		.uleb128 0x3
 3437 019c 0E       		.uleb128 0xe
 3438 019d 3A       		.uleb128 0x3a
 3439 019e 0B       		.uleb128 0xb
 3440 019f 3B       		.uleb128 0x3b
 3441 01a0 05       		.uleb128 0x5
 3442 01a1 49       		.uleb128 0x49
 3443 01a2 13       		.uleb128 0x13
 3444 01a3 1C       		.uleb128 0x1c
 3445 01a4 0B       		.uleb128 0xb
 3446 01a5 00       		.byte	0
 3447 01a6 00       		.byte	0
 3448 01a7 1B       		.uleb128 0x1b
 3449 01a8 01       		.uleb128 0x1
 3450 01a9 01       		.byte	0x1
 3451 01aa 49       		.uleb128 0x49
 3452 01ab 13       		.uleb128 0x13
 3453 01ac 01       		.uleb128 0x1
 3454 01ad 13       		.uleb128 0x13
 3455 01ae 00       		.byte	0
 3456 01af 00       		.byte	0
 3457 01b0 1C       		.uleb128 0x1c
 3458 01b1 21       		.uleb128 0x21
 3459 01b2 00       		.byte	0
 3460 01b3 49       		.uleb128 0x49
 3461 01b4 13       		.uleb128 0x13
 3462 01b5 2F       		.uleb128 0x2f
 3463 01b6 0B       		.uleb128 0xb
 3464 01b7 00       		.byte	0
 3465 01b8 00       		.byte	0
 3466 01b9 1D       		.uleb128 0x1d
 3467 01ba 34       		.uleb128 0x34
 3468 01bb 00       		.byte	0
 3469 01bc 03       		.uleb128 0x3
 3470 01bd 0E       		.uleb128 0xe
 3471 01be 3A       		.uleb128 0x3a
 3472 01bf 0B       		.uleb128 0xb
 3473 01c0 3B       		.uleb128 0x3b
 3474 01c1 0B       		.uleb128 0xb
ARM GAS  C:\Users\ANDREY~1\AppData\Local\Temp\cc0akFQM.s 			page 98


 3475 01c2 49       		.uleb128 0x49
 3476 01c3 13       		.uleb128 0x13
 3477 01c4 02       		.uleb128 0x2
 3478 01c5 18       		.uleb128 0x18
 3479 01c6 00       		.byte	0
 3480 01c7 00       		.byte	0
 3481 01c8 1E       		.uleb128 0x1e
 3482 01c9 34       		.uleb128 0x34
 3483 01ca 00       		.byte	0
 3484 01cb 03       		.uleb128 0x3
 3485 01cc 0E       		.uleb128 0xe
 3486 01cd 3A       		.uleb128 0x3a
 3487 01ce 0B       		.uleb128 0xb
 3488 01cf 3B       		.uleb128 0x3b
 3489 01d0 0B       		.uleb128 0xb
 3490 01d1 49       		.uleb128 0x49
 3491 01d2 13       		.uleb128 0x13
 3492 01d3 3F       		.uleb128 0x3f
 3493 01d4 19       		.uleb128 0x19
 3494 01d5 02       		.uleb128 0x2
 3495 01d6 18       		.uleb128 0x18
 3496 01d7 00       		.byte	0
 3497 01d8 00       		.byte	0
 3498 01d9 1F       		.uleb128 0x1f
 3499 01da 2E       		.uleb128 0x2e
 3500 01db 00       		.byte	0
 3501 01dc 3F       		.uleb128 0x3f
 3502 01dd 19       		.uleb128 0x19
 3503 01de 3C       		.uleb128 0x3c
 3504 01df 19       		.uleb128 0x19
 3505 01e0 6E       		.uleb128 0x6e
 3506 01e1 0E       		.uleb128 0xe
 3507 01e2 03       		.uleb128 0x3
 3508 01e3 0E       		.uleb128 0xe
 3509 01e4 3A       		.uleb128 0x3a
 3510 01e5 0B       		.uleb128 0xb
 3511 01e6 3B       		.uleb128 0x3b
 3512 01e7 0B       		.uleb128 0xb
 3513 01e8 00       		.byte	0
 3514 01e9 00       		.byte	0
 3515 01ea 00       		.byte	0
 3516              		.section	.debug_loc,"",%progbits
 3517              	.Ldebug_loc0:
 3518              	.LLST0:
 3519 0000 00000000 		.4byte	.LVL0
 3520 0004 0C000000 		.4byte	.LVL1
 3521 0008 0100     		.2byte	0x1
 3522 000a 50       		.byte	0x50
 3523 000b 0C000000 		.4byte	.LVL1
 3524 000f AE000000 		.4byte	.LVL31
 3525 0013 0400     		.2byte	0x4
 3526 0015 F3       		.byte	0xf3
 3527 0016 01       		.uleb128 0x1
 3528 0017 50       		.byte	0x50
 3529 0018 9F       		.byte	0x9f
 3530 0019 AE000000 		.4byte	.LVL31
 3531 001d B0000000 		.4byte	.LVL32
ARM GAS  C:\Users\ANDREY~1\AppData\Local\Temp\cc0akFQM.s 			page 99


 3532 0021 0100     		.2byte	0x1
 3533 0023 50       		.byte	0x50
 3534 0024 B0000000 		.4byte	.LVL32
 3535 0028 DC000000 		.4byte	.LFE21
 3536 002c 0400     		.2byte	0x4
 3537 002e F3       		.byte	0xf3
 3538 002f 01       		.uleb128 0x1
 3539 0030 50       		.byte	0x50
 3540 0031 9F       		.byte	0x9f
 3541 0032 00000000 		.4byte	0
 3542 0036 00000000 		.4byte	0
 3543              	.LLST1:
 3544 003a 00000000 		.4byte	.LVL0
 3545 003e 74000000 		.4byte	.LVL19
 3546 0042 0100     		.2byte	0x1
 3547 0044 51       		.byte	0x51
 3548 0045 74000000 		.4byte	.LVL19
 3549 0049 AE000000 		.4byte	.LVL31
 3550 004d 0400     		.2byte	0x4
 3551 004f F3       		.byte	0xf3
 3552 0050 01       		.uleb128 0x1
 3553 0051 51       		.byte	0x51
 3554 0052 9F       		.byte	0x9f
 3555 0053 AE000000 		.4byte	.LVL31
 3556 0057 B3000000 		.4byte	.LVL33-1
 3557 005b 0100     		.2byte	0x1
 3558 005d 51       		.byte	0x51
 3559 005e B3000000 		.4byte	.LVL33-1
 3560 0062 DC000000 		.4byte	.LFE21
 3561 0066 0400     		.2byte	0x4
 3562 0068 F3       		.byte	0xf3
 3563 0069 01       		.uleb128 0x1
 3564 006a 51       		.byte	0x51
 3565 006b 9F       		.byte	0x9f
 3566 006c 00000000 		.4byte	0
 3567 0070 00000000 		.4byte	0
 3568              	.LLST2:
 3569 0074 00000000 		.4byte	.LVL0
 3570 0078 7C000000 		.4byte	.LVL22
 3571 007c 0100     		.2byte	0x1
 3572 007e 52       		.byte	0x52
 3573 007f 7C000000 		.4byte	.LVL22
 3574 0083 AE000000 		.4byte	.LVL31
 3575 0087 0400     		.2byte	0x4
 3576 0089 F3       		.byte	0xf3
 3577 008a 01       		.uleb128 0x1
 3578 008b 52       		.byte	0x52
 3579 008c 9F       		.byte	0x9f
 3580 008d AE000000 		.4byte	.LVL31
 3581 0091 B3000000 		.4byte	.LVL33-1
 3582 0095 0100     		.2byte	0x1
 3583 0097 52       		.byte	0x52
 3584 0098 B3000000 		.4byte	.LVL33-1
 3585 009c DC000000 		.4byte	.LFE21
 3586 00a0 0400     		.2byte	0x4
 3587 00a2 F3       		.byte	0xf3
 3588 00a3 01       		.uleb128 0x1
ARM GAS  C:\Users\ANDREY~1\AppData\Local\Temp\cc0akFQM.s 			page 100


 3589 00a4 52       		.byte	0x52
 3590 00a5 9F       		.byte	0x9f
 3591 00a6 00000000 		.4byte	0
 3592 00aa 00000000 		.4byte	0
 3593              	.LLST3:
 3594 00ae 00000000 		.4byte	.LVL0
 3595 00b2 94000000 		.4byte	.LVL27
 3596 00b6 0100     		.2byte	0x1
 3597 00b8 53       		.byte	0x53
 3598 00b9 94000000 		.4byte	.LVL27
 3599 00bd 98000000 		.4byte	.LVL28
 3600 00c1 0400     		.2byte	0x4
 3601 00c3 F3       		.byte	0xf3
 3602 00c4 01       		.uleb128 0x1
 3603 00c5 53       		.byte	0x53
 3604 00c6 9F       		.byte	0x9f
 3605 00c7 98000000 		.4byte	.LVL28
 3606 00cb 9A000000 		.4byte	.LVL29
 3607 00cf 0100     		.2byte	0x1
 3608 00d1 53       		.byte	0x53
 3609 00d2 9A000000 		.4byte	.LVL29
 3610 00d6 AE000000 		.4byte	.LVL31
 3611 00da 0400     		.2byte	0x4
 3612 00dc F3       		.byte	0xf3
 3613 00dd 01       		.uleb128 0x1
 3614 00de 53       		.byte	0x53
 3615 00df 9F       		.byte	0x9f
 3616 00e0 AE000000 		.4byte	.LVL31
 3617 00e4 B3000000 		.4byte	.LVL33-1
 3618 00e8 0100     		.2byte	0x1
 3619 00ea 53       		.byte	0x53
 3620 00eb B3000000 		.4byte	.LVL33-1
 3621 00ef DC000000 		.4byte	.LFE21
 3622 00f3 0400     		.2byte	0x4
 3623 00f5 F3       		.byte	0xf3
 3624 00f6 01       		.uleb128 0x1
 3625 00f7 53       		.byte	0x53
 3626 00f8 9F       		.byte	0x9f
 3627 00f9 00000000 		.4byte	0
 3628 00fd 00000000 		.4byte	0
 3629              	.LLST4:
 3630 0101 00000000 		.4byte	.LVL0
 3631 0105 AE000000 		.4byte	.LVL31
 3632 0109 0200     		.2byte	0x2
 3633 010b 91       		.byte	0x91
 3634 010c 00       		.sleb128 0
 3635 010d AE000000 		.4byte	.LVL31
 3636 0111 B6000000 		.4byte	.LVL34
 3637 0115 0200     		.2byte	0x2
 3638 0117 91       		.byte	0x91
 3639 0118 00       		.sleb128 0
 3640 0119 B6000000 		.4byte	.LVL34
 3641 011d DC000000 		.4byte	.LFE21
 3642 0121 0200     		.2byte	0x2
 3643 0123 7D       		.byte	0x7d
 3644 0124 00       		.sleb128 0
 3645 0125 00000000 		.4byte	0
ARM GAS  C:\Users\ANDREY~1\AppData\Local\Temp\cc0akFQM.s 			page 101


 3646 0129 00000000 		.4byte	0
 3647              	.LLST5:
 3648 012d 28000000 		.4byte	.LVL2
 3649 0131 2A000000 		.4byte	.LVL3
 3650 0135 0100     		.2byte	0x1
 3651 0137 50       		.byte	0x50
 3652 0138 30000000 		.4byte	.LVL4
 3653 013c 32000000 		.4byte	.LVL5
 3654 0140 0100     		.2byte	0x1
 3655 0142 50       		.byte	0x50
 3656 0143 3C000000 		.4byte	.LVL6
 3657 0147 3E000000 		.4byte	.LVL7
 3658 014b 0100     		.2byte	0x1
 3659 014d 50       		.byte	0x50
 3660 014e 44000000 		.4byte	.LVL8
 3661 0152 46000000 		.4byte	.LVL9
 3662 0156 0100     		.2byte	0x1
 3663 0158 50       		.byte	0x50
 3664 0159 50000000 		.4byte	.LVL10
 3665 015d 52000000 		.4byte	.LVL11
 3666 0161 0100     		.2byte	0x1
 3667 0163 50       		.byte	0x50
 3668 0164 58000000 		.4byte	.LVL12
 3669 0168 5A000000 		.4byte	.LVL13
 3670 016c 0100     		.2byte	0x1
 3671 016e 50       		.byte	0x50
 3672 016f 64000000 		.4byte	.LVL14
 3673 0173 66000000 		.4byte	.LVL15
 3674 0177 0100     		.2byte	0x1
 3675 0179 50       		.byte	0x50
 3676 017a 6C000000 		.4byte	.LVL16
 3677 017e 6E000000 		.4byte	.LVL17
 3678 0182 0100     		.2byte	0x1
 3679 0184 50       		.byte	0x50
 3680 0185 70000000 		.4byte	.LVL18
 3681 0189 8E000000 		.4byte	.LVL26
 3682 018d 0100     		.2byte	0x1
 3683 018f 50       		.byte	0x50
 3684 0190 98000000 		.4byte	.LVL28
 3685 0194 A4000000 		.4byte	.LVL30
 3686 0198 0100     		.2byte	0x1
 3687 019a 50       		.byte	0x50
 3688 019b 00000000 		.4byte	0
 3689 019f 00000000 		.4byte	0
 3690              	.LLST6:
 3691 01a3 74000000 		.4byte	.LVL19
 3692 01a7 78000000 		.4byte	.LVL20
 3693 01ab 0100     		.2byte	0x1
 3694 01ad 51       		.byte	0x51
 3695 01ae 00000000 		.4byte	0
 3696 01b2 00000000 		.4byte	0
 3697              	.LLST7:
 3698 01b6 7C000000 		.4byte	.LVL22
 3699 01ba 84000000 		.4byte	.LVL23
 3700 01be 0100     		.2byte	0x1
 3701 01c0 52       		.byte	0x52
 3702 01c1 84000000 		.4byte	.LVL23
ARM GAS  C:\Users\ANDREY~1\AppData\Local\Temp\cc0akFQM.s 			page 102


 3703 01c5 88000000 		.4byte	.LVL24
 3704 01c9 0100     		.2byte	0x1
 3705 01cb 51       		.byte	0x51
 3706 01cc 8A000000 		.4byte	.LVL25
 3707 01d0 AE000000 		.4byte	.LVL31
 3708 01d4 0100     		.2byte	0x1
 3709 01d6 52       		.byte	0x52
 3710 01d7 00000000 		.4byte	0
 3711 01db 00000000 		.4byte	0
 3712              	.LLST8:
 3713 01df 78000000 		.4byte	.LVL20
 3714 01e3 7A000000 		.4byte	.LVL21
 3715 01e7 0100     		.2byte	0x1
 3716 01e9 51       		.byte	0x51
 3717 01ea 00000000 		.4byte	0
 3718 01ee 00000000 		.4byte	0
 3719              	.LLST9:
 3720 01f2 00000000 		.4byte	.LVL35
 3721 01f6 07000000 		.4byte	.LVL36-1
 3722 01fa 0100     		.2byte	0x1
 3723 01fc 50       		.byte	0x50
 3724 01fd 07000000 		.4byte	.LVL36-1
 3725 0201 4C000000 		.4byte	.LFE22
 3726 0205 0400     		.2byte	0x4
 3727 0207 F3       		.byte	0xf3
 3728 0208 01       		.uleb128 0x1
 3729 0209 50       		.byte	0x50
 3730 020a 9F       		.byte	0x9f
 3731 020b 00000000 		.4byte	0
 3732 020f 00000000 		.4byte	0
 3733              	.LLST10:
 3734 0213 0A000000 		.4byte	.LVL37
 3735 0217 40000000 		.4byte	.LVL40
 3736 021b 0100     		.2byte	0x1
 3737 021d 56       		.byte	0x56
 3738 021e 00000000 		.4byte	0
 3739 0222 00000000 		.4byte	0
 3740              	.LLST11:
 3741 0226 00000000 		.4byte	.LVL41
 3742 022a 80000000 		.4byte	.LVL42
 3743 022e 0100     		.2byte	0x1
 3744 0230 50       		.byte	0x50
 3745 0231 80000000 		.4byte	.LVL42
 3746 0235 E0000000 		.4byte	.LFE19
 3747 0239 0400     		.2byte	0x4
 3748 023b F3       		.byte	0xf3
 3749 023c 01       		.uleb128 0x1
 3750 023d 50       		.byte	0x50
 3751 023e 9F       		.byte	0x9f
 3752 023f 00000000 		.4byte	0
 3753 0243 00000000 		.4byte	0
 3754              	.LLST12:
 3755 0247 08000000 		.4byte	.LVL54
 3756 024b B2000000 		.4byte	.LVL58
 3757 024f 0100     		.2byte	0x1
 3758 0251 56       		.byte	0x56
 3759 0252 00000000 		.4byte	0
ARM GAS  C:\Users\ANDREY~1\AppData\Local\Temp\cc0akFQM.s 			page 103


 3760 0256 00000000 		.4byte	0
 3761              	.LLST13:
 3762 025a 08000000 		.4byte	.LVL62
 3763 025e CE000000 		.4byte	.LVL65
 3764 0262 0100     		.2byte	0x1
 3765 0264 56       		.byte	0x56
 3766 0265 00000000 		.4byte	0
 3767 0269 00000000 		.4byte	0
 3768              	.LLST14:
 3769 026d 00000000 		.4byte	.LVL66
 3770 0271 0A000000 		.4byte	.LVL68
 3771 0275 0100     		.2byte	0x1
 3772 0277 50       		.byte	0x50
 3773 0278 0A000000 		.4byte	.LVL68
 3774 027c 18000000 		.4byte	.LFE4
 3775 0280 0400     		.2byte	0x4
 3776 0282 F3       		.byte	0xf3
 3777 0283 01       		.uleb128 0x1
 3778 0284 50       		.byte	0x50
 3779 0285 9F       		.byte	0x9f
 3780 0286 00000000 		.4byte	0
 3781 028a 00000000 		.4byte	0
 3782              	.LLST15:
 3783 028e 08000000 		.4byte	.LVL67
 3784 0292 10000000 		.4byte	.LVL69
 3785 0296 0100     		.2byte	0x1
 3786 0298 53       		.byte	0x53
 3787 0299 10000000 		.4byte	.LVL69
 3788 029d 18000000 		.4byte	.LFE4
 3789 02a1 0100     		.2byte	0x1
 3790 02a3 50       		.byte	0x50
 3791 02a4 00000000 		.4byte	0
 3792 02a8 00000000 		.4byte	0
 3793              	.LLST16:
 3794 02ac 00000000 		.4byte	.LVL70
 3795 02b0 0C000000 		.4byte	.LVL72
 3796 02b4 0100     		.2byte	0x1
 3797 02b6 50       		.byte	0x50
 3798 02b7 0C000000 		.4byte	.LVL72
 3799 02bb 18000000 		.4byte	.LFE5
 3800 02bf 0400     		.2byte	0x4
 3801 02c1 F3       		.byte	0xf3
 3802 02c2 01       		.uleb128 0x1
 3803 02c3 50       		.byte	0x50
 3804 02c4 9F       		.byte	0x9f
 3805 02c5 00000000 		.4byte	0
 3806 02c9 00000000 		.4byte	0
 3807              	.LLST17:
 3808 02cd 08000000 		.4byte	.LVL71
 3809 02d1 0E000000 		.4byte	.LVL73
 3810 02d5 0100     		.2byte	0x1
 3811 02d7 53       		.byte	0x53
 3812 02d8 0E000000 		.4byte	.LVL73
 3813 02dc 18000000 		.4byte	.LFE5
 3814 02e0 0100     		.2byte	0x1
 3815 02e2 50       		.byte	0x50
 3816 02e3 00000000 		.4byte	0
ARM GAS  C:\Users\ANDREY~1\AppData\Local\Temp\cc0akFQM.s 			page 104


 3817 02e7 00000000 		.4byte	0
 3818              	.LLST18:
 3819 02eb 00000000 		.4byte	.LVL74
 3820 02ef 10000000 		.4byte	.LVL76
 3821 02f3 0100     		.2byte	0x1
 3822 02f5 50       		.byte	0x50
 3823 02f6 10000000 		.4byte	.LVL76
 3824 02fa 24000000 		.4byte	.LVL80
 3825 02fe 0100     		.2byte	0x1
 3826 0300 54       		.byte	0x54
 3827 0301 24000000 		.4byte	.LVL80
 3828 0305 74000000 		.4byte	.LFE6
 3829 0309 0600     		.2byte	0x6
 3830 030b F3       		.byte	0xf3
 3831 030c 03       		.uleb128 0x3
 3832 030d F5       		.byte	0xf5
 3833 030e 00       		.uleb128 0
 3834 030f 25       		.uleb128 0x25
 3835 0310 9F       		.byte	0x9f
 3836 0311 00000000 		.4byte	0
 3837 0315 00000000 		.4byte	0
 3838              	.LLST19:
 3839 0319 0A000000 		.4byte	.LVL75
 3840 031d 13000000 		.4byte	.LVL77-1
 3841 0321 0A00     		.2byte	0xa
 3842 0323 73       		.byte	0x73
 3843 0324 00       		.sleb128 0
 3844 0325 32       		.byte	0x32
 3845 0326 24       		.byte	0x24
 3846 0327 03       		.byte	0x3
 3847 0328 00000000 		.4byte	.LANCHOR0
 3848 032c 22       		.byte	0x22
 3849 032d 44000000 		.4byte	.LVL85
 3850 0331 56000000 		.4byte	.LVL87
 3851 0335 0100     		.2byte	0x1
 3852 0337 50       		.byte	0x50
 3853 0338 56000000 		.4byte	.LVL87
 3854 033c 58000000 		.4byte	.LVL88
 3855 0340 0700     		.2byte	0x7
 3856 0342 73       		.byte	0x73
 3857 0343 00       		.sleb128 0
 3858 0344 32       		.byte	0x32
 3859 0345 24       		.byte	0x24
 3860 0346 72       		.byte	0x72
 3861 0347 00       		.sleb128 0
 3862 0348 22       		.byte	0x22
 3863 0349 00000000 		.4byte	0
 3864 034d 00000000 		.4byte	0
 3865              	.LLST20:
 3866 0351 54000000 		.4byte	.LVL86
 3867 0355 58000000 		.4byte	.LVL88
 3868 0359 0200     		.2byte	0x2
 3869 035b 30       		.byte	0x30
 3870 035c 9F       		.byte	0x9f
 3871 035d 5A000000 		.4byte	.LVL89
 3872 0361 74000000 		.4byte	.LFE6
 3873 0365 0100     		.2byte	0x1
ARM GAS  C:\Users\ANDREY~1\AppData\Local\Temp\cc0akFQM.s 			page 105


 3874 0367 50       		.byte	0x50
 3875 0368 00000000 		.4byte	0
 3876 036c 00000000 		.4byte	0
 3877              	.LLST21:
 3878 0370 1C000000 		.4byte	.LVL78
 3879 0374 21000000 		.4byte	.LVL79-1
 3880 0378 0100     		.2byte	0x1
 3881 037a 50       		.byte	0x50
 3882 037b 24000000 		.4byte	.LVL80
 3883 037f 27000000 		.4byte	.LVL81-1
 3884 0383 0100     		.2byte	0x1
 3885 0385 50       		.byte	0x50
 3886 0386 27000000 		.4byte	.LVL81-1
 3887 038a 3E000000 		.4byte	.LVL83
 3888 038e 0100     		.2byte	0x1
 3889 0390 54       		.byte	0x54
 3890 0391 3E000000 		.4byte	.LVL83
 3891 0395 41000000 		.4byte	.LVL84-1
 3892 0399 0100     		.2byte	0x1
 3893 039b 50       		.byte	0x50
 3894 039c 58000000 		.4byte	.LVL88
 3895 03a0 5C000000 		.4byte	.LVL90
 3896 03a4 0100     		.2byte	0x1
 3897 03a6 54       		.byte	0x54
 3898 03a7 00000000 		.4byte	0
 3899 03ab 00000000 		.4byte	0
 3900              	.LLST22:
 3901 03af 06000000 		.4byte	.LVL91
 3902 03b3 14000000 		.4byte	.LVL93
 3903 03b7 0100     		.2byte	0x1
 3904 03b9 53       		.byte	0x53
 3905 03ba 00000000 		.4byte	0
 3906 03be 00000000 		.4byte	0
 3907              	.LLST23:
 3908 03c2 0C000000 		.4byte	.LVL92
 3909 03c6 16000000 		.4byte	.LVL94
 3910 03ca 0100     		.2byte	0x1
 3911 03cc 50       		.byte	0x50
 3912 03cd 18000000 		.4byte	.LVL95
 3913 03d1 24000000 		.4byte	.LFE7
 3914 03d5 0100     		.2byte	0x1
 3915 03d7 50       		.byte	0x50
 3916 03d8 00000000 		.4byte	0
 3917 03dc 00000000 		.4byte	0
 3918              	.LLST24:
 3919 03e0 00000000 		.4byte	.LVL96
 3920 03e4 24000000 		.4byte	.LVL100
 3921 03e8 0100     		.2byte	0x1
 3922 03ea 50       		.byte	0x50
 3923 03eb 24000000 		.4byte	.LVL100
 3924 03ef 30000000 		.4byte	.LFE10
 3925 03f3 0400     		.2byte	0x4
 3926 03f5 F3       		.byte	0xf3
 3927 03f6 01       		.uleb128 0x1
 3928 03f7 50       		.byte	0x50
 3929 03f8 9F       		.byte	0x9f
 3930 03f9 00000000 		.4byte	0
ARM GAS  C:\Users\ANDREY~1\AppData\Local\Temp\cc0akFQM.s 			page 106


 3931 03fd 00000000 		.4byte	0
 3932              	.LLST25:
 3933 0401 10000000 		.4byte	.LVL97
 3934 0405 12000000 		.4byte	.LVL98
 3935 0409 0100     		.2byte	0x1
 3936 040b 53       		.byte	0x53
 3937 040c 1A000000 		.4byte	.LVL99
 3938 0410 30000000 		.4byte	.LFE10
 3939 0414 0100     		.2byte	0x1
 3940 0416 53       		.byte	0x53
 3941 0417 00000000 		.4byte	0
 3942 041b 00000000 		.4byte	0
 3943              	.LLST26:
 3944 041f 08000000 		.4byte	.LVL101
 3945 0423 14000000 		.4byte	.LVL103
 3946 0427 0100     		.2byte	0x1
 3947 0429 53       		.byte	0x53
 3948 042a 18000000 		.4byte	.LVL104
 3949 042e 1E000000 		.4byte	.LVL105
 3950 0432 0100     		.2byte	0x1
 3951 0434 53       		.byte	0x53
 3952 0435 00000000 		.4byte	0
 3953 0439 00000000 		.4byte	0
 3954              	.LLST27:
 3955 043d 12000000 		.4byte	.LVL108
 3956 0441 14000000 		.4byte	.LVL109
 3957 0445 0100     		.2byte	0x1
 3958 0447 50       		.byte	0x50
 3959 0448 18000000 		.4byte	.LVL110
 3960 044c 20000000 		.4byte	.LVL111
 3961 0450 0100     		.2byte	0x1
 3962 0452 52       		.byte	0x52
 3963 0453 20000000 		.4byte	.LVL111
 3964 0457 50000000 		.4byte	.LFE12
 3965 045b 0100     		.2byte	0x1
 3966 045d 50       		.byte	0x50
 3967 045e 00000000 		.4byte	0
 3968 0462 00000000 		.4byte	0
 3969              	.LLST28:
 3970 0466 08000000 		.4byte	.LVL106
 3971 046a 0E000000 		.4byte	.LVL107
 3972 046e 0100     		.2byte	0x1
 3973 0470 53       		.byte	0x53
 3974 0471 14000000 		.4byte	.LVL109
 3975 0475 26000000 		.4byte	.LVL112
 3976 0479 0100     		.2byte	0x1
 3977 047b 53       		.byte	0x53
 3978 047c 00000000 		.4byte	0
 3979 0480 00000000 		.4byte	0
 3980              	.LLST29:
 3981 0484 10000000 		.4byte	.LVL115
 3982 0488 1A000000 		.4byte	.LVL116
 3983 048c 0700     		.2byte	0x7
 3984 048e 70       		.byte	0x70
 3985 048f 00       		.sleb128 0
 3986 0490 0A       		.byte	0xa
 3987 0491 FFFF     		.2byte	0xffff
ARM GAS  C:\Users\ANDREY~1\AppData\Local\Temp\cc0akFQM.s 			page 107


 3988 0493 1A       		.byte	0x1a
 3989 0494 9F       		.byte	0x9f
 3990 0495 1A000000 		.4byte	.LVL116
 3991 0499 1C000000 		.4byte	.LVL117
 3992 049d 0100     		.2byte	0x1
 3993 049f 50       		.byte	0x50
 3994 04a0 24000000 		.4byte	.LVL119
 3995 04a4 2C000000 		.4byte	.LVL120
 3996 04a8 0700     		.2byte	0x7
 3997 04aa 70       		.byte	0x70
 3998 04ab 00       		.sleb128 0
 3999 04ac 0A       		.byte	0xa
 4000 04ad FFFF     		.2byte	0xffff
 4001 04af 1A       		.byte	0x1a
 4002 04b0 9F       		.byte	0x9f
 4003 04b1 2C000000 		.4byte	.LVL120
 4004 04b5 34000000 		.4byte	.LVL121
 4005 04b9 0100     		.2byte	0x1
 4006 04bb 53       		.byte	0x53
 4007 04bc 34000000 		.4byte	.LVL121
 4008 04c0 36000000 		.4byte	.LVL122
 4009 04c4 0100     		.2byte	0x1
 4010 04c6 50       		.byte	0x50
 4011 04c7 3C000000 		.4byte	.LVL124
 4012 04cb 44000000 		.4byte	.LVL125
 4013 04cf 0100     		.2byte	0x1
 4014 04d1 53       		.byte	0x53
 4015 04d2 44000000 		.4byte	.LVL125
 4016 04d6 6C000000 		.4byte	.LFE13
 4017 04da 0100     		.2byte	0x1
 4018 04dc 50       		.byte	0x50
 4019 04dd 00000000 		.4byte	0
 4020 04e1 00000000 		.4byte	0
 4021              	.LLST30:
 4022 04e5 08000000 		.4byte	.LVL113
 4023 04e9 0E000000 		.4byte	.LVL114
 4024 04ed 0100     		.2byte	0x1
 4025 04ef 53       		.byte	0x53
 4026 04f0 1C000000 		.4byte	.LVL117
 4027 04f4 22000000 		.4byte	.LVL118
 4028 04f8 0100     		.2byte	0x1
 4029 04fa 53       		.byte	0x53
 4030 04fb 36000000 		.4byte	.LVL122
 4031 04ff 38000000 		.4byte	.LVL123
 4032 0503 0100     		.2byte	0x1
 4033 0505 53       		.byte	0x53
 4034 0506 00000000 		.4byte	0
 4035 050a 00000000 		.4byte	0
 4036              	.LLST31:
 4037 050e 00000000 		.4byte	.LVL128
 4038 0512 06000000 		.4byte	.LVL129
 4039 0516 0100     		.2byte	0x1
 4040 0518 50       		.byte	0x50
 4041 0519 06000000 		.4byte	.LVL129
 4042 051d 0E000000 		.4byte	.LVL130
 4043 0521 0100     		.2byte	0x1
 4044 0523 50       		.byte	0x50
ARM GAS  C:\Users\ANDREY~1\AppData\Local\Temp\cc0akFQM.s 			page 108


 4045 0524 00000000 		.4byte	0
 4046 0528 00000000 		.4byte	0
 4047              	.LLST32:
 4048 052c 00000000 		.4byte	.LVL132
 4049 0530 06000000 		.4byte	.LVL133
 4050 0534 0100     		.2byte	0x1
 4051 0536 50       		.byte	0x50
 4052 0537 06000000 		.4byte	.LVL133
 4053 053b 08000000 		.4byte	.LVL134
 4054 053f 0600     		.2byte	0x6
 4055 0541 70       		.byte	0x70
 4056 0542 00       		.sleb128 0
 4057 0543 73       		.byte	0x73
 4058 0544 00       		.sleb128 0
 4059 0545 1C       		.byte	0x1c
 4060 0546 9F       		.byte	0x9f
 4061 0547 08000000 		.4byte	.LVL134
 4062 054b 0B000000 		.4byte	.LVL135-1
 4063 054f 0100     		.2byte	0x1
 4064 0551 50       		.byte	0x50
 4065 0552 00000000 		.4byte	0
 4066 0556 00000000 		.4byte	0
 4067              	.LLST33:
 4068 055a 00000000 		.4byte	.LVL138
 4069 055e 2C000000 		.4byte	.LVL141
 4070 0562 0100     		.2byte	0x1
 4071 0564 50       		.byte	0x50
 4072 0565 2C000000 		.4byte	.LVL141
 4073 0569 4C000000 		.4byte	.LFE18
 4074 056d 0400     		.2byte	0x4
 4075 056f F3       		.byte	0xf3
 4076 0570 01       		.uleb128 0x1
 4077 0571 50       		.byte	0x50
 4078 0572 9F       		.byte	0x9f
 4079 0573 00000000 		.4byte	0
 4080 0577 00000000 		.4byte	0
 4081              	.LLST34:
 4082 057b 3C000000 		.4byte	.LVL142
 4083 057f 3E000000 		.4byte	.LVL143
 4084 0583 0600     		.2byte	0x6
 4085 0585 70       		.byte	0x70
 4086 0586 00       		.sleb128 0
 4087 0587 73       		.byte	0x73
 4088 0588 00       		.sleb128 0
 4089 0589 1C       		.byte	0x1c
 4090 058a 9F       		.byte	0x9f
 4091 058b 3E000000 		.4byte	.LVL143
 4092 058f 4C000000 		.4byte	.LFE18
 4093 0593 0100     		.2byte	0x1
 4094 0595 50       		.byte	0x50
 4095 0596 00000000 		.4byte	0
 4096 059a 00000000 		.4byte	0
 4097              	.LLST35:
 4098 059e 18000000 		.4byte	.LVL139
 4099 05a2 24000000 		.4byte	.LVL140
 4100 05a6 0300     		.2byte	0x3
 4101 05a8 08       		.byte	0x8
ARM GAS  C:\Users\ANDREY~1\AppData\Local\Temp\cc0akFQM.s 			page 109


 4102 05a9 20       		.byte	0x20
 4103 05aa 9F       		.byte	0x9f
 4104 05ab 24000000 		.4byte	.LVL140
 4105 05af 4C000000 		.4byte	.LFE18
 4106 05b3 0100     		.2byte	0x1
 4107 05b5 52       		.byte	0x52
 4108 05b6 00000000 		.4byte	0
 4109 05ba 00000000 		.4byte	0
 4110              	.LLST36:
 4111 05be 00000000 		.4byte	.LVL144
 4112 05c2 1D000000 		.4byte	.LVL145-1
 4113 05c6 0100     		.2byte	0x1
 4114 05c8 50       		.byte	0x50
 4115 05c9 1D000000 		.4byte	.LVL145-1
 4116 05cd 48000000 		.4byte	.LVL149
 4117 05d1 0400     		.2byte	0x4
 4118 05d3 F3       		.byte	0xf3
 4119 05d4 01       		.uleb128 0x1
 4120 05d5 50       		.byte	0x50
 4121 05d6 9F       		.byte	0x9f
 4122 05d7 48000000 		.4byte	.LVL149
 4123 05db 4A000000 		.4byte	.LVL150
 4124 05df 0100     		.2byte	0x1
 4125 05e1 50       		.byte	0x50
 4126 05e2 4A000000 		.4byte	.LVL150
 4127 05e6 60000000 		.4byte	.LFE20
 4128 05ea 0400     		.2byte	0x4
 4129 05ec F3       		.byte	0xf3
 4130 05ed 01       		.uleb128 0x1
 4131 05ee 50       		.byte	0x50
 4132 05ef 9F       		.byte	0x9f
 4133 05f0 00000000 		.4byte	0
 4134 05f4 00000000 		.4byte	0
 4135              	.LLST37:
 4136 05f8 00000000 		.4byte	.LVL144
 4137 05fc 1D000000 		.4byte	.LVL145-1
 4138 0600 0100     		.2byte	0x1
 4139 0602 51       		.byte	0x51
 4140 0603 1D000000 		.4byte	.LVL145-1
 4141 0607 48000000 		.4byte	.LVL149
 4142 060b 0400     		.2byte	0x4
 4143 060d F3       		.byte	0xf3
 4144 060e 01       		.uleb128 0x1
 4145 060f 51       		.byte	0x51
 4146 0610 9F       		.byte	0x9f
 4147 0611 48000000 		.4byte	.LVL149
 4148 0615 4D000000 		.4byte	.LVL151-1
 4149 0619 0100     		.2byte	0x1
 4150 061b 51       		.byte	0x51
 4151 061c 4D000000 		.4byte	.LVL151-1
 4152 0620 60000000 		.4byte	.LFE20
 4153 0624 0400     		.2byte	0x4
 4154 0626 F3       		.byte	0xf3
 4155 0627 01       		.uleb128 0x1
 4156 0628 51       		.byte	0x51
 4157 0629 9F       		.byte	0x9f
 4158 062a 00000000 		.4byte	0
ARM GAS  C:\Users\ANDREY~1\AppData\Local\Temp\cc0akFQM.s 			page 110


 4159 062e 00000000 		.4byte	0
 4160              	.LLST38:
 4161 0632 1C000000 		.4byte	.LVL155
 4162 0636 24000000 		.4byte	.LVL157
 4163 063a 0100     		.2byte	0x1
 4164 063c 54       		.byte	0x54
 4165 063d 00000000 		.4byte	0
 4166 0641 00000000 		.4byte	0
 4167              	.LLST39:
 4168 0645 1C000000 		.4byte	.LVL161
 4169 0649 24000000 		.4byte	.LVL163
 4170 064d 0100     		.2byte	0x1
 4171 064f 54       		.byte	0x54
 4172 0650 00000000 		.4byte	0
 4173 0654 00000000 		.4byte	0
 4174              	.LLST40:
 4175 0658 1C000000 		.4byte	.LVL167
 4176 065c 1F000000 		.4byte	.LVL168-1
 4177 0660 0100     		.2byte	0x1
 4178 0662 50       		.byte	0x50
 4179 0663 1F000000 		.4byte	.LVL168-1
 4180 0667 24000000 		.4byte	.LVL169
 4181 066b 0100     		.2byte	0x1
 4182 066d 54       		.byte	0x54
 4183 066e 24000000 		.4byte	.LVL169
 4184 0672 28000000 		.4byte	.LFE25
 4185 0676 0100     		.2byte	0x1
 4186 0678 50       		.byte	0x50
 4187 0679 00000000 		.4byte	0
 4188 067d 00000000 		.4byte	0
 4189              		.section	.debug_aranges,"",%progbits
 4190 0000 E4000000 		.4byte	0xe4
 4191 0004 0200     		.2byte	0x2
 4192 0006 00000000 		.4byte	.Ldebug_info0
 4193 000a 04       		.byte	0x4
 4194 000b 00       		.byte	0
 4195 000c 0000     		.2byte	0
 4196 000e 0000     		.2byte	0
 4197 0010 00000000 		.4byte	.LFB21
 4198 0014 DC000000 		.4byte	.LFE21-.LFB21
 4199 0018 00000000 		.4byte	.LFB22
 4200 001c 4C000000 		.4byte	.LFE22-.LFB22
 4201 0020 00000000 		.4byte	.LFB19
 4202 0024 E0000000 		.4byte	.LFE19-.LFB19
 4203 0028 00000000 		.4byte	.LFB0
 4204 002c C4000000 		.4byte	.LFE0-.LFB0
 4205 0030 00000000 		.4byte	.LFB1
 4206 0034 D8000000 		.4byte	.LFE1-.LFB1
 4207 0038 00000000 		.4byte	.LFB2
 4208 003c 28000000 		.4byte	.LFE2-.LFB2
 4209 0040 00000000 		.4byte	.LFB3
 4210 0044 E4000000 		.4byte	.LFE3-.LFB3
 4211 0048 00000000 		.4byte	.LFB4
 4212 004c 18000000 		.4byte	.LFE4-.LFB4
 4213 0050 00000000 		.4byte	.LFB5
 4214 0054 18000000 		.4byte	.LFE5-.LFB5
 4215 0058 00000000 		.4byte	.LFB6
ARM GAS  C:\Users\ANDREY~1\AppData\Local\Temp\cc0akFQM.s 			page 111


 4216 005c 74000000 		.4byte	.LFE6-.LFB6
 4217 0060 00000000 		.4byte	.LFB7
 4218 0064 24000000 		.4byte	.LFE7-.LFB7
 4219 0068 00000000 		.4byte	.LFB8
 4220 006c 10000000 		.4byte	.LFE8-.LFB8
 4221 0070 00000000 		.4byte	.LFB9
 4222 0074 10000000 		.4byte	.LFE9-.LFB9
 4223 0078 00000000 		.4byte	.LFB10
 4224 007c 30000000 		.4byte	.LFE10-.LFB10
 4225 0080 00000000 		.4byte	.LFB11
 4226 0084 48000000 		.4byte	.LFE11-.LFB11
 4227 0088 00000000 		.4byte	.LFB12
 4228 008c 50000000 		.4byte	.LFE12-.LFB12
 4229 0090 00000000 		.4byte	.LFB13
 4230 0094 6C000000 		.4byte	.LFE13-.LFB13
 4231 0098 00000000 		.4byte	.LFB14
 4232 009c 0C000000 		.4byte	.LFE14-.LFB14
 4233 00a0 00000000 		.4byte	.LFB15
 4234 00a4 0C000000 		.4byte	.LFE15-.LFB15
 4235 00a8 00000000 		.4byte	.LFB16
 4236 00ac 24000000 		.4byte	.LFE16-.LFB16
 4237 00b0 00000000 		.4byte	.LFB17
 4238 00b4 28000000 		.4byte	.LFE17-.LFB17
 4239 00b8 00000000 		.4byte	.LFB18
 4240 00bc 4C000000 		.4byte	.LFE18-.LFB18
 4241 00c0 00000000 		.4byte	.LFB20
 4242 00c4 60000000 		.4byte	.LFE20-.LFB20
 4243 00c8 00000000 		.4byte	.LFB23
 4244 00cc 28000000 		.4byte	.LFE23-.LFB23
 4245 00d0 00000000 		.4byte	.LFB24
 4246 00d4 28000000 		.4byte	.LFE24-.LFB24
 4247 00d8 00000000 		.4byte	.LFB25
 4248 00dc 28000000 		.4byte	.LFE25-.LFB25
 4249 00e0 00000000 		.4byte	0
 4250 00e4 00000000 		.4byte	0
 4251              		.section	.debug_ranges,"",%progbits
 4252              	.Ldebug_ranges0:
 4253 0000 00000000 		.4byte	.LFB21
 4254 0004 DC000000 		.4byte	.LFE21
 4255 0008 00000000 		.4byte	.LFB22
 4256 000c 4C000000 		.4byte	.LFE22
 4257 0010 00000000 		.4byte	.LFB19
 4258 0014 E0000000 		.4byte	.LFE19
 4259 0018 00000000 		.4byte	.LFB0
 4260 001c C4000000 		.4byte	.LFE0
 4261 0020 00000000 		.4byte	.LFB1
 4262 0024 D8000000 		.4byte	.LFE1
 4263 0028 00000000 		.4byte	.LFB2
 4264 002c 28000000 		.4byte	.LFE2
 4265 0030 00000000 		.4byte	.LFB3
 4266 0034 E4000000 		.4byte	.LFE3
 4267 0038 00000000 		.4byte	.LFB4
 4268 003c 18000000 		.4byte	.LFE4
 4269 0040 00000000 		.4byte	.LFB5
 4270 0044 18000000 		.4byte	.LFE5
 4271 0048 00000000 		.4byte	.LFB6
 4272 004c 74000000 		.4byte	.LFE6
ARM GAS  C:\Users\ANDREY~1\AppData\Local\Temp\cc0akFQM.s 			page 112


 4273 0050 00000000 		.4byte	.LFB7
 4274 0054 24000000 		.4byte	.LFE7
 4275 0058 00000000 		.4byte	.LFB8
 4276 005c 10000000 		.4byte	.LFE8
 4277 0060 00000000 		.4byte	.LFB9
 4278 0064 10000000 		.4byte	.LFE9
 4279 0068 00000000 		.4byte	.LFB10
 4280 006c 30000000 		.4byte	.LFE10
 4281 0070 00000000 		.4byte	.LFB11
 4282 0074 48000000 		.4byte	.LFE11
 4283 0078 00000000 		.4byte	.LFB12
 4284 007c 50000000 		.4byte	.LFE12
 4285 0080 00000000 		.4byte	.LFB13
 4286 0084 6C000000 		.4byte	.LFE13
 4287 0088 00000000 		.4byte	.LFB14
 4288 008c 0C000000 		.4byte	.LFE14
 4289 0090 00000000 		.4byte	.LFB15
 4290 0094 0C000000 		.4byte	.LFE15
 4291 0098 00000000 		.4byte	.LFB16
 4292 009c 24000000 		.4byte	.LFE16
 4293 00a0 00000000 		.4byte	.LFB17
 4294 00a4 28000000 		.4byte	.LFE17
 4295 00a8 00000000 		.4byte	.LFB18
 4296 00ac 4C000000 		.4byte	.LFE18
 4297 00b0 00000000 		.4byte	.LFB20
 4298 00b4 60000000 		.4byte	.LFE20
 4299 00b8 00000000 		.4byte	.LFB23
 4300 00bc 28000000 		.4byte	.LFE23
 4301 00c0 00000000 		.4byte	.LFB24
 4302 00c4 28000000 		.4byte	.LFE24
 4303 00c8 00000000 		.4byte	.LFB25
 4304 00cc 28000000 		.4byte	.LFE25
 4305 00d0 00000000 		.4byte	0
 4306 00d4 00000000 		.4byte	0
 4307              		.section	.debug_line,"",%progbits
 4308              	.Ldebug_line0:
 4309 0000 69030000 		.section	.debug_str,"MS",%progbits,1
 4309      0200A500 
 4309      00000201 
 4309      FB0E0D00 
 4309      01010101 
 4310              	.LASF64:
 4311 0000 4144435F 		.ascii	"ADC_GLV_V_SetOffset\000"
 4311      474C565F 
 4311      565F5365 
 4311      744F6666 
 4311      73657400 
 4312              	.LASF11:
 4313 0014 75696E74 		.ascii	"uint16\000"
 4313      313600
 4314              	.LASF60:
 4315 001b 4144435F 		.ascii	"ADC_GLV_V_GetResult8\000"
 4315      474C565F 
 4315      565F4765 
 4315      74526573 
 4315      756C7438 
 4316              	.LASF67:
ARM GAS  C:\Users\ANDREY~1\AppData\Local\Temp\cc0akFQM.s 			page 113


 4317 0030 61646347 		.ascii	"adcGain\000"
 4317      61696E00 
 4318              	.LASF93:
 4319 0038 43794578 		.ascii	"CyExitCriticalSection\000"
 4319      69744372 
 4319      69746963 
 4319      616C5365 
 4319      6374696F 
 4320              	.LASF27:
 4321 004e 696E7075 		.ascii	"inputRange\000"
 4321      7452616E 
 4321      676500
 4322              	.LASF77:
 4323 0059 4144435F 		.ascii	"ADC_GLV_V_SelectConfiguration\000"
 4323      474C565F 
 4323      565F5365 
 4323      6C656374 
 4323      436F6E66 
 4324              	.LASF24:
 4325 0077 67636F72 		.ascii	"gcor\000"
 4325      00
 4326              	.LASF57:
 4327 007c 4144435F 		.ascii	"ADC_GLV_V_StopConvert\000"
 4327      474C565F 
 4327      565F5374 
 4327      6F70436F 
 4327      6E766572 
 4328              	.LASF42:
 4329 0092 4144435F 		.ascii	"ADC_GLV_V_Enable\000"
 4329      474C565F 
 4329      565F456E 
 4329      61626C65 
 4329      00
 4330              	.LASF94:
 4331 00a3 4144435F 		.ascii	"ADC_GLV_V_AMux_Select\000"
 4331      474C565F 
 4331      565F414D 
 4331      75785F53 
 4331      656C6563 
 4332              	.LASF8:
 4333 00b9 6C6F6E67 		.ascii	"long long unsigned int\000"
 4333      206C6F6E 
 4333      6720756E 
 4333      7369676E 
 4333      65642069 
 4334              	.LASF95:
 4335 00d0 4144435F 		.ascii	"ADC_GLV_V_Ext_CP_Clk_SetDividerRegister\000"
 4335      474C565F 
 4335      565F4578 
 4335      745F4350 
 4335      5F436C6B 
 4336              	.LASF79:
 4337 00f8 4144435F 		.ascii	"ADC_GLV_V_Read8\000"
 4337      474C565F 
 4337      565F5265 
 4337      61643800 
 4338              	.LASF56:
ARM GAS  C:\Users\ANDREY~1\AppData\Local\Temp\cc0akFQM.s 			page 114


 4339 0108 4144435F 		.ascii	"ADC_GLV_V_StartConvert\000"
 4339      474C565F 
 4339      565F5374 
 4339      61727443 
 4339      6F6E7665 
 4340              	.LASF29:
 4341 011f 69646561 		.ascii	"idealOddDecGain\000"
 4341      6C4F6464 
 4341      44656347 
 4341      61696E00 
 4342              	.LASF7:
 4343 012f 6C6F6E67 		.ascii	"long long int\000"
 4343      206C6F6E 
 4343      6720696E 
 4343      7400
 4344              	.LASF1:
 4345 013d 7369676E 		.ascii	"signed char\000"
 4345      65642063 
 4345      68617200 
 4346              	.LASF48:
 4347 0149 4144435F 		.ascii	"ADC_GLV_V_SetCoherency\000"
 4347      474C565F 
 4347      565F5365 
 4347      74436F68 
 4347      6572656E 
 4348              	.LASF15:
 4349 0160 696E7433 		.ascii	"int32\000"
 4349      3200
 4350              	.LASF45:
 4351 0166 4144435F 		.ascii	"ADC_GLV_V_SetBufferGain\000"
 4351      474C565F 
 4351      565F5365 
 4351      74427566 
 4351      66657247 
 4352              	.LASF96:
 4353 017e 4144435F 		.ascii	"ADC_GLV_V_theACLK_SetDividerRegister\000"
 4353      474C565F 
 4353      565F7468 
 4353      6541434C 
 4353      4B5F5365 
 4354              	.LASF5:
 4355 01a3 6C6F6E67 		.ascii	"long int\000"
 4355      20696E74 
 4355      00
 4356              	.LASF20:
 4357 01ac 72656731 		.ascii	"reg16\000"
 4357      3600
 4358              	.LASF41:
 4359 01b2 4144435F 		.ascii	"ADC_GLV_V_Init\000"
 4359      474C565F 
 4359      565F496E 
 4359      697400
 4360              	.LASF10:
 4361 01c1 75696E74 		.ascii	"uint8\000"
 4361      3800
 4362              	.LASF92:
 4363 01c7 43794465 		.ascii	"CyDelayUs\000"
ARM GAS  C:\Users\ANDREY~1\AppData\Local\Temp\cc0akFQM.s 			page 115


 4363      6C617955 
 4363      7300
 4364              	.LASF17:
 4365 01d1 646F7562 		.ascii	"double\000"
 4365      6C6500
 4366              	.LASF103:
 4367 01d8 5A3A5C44 		.ascii	"Z:\\Documents\\UCD\\FRUCD\\Dashboard-Firmware-FE9-F"
 4367      6F63756D 
 4367      656E7473 
 4367      5C554344 
 4367      5C465255 
 4368 0207 45372D42 		.ascii	"E7-Board\\Dashboard.cydsn\000"
 4368      6F617264 
 4368      5C446173 
 4368      68626F61 
 4368      72642E63 
 4369              	.LASF72:
 4370 0220 566F6C74 		.ascii	"Volts\000"
 4370      7300
 4371              	.LASF81:
 4372 0226 4144435F 		.ascii	"ADC_GLV_V_Read32\000"
 4372      474C565F 
 4372      565F5265 
 4372      61643332 
 4372      00
 4373              	.LASF54:
 4374 0237 4144435F 		.ascii	"ADC_GLV_V_ReadGCOR\000"
 4374      474C565F 
 4374      565F5265 
 4374      61644743 
 4374      4F5200
 4375              	.LASF12:
 4376 024a 75696E74 		.ascii	"uint32\000"
 4376      333200
 4377              	.LASF43:
 4378 0251 4144435F 		.ascii	"ADC_GLV_V_Start\000"
 4378      474C565F 
 4378      565F5374 
 4378      61727400 
 4379              	.LASF97:
 4380 0261 4379496E 		.ascii	"CyIntSetVector\000"
 4380      74536574 
 4380      56656374 
 4380      6F7200
 4381              	.LASF85:
 4382 0270 4144435F 		.ascii	"ADC_GLV_V_stopConversion\000"
 4382      474C565F 
 4382      565F7374 
 4382      6F70436F 
 4382      6E766572 
 4383              	.LASF89:
 4384 0289 4144435F 		.ascii	"ADC_GLV_V_CountsPerVolt\000"
 4384      474C565F 
 4384      565F436F 
 4384      756E7473 
 4384      50657256 
 4385              	.LASF38:
ARM GAS  C:\Users\ANDREY~1\AppData\Local\Temp\cc0akFQM.s 			page 116


 4386 02a1 76616C75 		.ascii	"value\000"
 4386      6500
 4387              	.LASF59:
 4388 02a7 7265744D 		.ascii	"retMode\000"
 4388      6F646500 
 4389              	.LASF9:
 4390 02af 756E7369 		.ascii	"unsigned int\000"
 4390      676E6564 
 4390      20696E74 
 4390      00
 4391              	.LASF37:
 4392 02bc 4144435F 		.ascii	"ADC_GLV_V_SetDSMRef0Reg\000"
 4392      474C565F 
 4392      565F5365 
 4392      7444534D 
 4392      52656630 
 4393              	.LASF74:
 4394 02d4 75566F6C 		.ascii	"uVolts\000"
 4394      747300
 4395              	.LASF6:
 4396 02db 6C6F6E67 		.ascii	"long unsigned int\000"
 4396      20756E73 
 4396      69676E65 
 4396      6420696E 
 4396      7400
 4397              	.LASF99:
 4398 02ed 4144435F 		.ascii	"ADC_GLV_V_theACLK_SetModeRegister\000"
 4398      474C565F 
 4398      565F7468 
 4398      6541434C 
 4398      4B5F5365 
 4399              	.LASF36:
 4400 030f 4144435F 		.ascii	"ADC_GLV_V_GainCompensation\000"
 4400      474C565F 
 4400      565F4761 
 4400      696E436F 
 4400      6D70656E 
 4401              	.LASF91:
 4402 032a 4379456E 		.ascii	"CyEnterCriticalSection\000"
 4402      74657243 
 4402      72697469 
 4402      63616C53 
 4402      65637469 
 4403              	.LASF4:
 4404 0341 73686F72 		.ascii	"short unsigned int\000"
 4404      7420756E 
 4404      7369676E 
 4404      65642069 
 4404      6E7400
 4405              	.LASF13:
 4406 0354 696E7438 		.ascii	"int8\000"
 4406      00
 4407              	.LASF34:
 4408 0359 67636F72 		.ascii	"gcorValue\000"
 4408      56616C75 
 4408      6500
 4409              	.LASF98:
ARM GAS  C:\Users\ANDREY~1\AppData\Local\Temp\cc0akFQM.s 			page 117


 4410 0363 4144435F 		.ascii	"ADC_GLV_V_Ext_CP_Clk_SetModeRegister\000"
 4410      474C565F 
 4410      565F4578 
 4410      745F4350 
 4410      5F436C6B 
 4411              	.LASF70:
 4412 0388 6D566F6C 		.ascii	"mVolts\000"
 4412      747300
 4413              	.LASF83:
 4414 038f 4144435F 		.ascii	"ADC_GLV_V_initVar\000"
 4414      474C565F 
 4414      565F696E 
 4414      69745661 
 4414      7200
 4415              	.LASF32:
 4416 03a1 666C6173 		.ascii	"flash\000"
 4416      6800
 4417              	.LASF21:
 4418 03a7 72656733 		.ascii	"reg32\000"
 4418      3200
 4419              	.LASF16:
 4420 03ad 666C6F61 		.ascii	"float32\000"
 4420      74333200 
 4421              	.LASF23:
 4422 03b5 73697A65 		.ascii	"sizetype\000"
 4422      74797065 
 4422      00
 4423              	.LASF22:
 4424 03be 6C6F6E67 		.ascii	"long double\000"
 4424      20646F75 
 4424      626C6500 
 4425              	.LASF86:
 4426 03ca 4144435F 		.ascii	"ADC_GLV_V_started\000"
 4426      474C565F 
 4426      565F7374 
 4426      61727465 
 4426      6400
 4427              	.LASF73:
 4428 03dc 4144435F 		.ascii	"ADC_GLV_V_CountsTo_uVolts\000"
 4428      474C565F 
 4428      565F436F 
 4428      756E7473 
 4428      546F5F75 
 4429              	.LASF49:
 4430 03f6 636F6865 		.ascii	"coherency\000"
 4430      72656E63 
 4430      7900
 4431              	.LASF100:
 4432 0400 4379496E 		.ascii	"CyIntSetPriority\000"
 4432      74536574 
 4432      5072696F 
 4432      72697479 
 4432      00
 4433              	.LASF46:
 4434 0411 6761696E 		.ascii	"gain\000"
 4434      00
 4435              	.LASF0:
ARM GAS  C:\Users\ANDREY~1\AppData\Local\Temp\cc0akFQM.s 			page 118


 4436 0416 666C6F61 		.ascii	"float\000"
 4436      7400
 4437              	.LASF19:
 4438 041c 72656738 		.ascii	"reg8\000"
 4438      00
 4439              	.LASF102:
 4440 0421 47656E65 		.ascii	"Generated_Source\\PSoC5\\ADC_GLV_V.c\000"
 4440      72617465 
 4440      645F536F 
 4440      75726365 
 4440      5C50536F 
 4441              	.LASF28:
 4442 0444 69646561 		.ascii	"idealDecGain\000"
 4442      6C446563 
 4442      4761696E 
 4442      00
 4443              	.LASF33:
 4444 0451 6E6F726D 		.ascii	"normalised\000"
 4444      616C6973 
 4444      656400
 4445              	.LASF90:
 4446 045c 43794861 		.ascii	"CyHalt\000"
 4446      6C7400
 4447              	.LASF68:
 4448 0463 4144435F 		.ascii	"ADC_GLV_V_CountsTo_mVolts\000"
 4448      474C565F 
 4448      565F436F 
 4448      756E7473 
 4448      546F5F6D 
 4449              	.LASF2:
 4450 047d 756E7369 		.ascii	"unsigned char\000"
 4450      676E6564 
 4450      20636861 
 4450      7200
 4451              	.LASF62:
 4452 048b 4144435F 		.ascii	"ADC_GLV_V_GetResult16\000"
 4452      474C565F 
 4452      565F4765 
 4452      74526573 
 4452      756C7431 
 4453              	.LASF88:
 4454 04a1 4144435F 		.ascii	"ADC_GLV_V_Offset\000"
 4454      474C565F 
 4454      565F4F66 
 4454      66736574 
 4454      00
 4455              	.LASF3:
 4456 04b2 73686F72 		.ascii	"short int\000"
 4456      7420696E 
 4456      7400
 4457              	.LASF35:
 4458 04bc 67636F72 		.ascii	"gcorTmp\000"
 4458      546D7000 
 4459              	.LASF82:
 4460 04c4 4144435F 		.ascii	"ADC_GLV_V_gcor\000"
 4460      474C565F 
 4460      565F6763 
ARM GAS  C:\Users\ANDREY~1\AppData\Local\Temp\cc0akFQM.s 			page 119


 4460      6F7200
 4461              	.LASF101:
 4462 04d3 474E5520 		.ascii	"GNU C11 5.4.1 20160609 (release) [ARM/embedded-5-br"
 4462      43313120 
 4462      352E342E 
 4462      31203230 
 4462      31363036 
 4463 0506 616E6368 		.ascii	"anch revision 237715] -mcpu=cortex-m3 -mthumb -g -O"
 4463      20726576 
 4463      6973696F 
 4463      6E203233 
 4463      37373135 
 4464 0539 67202D66 		.ascii	"g -ffunction-sections -ffat-lto-objects\000"
 4464      66756E63 
 4464      74696F6E 
 4464      2D736563 
 4464      74696F6E 
 4465              	.LASF53:
 4466 0561 4144435F 		.ascii	"ADC_GLV_V_SetGCOR\000"
 4466      474C565F 
 4466      565F5365 
 4466      7447434F 
 4466      5200
 4467              	.LASF40:
 4468 0573 4144435F 		.ascii	"ADC_GLV_V_InitConfig\000"
 4468      474C565F 
 4468      565F496E 
 4468      6974436F 
 4468      6E666967 
 4469              	.LASF30:
 4470 0588 7265736F 		.ascii	"resolution\000"
 4470      6C757469 
 4470      6F6E00
 4471              	.LASF63:
 4472 0593 4144435F 		.ascii	"ADC_GLV_V_GetResult32\000"
 4472      474C565F 
 4472      565F4765 
 4472      74526573 
 4472      756C7433 
 4473              	.LASF26:
 4474 05a9 4144435F 		.ascii	"ADC_GLV_V_GCOR_STRUCT\000"
 4474      474C565F 
 4474      565F4743 
 4474      4F525F53 
 4474      54525543 
 4475              	.LASF75:
 4476 05bf 636F6566 		.ascii	"coefA\000"
 4476      4100
 4477              	.LASF76:
 4478 05c5 636F6566 		.ascii	"coefB\000"
 4478      4200
 4479              	.LASF66:
 4480 05cb 4144435F 		.ascii	"ADC_GLV_V_SetGain\000"
 4480      474C565F 
 4480      565F5365 
 4480      74476169 
 4480      6E00
ARM GAS  C:\Users\ANDREY~1\AppData\Local\Temp\cc0akFQM.s 			page 120


 4481              	.LASF18:
 4482 05dd 63686172 		.ascii	"char\000"
 4482      00
 4483              	.LASF55:
 4484 05e2 6756616C 		.ascii	"gValue\000"
 4484      756500
 4485              	.LASF71:
 4486 05e9 4144435F 		.ascii	"ADC_GLV_V_CountsTo_Volts\000"
 4486      474C565F 
 4486      565F436F 
 4486      756E7473 
 4486      546F5F56 
 4487              	.LASF31:
 4488 0602 636F6E66 		.ascii	"config\000"
 4488      696700
 4489              	.LASF84:
 4490 0609 4144435F 		.ascii	"ADC_GLV_V_convDone\000"
 4490      474C565F 
 4490      565F636F 
 4490      6E76446F 
 4490      6E6500
 4491              	.LASF25:
 4492 061c 6776616C 		.ascii	"gval\000"
 4492      00
 4493              	.LASF78:
 4494 0621 72657374 		.ascii	"restart\000"
 4494      61727400 
 4495              	.LASF52:
 4496 0629 746D7056 		.ascii	"tmpValue\000"
 4496      616C7565 
 4496      00
 4497              	.LASF65:
 4498 0632 6F666673 		.ascii	"offset\000"
 4498      657400
 4499              	.LASF44:
 4500 0639 4144435F 		.ascii	"ADC_GLV_V_Stop\000"
 4500      474C565F 
 4500      565F5374 
 4500      6F7000
 4501              	.LASF69:
 4502 0648 61646343 		.ascii	"adcCounts\000"
 4502      6F756E74 
 4502      7300
 4503              	.LASF58:
 4504 0652 4144435F 		.ascii	"ADC_GLV_V_IsEndConversion\000"
 4504      474C565F 
 4504      565F4973 
 4504      456E6443 
 4504      6F6E7665 
 4505              	.LASF39:
 4506 066c 656E6162 		.ascii	"enableInterrupts\000"
 4506      6C65496E 
 4506      74657272 
 4506      75707473 
 4506      00
 4507              	.LASF51:
 4508 067d 73746174 		.ascii	"status\000"
ARM GAS  C:\Users\ANDREY~1\AppData\Local\Temp\cc0akFQM.s 			page 121


 4508      757300
 4509              	.LASF50:
 4510 0684 6761696E 		.ascii	"gainAdjust\000"
 4510      41646A75 
 4510      737400
 4511              	.LASF14:
 4512 068f 696E7431 		.ascii	"int16\000"
 4512      3600
 4513              	.LASF87:
 4514 0695 4144435F 		.ascii	"ADC_GLV_V_Config\000"
 4514      474C565F 
 4514      565F436F 
 4514      6E666967 
 4514      00
 4515              	.LASF47:
 4516 06a6 746D7052 		.ascii	"tmpReg\000"
 4516      656700
 4517              	.LASF61:
 4518 06ad 72657375 		.ascii	"result\000"
 4518      6C7400
 4519              	.LASF80:
 4520 06b4 4144435F 		.ascii	"ADC_GLV_V_Read16\000"
 4520      474C565F 
 4520      565F5265 
 4520      61643136 
 4520      00
 4521              		.ident	"GCC: (GNU Tools for ARM Embedded Processors) 5.4.1 20160609 (release) [ARM/embedded-5-bran
