ARM GAS  C:\Users\ANDREY~1\AppData\Local\Temp\ccKJ0UK5.s 			page 1


   1              		.syntax unified
   2              		.cpu cortex-m3
   3              		.fpu softvfp
   4              		.eabi_attribute 20, 1
   5              		.eabi_attribute 21, 1
   6              		.eabi_attribute 23, 3
   7              		.eabi_attribute 24, 1
   8              		.eabi_attribute 25, 1
   9              		.eabi_attribute 26, 1
  10              		.eabi_attribute 30, 1
  11              		.eabi_attribute 34, 1
  12              		.eabi_attribute 18, 4
  13              		.thumb
  14              		.syntax unified
  15              		.file	"can_manga.c"
  16              		.text
  17              	.Ltext0:
  18              		.cfi_sections	.debug_frame
  19              		.section	.text.getCapacitorVoltage,"ax",%progbits
  20              		.align	2
  21              		.global	getCapacitorVoltage
  22              		.thumb
  23              		.thumb_func
  24              		.type	getCapacitorVoltage, %function
  25              	getCapacitorVoltage:
  26              	.LFB64:
  27              		.file 1 "can_manga.c"
   1:can_manga.c   **** /* ========================================
   2:can_manga.c   ****  * Can API for FRUCD
   3:can_manga.c   ****  * Schuyler Alschuler 2016 - 2017
   4:can_manga.c   ****  * ========================================
   5:can_manga.c   **** */
   6:can_manga.c   **** 
   7:can_manga.c   **** /*******************************************
   8:can_manga.c   ****  * Used to interface dashboard with CAN bus
   9:can_manga.c   ****  * some functinality can be found in CAN_TX_RX_func.c
  10:can_manga.c   ****  * which is a generated source file
  11:can_manga.c   ****  * see the can component of the top design for specific mailboxes
  12:can_manga.c   ****  ******************************************/
  13:can_manga.c   **** 
  14:can_manga.c   **** #include "CAN.h"
  15:can_manga.c   **** #include "can_manga.h"
  16:can_manga.c   **** #include "cytypes.h"
  17:can_manga.c   **** //#include "data.h"
  18:can_manga.c   **** #include "frucd_display.h"
  19:can_manga.c   **** // indicator LEDs
  20:can_manga.c   **** #include "BMS_LED.h"
  21:can_manga.c   **** #include "IMD_LED.h"
  22:can_manga.c   **** 
  23:can_manga.c   **** extern volatile vcu_state state;
  24:can_manga.c   **** extern volatile uint32_t pedalOK;
  25:can_manga.c   **** extern volatile double THROTTLE_MULTIPLIER;
  26:can_manga.c   **** extern const double THROTTLE_MAP[8];
  27:can_manga.c   **** extern volatile uint8_t PACK_TEMP;
  28:can_manga.c   **** extern volatile uint8_t BSPD_CATCH;
  29:can_manga.c   **** extern volatile uint16_t CURRENT;
  30:can_manga.c   **** //extern volatile int ERROR_NODE;
ARM GAS  C:\Users\ANDREY~1\AppData\Local\Temp\ccKJ0UK5.s 			page 2


  31:can_manga.c   **** //extern volatile int ERROR_IDX;
  32:can_manga.c   **** extern volatile uint8_t soc;
  33:can_manga.c   **** extern volatile uint32_t voltage;
  34:can_manga.c   **** extern volatile BMS_STATUS bms_status;
  35:can_manga.c   **** extern volatile uint8_t shutdown_flags;
  36:can_manga.c   **** 
  37:can_manga.c   **** // info from MC and motor
  38:can_manga.c   **** extern volatile uint16_t mc_temp;
  39:can_manga.c   **** extern volatile uint16_t motor_temp;
  40:can_manga.c   **** 
  41:can_manga.c   **** volatile uint8_t CAPACITOR_VOLT = 0;
  42:can_manga.c   **** volatile uint8_t CURTIS_FAULT_CHECK = 0;
  43:can_manga.c   **** volatile uint8_t CURTIS_HEART_BEAT_CHECK = 0;
  44:can_manga.c   **** volatile uint8_t ACK_RX = 0;
  45:can_manga.c   **** volatile uint8_t ERROR_TOLERANCE = 0;
  46:can_manga.c   **** volatile uint8_t ABS_MOTOR_RPM = 0;
  47:can_manga.c   **** volatile uint8_t THROTTLE_HIGH = 0;
  48:can_manga.c   **** volatile uint8_t THROTTLE_LOW = 0;
  49:can_manga.c   **** 
  50:can_manga.c   **** //volatile uint8_t ESTOP; //Tehya test
  51:can_manga.c   **** 
  52:can_manga.c   **** 
  53:can_manga.c   **** uint8 current_bytes[4] = {0};
  54:can_manga.c   **** 
  55:can_manga.c   **** // returns voltage of capacitor from motor controller
  56:can_manga.c   **** uint8_t getCapacitorVoltage()
  57:can_manga.c   **** {
  28              		.loc 1 57 0
  29              		.cfi_startproc
  30              		@ args = 0, pretend = 0, frame = 0
  31              		@ frame_needed = 0, uses_anonymous_args = 0
  32              		@ link register save eliminated.
  58:can_manga.c   ****     return CAPACITOR_VOLT;
  33              		.loc 1 58 0
  34 0000 014B     		ldr	r3, .L2
  35 0002 1878     		ldrb	r0, [r3]	@ zero_extendqisi2
  59:can_manga.c   **** }
  36              		.loc 1 59 0
  37 0004 7047     		bx	lr
  38              	.L3:
  39 0006 00BF     		.align	2
  40              	.L2:
  41 0008 00000000 		.word	.LANCHOR0
  42              		.cfi_endproc
  43              	.LFE64:
  44              		.size	getCapacitorVoltage, .-getCapacitorVoltage
  45              		.section	.text.getCurtisFaultCheck,"ax",%progbits
  46              		.align	2
  47              		.global	getCurtisFaultCheck
  48              		.thumb
  49              		.thumb_func
  50              		.type	getCurtisFaultCheck, %function
  51              	getCurtisFaultCheck:
  52              	.LFB65:
  60:can_manga.c   **** 
  61:can_manga.c   **** // returns true if there is a fault in motor controller
  62:can_manga.c   **** uint8_t getCurtisFaultCheck()
ARM GAS  C:\Users\ANDREY~1\AppData\Local\Temp\ccKJ0UK5.s 			page 3


  63:can_manga.c   **** {
  53              		.loc 1 63 0
  54              		.cfi_startproc
  55              		@ args = 0, pretend = 0, frame = 0
  56              		@ frame_needed = 0, uses_anonymous_args = 0
  57              		@ link register save eliminated.
  64:can_manga.c   ****     return CURTIS_FAULT_CHECK;
  58              		.loc 1 64 0
  59 0000 014B     		ldr	r3, .L5
  60 0002 5878     		ldrb	r0, [r3, #1]	@ zero_extendqisi2
  65:can_manga.c   **** }
  61              		.loc 1 65 0
  62 0004 7047     		bx	lr
  63              	.L6:
  64 0006 00BF     		.align	2
  65              	.L5:
  66 0008 00000000 		.word	.LANCHOR0
  67              		.cfi_endproc
  68              	.LFE65:
  69              		.size	getCurtisFaultCheck, .-getCurtisFaultCheck
  70              		.section	.text.getCurtisHeartBeatCheck,"ax",%progbits
  71              		.align	2
  72              		.global	getCurtisHeartBeatCheck
  73              		.thumb
  74              		.thumb_func
  75              		.type	getCurtisHeartBeatCheck, %function
  76              	getCurtisHeartBeatCheck:
  77              	.LFB66:
  66:can_manga.c   **** 
  67:can_manga.c   **** // returns true if motor controller node is still active
  68:can_manga.c   **** // if node is in active check the fault code using 1314
  69:can_manga.c   **** uint8_t getCurtisHeartBeatCheck()
  70:can_manga.c   **** {
  78              		.loc 1 70 0
  79              		.cfi_startproc
  80              		@ args = 0, pretend = 0, frame = 0
  81              		@ frame_needed = 0, uses_anonymous_args = 0
  82              		@ link register save eliminated.
  71:can_manga.c   ****     return CURTIS_HEART_BEAT_CHECK;
  83              		.loc 1 71 0
  84 0000 014B     		ldr	r3, .L8
  85 0002 9878     		ldrb	r0, [r3, #2]	@ zero_extendqisi2
  72:can_manga.c   **** }
  86              		.loc 1 72 0
  87 0004 7047     		bx	lr
  88              	.L9:
  89 0006 00BF     		.align	2
  90              	.L8:
  91 0008 00000000 		.word	.LANCHOR0
  92              		.cfi_endproc
  93              	.LFE66:
  94              		.size	getCurtisHeartBeatCheck, .-getCurtisHeartBeatCheck
  95              		.section	.text.getAckRx,"ax",%progbits
  96              		.align	2
  97              		.global	getAckRx
  98              		.thumb
  99              		.thumb_func
ARM GAS  C:\Users\ANDREY~1\AppData\Local\Temp\ccKJ0UK5.s 			page 4


 100              		.type	getAckRx, %function
 101              	getAckRx:
 102              	.LFB67:
  73:can_manga.c   **** 
  74:can_manga.c   **** // returns 1 always... not sure whats up in the motor controller
  75:can_manga.c   **** uint8_t getAckRx()
  76:can_manga.c   **** {
 103              		.loc 1 76 0
 104              		.cfi_startproc
 105              		@ args = 0, pretend = 0, frame = 0
 106              		@ frame_needed = 0, uses_anonymous_args = 0
 107              		@ link register save eliminated.
  77:can_manga.c   ****     return ACK_RX;
 108              		.loc 1 77 0
 109 0000 014B     		ldr	r3, .L11
 110 0002 D878     		ldrb	r0, [r3, #3]	@ zero_extendqisi2
  78:can_manga.c   **** }
 111              		.loc 1 78 0
 112 0004 7047     		bx	lr
 113              	.L12:
 114 0006 00BF     		.align	2
 115              	.L11:
 116 0008 00000000 		.word	.LANCHOR0
 117              		.cfi_endproc
 118              	.LFE67:
 119              		.size	getAckRx, .-getAckRx
 120              		.section	.text.getErrorTolerance,"ax",%progbits
 121              		.align	2
 122              		.global	getErrorTolerance
 123              		.thumb
 124              		.thumb_func
 125              		.type	getErrorTolerance, %function
 126              	getErrorTolerance:
 127              	.LFB68:
  79:can_manga.c   **** 
  80:can_manga.c   **** // true if break depressed more than 10%
  81:can_manga.c   **** // this value typically used for drive request
  82:can_manga.c   **** uint8_t getErrorTolerance()
  83:can_manga.c   **** {
 128              		.loc 1 83 0
 129              		.cfi_startproc
 130              		@ args = 0, pretend = 0, frame = 0
 131              		@ frame_needed = 0, uses_anonymous_args = 0
 132              		@ link register save eliminated.
  84:can_manga.c   ****     return ERROR_TOLERANCE;
 133              		.loc 1 84 0
 134 0000 014B     		ldr	r3, .L14
 135 0002 1879     		ldrb	r0, [r3, #4]	@ zero_extendqisi2
  85:can_manga.c   **** }
 136              		.loc 1 85 0
 137 0004 7047     		bx	lr
 138              	.L15:
 139 0006 00BF     		.align	2
 140              	.L14:
 141 0008 00000000 		.word	.LANCHOR0
 142              		.cfi_endproc
 143              	.LFE68:
ARM GAS  C:\Users\ANDREY~1\AppData\Local\Temp\ccKJ0UK5.s 			page 5


 144              		.size	getErrorTolerance, .-getErrorTolerance
 145              		.section	.text.getABSMotorRPM,"ax",%progbits
 146              		.align	2
 147              		.global	getABSMotorRPM
 148              		.thumb
 149              		.thumb_func
 150              		.type	getABSMotorRPM, %function
 151              	getABSMotorRPM:
 152              	.LFB69:
  86:can_manga.c   **** 
  87:can_manga.c   **** // from motor controller
  88:can_manga.c   **** // look this one up in 1239E manual, im not super sure
  89:can_manga.c   **** uint8_t getABSMotorRPM()
  90:can_manga.c   **** {
 153              		.loc 1 90 0
 154              		.cfi_startproc
 155              		@ args = 0, pretend = 0, frame = 0
 156              		@ frame_needed = 0, uses_anonymous_args = 0
 157              		@ link register save eliminated.
  91:can_manga.c   ****     return ABS_MOTOR_RPM;
 158              		.loc 1 91 0
 159 0000 014B     		ldr	r3, .L17
 160 0002 5879     		ldrb	r0, [r3, #5]	@ zero_extendqisi2
  92:can_manga.c   **** }
 161              		.loc 1 92 0
 162 0004 7047     		bx	lr
 163              	.L18:
 164 0006 00BF     		.align	2
 165              	.L17:
 166 0008 00000000 		.word	.LANCHOR0
 167              		.cfi_endproc
 168              	.LFE69:
 169              		.size	getABSMotorRPM, .-getABSMotorRPM
 170              		.section	.text.getEStop,"ax",%progbits
 171              		.align	2
 172              		.global	getEStop
 173              		.thumb
 174              		.thumb_func
 175              		.type	getEStop, %function
 176              	getEStop:
 177              	.LFB70:
  93:can_manga.c   **** 
  94:can_manga.c   **** //Tehya test
  95:can_manga.c   **** //will be a 1 if the estop was pressed (I'm making it a special case because I want to test rn)
  96:can_manga.c   **** uint8_t getEStop()
  97:can_manga.c   **** {
 178              		.loc 1 97 0
 179              		.cfi_startproc
 180              		@ args = 0, pretend = 0, frame = 0
 181              		@ frame_needed = 0, uses_anonymous_args = 0
 182              		@ link register save eliminated.
  98:can_manga.c   ****     return ESTOP;
  99:can_manga.c   **** }
 183              		.loc 1 99 0
 184 0000 0720     		movs	r0, #7
 185 0002 7047     		bx	lr
 186              		.cfi_endproc
ARM GAS  C:\Users\ANDREY~1\AppData\Local\Temp\ccKJ0UK5.s 			page 6


 187              	.LFE70:
 188              		.size	getEStop, .-getEStop
 189              		.section	.text.can_receive,"ax",%progbits
 190              		.align	2
 191              		.global	can_receive
 192              		.thumb
 193              		.thumb_func
 194              		.type	can_receive, %function
 195              	can_receive:
 196              	.LFB71:
 100:can_manga.c   **** 
 101:can_manga.c   **** // called from CAN_TX_RX_func.c in the generic RX func
 102:can_manga.c   **** // tldr: part of an interrupt service routine
 103:can_manga.c   **** void can_receive(uint8_t *msg, int ID)
 104:can_manga.c   **** {
 197              		.loc 1 104 0
 198              		.cfi_startproc
 199              		@ args = 0, pretend = 0, frame = 0
 200              		@ frame_needed = 0, uses_anonymous_args = 0
 201              	.LVL0:
 202 0000 38B5     		push	{r3, r4, r5, lr}
 203              		.cfi_def_cfa_offset 16
 204              		.cfi_offset 3, -16
 205              		.cfi_offset 4, -12
 206              		.cfi_offset 5, -8
 207              		.cfi_offset 14, -4
 208 0002 0546     		mov	r5, r0
 209 0004 0C46     		mov	r4, r1
 105:can_manga.c   ****     uint8 InterruptState = CyEnterCriticalSection();
 210              		.loc 1 105 0
 211 0006 FFF7FEFF 		bl	CyEnterCriticalSection
 212              	.LVL1:
 106:can_manga.c   ****     
 107:can_manga.c   ****     switch (ID) 
 213              		.loc 1 107 0
 214 000a B4F5627F 		cmp	r4, #904
 215 000e 4AD0     		beq	.L22
 216 0010 0DDC     		bgt	.L23
 217 0012 C02C     		cmp	r4, #192
 218 0014 1ED0     		beq	.L24
 219 0016 02DC     		bgt	.L25
 220 0018 A62C     		cmp	r4, #166
 221 001a 3CD0     		beq	.L26
 222 001c 73E0     		b	.L21
 223              	.L25:
 224 001e B4F5607F 		cmp	r4, #896
 225 0022 53D0     		beq	.L27
 226 0024 40F28733 		movw	r3, #903
 227 0028 9C42     		cmp	r4, r3
 228 002a 60D0     		beq	.L28
 229 002c 6BE0     		b	.L21
 230              	.L23:
 231 002e 40F26653 		movw	r3, #1382
 232 0032 9C42     		cmp	r4, r3
 233 0034 12D0     		beq	.L29
 234 0036 04DC     		bgt	.L30
 235 0038 40F28933 		movw	r3, #905
ARM GAS  C:\Users\ANDREY~1\AppData\Local\Temp\ccKJ0UK5.s 			page 7


 236 003c 9C42     		cmp	r4, r3
 237 003e 52D0     		beq	.L31
 238 0040 61E0     		b	.L21
 239              	.L30:
 240 0042 40F26663 		movw	r3, #1638
 241 0046 9C42     		cmp	r4, r3
 242 0048 18D0     		beq	.L32
 243 004a 40F22673 		movw	r3, #1830
 244 004e 9C42     		cmp	r4, r3
 245 0050 25D0     		beq	.L33
 246 0052 58E0     		b	.L21
 247              	.L24:
 108:can_manga.c   ****     {
 109:can_manga.c   ****         case VEHICLE_STATE:
 110:can_manga.c   ****             state = msg[CAN_DATA_BYTE_1];
 248              		.loc 1 110 0
 249 0054 EA78     		ldrb	r2, [r5, #3]	@ zero_extendqisi2
 250 0056 2D4B     		ldr	r3, .L35
 251 0058 1A70     		strb	r2, [r3]
 111:can_manga.c   ****             break;
 252              		.loc 1 111 0
 253 005a 54E0     		b	.L21
 254              	.L29:
 112:can_manga.c   ****         case MC_PDO_SEND:
 113:can_manga.c   ****             CAPACITOR_VOLT = msg[CAN_DATA_BYTE_1];
 255              		.loc 1 113 0
 256 005c EA78     		ldrb	r2, [r5, #3]	@ zero_extendqisi2
 257 005e 2C4B     		ldr	r3, .L35+4
 258 0060 1A70     		strb	r2, [r3]
 114:can_manga.c   ****             ABS_MOTOR_RPM = msg[CAN_DATA_BYTE_3];
 259              		.loc 1 114 0
 260 0062 6A78     		ldrb	r2, [r5, #1]	@ zero_extendqisi2
 261 0064 5A71     		strb	r2, [r3, #5]
 115:can_manga.c   ****             mc_temp = msg[CAN_DATA_BYTE_7] << 8;
 262              		.loc 1 115 0
 263 0066 6B79     		ldrb	r3, [r5, #5]	@ zero_extendqisi2
 264 0068 1B02     		lsls	r3, r3, #8
 265 006a 2A49     		ldr	r1, .L35+8
 266 006c 0B80     		strh	r3, [r1]	@ movhi
 116:can_manga.c   ****             mc_temp += msg[CAN_DATA_BYTE_8];
 267              		.loc 1 116 0
 268 006e 2A79     		ldrb	r2, [r5, #4]	@ zero_extendqisi2
 269 0070 0B88     		ldrh	r3, [r1]
 270 0072 9BB2     		uxth	r3, r3
 271 0074 1344     		add	r3, r3, r2
 272 0076 9BB2     		uxth	r3, r3
 273 0078 0B80     		strh	r3, [r1]	@ movhi
 117:can_manga.c   ****             break;
 274              		.loc 1 117 0
 275 007a 44E0     		b	.L21
 276              	.L32:
 118:can_manga.c   ****         case MC_PDO_ACK:
 119:can_manga.c   ****             ACK_RX = msg[CAN_DATA_BYTE_1];
 277              		.loc 1 119 0
 278 007c EA78     		ldrb	r2, [r5, #3]	@ zero_extendqisi2
 279 007e 244B     		ldr	r3, .L35+4
 280 0080 DA70     		strb	r2, [r3, #3]
ARM GAS  C:\Users\ANDREY~1\AppData\Local\Temp\ccKJ0UK5.s 			page 8


 120:can_manga.c   ****             motor_temp = msg[CAN_DATA_BYTE_5] << 8;
 281              		.loc 1 120 0
 282 0082 EA79     		ldrb	r2, [r5, #7]	@ zero_extendqisi2
 283 0084 1202     		lsls	r2, r2, #8
 284 0086 244B     		ldr	r3, .L35+12
 285 0088 1A80     		strh	r2, [r3]	@ movhi
 121:can_manga.c   ****             motor_temp |= msg[CAN_DATA_BYTE_6];
 286              		.loc 1 121 0
 287 008a A979     		ldrb	r1, [r5, #6]	@ zero_extendqisi2
 288 008c 1A88     		ldrh	r2, [r3]
 289 008e 92B2     		uxth	r2, r2
 290 0090 0A43     		orrs	r2, r2, r1
 291 0092 1A80     		strh	r2, [r3]	@ movhi
 122:can_manga.c   ****             break;
 292              		.loc 1 122 0
 293 0094 37E0     		b	.L21
 294              	.L26:
 123:can_manga.c   ****         case 0xA6:  // errors sent from MC node
 124:can_manga.c   ****             CURTIS_FAULT_CHECK = 0x1;
 295              		.loc 1 124 0
 296 0096 0122     		movs	r2, #1
 297 0098 1D4B     		ldr	r3, .L35+4
 298 009a 5A70     		strb	r2, [r3, #1]
 125:can_manga.c   ****             break;
 299              		.loc 1 125 0
 300 009c 33E0     		b	.L21
 301              	.L33:
 126:can_manga.c   ****         case 0x726:     // from motor controller to confirm that node is still active
 127:can_manga.c   ****             CURTIS_HEART_BEAT_CHECK = 0x1;
 302              		.loc 1 127 0
 303 009e 0122     		movs	r2, #1
 304 00a0 1B4B     		ldr	r3, .L35+4
 305 00a2 9A70     		strb	r2, [r3, #2]
 128:can_manga.c   ****             break;
 306              		.loc 1 128 0
 307 00a4 2FE0     		b	.L21
 308              	.L22:
 129:can_manga.c   ****         case BMS_VOLTAGES:
 130:can_manga.c   ****             voltage = msg[CAN_DATA_BYTE_5] << 24;
 309              		.loc 1 130 0
 310 00a6 EA79     		ldrb	r2, [r5, #7]	@ zero_extendqisi2
 311 00a8 1206     		lsls	r2, r2, #24
 312 00aa 1C4B     		ldr	r3, .L35+16
 313 00ac 1A60     		str	r2, [r3]
 131:can_manga.c   ****             voltage |= msg[CAN_DATA_BYTE_6] << 16;
 314              		.loc 1 131 0
 315 00ae A979     		ldrb	r1, [r5, #6]	@ zero_extendqisi2
 316 00b0 1A68     		ldr	r2, [r3]
 317 00b2 42EA0142 		orr	r2, r2, r1, lsl #16
 318 00b6 1A60     		str	r2, [r3]
 132:can_manga.c   ****             voltage |= msg[CAN_DATA_BYTE_7] << 8;
 319              		.loc 1 132 0
 320 00b8 6979     		ldrb	r1, [r5, #5]	@ zero_extendqisi2
 321 00ba 1A68     		ldr	r2, [r3]
 322 00bc 42EA0122 		orr	r2, r2, r1, lsl #8
 323 00c0 1A60     		str	r2, [r3]
 133:can_manga.c   ****             voltage |= msg[CAN_DATA_BYTE_8];
ARM GAS  C:\Users\ANDREY~1\AppData\Local\Temp\ccKJ0UK5.s 			page 9


 324              		.loc 1 133 0
 325 00c2 2979     		ldrb	r1, [r5, #4]	@ zero_extendqisi2
 326 00c4 1A68     		ldr	r2, [r3]
 327 00c6 0A43     		orrs	r2, r2, r1
 328 00c8 1A60     		str	r2, [r3]
 134:can_manga.c   ****             break;
 329              		.loc 1 134 0
 330 00ca 1CE0     		b	.L21
 331              	.L27:
 135:can_manga.c   ****         case BMS_STATUS_MSG:
 136:can_manga.c   ****             soc = msg[CAN_DATA_BYTE_2];
 332              		.loc 1 136 0
 333 00cc AA78     		ldrb	r2, [r5, #2]	@ zero_extendqisi2
 334 00ce 144B     		ldr	r3, .L35+20
 335 00d0 1A70     		strb	r2, [r3]
 137:can_manga.c   ****             bms_status = msg[CAN_DATA_BYTE_3] << 8;    // bms error flags
 336              		.loc 1 137 0
 337 00d2 6A78     		ldrb	r2, [r5, #1]	@ zero_extendqisi2
 338 00d4 1202     		lsls	r2, r2, #8
 339 00d6 134B     		ldr	r3, .L35+24
 340 00d8 1A80     		strh	r2, [r3]	@ movhi
 138:can_manga.c   ****             bms_status |= msg[CAN_DATA_BYTE_4];        // bms error flags
 341              		.loc 1 138 0
 342 00da 2978     		ldrb	r1, [r5]	@ zero_extendqisi2
 343 00dc 1A88     		ldrh	r2, [r3]
 344 00de 92B2     		uxth	r2, r2
 345 00e0 0A43     		orrs	r2, r2, r1
 346 00e2 1A80     		strh	r2, [r3]	@ movhi
 139:can_manga.c   ****             break;
 347              		.loc 1 139 0
 348 00e4 0FE0     		b	.L21
 349              	.L31:
 140:can_manga.c   ****         case BMS_TEMPERATURES:
 141:can_manga.c   ****             PACK_TEMP = msg[CAN_DATA_BYTE_8];
 350              		.loc 1 141 0
 351 00e6 2A79     		ldrb	r2, [r5, #4]	@ zero_extendqisi2
 352 00e8 0F4B     		ldr	r3, .L35+28
 353 00ea 1A70     		strb	r2, [r3]
 142:can_manga.c   ****             break;
 354              		.loc 1 142 0
 355 00ec 0BE0     		b	.L21
 356              	.L28:
 143:can_manga.c   ****         case PEI_CURRENT:
 144:can_manga.c   ****             CURRENT = msg[CAN_DATA_BYTE_1] << 8;
 357              		.loc 1 144 0
 358 00ee EA78     		ldrb	r2, [r5, #3]	@ zero_extendqisi2
 359 00f0 1202     		lsls	r2, r2, #8
 360 00f2 0E4B     		ldr	r3, .L35+32
 361 00f4 1A80     		strh	r2, [r3]	@ movhi
 145:can_manga.c   ****             CURRENT |= msg[CAN_DATA_BYTE_2];
 362              		.loc 1 145 0
 363 00f6 A978     		ldrb	r1, [r5, #2]	@ zero_extendqisi2
 364 00f8 1A88     		ldrh	r2, [r3]
 365 00fa 92B2     		uxth	r2, r2
 366 00fc 0A43     		orrs	r2, r2, r1
 367 00fe 1A80     		strh	r2, [r3]	@ movhi
 146:can_manga.c   ****             shutdown_flags = msg[CAN_DATA_BYTE_3];
ARM GAS  C:\Users\ANDREY~1\AppData\Local\Temp\ccKJ0UK5.s 			page 10


 368              		.loc 1 146 0
 369 0100 6A78     		ldrb	r2, [r5, #1]	@ zero_extendqisi2
 370 0102 0B4B     		ldr	r3, .L35+36
 371 0104 1A70     		strb	r2, [r3]
 372              	.L21:
 147:can_manga.c   ****             break;
 148:can_manga.c   ****         case 0x366: //Tehya test
 149:can_manga.c   ****             //ESTOP = msg[CAN_DATA_BYTE_1];
 150:can_manga.c   ****             break;
 151:can_manga.c   ****     }
 152:can_manga.c   ****     
 153:can_manga.c   ****     CyExitCriticalSection(InterruptState);
 373              		.loc 1 153 0
 374 0106 FFF7FEFF 		bl	CyExitCriticalSection
 375              	.LVL2:
 376 010a 38BD     		pop	{r3, r4, r5, pc}
 377              	.LVL3:
 378              	.L36:
 379              		.align	2
 380              	.L35:
 381 010c 00000000 		.word	state
 382 0110 00000000 		.word	.LANCHOR0
 383 0114 00000000 		.word	mc_temp
 384 0118 00000000 		.word	motor_temp
 385 011c 00000000 		.word	voltage
 386 0120 00000000 		.word	soc
 387 0124 00000000 		.word	bms_status
 388 0128 00000000 		.word	PACK_TEMP
 389 012c 00000000 		.word	CURRENT
 390 0130 00000000 		.word	shutdown_flags
 391              		.cfi_endproc
 392              	.LFE71:
 393              		.size	can_receive, .-can_receive
 394              		.section	.text.can_test_send,"ax",%progbits
 395              		.align	2
 396              		.global	can_test_send
 397              		.thumb
 398              		.thumb_func
 399              		.type	can_test_send, %function
 400              	can_test_send:
 401              	.LFB72:
 154:can_manga.c   **** }
 155:can_manga.c   **** 
 156:can_manga.c   **** void can_test_send()
 157:can_manga.c   **** {
 402              		.loc 1 157 0
 403              		.cfi_startproc
 404              		@ args = 0, pretend = 0, frame = 16
 405              		@ frame_needed = 0, uses_anonymous_args = 0
 406 0000 00B5     		push	{lr}
 407              		.cfi_def_cfa_offset 4
 408              		.cfi_offset 14, -4
 409 0002 85B0     		sub	sp, sp, #20
 410              		.cfi_def_cfa_offset 24
 158:can_manga.c   ****     //CAN_1_DATA_BYTES_MSG msg;
 159:can_manga.c   ****     CAN_TX_MSG HeartB;
 160:can_manga.c   ****     
ARM GAS  C:\Users\ANDREY~1\AppData\Local\Temp\ccKJ0UK5.s 			page 11


 161:can_manga.c   ****     HeartB.id = 0x300;
 411              		.loc 1 161 0
 412 0004 4FF44073 		mov	r3, #768
 413 0008 0193     		str	r3, [sp, #4]
 162:can_manga.c   ****     HeartB.rtr = 0;
 414              		.loc 1 162 0
 415 000a 0022     		movs	r2, #0
 416 000c 8DF80820 		strb	r2, [sp, #8]
 163:can_manga.c   ****     HeartB.ide = 0;
 417              		.loc 1 163 0
 418 0010 8DF80920 		strb	r2, [sp, #9]
 164:can_manga.c   ****     HeartB.dlc = 1;
 419              		.loc 1 164 0
 420 0014 0123     		movs	r3, #1
 421 0016 8DF80A30 		strb	r3, [sp, #10]
 165:can_manga.c   ****     
 166:can_manga.c   ****     HeartB.irq = 0;
 422              		.loc 1 166 0
 423 001a 8DF80B20 		strb	r2, [sp, #11]
 167:can_manga.c   ****     
 168:can_manga.c   ****     HeartB.msg->byte[0] = (uint8) 1;
 424              		.loc 1 168 0
 425 001e 039A     		ldr	r2, [sp, #12]
 426 0020 1370     		strb	r3, [r2]
 169:can_manga.c   ****     HeartB.msg->byte[1] = (uint8) 1;
 427              		.loc 1 169 0
 428 0022 039A     		ldr	r2, [sp, #12]
 429 0024 5370     		strb	r3, [r2, #1]
 170:can_manga.c   ****     HeartB.msg->byte[2] = (uint8) 1;
 430              		.loc 1 170 0
 431 0026 039A     		ldr	r2, [sp, #12]
 432 0028 9370     		strb	r3, [r2, #2]
 171:can_manga.c   ****     HeartB.msg->byte[3] = (uint8) 1;
 433              		.loc 1 171 0
 434 002a 039A     		ldr	r2, [sp, #12]
 435 002c D370     		strb	r3, [r2, #3]
 172:can_manga.c   ****     HeartB.msg->byte[4] = (uint8) 1;
 436              		.loc 1 172 0
 437 002e 039A     		ldr	r2, [sp, #12]
 438 0030 1371     		strb	r3, [r2, #4]
 173:can_manga.c   ****     HeartB.msg->byte[5] = (uint8) 1;
 439              		.loc 1 173 0
 440 0032 039A     		ldr	r2, [sp, #12]
 441 0034 5371     		strb	r3, [r2, #5]
 174:can_manga.c   ****     HeartB.msg->byte[6] = (uint8) 1;
 442              		.loc 1 174 0
 443 0036 039A     		ldr	r2, [sp, #12]
 444 0038 9371     		strb	r3, [r2, #6]
 175:can_manga.c   ****     HeartB.msg->byte[7] = (uint8) 1;
 445              		.loc 1 175 0
 446 003a 039A     		ldr	r2, [sp, #12]
 447 003c D371     		strb	r3, [r2, #7]
 176:can_manga.c   ****     
 177:can_manga.c   ****     CAN_SendMsg(&HeartB);
 448              		.loc 1 177 0
 449 003e 01A8     		add	r0, sp, #4
 450 0040 FFF7FEFF 		bl	CAN_SendMsg
ARM GAS  C:\Users\ANDREY~1\AppData\Local\Temp\ccKJ0UK5.s 			page 12


 451              	.LVL4:
 178:can_manga.c   **** }
 452              		.loc 1 178 0
 453 0044 05B0     		add	sp, sp, #20
 454              		.cfi_def_cfa_offset 4
 455              		@ sp needed
 456 0046 5DF804FB 		ldr	pc, [sp], #4
 457              		.cfi_endproc
 458              	.LFE72:
 459              		.size	can_test_send, .-can_test_send
 460 004a 00BF     		.section	.text.can_send,"ax",%progbits
 461              		.align	2
 462              		.global	can_send
 463              		.thumb
 464              		.thumb_func
 465              		.type	can_send, %function
 466              	can_send:
 467              	.LFB73:
 179:can_manga.c   **** 
 180:can_manga.c   **** void can_send(uint8_t data[8], uint32_t ID)
 181:can_manga.c   **** {
 468              		.loc 1 181 0
 469              		.cfi_startproc
 470              		@ args = 0, pretend = 0, frame = 24
 471              		@ frame_needed = 0, uses_anonymous_args = 0
 472              	.LVL5:
 473 0000 00B5     		push	{lr}
 474              		.cfi_def_cfa_offset 4
 475              		.cfi_offset 14, -4
 476 0002 87B0     		sub	sp, sp, #28
 477              		.cfi_def_cfa_offset 32
 182:can_manga.c   ****     uint8_t i;
 183:can_manga.c   **** 	CAN_TX_MSG message;
 184:can_manga.c   **** 	CAN_DATA_BYTES_MSG payload;
 185:can_manga.c   **** 	message.id = ID; 
 478              		.loc 1 185 0
 479 0004 0391     		str	r1, [sp, #12]
 186:can_manga.c   **** 	message.rtr = 0;
 480              		.loc 1 186 0
 481 0006 0023     		movs	r3, #0
 482 0008 8DF81030 		strb	r3, [sp, #16]
 187:can_manga.c   **** 	message.ide = 0;
 483              		.loc 1 187 0
 484 000c 8DF81130 		strb	r3, [sp, #17]
 188:can_manga.c   **** 	message.dlc = 0x08;
 485              		.loc 1 188 0
 486 0010 0822     		movs	r2, #8
 487 0012 8DF81220 		strb	r2, [sp, #18]
 189:can_manga.c   **** 	message.irq = 0;
 488              		.loc 1 189 0
 489 0016 8DF81330 		strb	r3, [sp, #19]
 190:can_manga.c   **** 	message.msg = &payload;
 490              		.loc 1 190 0
 491 001a 01AA     		add	r2, sp, #4
 492 001c 0592     		str	r2, [sp, #20]
 493              	.LVL6:
 191:can_manga.c   **** 	for(i=0;i<8;i++)
ARM GAS  C:\Users\ANDREY~1\AppData\Local\Temp\ccKJ0UK5.s 			page 13


 494              		.loc 1 191 0
 495 001e 06E0     		b	.L40
 496              	.LVL7:
 497              	.L41:
 192:can_manga.c   **** 		payload.byte[i] = data[i];
 498              		.loc 1 192 0 discriminator 3
 499 0020 C15C     		ldrb	r1, [r0, r3]	@ zero_extendqisi2
 500 0022 06AA     		add	r2, sp, #24
 501 0024 1A44     		add	r2, r2, r3
 502 0026 02F8141C 		strb	r1, [r2, #-20]
 191:can_manga.c   **** 	for(i=0;i<8;i++)
 503              		.loc 1 191 0 discriminator 3
 504 002a 0133     		adds	r3, r3, #1
 505              	.LVL8:
 506 002c DBB2     		uxtb	r3, r3
 507              	.LVL9:
 508              	.L40:
 191:can_manga.c   **** 	for(i=0;i<8;i++)
 509              		.loc 1 191 0 is_stmt 0 discriminator 1
 510 002e 072B     		cmp	r3, #7
 511 0030 F6D9     		bls	.L41
 193:can_manga.c   **** 	CAN_SendMsg(&message); 
 512              		.loc 1 193 0 is_stmt 1
 513 0032 03A8     		add	r0, sp, #12
 514              	.LVL10:
 515 0034 FFF7FEFF 		bl	CAN_SendMsg
 516              	.LVL11:
 194:can_manga.c   **** }
 517              		.loc 1 194 0
 518 0038 07B0     		add	sp, sp, #28
 519              		.cfi_def_cfa_offset 4
 520              		@ sp needed
 521 003a 5DF804FB 		ldr	pc, [sp], #4
 522              		.cfi_endproc
 523              	.LFE73:
 524              		.size	can_send, .-can_send
 525 003e 00BF     		.section	.text.can_send_switches,"ax",%progbits
 526              		.align	2
 527              		.global	can_send_switches
 528              		.thumb
 529              		.thumb_func
 530              		.type	can_send_switches, %function
 531              	can_send_switches:
 532              	.LFB74:
 195:can_manga.c   **** 
 196:can_manga.c   **** void can_send_switches(
 197:can_manga.c   ****     uint8_t sw_status)
 198:can_manga.c   **** {
 533              		.loc 1 198 0
 534              		.cfi_startproc
 535              		@ args = 0, pretend = 0, frame = 8
 536              		@ frame_needed = 0, uses_anonymous_args = 0
 537              	.LVL12:
 538 0000 00B5     		push	{lr}
 539              		.cfi_def_cfa_offset 4
 540              		.cfi_offset 14, -4
 541 0002 83B0     		sub	sp, sp, #12
ARM GAS  C:\Users\ANDREY~1\AppData\Local\Temp\ccKJ0UK5.s 			page 14


 542              		.cfi_def_cfa_offset 16
 199:can_manga.c   ****     //max and min voltage means the voltage of single cell
 200:can_manga.c   ****         uint8_t data[8];
 201:can_manga.c   ****         
 202:can_manga.c   ****         data[0] = sw_status;
 543              		.loc 1 202 0
 544 0004 8DF80000 		strb	r0, [sp]
 203:can_manga.c   ****         data[1] = 0;
 545              		.loc 1 203 0
 546 0008 0023     		movs	r3, #0
 547 000a 8DF80130 		strb	r3, [sp, #1]
 204:can_manga.c   ****         
 205:can_manga.c   ****         data[2] = 0;
 548              		.loc 1 205 0
 549 000e 8DF80230 		strb	r3, [sp, #2]
 206:can_manga.c   ****         data[3] = 0;
 550              		.loc 1 206 0
 551 0012 8DF80330 		strb	r3, [sp, #3]
 207:can_manga.c   ****         
 208:can_manga.c   ****         data[4] = 0;
 552              		.loc 1 208 0
 553 0016 8DF80430 		strb	r3, [sp, #4]
 209:can_manga.c   ****         data[5] = 0;
 554              		.loc 1 209 0
 555 001a 8DF80530 		strb	r3, [sp, #5]
 210:can_manga.c   ****         data[6] = 0;
 556              		.loc 1 210 0
 557 001e 8DF80630 		strb	r3, [sp, #6]
 211:can_manga.c   ****         data[7] = 0;
 558              		.loc 1 211 0
 559 0022 8DF80730 		strb	r3, [sp, #7]
 212:can_manga.c   **** 
 213:can_manga.c   ****         CyDelay(50); // Wtf is this shit?
 560              		.loc 1 213 0
 561 0026 3220     		movs	r0, #50
 562              	.LVL13:
 563 0028 FFF7FEFF 		bl	CyDelay
 564              	.LVL14:
 214:can_manga.c   ****         can_send(data, DRIVER_SWITCHES);
 565              		.loc 1 214 0
 566 002c D021     		movs	r1, #208
 567 002e 6846     		mov	r0, sp
 568 0030 FFF7FEFF 		bl	can_send
 569              	.LVL15:
 215:can_manga.c   **** 
 216:can_manga.c   ****         
 217:can_manga.c   **** } // can_send_status()
 570              		.loc 1 217 0
 571 0034 03B0     		add	sp, sp, #12
 572              		.cfi_def_cfa_offset 4
 573              		@ sp needed
 574 0036 5DF804FB 		ldr	pc, [sp], #4
 575              		.cfi_endproc
 576              	.LFE74:
 577              		.size	can_send_switches, .-can_send_switches
 578 003a 00BF     		.section	.text.can_send_cmd,"ax",%progbits
 579              		.align	2
ARM GAS  C:\Users\ANDREY~1\AppData\Local\Temp\ccKJ0UK5.s 			page 15


 580              		.global	can_send_cmd
 581              		.thumb
 582              		.thumb_func
 583              		.type	can_send_cmd, %function
 584              	can_send_cmd:
 585              	.LFB75:
 218:can_manga.c   **** 
 219:can_manga.c   **** void can_send_cmd(
 220:can_manga.c   ****     uint8_t SetInterlock,
 221:can_manga.c   ****     uint16_t VCL_Throttle_High,
 222:can_manga.c   ****     uint16_t VCL_Throttle_Low,
 223:can_manga.c   ****     uint8_t E_Stop_Check
 224:can_manga.c   **** )
 225:can_manga.c   **** {
 586              		.loc 1 225 0
 587              		.cfi_startproc
 588              		@ args = 0, pretend = 0, frame = 8
 589              		@ frame_needed = 0, uses_anonymous_args = 0
 590              	.LVL16:
 591 0000 00B5     		push	{lr}
 592              		.cfi_def_cfa_offset 4
 593              		.cfi_offset 14, -4
 594 0002 83B0     		sub	sp, sp, #12
 595              		.cfi_def_cfa_offset 16
 226:can_manga.c   ****     //max and min voltage means the voltage of single cell
 227:can_manga.c   ****         
 228:can_manga.c   ****         uint8_t data[8];
 229:can_manga.c   ****         
 230:can_manga.c   ****         data[0] = SetInterlock;
 596              		.loc 1 230 0
 597 0004 8DF80000 		strb	r0, [sp]
 231:can_manga.c   ****         
 232:can_manga.c   ****         data[1] = VCL_Throttle_High;
 598              		.loc 1 232 0
 599 0008 8DF80110 		strb	r1, [sp, #1]
 233:can_manga.c   ****         data[2] = VCL_Throttle_Low;
 600              		.loc 1 233 0
 601 000c 8DF80220 		strb	r2, [sp, #2]
 234:can_manga.c   ****         
 235:can_manga.c   ****         data[3] = 0;
 602              		.loc 1 235 0
 603 0010 0022     		movs	r2, #0
 604              	.LVL17:
 605 0012 8DF80320 		strb	r2, [sp, #3]
 236:can_manga.c   ****         data[4] = E_Stop_Check;
 606              		.loc 1 236 0
 607 0016 8DF80430 		strb	r3, [sp, #4]
 237:can_manga.c   ****         
 238:can_manga.c   ****         data[5] = 0;
 608              		.loc 1 238 0
 609 001a 8DF80520 		strb	r2, [sp, #5]
 239:can_manga.c   ****         data[6] = 0;
 610              		.loc 1 239 0
 611 001e 8DF80620 		strb	r2, [sp, #6]
 240:can_manga.c   ****         data[7] = 0;
 612              		.loc 1 240 0
 613 0022 8DF80720 		strb	r2, [sp, #7]
ARM GAS  C:\Users\ANDREY~1\AppData\Local\Temp\ccKJ0UK5.s 			page 16


 241:can_manga.c   **** 
 242:can_manga.c   ****         can_send(data, 0x766);
 614              		.loc 1 242 0
 615 0026 40F26671 		movw	r1, #1894
 616              	.LVL18:
 617 002a 6846     		mov	r0, sp
 618              	.LVL19:
 619 002c FFF7FEFF 		bl	can_send
 620              	.LVL20:
 243:can_manga.c   ****         CyDelay(1); // Wtf is this shit?
 621              		.loc 1 243 0
 622 0030 0120     		movs	r0, #1
 623 0032 FFF7FEFF 		bl	CyDelay
 624              	.LVL21:
 244:can_manga.c   **** 
 245:can_manga.c   **** } // can_send_cmd()
 625              		.loc 1 245 0
 626 0036 03B0     		add	sp, sp, #12
 627              		.cfi_def_cfa_offset 4
 628              		@ sp needed
 629 0038 5DF804FB 		ldr	pc, [sp], #4
 630              		.cfi_endproc
 631              	.LFE75:
 632              		.size	can_send_cmd, .-can_send_cmd
 633              		.section	.text.can_send_charge,"ax",%progbits
 634              		.align	2
 635              		.global	can_send_charge
 636              		.thumb
 637              		.thumb_func
 638              		.type	can_send_charge, %function
 639              	can_send_charge:
 640              	.LFB76:
 246:can_manga.c   **** 
 247:can_manga.c   **** void can_send_charge(uint8_t charge, uint8_t save_soc) {
 641              		.loc 1 247 0
 642              		.cfi_startproc
 643              		@ args = 0, pretend = 0, frame = 8
 644              		@ frame_needed = 0, uses_anonymous_args = 0
 645              	.LVL22:
 646 0000 00B5     		push	{lr}
 647              		.cfi_def_cfa_offset 4
 648              		.cfi_offset 14, -4
 649 0002 83B0     		sub	sp, sp, #12
 650              		.cfi_def_cfa_offset 16
 248:can_manga.c   ****     uint8_t data[8] = {0};
 651              		.loc 1 248 0
 652 0004 0023     		movs	r3, #0
 653 0006 0093     		str	r3, [sp]
 654 0008 0193     		str	r3, [sp, #4]
 249:can_manga.c   ****     data[0] = charge;
 655              		.loc 1 249 0
 656 000a 8DF80000 		strb	r0, [sp]
 250:can_manga.c   ****     data[1] = save_soc;
 657              		.loc 1 250 0
 658 000e 8DF80110 		strb	r1, [sp, #1]
 251:can_manga.c   ****     
 252:can_manga.c   ****     can_send(data, 0x389);
ARM GAS  C:\Users\ANDREY~1\AppData\Local\Temp\ccKJ0UK5.s 			page 17


 659              		.loc 1 252 0
 660 0012 40F28931 		movw	r1, #905
 661              	.LVL23:
 662 0016 6846     		mov	r0, sp
 663              	.LVL24:
 664 0018 FFF7FEFF 		bl	can_send
 665              	.LVL25:
 253:can_manga.c   **** }...
 666              		.loc 1 253 0
 667 001c 03B0     		add	sp, sp, #12
 668              		.cfi_def_cfa_offset 4
 669              		@ sp needed
 670 001e 5DF804FB 		ldr	pc, [sp], #4
 671              		.cfi_endproc
 672              	.LFE76:
 673              		.size	can_send_charge, .-can_send_charge
 674              		.global	current_bytes
 675              		.global	THROTTLE_LOW
 676              		.global	THROTTLE_HIGH
 677              		.global	ABS_MOTOR_RPM
 678              		.global	ERROR_TOLERANCE
 679              		.global	ACK_RX
 680              		.global	CURTIS_HEART_BEAT_CHECK
 681              		.global	CURTIS_FAULT_CHECK
 682              		.global	CAPACITOR_VOLT
 683              		.comm	last_motor_temp_color,4,4
 684              		.comm	last_mc_temp_color,4,4
 685              		.comm	last_glv_v_color,4,4
 686              		.comm	last_state_color,4,4
 687              		.comm	last_max_pack_temp_color,4,4
 688              		.comm	last_SOC_color,4,4
 689              		.comm	gui1963,120,4
 690 0022 00BF     		.bss
 691              		.align	2
 692              		.set	.LANCHOR0,. + 0
 693              		.type	CAPACITOR_VOLT, %object
 694              		.size	CAPACITOR_VOLT, 1
 695              	CAPACITOR_VOLT:
 696 0000 00       		.space	1
 697              		.type	CURTIS_FAULT_CHECK, %object
 698              		.size	CURTIS_FAULT_CHECK, 1
 699              	CURTIS_FAULT_CHECK:
 700 0001 00       		.space	1
 701              		.type	CURTIS_HEART_BEAT_CHECK, %object
 702              		.size	CURTIS_HEART_BEAT_CHECK, 1
 703              	CURTIS_HEART_BEAT_CHECK:
 704 0002 00       		.space	1
 705              		.type	ACK_RX, %object
 706              		.size	ACK_RX, 1
 707              	ACK_RX:
 708 0003 00       		.space	1
 709              		.type	ERROR_TOLERANCE, %object
 710              		.size	ERROR_TOLERANCE, 1
 711              	ERROR_TOLERANCE:
 712 0004 00       		.space	1
 713              		.type	ABS_MOTOR_RPM, %object
 714              		.size	ABS_MOTOR_RPM, 1
ARM GAS  C:\Users\ANDREY~1\AppData\Local\Temp\ccKJ0UK5.s 			page 18


 715              	ABS_MOTOR_RPM:
 716 0005 00       		.space	1
 717 0006 0000     		.space	2
 718              		.type	current_bytes, %object
 719              		.size	current_bytes, 4
 720              	current_bytes:
 721 0008 00000000 		.space	4
 722              		.type	THROTTLE_LOW, %object
 723              		.size	THROTTLE_LOW, 1
 724              	THROTTLE_LOW:
 725 000c 00       		.space	1
 726              		.type	THROTTLE_HIGH, %object
 727              		.size	THROTTLE_HIGH, 1
 728              	THROTTLE_HIGH:
 729 000d 00       		.space	1
 730              		.text
 731              	.Letext0:
 732              		.file 2 "c:\\program files (x86)\\cypress\\psoc creator\\4.4\\psoc creator\\import\\gnu\\arm\\5.4.
 733              		.file 3 "c:\\program files (x86)\\cypress\\psoc creator\\4.4\\psoc creator\\import\\gnu\\arm\\5.4.
 734              		.file 4 "Generated_Source\\PSoC5/cytypes.h"
 735              		.file 5 "Generated_Source\\PSoC5/CAN.h"
 736              		.file 6 "data.h"
 737              		.file 7 "can_manga.h"
 738              		.file 8 "ugui_config.h"
 739              		.file 9 "ugui.h"
 740              		.file 10 "Generated_Source\\PSoC5/core_cm3.h"
 741              		.file 11 "ugui_SSD1963.h"
 742              		.file 12 "frucd_display.h"
 743              		.file 13 "Generated_Source\\PSoC5/CyLib.h"