ARM GAS  C:\Users\ANDREY~1\AppData\Local\Temp\cccGypfV.s 			page 1


   1              		.syntax unified
   2              		.cpu cortex-m3
   3              		.fpu softvfp
   4              		.eabi_attribute 20, 1
   5              		.eabi_attribute 21, 1
   6              		.eabi_attribute 23, 3
   7              		.eabi_attribute 24, 1
   8              		.eabi_attribute 25, 1
   9              		.eabi_attribute 26, 1
  10              		.eabi_attribute 30, 1
  11              		.eabi_attribute 34, 1
  12              		.eabi_attribute 18, 4
  13              		.thumb
  14              		.syntax unified
  15              		.file	"CAN_TX_RX_func.c"
  16              		.text
  17              	.Ltext0:
  18              		.cfi_sections	.debug_frame
  19              		.section	.text.CAN_SendMsg,"ax",%progbits
  20              		.align	2
  21              		.global	CAN_SendMsg
  22              		.thumb
  23              		.thumb_func
  24              		.type	CAN_SendMsg, %function
  25              	CAN_SendMsg:
  26              	.LFB63:
  27              		.file 1 "Generated_Source\\PSoC5\\CAN_TX_RX_func.c"
   1:Generated_Source\PSoC5/CAN_TX_RX_func.c **** /*******************************************************************************
   2:Generated_Source\PSoC5/CAN_TX_RX_func.c **** * File Name: CAN_TX_RX_func.c
   3:Generated_Source\PSoC5/CAN_TX_RX_func.c **** * Version 3.0
   4:Generated_Source\PSoC5/CAN_TX_RX_func.c **** *
   5:Generated_Source\PSoC5/CAN_TX_RX_func.c **** * Description:
   6:Generated_Source\PSoC5/CAN_TX_RX_func.c **** *  There are functions process "Full" Receive and Transmit mailboxes:
   7:Generated_Source\PSoC5/CAN_TX_RX_func.c **** *     - CAN_SendMsg0-7();
   8:Generated_Source\PSoC5/CAN_TX_RX_func.c **** *     - CAN_ReceiveMsg0-15();
   9:Generated_Source\PSoC5/CAN_TX_RX_func.c **** *  Transmission of message, and receive routine for "Basic" mailboxes:
  10:Generated_Source\PSoC5/CAN_TX_RX_func.c **** *     - CAN_SendMsg();
  11:Generated_Source\PSoC5/CAN_TX_RX_func.c **** *     - CAN_TxCancel();
  12:Generated_Source\PSoC5/CAN_TX_RX_func.c **** *     - CAN_ReceiveMsg();
  13:Generated_Source\PSoC5/CAN_TX_RX_func.c **** *
  14:Generated_Source\PSoC5/CAN_TX_RX_func.c **** *  Note:
  15:Generated_Source\PSoC5/CAN_TX_RX_func.c **** *   None
  16:Generated_Source\PSoC5/CAN_TX_RX_func.c **** *
  17:Generated_Source\PSoC5/CAN_TX_RX_func.c **** ********************************************************************************
  18:Generated_Source\PSoC5/CAN_TX_RX_func.c **** * Copyright 2008-2015, Cypress Semiconductor Corporation.  All rights reserved.
  19:Generated_Source\PSoC5/CAN_TX_RX_func.c **** * You may use this file only in accordance with the license, terms, conditions,
  20:Generated_Source\PSoC5/CAN_TX_RX_func.c **** * disclaimers, and limitations in the end user license agreement accompanying
  21:Generated_Source\PSoC5/CAN_TX_RX_func.c **** * the software package with which this file was provided.
  22:Generated_Source\PSoC5/CAN_TX_RX_func.c **** *******************************************************************************/
  23:Generated_Source\PSoC5/CAN_TX_RX_func.c **** 
  24:Generated_Source\PSoC5/CAN_TX_RX_func.c **** #include "CAN.h"
  25:Generated_Source\PSoC5/CAN_TX_RX_func.c **** #include "cyapicallbacks.h"
  26:Generated_Source\PSoC5/CAN_TX_RX_func.c **** #include "can_manga.h"
  27:Generated_Source\PSoC5/CAN_TX_RX_func.c **** 
  28:Generated_Source\PSoC5/CAN_TX_RX_func.c **** /* `#START TX_RX_FUNCTION` */
  29:Generated_Source\PSoC5/CAN_TX_RX_func.c **** 
  30:Generated_Source\PSoC5/CAN_TX_RX_func.c **** /* `#END` */
ARM GAS  C:\Users\ANDREY~1\AppData\Local\Temp\cccGypfV.s 			page 2


  31:Generated_Source\PSoC5/CAN_TX_RX_func.c **** 
  32:Generated_Source\PSoC5/CAN_TX_RX_func.c **** 
  33:Generated_Source\PSoC5/CAN_TX_RX_func.c **** /*******************************************************************************
  34:Generated_Source\PSoC5/CAN_TX_RX_func.c **** * FUNCTION NAME:   CAN_SendMsg
  35:Generated_Source\PSoC5/CAN_TX_RX_func.c **** ********************************************************************************
  36:Generated_Source\PSoC5/CAN_TX_RX_func.c **** *
  37:Generated_Source\PSoC5/CAN_TX_RX_func.c **** * Summary:
  38:Generated_Source\PSoC5/CAN_TX_RX_func.c **** *  This function is Send Message from one of Basic mailboxes. The function loops
  39:Generated_Source\PSoC5/CAN_TX_RX_func.c **** *  through the transmit message buffer designed as Basic CAN mailboxes for the
  40:Generated_Source\PSoC5/CAN_TX_RX_func.c **** *  first free available and sends from it. The number of retries is limited.
  41:Generated_Source\PSoC5/CAN_TX_RX_func.c **** *
  42:Generated_Source\PSoC5/CAN_TX_RX_func.c **** * Parameters:
  43:Generated_Source\PSoC5/CAN_TX_RX_func.c **** *  message: The pointer to a structure that contains all required data to send
  44:Generated_Source\PSoC5/CAN_TX_RX_func.c **** *           messages.
  45:Generated_Source\PSoC5/CAN_TX_RX_func.c **** *
  46:Generated_Source\PSoC5/CAN_TX_RX_func.c **** * Return:
  47:Generated_Source\PSoC5/CAN_TX_RX_func.c **** *  Indication if message has been sent.
  48:Generated_Source\PSoC5/CAN_TX_RX_func.c **** *   Define                             Description
  49:Generated_Source\PSoC5/CAN_TX_RX_func.c **** *    CYRET_SUCCESS                      The function passed successfully
  50:Generated_Source\PSoC5/CAN_TX_RX_func.c **** *    CAN_FAIL              The function failed
  51:Generated_Source\PSoC5/CAN_TX_RX_func.c **** *
  52:Generated_Source\PSoC5/CAN_TX_RX_func.c **** *******************************************************************************/
  53:Generated_Source\PSoC5/CAN_TX_RX_func.c **** uint8 CAN_SendMsg(const CAN_TX_MSG *message) 
  54:Generated_Source\PSoC5/CAN_TX_RX_func.c **** {
  28              		.loc 1 54 0
  29              		.cfi_startproc
  30              		@ args = 0, pretend = 0, frame = 0
  31              		@ frame_needed = 0, uses_anonymous_args = 0
  32              	.LVL0:
  33 0000 F0B5     		push	{r4, r5, r6, r7, lr}
  34              		.cfi_def_cfa_offset 20
  35              		.cfi_offset 4, -20
  36              		.cfi_offset 5, -16
  37              		.cfi_offset 6, -12
  38              		.cfi_offset 7, -8
  39              		.cfi_offset 14, -4
  40              	.LVL1:
  55:Generated_Source\PSoC5/CAN_TX_RX_func.c ****     uint8 i, j, shift;
  56:Generated_Source\PSoC5/CAN_TX_RX_func.c ****     uint8 retry = 0u;
  57:Generated_Source\PSoC5/CAN_TX_RX_func.c ****     uint8 result = CAN_FAIL;
  41              		.loc 1 57 0
  42 0002 0121     		movs	r1, #1
  56:Generated_Source\PSoC5/CAN_TX_RX_func.c ****     uint8 result = CAN_FAIL;
  43              		.loc 1 56 0
  44 0004 0026     		movs	r6, #0
  58:Generated_Source\PSoC5/CAN_TX_RX_func.c ****     uint32 regTemp;
  59:Generated_Source\PSoC5/CAN_TX_RX_func.c **** 
  60:Generated_Source\PSoC5/CAN_TX_RX_func.c ****     while (retry < CAN_RETRY_NUMBER)
  45              		.loc 1 60 0
  46 0006 5DE0     		b	.L2
  47              	.LVL2:
  48              	.L16:
  61:Generated_Source\PSoC5/CAN_TX_RX_func.c ****     {
  62:Generated_Source\PSoC5/CAN_TX_RX_func.c ****         shift = 1u;    /* Start from first mailbox */
  63:Generated_Source\PSoC5/CAN_TX_RX_func.c ****         for (i = 0u; i < CAN_NUMBER_OF_TX_MAILBOXES; i++)
  64:Generated_Source\PSoC5/CAN_TX_RX_func.c ****         {
  65:Generated_Source\PSoC5/CAN_TX_RX_func.c ****             /* Find Basic TX mailboxes */
ARM GAS  C:\Users\ANDREY~1\AppData\Local\Temp\cccGypfV.s 			page 3


  66:Generated_Source\PSoC5/CAN_TX_RX_func.c ****             if ((CAN_TX_MAILBOX_TYPE & shift) == 0u)
  49              		.loc 1 66 0
  50 0008 17F0030F 		tst	r7, #3
  51 000c 4DD1     		bne	.L3
  67:Generated_Source\PSoC5/CAN_TX_RX_func.c ****             {
  68:Generated_Source\PSoC5/CAN_TX_RX_func.c ****                 /* Find free mailbox */
  69:Generated_Source\PSoC5/CAN_TX_RX_func.c ****                 #if (CY_PSOC3 || CY_PSOC5)
  70:Generated_Source\PSoC5/CAN_TX_RX_func.c ****                     if ((CAN_BUF_SR_REG.byte[2] & shift) == 0u)
  52              		.loc 1 70 0
  53 000e 2F4B     		ldr	r3, .L22
  54 0010 9B78     		ldrb	r3, [r3, #2]	@ zero_extendqisi2
  55 0012 3B42     		tst	r3, r7
  56 0014 49D1     		bne	.L3
  57              	.LVL3:
  71:Generated_Source\PSoC5/CAN_TX_RX_func.c ****                 #else  /* CY_PSOC4 */
  72:Generated_Source\PSoC5/CAN_TX_RX_func.c ****                     if ((CAN_BUF_SR_REG &
  73:Generated_Source\PSoC5/CAN_TX_RX_func.c ****                         (uint32) ((uint32) shift << CAN_TWO_BYTE_OFFSET)) == 0u)
  74:Generated_Source\PSoC5/CAN_TX_RX_func.c ****                 #endif /* CY_PSOC3 || CY_PSOC5 */
  75:Generated_Source\PSoC5/CAN_TX_RX_func.c ****                     {
  76:Generated_Source\PSoC5/CAN_TX_RX_func.c ****                         regTemp = 0u;
  77:Generated_Source\PSoC5/CAN_TX_RX_func.c **** 
  78:Generated_Source\PSoC5/CAN_TX_RX_func.c ****                         /* Set message parameters */
  79:Generated_Source\PSoC5/CAN_TX_RX_func.c ****                         if (message->rtr != CAN_STANDARD_MESSAGE)
  58              		.loc 1 79 0
  59 0016 0379     		ldrb	r3, [r0, #4]	@ zero_extendqisi2
  60 0018 0BB1     		cbz	r3, .L4
  80:Generated_Source\PSoC5/CAN_TX_RX_func.c ****                         {
  81:Generated_Source\PSoC5/CAN_TX_RX_func.c ****                             regTemp = CAN_TX_RTR_MASK;    /* RTR message Enable */
  61              		.loc 1 81 0
  62 001a 4FF40013 		mov	r3, #2097152
  63              	.L4:
  64              	.LVL4:
  82:Generated_Source\PSoC5/CAN_TX_RX_func.c ****                         }
  83:Generated_Source\PSoC5/CAN_TX_RX_func.c **** 
  84:Generated_Source\PSoC5/CAN_TX_RX_func.c ****                         if (message->ide == CAN_STANDARD_MESSAGE)
  65              		.loc 1 84 0
  66 001e 4179     		ldrb	r1, [r0, #5]	@ zero_extendqisi2
  67              	.LVL5:
  68 0020 31B9     		cbnz	r1, .L5
  85:Generated_Source\PSoC5/CAN_TX_RX_func.c ****                         {
  86:Generated_Source\PSoC5/CAN_TX_RX_func.c ****                             CAN_SET_TX_ID_STANDARD_MSG(i, message->id);
  69              		.loc 1 86 0
  70 0022 2B49     		ldr	r1, .L22+4
  71 0024 01EB0211 		add	r1, r1, r2, lsl #4
  72 0028 0468     		ldr	r4, [r0]
  73 002a 6405     		lsls	r4, r4, #21
  74 002c 4C60     		str	r4, [r1, #4]
  75 002e 07E0     		b	.L6
  76              	.L5:
  87:Generated_Source\PSoC5/CAN_TX_RX_func.c ****                         }
  88:Generated_Source\PSoC5/CAN_TX_RX_func.c ****                         else
  89:Generated_Source\PSoC5/CAN_TX_RX_func.c ****                         {
  90:Generated_Source\PSoC5/CAN_TX_RX_func.c ****                             regTemp |= CAN_TX_IDE_MASK;
  77              		.loc 1 90 0
  78 0030 43F48013 		orr	r3, r3, #1048576
  79              	.LVL6:
  91:Generated_Source\PSoC5/CAN_TX_RX_func.c ****                             CAN_SET_TX_ID_EXTENDED_MSG(i, message->id);
ARM GAS  C:\Users\ANDREY~1\AppData\Local\Temp\cccGypfV.s 			page 4


  80              		.loc 1 91 0
  81 0034 2649     		ldr	r1, .L22+4
  82 0036 01EB0211 		add	r1, r1, r2, lsl #4
  83 003a 0468     		ldr	r4, [r0]
  84 003c E400     		lsls	r4, r4, #3
  85 003e 4C60     		str	r4, [r1, #4]
  86              	.L6:
  92:Generated_Source\PSoC5/CAN_TX_RX_func.c ****                         }
  93:Generated_Source\PSoC5/CAN_TX_RX_func.c **** 
  94:Generated_Source\PSoC5/CAN_TX_RX_func.c ****                         if (message->dlc < CAN_TX_DLC_MAX_VALUE)
  87              		.loc 1 94 0
  88 0040 90F806E0 		ldrb	lr, [r0, #6]	@ zero_extendqisi2
  89 0044 BEF1070F 		cmp	lr, #7
  90 0048 02D8     		bhi	.L7
  95:Generated_Source\PSoC5/CAN_TX_RX_func.c ****                         {
  96:Generated_Source\PSoC5/CAN_TX_RX_func.c ****                             regTemp |= ((uint32) message->dlc) << CAN_TWO_BYTE_OFFSET;
  91              		.loc 1 96 0
  92 004a 43EA0E4E 		orr	lr, r3, lr, lsl #16
  93              	.LVL7:
  94 004e 01E0     		b	.L8
  95              	.LVL8:
  96              	.L7:
  97:Generated_Source\PSoC5/CAN_TX_RX_func.c ****                         }
  98:Generated_Source\PSoC5/CAN_TX_RX_func.c ****                         else
  99:Generated_Source\PSoC5/CAN_TX_RX_func.c ****                         {
 100:Generated_Source\PSoC5/CAN_TX_RX_func.c ****                             regTemp |= CAN_TX_DLC_UPPER_VALUE;
  97              		.loc 1 100 0
  98 0050 43F4002E 		orr	lr, r3, #524288
  99              	.LVL9:
 100              	.L8:
 101:Generated_Source\PSoC5/CAN_TX_RX_func.c ****                         }
 102:Generated_Source\PSoC5/CAN_TX_RX_func.c **** 
 103:Generated_Source\PSoC5/CAN_TX_RX_func.c ****                         if (message->irq != CAN_TRANSMIT_INT_DISABLE)
 101              		.loc 1 103 0
 102 0054 C379     		ldrb	r3, [r0, #7]	@ zero_extendqisi2
 103 0056 0BB1     		cbz	r3, .L9
 104:Generated_Source\PSoC5/CAN_TX_RX_func.c ****                         {
 105:Generated_Source\PSoC5/CAN_TX_RX_func.c ****                             regTemp |= CAN_TX_INT_ENABLE_MASK;    /* Transmit Interrupt Enable */
 104              		.loc 1 105 0
 105 0058 4EF0040E 		orr	lr, lr, #4
 106              	.LVL10:
 107              	.L9:
 106:Generated_Source\PSoC5/CAN_TX_RX_func.c ****                         }
 107:Generated_Source\PSoC5/CAN_TX_RX_func.c **** 
 108:Generated_Source\PSoC5/CAN_TX_RX_func.c ****                         for (j = 0u; (j < message->dlc) && (j < CAN_TX_DLC_MAX_VALUE); j++)
 108              		.loc 1 108 0
 109 005c 0023     		movs	r3, #0
 110 005e 0FE0     		b	.L10
 111              	.LVL11:
 112              	.L14:
 109:Generated_Source\PSoC5/CAN_TX_RX_func.c ****                         {
 110:Generated_Source\PSoC5/CAN_TX_RX_func.c ****                             #if (CY_PSOC3 || CY_PSOC5)
 111:Generated_Source\PSoC5/CAN_TX_RX_func.c ****                                 CAN_TX_DATA_BYTE(i, j) = message->msg->byte[j];
 113              		.loc 1 111 0
 114 0060 1B49     		ldr	r1, .L22+4
 115 0062 01EB0214 		add	r4, r1, r2, lsl #4
 116 0066 032B     		cmp	r3, #3
ARM GAS  C:\Users\ANDREY~1\AppData\Local\Temp\cccGypfV.s 			page 5


 117 0068 02D9     		bls	.L11
 118              		.loc 1 111 0 is_stmt 0 discriminator 1
 119 006a C3F10B01 		rsb	r1, r3, #11
 120 006e 01E0     		b	.L12
 121              	.L11:
 122              		.loc 1 111 0 discriminator 2
 123 0070 C3F10301 		rsb	r1, r3, #3
 124              	.L12:
 125              		.loc 1 111 0 discriminator 4
 126 0074 8568     		ldr	r5, [r0, #8]
 127 0076 ED5C     		ldrb	r5, [r5, r3]	@ zero_extendqisi2
 128 0078 2144     		add	r1, r1, r4
 129 007a 0D72     		strb	r5, [r1, #8]
 108:Generated_Source\PSoC5/CAN_TX_RX_func.c ****                         {
 130              		.loc 1 108 0 is_stmt 1 discriminator 4
 131 007c 0133     		adds	r3, r3, #1
 132              	.LVL12:
 133 007e DBB2     		uxtb	r3, r3
 134              	.LVL13:
 135              	.L10:
 108:Generated_Source\PSoC5/CAN_TX_RX_func.c ****                         {
 136              		.loc 1 108 0 is_stmt 0 discriminator 2
 137 0080 8179     		ldrb	r1, [r0, #6]	@ zero_extendqisi2
 138 0082 8B42     		cmp	r3, r1
 139 0084 01D2     		bcs	.L13
 108:Generated_Source\PSoC5/CAN_TX_RX_func.c ****                         {
 140              		.loc 1 108 0 discriminator 3
 141 0086 072B     		cmp	r3, #7
 142 0088 EAD9     		bls	.L14
 143              	.L13:
 112:Generated_Source\PSoC5/CAN_TX_RX_func.c ****                             #else /* CY_PSOC4 */
 113:Generated_Source\PSoC5/CAN_TX_RX_func.c ****                                 CAN_TX_DATA_BYTE(i, j, message->msg->byte[j]);
 114:Generated_Source\PSoC5/CAN_TX_RX_func.c ****                             #endif /* CY_PSOC3 || CY_PSOC5 */
 115:Generated_Source\PSoC5/CAN_TX_RX_func.c ****                         }
 116:Generated_Source\PSoC5/CAN_TX_RX_func.c **** 
 117:Generated_Source\PSoC5/CAN_TX_RX_func.c ****                         /* Disable isr */
 118:Generated_Source\PSoC5/CAN_TX_RX_func.c ****     CyIntDisable(CAN_ISR_NUMBER);
 144              		.loc 1 118 0 is_stmt 1
 145 008a 4FF48034 		mov	r4, #65536
 146 008e 114B     		ldr	r3, .L22+8
 147              	.LVL14:
 148 0090 1C60     		str	r4, [r3]
 119:Generated_Source\PSoC5/CAN_TX_RX_func.c **** 
 120:Generated_Source\PSoC5/CAN_TX_RX_func.c ****                         /* WPN[23] and WPN[3] set to 1 for write to CAN Control reg */
 121:Generated_Source\PSoC5/CAN_TX_RX_func.c ****                         CY_SET_REG32(CAN_TX_CMD_PTR(i), (regTemp | CAN_TX_WPN_SET));
 149              		.loc 1 121 0
 150 0092 1101     		lsls	r1, r2, #4
 151 0094 0E4D     		ldr	r5, .L22+4
 152 0096 4EF40003 		orr	r3, lr, #8388608
 153 009a 43F00803 		orr	r3, r3, #8
 154 009e 4B51     		str	r3, [r1, r5]
 122:Generated_Source\PSoC5/CAN_TX_RX_func.c **** 
 123:Generated_Source\PSoC5/CAN_TX_RX_func.c ****                         #if (CY_PSOC3 || CY_PSOC5)
 124:Generated_Source\PSoC5/CAN_TX_RX_func.c ****                             CY_SET_REG32(CAN_TX_CMD_PTR(i), CAN_SEND_MESSAGE);
 155              		.loc 1 124 0
 156 00a0 0123     		movs	r3, #1
 157 00a2 4B51     		str	r3, [r1, r5]
ARM GAS  C:\Users\ANDREY~1\AppData\Local\Temp\cccGypfV.s 			page 6


 125:Generated_Source\PSoC5/CAN_TX_RX_func.c ****                         #else /* CY_PSOC4 */
 126:Generated_Source\PSoC5/CAN_TX_RX_func.c ****                             if (message->sst != CAN_STANDARD_MESSAGE)
 127:Generated_Source\PSoC5/CAN_TX_RX_func.c ****                             {
 128:Generated_Source\PSoC5/CAN_TX_RX_func.c ****                                 /* Single Shot Transmission */
 129:Generated_Source\PSoC5/CAN_TX_RX_func.c ****                                 CAN_TX_CMD_REG(i) |= CAN_SEND_MESSAGE |
 130:Generated_Source\PSoC5/CAN_TX_RX_func.c ****                                 CAN_TX_ABORT_MASK;
 131:Generated_Source\PSoC5/CAN_TX_RX_func.c ****                             }
 132:Generated_Source\PSoC5/CAN_TX_RX_func.c ****                             else
 133:Generated_Source\PSoC5/CAN_TX_RX_func.c ****                             {
 134:Generated_Source\PSoC5/CAN_TX_RX_func.c ****                                 CAN_TX_CMD_REG(i) |= CAN_SEND_MESSAGE;
 135:Generated_Source\PSoC5/CAN_TX_RX_func.c ****                             }
 136:Generated_Source\PSoC5/CAN_TX_RX_func.c ****                         #endif /* CY_PSOC3 || CY_PSOC5 */
 137:Generated_Source\PSoC5/CAN_TX_RX_func.c **** 
 138:Generated_Source\PSoC5/CAN_TX_RX_func.c ****                         /* Enable isr */
 139:Generated_Source\PSoC5/CAN_TX_RX_func.c ****     CyIntEnable(CAN_ISR_NUMBER);
 158              		.loc 1 139 0
 159 00a4 0C4B     		ldr	r3, .L22+12
 160 00a6 1C60     		str	r4, [r3]
 161              	.LVL15:
 140:Generated_Source\PSoC5/CAN_TX_RX_func.c **** 
 141:Generated_Source\PSoC5/CAN_TX_RX_func.c ****                         result = CYRET_SUCCESS;
 162              		.loc 1 141 0
 163 00a8 0021     		movs	r1, #0
 164              	.LVL16:
 165              	.L3:
 142:Generated_Source\PSoC5/CAN_TX_RX_func.c ****                     }
 143:Generated_Source\PSoC5/CAN_TX_RX_func.c ****             }
 144:Generated_Source\PSoC5/CAN_TX_RX_func.c ****             shift <<= 1u;
 166              		.loc 1 144 0
 167 00aa 7B00     		lsls	r3, r7, #1
 168 00ac DFB2     		uxtb	r7, r3
 169              	.LVL17:
 145:Generated_Source\PSoC5/CAN_TX_RX_func.c ****             if (result == CYRET_SUCCESS)
 170              		.loc 1 145 0
 171 00ae 31B1     		cbz	r1, .L15
  63:Generated_Source\PSoC5/CAN_TX_RX_func.c ****         {
 172              		.loc 1 63 0 discriminator 2
 173 00b0 0132     		adds	r2, r2, #1
 174              	.LVL18:
 175 00b2 D2B2     		uxtb	r2, r2
 176              	.LVL19:
 177 00b4 01E0     		b	.L18
 178              	.LVL20:
 179              	.L20:
 180 00b6 0127     		movs	r7, #1
 181 00b8 0022     		movs	r2, #0
 182              	.L18:
 183              	.LVL21:
  63:Generated_Source\PSoC5/CAN_TX_RX_func.c ****         {
 184              		.loc 1 63 0 is_stmt 0 discriminator 1
 185 00ba 072A     		cmp	r2, #7
 186 00bc A4D9     		bls	.L16
 187              	.L15:
 146:Generated_Source\PSoC5/CAN_TX_RX_func.c ****             {
 147:Generated_Source\PSoC5/CAN_TX_RX_func.c ****                 break;
 148:Generated_Source\PSoC5/CAN_TX_RX_func.c ****             }
 149:Generated_Source\PSoC5/CAN_TX_RX_func.c ****         }
ARM GAS  C:\Users\ANDREY~1\AppData\Local\Temp\cccGypfV.s 			page 7


 150:Generated_Source\PSoC5/CAN_TX_RX_func.c ****         if (result == CYRET_SUCCESS)
 188              		.loc 1 150 0 is_stmt 1
 189 00be 19B1     		cbz	r1, .L17
 151:Generated_Source\PSoC5/CAN_TX_RX_func.c ****         {
 152:Generated_Source\PSoC5/CAN_TX_RX_func.c ****             break;
 153:Generated_Source\PSoC5/CAN_TX_RX_func.c ****         }
 154:Generated_Source\PSoC5/CAN_TX_RX_func.c ****         else
 155:Generated_Source\PSoC5/CAN_TX_RX_func.c ****         {
 156:Generated_Source\PSoC5/CAN_TX_RX_func.c ****             retry++;
 190              		.loc 1 156 0
 191 00c0 0136     		adds	r6, r6, #1
 192              	.LVL22:
 193 00c2 F6B2     		uxtb	r6, r6
 194              	.LVL23:
 195              	.L2:
  60:Generated_Source\PSoC5/CAN_TX_RX_func.c ****     {
 196              		.loc 1 60 0
 197 00c4 022E     		cmp	r6, #2
 198 00c6 F6D9     		bls	.L20
 199              	.L17:
 157:Generated_Source\PSoC5/CAN_TX_RX_func.c ****         }
 158:Generated_Source\PSoC5/CAN_TX_RX_func.c ****     }
 159:Generated_Source\PSoC5/CAN_TX_RX_func.c **** 
 160:Generated_Source\PSoC5/CAN_TX_RX_func.c ****     return (result);
 161:Generated_Source\PSoC5/CAN_TX_RX_func.c **** }
 200              		.loc 1 161 0
 201 00c8 0846     		mov	r0, r1
 202              	.LVL24:
 203 00ca F0BD     		pop	{r4, r5, r6, r7, pc}
 204              	.LVL25:
 205              	.L23:
 206              		.align	2
 207              	.L22:
 208 00cc 08A00040 		.word	1073782792
 209 00d0 20A00040 		.word	1073782816
 210 00d4 80E100E0 		.word	-536813184
 211 00d8 00E100E0 		.word	-536813312
 212              		.cfi_endproc
 213              	.LFE63:
 214              		.size	CAN_SendMsg, .-CAN_SendMsg
 215              		.section	.text.CAN_TxCancel,"ax",%progbits
 216              		.align	2
 217              		.global	CAN_TxCancel
 218              		.thumb
 219              		.thumb_func
 220              		.type	CAN_TxCancel, %function
 221              	CAN_TxCancel:
 222              	.LFB64:
 162:Generated_Source\PSoC5/CAN_TX_RX_func.c **** 
 163:Generated_Source\PSoC5/CAN_TX_RX_func.c **** 
 164:Generated_Source\PSoC5/CAN_TX_RX_func.c **** /*******************************************************************************
 165:Generated_Source\PSoC5/CAN_TX_RX_func.c **** * FUNCTION NAME:   CAN_TxCancel
 166:Generated_Source\PSoC5/CAN_TX_RX_func.c **** ********************************************************************************
 167:Generated_Source\PSoC5/CAN_TX_RX_func.c **** *
 168:Generated_Source\PSoC5/CAN_TX_RX_func.c **** * Summary:
 169:Generated_Source\PSoC5/CAN_TX_RX_func.c **** *  This function cancels transmission of a message that has been queued to be
 170:Generated_Source\PSoC5/CAN_TX_RX_func.c **** *  transmitted. Values between 0 and 7 are valid.
ARM GAS  C:\Users\ANDREY~1\AppData\Local\Temp\cccGypfV.s 			page 8


 171:Generated_Source\PSoC5/CAN_TX_RX_func.c **** *
 172:Generated_Source\PSoC5/CAN_TX_RX_func.c **** * Parameters:
 173:Generated_Source\PSoC5/CAN_TX_RX_func.c **** *  bufferId: The mailbox number.
 174:Generated_Source\PSoC5/CAN_TX_RX_func.c **** *
 175:Generated_Source\PSoC5/CAN_TX_RX_func.c **** * Return:
 176:Generated_Source\PSoC5/CAN_TX_RX_func.c **** *  None.
 177:Generated_Source\PSoC5/CAN_TX_RX_func.c **** *
 178:Generated_Source\PSoC5/CAN_TX_RX_func.c **** *******************************************************************************/
 179:Generated_Source\PSoC5/CAN_TX_RX_func.c **** void CAN_TxCancel(uint8 bufferId) 
 180:Generated_Source\PSoC5/CAN_TX_RX_func.c **** {
 223              		.loc 1 180 0
 224              		.cfi_startproc
 225              		@ args = 0, pretend = 0, frame = 0
 226              		@ frame_needed = 0, uses_anonymous_args = 0
 227              		@ link register save eliminated.
 228              	.LVL26:
 181:Generated_Source\PSoC5/CAN_TX_RX_func.c ****     if (bufferId < CAN_NUMBER_OF_TX_MAILBOXES)
 229              		.loc 1 181 0
 230 0000 0728     		cmp	r0, #7
 231 0002 07D8     		bhi	.L24
 182:Generated_Source\PSoC5/CAN_TX_RX_func.c ****     {
 183:Generated_Source\PSoC5/CAN_TX_RX_func.c ****         CAN_TX_ABORT_MESSAGE(bufferId);
 232              		.loc 1 183 0
 233 0004 0001     		lsls	r0, r0, #4
 234              	.LVL27:
 235 0006 044A     		ldr	r2, .L26
 236 0008 835C     		ldrb	r3, [r0, r2]	@ zero_extendqisi2
 237 000a 03F0FC03 		and	r3, r3, #252
 238 000e 43F00203 		orr	r3, r3, #2
 239 0012 8354     		strb	r3, [r0, r2]
 240              	.L24:
 241 0014 7047     		bx	lr
 242              	.L27:
 243 0016 00BF     		.align	2
 244              	.L26:
 245 0018 20A00040 		.word	1073782816
 246              		.cfi_endproc
 247              	.LFE64:
 248              		.size	CAN_TxCancel, .-CAN_TxCancel
 249              		.section	.text.CAN_SendMsgDash_status,"ax",%progbits
 250              		.align	2
 251              		.global	CAN_SendMsgDash_status
 252              		.thumb
 253              		.thumb_func
 254              		.type	CAN_SendMsgDash_status, %function
 255              	CAN_SendMsgDash_status:
 256              	.LFB65:
 184:Generated_Source\PSoC5/CAN_TX_RX_func.c ****     }
 185:Generated_Source\PSoC5/CAN_TX_RX_func.c **** }
 186:Generated_Source\PSoC5/CAN_TX_RX_func.c **** 
 187:Generated_Source\PSoC5/CAN_TX_RX_func.c **** 
 188:Generated_Source\PSoC5/CAN_TX_RX_func.c **** #if (CAN_TX0_FUNC_ENABLE)
 189:Generated_Source\PSoC5/CAN_TX_RX_func.c ****     /*******************************************************************************
 190:Generated_Source\PSoC5/CAN_TX_RX_func.c ****     * FUNCTION NAME:   CAN_SendMsgDash_status
 191:Generated_Source\PSoC5/CAN_TX_RX_func.c ****     ********************************************************************************
 192:Generated_Source\PSoC5/CAN_TX_RX_func.c ****     *
 193:Generated_Source\PSoC5/CAN_TX_RX_func.c ****     * Summary:
ARM GAS  C:\Users\ANDREY~1\AppData\Local\Temp\cccGypfV.s 			page 9


 194:Generated_Source\PSoC5/CAN_TX_RX_func.c ****     *  This function is the entry point to Transmit Message 0. The function checks
 195:Generated_Source\PSoC5/CAN_TX_RX_func.c ****     *  if mailbox 0 doesn't already have un-transmitted messages waiting for
 196:Generated_Source\PSoC5/CAN_TX_RX_func.c ****     *  arbitration. If not initiate transmission of the message.
 197:Generated_Source\PSoC5/CAN_TX_RX_func.c ****     *  Generated only for the Transmit mailbox designed as Full.
 198:Generated_Source\PSoC5/CAN_TX_RX_func.c ****     *
 199:Generated_Source\PSoC5/CAN_TX_RX_func.c ****     * Parameters:
 200:Generated_Source\PSoC5/CAN_TX_RX_func.c ****     *  None.
 201:Generated_Source\PSoC5/CAN_TX_RX_func.c ****     *
 202:Generated_Source\PSoC5/CAN_TX_RX_func.c ****     * Return:
 203:Generated_Source\PSoC5/CAN_TX_RX_func.c ****     *  Indication if Message has been sent.
 204:Generated_Source\PSoC5/CAN_TX_RX_func.c ****     *   Define                             Description
 205:Generated_Source\PSoC5/CAN_TX_RX_func.c ****     *    CYRET_SUCCESS                      The function passed successfully
 206:Generated_Source\PSoC5/CAN_TX_RX_func.c ****     *    CAN_FAIL              The function failed
 207:Generated_Source\PSoC5/CAN_TX_RX_func.c ****     *
 208:Generated_Source\PSoC5/CAN_TX_RX_func.c ****     *******************************************************************************/
 209:Generated_Source\PSoC5/CAN_TX_RX_func.c ****     uint8 CAN_SendMsgDash_status(void) 
 210:Generated_Source\PSoC5/CAN_TX_RX_func.c ****     {
 257              		.loc 1 210 0
 258              		.cfi_startproc
 259              		@ args = 0, pretend = 0, frame = 0
 260              		@ frame_needed = 0, uses_anonymous_args = 0
 261              		@ link register save eliminated.
 262              	.LVL28:
 211:Generated_Source\PSoC5/CAN_TX_RX_func.c ****         uint8 result = CYRET_SUCCESS;
 212:Generated_Source\PSoC5/CAN_TX_RX_func.c **** 
 213:Generated_Source\PSoC5/CAN_TX_RX_func.c ****         #if (CY_PSOC3 || CY_PSOC5)
 214:Generated_Source\PSoC5/CAN_TX_RX_func.c ****             if ((CAN_TX[0u].txcmd.byte[0u] & CAN_TX_REQUEST_PENDING) != 0u)
 263              		.loc 1 214 0
 264 0000 064B     		ldr	r3, .L31
 265 0002 1B78     		ldrb	r3, [r3]	@ zero_extendqisi2
 266 0004 13F0010F 		tst	r3, #1
 267 0008 06D1     		bne	.L30
 215:Generated_Source\PSoC5/CAN_TX_RX_func.c ****         #else  /* CY_PSOC4 */
 216:Generated_Source\PSoC5/CAN_TX_RX_func.c ****             if ((CAN_TX_CMD_REG(0u) & CAN_TX_REQUEST_PENDING) != 0u)
 217:Generated_Source\PSoC5/CAN_TX_RX_func.c ****         #endif /* CY_PSOC3 || CY_PSOC5 */
 218:Generated_Source\PSoC5/CAN_TX_RX_func.c ****             {
 219:Generated_Source\PSoC5/CAN_TX_RX_func.c ****                 result = CAN_FAIL;
 220:Generated_Source\PSoC5/CAN_TX_RX_func.c ****             }
 221:Generated_Source\PSoC5/CAN_TX_RX_func.c ****             else
 222:Generated_Source\PSoC5/CAN_TX_RX_func.c ****             {
 223:Generated_Source\PSoC5/CAN_TX_RX_func.c ****                 /* `#START MESSAGE_Dash_status_TRASMITTED` */
 224:Generated_Source\PSoC5/CAN_TX_RX_func.c **** 
 225:Generated_Source\PSoC5/CAN_TX_RX_func.c ****                 /* `#END` */
 226:Generated_Source\PSoC5/CAN_TX_RX_func.c **** 
 227:Generated_Source\PSoC5/CAN_TX_RX_func.c ****                 #ifdef CAN_SEND_MSG_Dash_status_CALLBACK
 228:Generated_Source\PSoC5/CAN_TX_RX_func.c ****                     CAN_SendMsg_Dash_status_Callback();
 229:Generated_Source\PSoC5/CAN_TX_RX_func.c ****                 #endif /* CAN_SEND_MSG_Dash_status_CALLBACK */
 230:Generated_Source\PSoC5/CAN_TX_RX_func.c **** 
 231:Generated_Source\PSoC5/CAN_TX_RX_func.c ****                 CY_SET_REG32(CAN_TX_CMD_PTR(0u),
 268              		.loc 1 231 0
 269 000a 044A     		ldr	r2, .L31
 270 000c 1368     		ldr	r3, [r2]
 271 000e 43F00103 		orr	r3, r3, #1
 272 0012 1360     		str	r3, [r2]
 211:Generated_Source\PSoC5/CAN_TX_RX_func.c ****         uint8 result = CYRET_SUCCESS;
 273              		.loc 1 211 0
 274 0014 0020     		movs	r0, #0
ARM GAS  C:\Users\ANDREY~1\AppData\Local\Temp\cccGypfV.s 			page 10


 275 0016 7047     		bx	lr
 276              	.L30:
 219:Generated_Source\PSoC5/CAN_TX_RX_func.c ****             }
 277              		.loc 1 219 0
 278 0018 0120     		movs	r0, #1
 279              	.LVL29:
 232:Generated_Source\PSoC5/CAN_TX_RX_func.c ****                 CY_GET_REG32(CAN_TX_CMD_PTR(0u)) | CAN_SEND_MESSAGE);
 233:Generated_Source\PSoC5/CAN_TX_RX_func.c ****             }
 234:Generated_Source\PSoC5/CAN_TX_RX_func.c **** 
 235:Generated_Source\PSoC5/CAN_TX_RX_func.c ****         return (result);
 236:Generated_Source\PSoC5/CAN_TX_RX_func.c ****     }
 280              		.loc 1 236 0
 281 001a 7047     		bx	lr
 282              	.L32:
 283              		.align	2
 284              	.L31:
 285 001c 20A00040 		.word	1073782816
 286              		.cfi_endproc
 287              	.LFE65:
 288              		.size	CAN_SendMsgDash_status, .-CAN_SendMsgDash_status
 289              		.section	.text.CAN_SendMsgDash_cmd,"ax",%progbits
 290              		.align	2
 291              		.global	CAN_SendMsgDash_cmd
 292              		.thumb
 293              		.thumb_func
 294              		.type	CAN_SendMsgDash_cmd, %function
 295              	CAN_SendMsgDash_cmd:
 296              	.LFB66:
 237:Generated_Source\PSoC5/CAN_TX_RX_func.c **** #endif /* CAN_TX0_FUNC_ENABLE */
 238:Generated_Source\PSoC5/CAN_TX_RX_func.c **** 
 239:Generated_Source\PSoC5/CAN_TX_RX_func.c **** 
 240:Generated_Source\PSoC5/CAN_TX_RX_func.c **** #if (CAN_TX1_FUNC_ENABLE)
 241:Generated_Source\PSoC5/CAN_TX_RX_func.c ****     /*******************************************************************************
 242:Generated_Source\PSoC5/CAN_TX_RX_func.c ****     * FUNCTION NAME:   CAN_SendMsgDash_cmd
 243:Generated_Source\PSoC5/CAN_TX_RX_func.c ****     ********************************************************************************
 244:Generated_Source\PSoC5/CAN_TX_RX_func.c ****     *
 245:Generated_Source\PSoC5/CAN_TX_RX_func.c ****     * Summary:
 246:Generated_Source\PSoC5/CAN_TX_RX_func.c ****     *  This function is the entry point to Transmit Message 1. The function checks
 247:Generated_Source\PSoC5/CAN_TX_RX_func.c ****     *  if mailbox 1 doesn't already have un-transmitted messages waiting for
 248:Generated_Source\PSoC5/CAN_TX_RX_func.c ****     *  arbitration. If not initiate transmission of the message.
 249:Generated_Source\PSoC5/CAN_TX_RX_func.c ****     *  Generated only for the Transmit mailbox designed as Full.
 250:Generated_Source\PSoC5/CAN_TX_RX_func.c ****     *
 251:Generated_Source\PSoC5/CAN_TX_RX_func.c ****     * Parameters:
 252:Generated_Source\PSoC5/CAN_TX_RX_func.c ****     *  None.
 253:Generated_Source\PSoC5/CAN_TX_RX_func.c ****     *
 254:Generated_Source\PSoC5/CAN_TX_RX_func.c ****     * Return:
 255:Generated_Source\PSoC5/CAN_TX_RX_func.c ****     *  Indication if Message has been sent.
 256:Generated_Source\PSoC5/CAN_TX_RX_func.c ****     *   Define                             Description
 257:Generated_Source\PSoC5/CAN_TX_RX_func.c ****     *    CYRET_SUCCESS                      The function passed successfully
 258:Generated_Source\PSoC5/CAN_TX_RX_func.c ****     *    CAN_FAIL              The function failed
 259:Generated_Source\PSoC5/CAN_TX_RX_func.c ****     *
 260:Generated_Source\PSoC5/CAN_TX_RX_func.c ****     *******************************************************************************/
 261:Generated_Source\PSoC5/CAN_TX_RX_func.c ****     uint8 CAN_SendMsgDash_cmd(void) 
 262:Generated_Source\PSoC5/CAN_TX_RX_func.c ****     {
 297              		.loc 1 262 0
 298              		.cfi_startproc
 299              		@ args = 0, pretend = 0, frame = 0
ARM GAS  C:\Users\ANDREY~1\AppData\Local\Temp\cccGypfV.s 			page 11


 300              		@ frame_needed = 0, uses_anonymous_args = 0
 301              		@ link register save eliminated.
 302              	.LVL30:
 263:Generated_Source\PSoC5/CAN_TX_RX_func.c ****         uint8 result = CYRET_SUCCESS;
 264:Generated_Source\PSoC5/CAN_TX_RX_func.c **** 
 265:Generated_Source\PSoC5/CAN_TX_RX_func.c ****         #if (CY_PSOC3 || CY_PSOC5)
 266:Generated_Source\PSoC5/CAN_TX_RX_func.c ****             if ((CAN_TX[1u].txcmd.byte[0u] & CAN_TX_REQUEST_PENDING) != 0u)
 303              		.loc 1 266 0
 304 0000 064B     		ldr	r3, .L36
 305 0002 1B78     		ldrb	r3, [r3]	@ zero_extendqisi2
 306 0004 13F0010F 		tst	r3, #1
 307 0008 06D1     		bne	.L35
 267:Generated_Source\PSoC5/CAN_TX_RX_func.c ****         #else  /* CY_PSOC4 */
 268:Generated_Source\PSoC5/CAN_TX_RX_func.c ****             if ((CAN_TX_CMD_REG(1u) & CAN_TX_REQUEST_PENDING) != 0u)
 269:Generated_Source\PSoC5/CAN_TX_RX_func.c ****         #endif /* CY_PSOC3 || CY_PSOC5 */
 270:Generated_Source\PSoC5/CAN_TX_RX_func.c ****             {
 271:Generated_Source\PSoC5/CAN_TX_RX_func.c ****                 result = CAN_FAIL;
 272:Generated_Source\PSoC5/CAN_TX_RX_func.c ****             }
 273:Generated_Source\PSoC5/CAN_TX_RX_func.c ****             else
 274:Generated_Source\PSoC5/CAN_TX_RX_func.c ****             {
 275:Generated_Source\PSoC5/CAN_TX_RX_func.c ****                 /* `#START MESSAGE_Dash_cmd_TRASMITTED` */
 276:Generated_Source\PSoC5/CAN_TX_RX_func.c **** 
 277:Generated_Source\PSoC5/CAN_TX_RX_func.c ****                 /* `#END` */
 278:Generated_Source\PSoC5/CAN_TX_RX_func.c **** 
 279:Generated_Source\PSoC5/CAN_TX_RX_func.c ****                 #ifdef CAN_SEND_MSG_Dash_cmd_CALLBACK
 280:Generated_Source\PSoC5/CAN_TX_RX_func.c ****                     CAN_SendMsg_Dash_cmd_Callback();
 281:Generated_Source\PSoC5/CAN_TX_RX_func.c ****                 #endif /* CAN_SEND_MSG_Dash_cmd_CALLBACK */
 282:Generated_Source\PSoC5/CAN_TX_RX_func.c **** 
 283:Generated_Source\PSoC5/CAN_TX_RX_func.c ****                 CY_SET_REG32(CAN_TX_CMD_PTR(1u),
 308              		.loc 1 283 0
 309 000a 044A     		ldr	r2, .L36
 310 000c 1368     		ldr	r3, [r2]
 311 000e 43F00103 		orr	r3, r3, #1
 312 0012 1360     		str	r3, [r2]
 263:Generated_Source\PSoC5/CAN_TX_RX_func.c ****         uint8 result = CYRET_SUCCESS;
 313              		.loc 1 263 0
 314 0014 0020     		movs	r0, #0
 315 0016 7047     		bx	lr
 316              	.L35:
 271:Generated_Source\PSoC5/CAN_TX_RX_func.c ****             }
 317              		.loc 1 271 0
 318 0018 0120     		movs	r0, #1
 319              	.LVL31:
 284:Generated_Source\PSoC5/CAN_TX_RX_func.c ****                 CY_GET_REG32(CAN_TX_CMD_PTR(1u)) | CAN_SEND_MESSAGE);
 285:Generated_Source\PSoC5/CAN_TX_RX_func.c ****             }
 286:Generated_Source\PSoC5/CAN_TX_RX_func.c **** 
 287:Generated_Source\PSoC5/CAN_TX_RX_func.c ****         return (result);
 288:Generated_Source\PSoC5/CAN_TX_RX_func.c ****     }
 320              		.loc 1 288 0
 321 001a 7047     		bx	lr
 322              	.L37:
 323              		.align	2
 324              	.L36:
 325 001c 30A00040 		.word	1073782832
 326              		.cfi_endproc
 327              	.LFE66:
 328              		.size	CAN_SendMsgDash_cmd, .-CAN_SendMsgDash_cmd
ARM GAS  C:\Users\ANDREY~1\AppData\Local\Temp\cccGypfV.s 			page 12


 329              		.section	.text.CAN_ReceiveMsg,"ax",%progbits
 330              		.align	2
 331              		.global	CAN_ReceiveMsg
 332              		.thumb
 333              		.thumb_func
 334              		.type	CAN_ReceiveMsg, %function
 335              	CAN_ReceiveMsg:
 336              	.LFB67:
 289:Generated_Source\PSoC5/CAN_TX_RX_func.c **** #endif /* CAN_TX1_FUNC_ENABLE */
 290:Generated_Source\PSoC5/CAN_TX_RX_func.c **** 
 291:Generated_Source\PSoC5/CAN_TX_RX_func.c **** 
 292:Generated_Source\PSoC5/CAN_TX_RX_func.c **** #if (CAN_TX2_FUNC_ENABLE)
 293:Generated_Source\PSoC5/CAN_TX_RX_func.c ****     /*******************************************************************************
 294:Generated_Source\PSoC5/CAN_TX_RX_func.c ****     * FUNCTION NAME:   CAN_SendMsg2
 295:Generated_Source\PSoC5/CAN_TX_RX_func.c ****     ********************************************************************************
 296:Generated_Source\PSoC5/CAN_TX_RX_func.c ****     *
 297:Generated_Source\PSoC5/CAN_TX_RX_func.c ****     * Summary:
 298:Generated_Source\PSoC5/CAN_TX_RX_func.c ****     *  This function is the entry point to Transmit Message 2. The function checks
 299:Generated_Source\PSoC5/CAN_TX_RX_func.c ****     *  if mailbox 2 doesn't already have un-transmitted messages waiting for
 300:Generated_Source\PSoC5/CAN_TX_RX_func.c ****     *  arbitration. If not initiate transmission of the message.
 301:Generated_Source\PSoC5/CAN_TX_RX_func.c ****     *  Generated only for the Transmit mailbox designed as Full.
 302:Generated_Source\PSoC5/CAN_TX_RX_func.c ****     *
 303:Generated_Source\PSoC5/CAN_TX_RX_func.c ****     * Parameters:
 304:Generated_Source\PSoC5/CAN_TX_RX_func.c ****     *  None.
 305:Generated_Source\PSoC5/CAN_TX_RX_func.c ****     *
 306:Generated_Source\PSoC5/CAN_TX_RX_func.c ****     * Return:
 307:Generated_Source\PSoC5/CAN_TX_RX_func.c ****     *  Indication if Message has been sent.
 308:Generated_Source\PSoC5/CAN_TX_RX_func.c ****     *   Define                             Description
 309:Generated_Source\PSoC5/CAN_TX_RX_func.c ****     *    CYRET_SUCCESS                      The function passed successfully
 310:Generated_Source\PSoC5/CAN_TX_RX_func.c ****     *    CAN_FAIL              The function failed
 311:Generated_Source\PSoC5/CAN_TX_RX_func.c ****     *
 312:Generated_Source\PSoC5/CAN_TX_RX_func.c ****     *******************************************************************************/
 313:Generated_Source\PSoC5/CAN_TX_RX_func.c ****     uint8 CAN_SendMsg2(void) 
 314:Generated_Source\PSoC5/CAN_TX_RX_func.c ****     {
 315:Generated_Source\PSoC5/CAN_TX_RX_func.c ****         uint8 result = CYRET_SUCCESS;
 316:Generated_Source\PSoC5/CAN_TX_RX_func.c **** 
 317:Generated_Source\PSoC5/CAN_TX_RX_func.c ****         #if (CY_PSOC3 || CY_PSOC5)
 318:Generated_Source\PSoC5/CAN_TX_RX_func.c ****             if ((CAN_TX[2u].txcmd.byte[0u] & CAN_TX_REQUEST_PENDING) != 0u)
 319:Generated_Source\PSoC5/CAN_TX_RX_func.c ****         #else  /* CY_PSOC4 */
 320:Generated_Source\PSoC5/CAN_TX_RX_func.c ****             if ((CAN_TX_CMD_REG(2u) & CAN_TX_REQUEST_PENDING) != 0u)
 321:Generated_Source\PSoC5/CAN_TX_RX_func.c ****         #endif /* CY_PSOC3 || CY_PSOC5 */
 322:Generated_Source\PSoC5/CAN_TX_RX_func.c ****             {
 323:Generated_Source\PSoC5/CAN_TX_RX_func.c ****                 result = CAN_FAIL;
 324:Generated_Source\PSoC5/CAN_TX_RX_func.c ****             }
 325:Generated_Source\PSoC5/CAN_TX_RX_func.c ****             else
 326:Generated_Source\PSoC5/CAN_TX_RX_func.c ****             {
 327:Generated_Source\PSoC5/CAN_TX_RX_func.c ****                 /* `#START MESSAGE_2_TRASMITTED` */
 328:Generated_Source\PSoC5/CAN_TX_RX_func.c **** 
 329:Generated_Source\PSoC5/CAN_TX_RX_func.c ****                 /* `#END` */
 330:Generated_Source\PSoC5/CAN_TX_RX_func.c **** 
 331:Generated_Source\PSoC5/CAN_TX_RX_func.c ****                 #ifdef CAN_SEND_MSG_2_CALLBACK
 332:Generated_Source\PSoC5/CAN_TX_RX_func.c ****                     CAN_SendMsg_2_Callback();
 333:Generated_Source\PSoC5/CAN_TX_RX_func.c ****                 #endif /* CAN_SEND_MSG_2_CALLBACK */
 334:Generated_Source\PSoC5/CAN_TX_RX_func.c **** 
 335:Generated_Source\PSoC5/CAN_TX_RX_func.c ****                 CY_SET_REG32(CAN_TX_CMD_PTR(2u),
 336:Generated_Source\PSoC5/CAN_TX_RX_func.c ****                 CY_GET_REG32(CAN_TX_CMD_PTR(2u)) | CAN_SEND_MESSAGE);
 337:Generated_Source\PSoC5/CAN_TX_RX_func.c ****             }
ARM GAS  C:\Users\ANDREY~1\AppData\Local\Temp\cccGypfV.s 			page 13


 338:Generated_Source\PSoC5/CAN_TX_RX_func.c **** 
 339:Generated_Source\PSoC5/CAN_TX_RX_func.c ****         return (result);
 340:Generated_Source\PSoC5/CAN_TX_RX_func.c ****     }
 341:Generated_Source\PSoC5/CAN_TX_RX_func.c **** #endif /* CAN_TX2_FUNC_ENABLE */
 342:Generated_Source\PSoC5/CAN_TX_RX_func.c **** 
 343:Generated_Source\PSoC5/CAN_TX_RX_func.c **** 
 344:Generated_Source\PSoC5/CAN_TX_RX_func.c **** #if (CAN_TX3_FUNC_ENABLE)
 345:Generated_Source\PSoC5/CAN_TX_RX_func.c ****     /*******************************************************************************
 346:Generated_Source\PSoC5/CAN_TX_RX_func.c ****     * FUNCTION NAME:   CAN_SendMsg3
 347:Generated_Source\PSoC5/CAN_TX_RX_func.c ****     ********************************************************************************
 348:Generated_Source\PSoC5/CAN_TX_RX_func.c ****     *
 349:Generated_Source\PSoC5/CAN_TX_RX_func.c ****     * Summary:
 350:Generated_Source\PSoC5/CAN_TX_RX_func.c ****     *  This function is the entry point to Transmit Message 3. The function checks
 351:Generated_Source\PSoC5/CAN_TX_RX_func.c ****     *  if mailbox 3 doesn't already have un-transmitted messages waiting for
 352:Generated_Source\PSoC5/CAN_TX_RX_func.c ****     *  arbitration. If not initiate transmission of the message.
 353:Generated_Source\PSoC5/CAN_TX_RX_func.c ****     *  Generated only for the Transmit mailbox designed as Full.
 354:Generated_Source\PSoC5/CAN_TX_RX_func.c ****     *
 355:Generated_Source\PSoC5/CAN_TX_RX_func.c ****     * Parameters:
 356:Generated_Source\PSoC5/CAN_TX_RX_func.c ****     *  None.
 357:Generated_Source\PSoC5/CAN_TX_RX_func.c ****     *
 358:Generated_Source\PSoC5/CAN_TX_RX_func.c ****     * Return:
 359:Generated_Source\PSoC5/CAN_TX_RX_func.c ****     *  Indication if Message has been sent.
 360:Generated_Source\PSoC5/CAN_TX_RX_func.c ****     *   Define                             Description
 361:Generated_Source\PSoC5/CAN_TX_RX_func.c ****     *    CYRET_SUCCESS                      The function passed successfully
 362:Generated_Source\PSoC5/CAN_TX_RX_func.c ****     *    CAN_FAIL              The function failed
 363:Generated_Source\PSoC5/CAN_TX_RX_func.c ****     *
 364:Generated_Source\PSoC5/CAN_TX_RX_func.c ****     *******************************************************************************/
 365:Generated_Source\PSoC5/CAN_TX_RX_func.c ****     uint8 CAN_SendMsg3(void) 
 366:Generated_Source\PSoC5/CAN_TX_RX_func.c ****     {
 367:Generated_Source\PSoC5/CAN_TX_RX_func.c ****         uint8 result = CYRET_SUCCESS;
 368:Generated_Source\PSoC5/CAN_TX_RX_func.c **** 
 369:Generated_Source\PSoC5/CAN_TX_RX_func.c ****         #if (CY_PSOC3 || CY_PSOC5)
 370:Generated_Source\PSoC5/CAN_TX_RX_func.c ****             if ((CAN_TX[3u].txcmd.byte[0u] & CAN_TX_REQUEST_PENDING) != 0u)
 371:Generated_Source\PSoC5/CAN_TX_RX_func.c ****         #else  /* CY_PSOC4 */
 372:Generated_Source\PSoC5/CAN_TX_RX_func.c ****             if ((CAN_TX_CMD_REG(3u) & CAN_TX_REQUEST_PENDING) != 0u)
 373:Generated_Source\PSoC5/CAN_TX_RX_func.c ****         #endif /* CY_PSOC3 || CY_PSOC5 */
 374:Generated_Source\PSoC5/CAN_TX_RX_func.c ****             {
 375:Generated_Source\PSoC5/CAN_TX_RX_func.c ****                 result = CAN_FAIL;
 376:Generated_Source\PSoC5/CAN_TX_RX_func.c ****             }
 377:Generated_Source\PSoC5/CAN_TX_RX_func.c ****             else
 378:Generated_Source\PSoC5/CAN_TX_RX_func.c ****             {
 379:Generated_Source\PSoC5/CAN_TX_RX_func.c ****                 /* `#START MESSAGE_3_TRASMITTED` */
 380:Generated_Source\PSoC5/CAN_TX_RX_func.c **** 
 381:Generated_Source\PSoC5/CAN_TX_RX_func.c ****                 /* `#END` */
 382:Generated_Source\PSoC5/CAN_TX_RX_func.c **** 
 383:Generated_Source\PSoC5/CAN_TX_RX_func.c ****                 #ifdef CAN_SEND_MSG_3_CALLBACK
 384:Generated_Source\PSoC5/CAN_TX_RX_func.c ****                     CAN_SendMsg_3_Callback();
 385:Generated_Source\PSoC5/CAN_TX_RX_func.c ****                 #endif /* CAN_SEND_MSG_3_CALLBACK */
 386:Generated_Source\PSoC5/CAN_TX_RX_func.c **** 
 387:Generated_Source\PSoC5/CAN_TX_RX_func.c ****                 CY_SET_REG32(CAN_TX_CMD_PTR(3u),
 388:Generated_Source\PSoC5/CAN_TX_RX_func.c ****                 CY_GET_REG32(CAN_TX_CMD_PTR(3u)) | CAN_SEND_MESSAGE);
 389:Generated_Source\PSoC5/CAN_TX_RX_func.c ****             }
 390:Generated_Source\PSoC5/CAN_TX_RX_func.c **** 
 391:Generated_Source\PSoC5/CAN_TX_RX_func.c ****         return (result);
 392:Generated_Source\PSoC5/CAN_TX_RX_func.c ****     }
 393:Generated_Source\PSoC5/CAN_TX_RX_func.c **** #endif /* CAN_TX3_FUNC_ENABLE */
 394:Generated_Source\PSoC5/CAN_TX_RX_func.c **** 
ARM GAS  C:\Users\ANDREY~1\AppData\Local\Temp\cccGypfV.s 			page 14


 395:Generated_Source\PSoC5/CAN_TX_RX_func.c **** 
 396:Generated_Source\PSoC5/CAN_TX_RX_func.c **** #if (CAN_TX4_FUNC_ENABLE)
 397:Generated_Source\PSoC5/CAN_TX_RX_func.c ****     /*******************************************************************************
 398:Generated_Source\PSoC5/CAN_TX_RX_func.c ****     * FUNCTION NAME:   CAN_SendMsg4
 399:Generated_Source\PSoC5/CAN_TX_RX_func.c ****     ********************************************************************************
 400:Generated_Source\PSoC5/CAN_TX_RX_func.c ****     *
 401:Generated_Source\PSoC5/CAN_TX_RX_func.c ****     * Summary:
 402:Generated_Source\PSoC5/CAN_TX_RX_func.c ****     *  This function is the entry point to Transmit Message 4. The function checks
 403:Generated_Source\PSoC5/CAN_TX_RX_func.c ****     *  if mailbox 4 doesn't already have un-transmitted messages waiting for
 404:Generated_Source\PSoC5/CAN_TX_RX_func.c ****     *  arbitration. If not initiate transmission of the message.
 405:Generated_Source\PSoC5/CAN_TX_RX_func.c ****     *  Generated only for the Transmit mailbox designed as Full.
 406:Generated_Source\PSoC5/CAN_TX_RX_func.c ****     *
 407:Generated_Source\PSoC5/CAN_TX_RX_func.c ****     * Parameters:
 408:Generated_Source\PSoC5/CAN_TX_RX_func.c ****     *  None.
 409:Generated_Source\PSoC5/CAN_TX_RX_func.c ****     *
 410:Generated_Source\PSoC5/CAN_TX_RX_func.c ****     * Return:
 411:Generated_Source\PSoC5/CAN_TX_RX_func.c ****     *  Indication if Message has been sent.
 412:Generated_Source\PSoC5/CAN_TX_RX_func.c ****     *   Define                             Description
 413:Generated_Source\PSoC5/CAN_TX_RX_func.c ****     *    CYRET_SUCCESS                      The function passed successfully
 414:Generated_Source\PSoC5/CAN_TX_RX_func.c ****     *    CAN_FAIL              The function failed
 415:Generated_Source\PSoC5/CAN_TX_RX_func.c ****     *
 416:Generated_Source\PSoC5/CAN_TX_RX_func.c ****     *******************************************************************************/
 417:Generated_Source\PSoC5/CAN_TX_RX_func.c ****     uint8 CAN_SendMsg4(void) 
 418:Generated_Source\PSoC5/CAN_TX_RX_func.c ****     {
 419:Generated_Source\PSoC5/CAN_TX_RX_func.c ****         uint8 result = CYRET_SUCCESS;
 420:Generated_Source\PSoC5/CAN_TX_RX_func.c **** 
 421:Generated_Source\PSoC5/CAN_TX_RX_func.c ****         #if (CY_PSOC3 || CY_PSOC5)
 422:Generated_Source\PSoC5/CAN_TX_RX_func.c ****             if ((CAN_TX[4u].txcmd.byte[0u] & CAN_TX_REQUEST_PENDING) != 0u)
 423:Generated_Source\PSoC5/CAN_TX_RX_func.c ****         #else  /* CY_PSOC4 */
 424:Generated_Source\PSoC5/CAN_TX_RX_func.c ****             if ((CAN_TX_CMD_REG(4u) & CAN_TX_REQUEST_PENDING) != 0u)
 425:Generated_Source\PSoC5/CAN_TX_RX_func.c ****         #endif /* CY_PSOC3 || CY_PSOC5 */
 426:Generated_Source\PSoC5/CAN_TX_RX_func.c ****             {
 427:Generated_Source\PSoC5/CAN_TX_RX_func.c ****                 result = CAN_FAIL;
 428:Generated_Source\PSoC5/CAN_TX_RX_func.c ****             }
 429:Generated_Source\PSoC5/CAN_TX_RX_func.c ****             else
 430:Generated_Source\PSoC5/CAN_TX_RX_func.c ****             {
 431:Generated_Source\PSoC5/CAN_TX_RX_func.c ****                 /* `#START MESSAGE_4_TRASMITTED` */
 432:Generated_Source\PSoC5/CAN_TX_RX_func.c **** 
 433:Generated_Source\PSoC5/CAN_TX_RX_func.c ****                 /* `#END` */
 434:Generated_Source\PSoC5/CAN_TX_RX_func.c **** 
 435:Generated_Source\PSoC5/CAN_TX_RX_func.c ****                 #ifdef CAN_SEND_MSG_4_CALLBACK
 436:Generated_Source\PSoC5/CAN_TX_RX_func.c ****                     CAN_SendMsg_4_Callback();
 437:Generated_Source\PSoC5/CAN_TX_RX_func.c ****                 #endif /* CAN_SEND_MSG_4_CALLBACK */
 438:Generated_Source\PSoC5/CAN_TX_RX_func.c **** 
 439:Generated_Source\PSoC5/CAN_TX_RX_func.c ****                 CY_SET_REG32(CAN_TX_CMD_PTR(4u),
 440:Generated_Source\PSoC5/CAN_TX_RX_func.c ****                 CY_GET_REG32(CAN_TX_CMD_PTR(4u)) | CAN_SEND_MESSAGE);
 441:Generated_Source\PSoC5/CAN_TX_RX_func.c ****             }
 442:Generated_Source\PSoC5/CAN_TX_RX_func.c **** 
 443:Generated_Source\PSoC5/CAN_TX_RX_func.c ****         return (result);
 444:Generated_Source\PSoC5/CAN_TX_RX_func.c ****     }
 445:Generated_Source\PSoC5/CAN_TX_RX_func.c **** #endif /* CAN_TX4_FUNC_ENABLE */
 446:Generated_Source\PSoC5/CAN_TX_RX_func.c **** 
 447:Generated_Source\PSoC5/CAN_TX_RX_func.c **** 
 448:Generated_Source\PSoC5/CAN_TX_RX_func.c **** #if (CAN_TX5_FUNC_ENABLE)
 449:Generated_Source\PSoC5/CAN_TX_RX_func.c ****     /*******************************************************************************
 450:Generated_Source\PSoC5/CAN_TX_RX_func.c ****     * FUNCTION NAME:   CAN_SendMsg5
 451:Generated_Source\PSoC5/CAN_TX_RX_func.c ****     ********************************************************************************
ARM GAS  C:\Users\ANDREY~1\AppData\Local\Temp\cccGypfV.s 			page 15


 452:Generated_Source\PSoC5/CAN_TX_RX_func.c ****     *
 453:Generated_Source\PSoC5/CAN_TX_RX_func.c ****     * Summary:
 454:Generated_Source\PSoC5/CAN_TX_RX_func.c ****     *  This function is the entry point to Transmit Message 5. The function checks
 455:Generated_Source\PSoC5/CAN_TX_RX_func.c ****     *  if mailbox 5 doesn't already have un-transmitted messages waiting for
 456:Generated_Source\PSoC5/CAN_TX_RX_func.c ****     *  arbitration. If not initiate transmission of the message.
 457:Generated_Source\PSoC5/CAN_TX_RX_func.c ****     *  Generated only for the Transmit mailbox designed as Full.
 458:Generated_Source\PSoC5/CAN_TX_RX_func.c ****     *
 459:Generated_Source\PSoC5/CAN_TX_RX_func.c ****     * Parameters:
 460:Generated_Source\PSoC5/CAN_TX_RX_func.c ****     *  None.
 461:Generated_Source\PSoC5/CAN_TX_RX_func.c ****     *
 462:Generated_Source\PSoC5/CAN_TX_RX_func.c ****     * Return:
 463:Generated_Source\PSoC5/CAN_TX_RX_func.c ****     *  Indication if Message has been sent.
 464:Generated_Source\PSoC5/CAN_TX_RX_func.c ****     *   Define                             Description
 465:Generated_Source\PSoC5/CAN_TX_RX_func.c ****     *    CYRET_SUCCESS                      The function passed successfully
 466:Generated_Source\PSoC5/CAN_TX_RX_func.c ****     *    CAN_FAIL              The function failed
 467:Generated_Source\PSoC5/CAN_TX_RX_func.c ****     *
 468:Generated_Source\PSoC5/CAN_TX_RX_func.c ****     *******************************************************************************/
 469:Generated_Source\PSoC5/CAN_TX_RX_func.c ****     uint8 CAN_SendMsg5(void) 
 470:Generated_Source\PSoC5/CAN_TX_RX_func.c ****     {
 471:Generated_Source\PSoC5/CAN_TX_RX_func.c ****         uint8 result = CYRET_SUCCESS;
 472:Generated_Source\PSoC5/CAN_TX_RX_func.c **** 
 473:Generated_Source\PSoC5/CAN_TX_RX_func.c ****         #if (CY_PSOC3 || CY_PSOC5)
 474:Generated_Source\PSoC5/CAN_TX_RX_func.c ****             if ((CAN_TX[5u].txcmd.byte[0u] & CAN_TX_REQUEST_PENDING) != 0u)
 475:Generated_Source\PSoC5/CAN_TX_RX_func.c ****         #else  /* CY_PSOC4 */
 476:Generated_Source\PSoC5/CAN_TX_RX_func.c ****             if ((CAN_TX_CMD_REG(5u) & CAN_TX_REQUEST_PENDING) != 0u)
 477:Generated_Source\PSoC5/CAN_TX_RX_func.c ****         #endif /* CY_PSOC3 || CY_PSOC5 */
 478:Generated_Source\PSoC5/CAN_TX_RX_func.c ****             {
 479:Generated_Source\PSoC5/CAN_TX_RX_func.c ****                 result = CAN_FAIL;
 480:Generated_Source\PSoC5/CAN_TX_RX_func.c ****             }
 481:Generated_Source\PSoC5/CAN_TX_RX_func.c ****             else
 482:Generated_Source\PSoC5/CAN_TX_RX_func.c ****             {
 483:Generated_Source\PSoC5/CAN_TX_RX_func.c ****                 /* `#START MESSAGE_5_TRASMITTED` */
 484:Generated_Source\PSoC5/CAN_TX_RX_func.c **** 
 485:Generated_Source\PSoC5/CAN_TX_RX_func.c ****                 /* `#END` */
 486:Generated_Source\PSoC5/CAN_TX_RX_func.c **** 
 487:Generated_Source\PSoC5/CAN_TX_RX_func.c ****                 #ifdef CAN_SEND_MSG_5_CALLBACK
 488:Generated_Source\PSoC5/CAN_TX_RX_func.c ****                     CAN_SendMsg_5_Callback();
 489:Generated_Source\PSoC5/CAN_TX_RX_func.c ****                 #endif /* CAN_SEND_MSG_5_CALLBACK */
 490:Generated_Source\PSoC5/CAN_TX_RX_func.c **** 
 491:Generated_Source\PSoC5/CAN_TX_RX_func.c ****                 CY_SET_REG32(CAN_TX_CMD_PTR(5u),
 492:Generated_Source\PSoC5/CAN_TX_RX_func.c ****                 CY_GET_REG32(CAN_TX_CMD_PTR(5u)) | CAN_SEND_MESSAGE);
 493:Generated_Source\PSoC5/CAN_TX_RX_func.c ****             }
 494:Generated_Source\PSoC5/CAN_TX_RX_func.c **** 
 495:Generated_Source\PSoC5/CAN_TX_RX_func.c ****         return (result);
 496:Generated_Source\PSoC5/CAN_TX_RX_func.c ****     }
 497:Generated_Source\PSoC5/CAN_TX_RX_func.c **** #endif /* CAN_TX5_FUNC_ENABLE */
 498:Generated_Source\PSoC5/CAN_TX_RX_func.c **** 
 499:Generated_Source\PSoC5/CAN_TX_RX_func.c **** 
 500:Generated_Source\PSoC5/CAN_TX_RX_func.c **** #if (CAN_TX6_FUNC_ENABLE)
 501:Generated_Source\PSoC5/CAN_TX_RX_func.c ****     /*******************************************************************************
 502:Generated_Source\PSoC5/CAN_TX_RX_func.c ****     * FUNCTION NAME:   CAN_SendMsg6
 503:Generated_Source\PSoC5/CAN_TX_RX_func.c ****     ********************************************************************************
 504:Generated_Source\PSoC5/CAN_TX_RX_func.c ****     *
 505:Generated_Source\PSoC5/CAN_TX_RX_func.c ****     * Summary:
 506:Generated_Source\PSoC5/CAN_TX_RX_func.c ****     *  This function is the entry point to Transmit Message 6. The function checks
 507:Generated_Source\PSoC5/CAN_TX_RX_func.c ****     *  if mailbox 6 doesn't already have un-transmitted messages waiting for
 508:Generated_Source\PSoC5/CAN_TX_RX_func.c ****     *  arbitration. If not initiate transmission of the message.
ARM GAS  C:\Users\ANDREY~1\AppData\Local\Temp\cccGypfV.s 			page 16


 509:Generated_Source\PSoC5/CAN_TX_RX_func.c ****     *  Generated only for the Transmit mailbox designed as Full.
 510:Generated_Source\PSoC5/CAN_TX_RX_func.c ****     *
 511:Generated_Source\PSoC5/CAN_TX_RX_func.c ****     * Parameters:
 512:Generated_Source\PSoC5/CAN_TX_RX_func.c ****     *  None.
 513:Generated_Source\PSoC5/CAN_TX_RX_func.c ****     *
 514:Generated_Source\PSoC5/CAN_TX_RX_func.c ****     * Return:
 515:Generated_Source\PSoC5/CAN_TX_RX_func.c ****     *  Indication if Message has been sent.
 516:Generated_Source\PSoC5/CAN_TX_RX_func.c ****     *   Define                             Description
 517:Generated_Source\PSoC5/CAN_TX_RX_func.c ****     *    CYRET_SUCCESS                      The function passed successfully
 518:Generated_Source\PSoC5/CAN_TX_RX_func.c ****     *    CAN_FAIL              The function failed
 519:Generated_Source\PSoC5/CAN_TX_RX_func.c ****     *
 520:Generated_Source\PSoC5/CAN_TX_RX_func.c ****     *******************************************************************************/
 521:Generated_Source\PSoC5/CAN_TX_RX_func.c ****     uint8 CAN_SendMsg6(void) 
 522:Generated_Source\PSoC5/CAN_TX_RX_func.c ****     {
 523:Generated_Source\PSoC5/CAN_TX_RX_func.c ****         uint8 result = CYRET_SUCCESS;
 524:Generated_Source\PSoC5/CAN_TX_RX_func.c **** 
 525:Generated_Source\PSoC5/CAN_TX_RX_func.c ****         #if (CY_PSOC3 || CY_PSOC5)
 526:Generated_Source\PSoC5/CAN_TX_RX_func.c ****             if ((CAN_TX[6u].txcmd.byte[0u] & CAN_TX_REQUEST_PENDING) != 0u)
 527:Generated_Source\PSoC5/CAN_TX_RX_func.c ****         #else  /* CY_PSOC4 */
 528:Generated_Source\PSoC5/CAN_TX_RX_func.c ****             if ((CAN_TX_CMD_REG(6u) & CAN_TX_REQUEST_PENDING) != 0u)
 529:Generated_Source\PSoC5/CAN_TX_RX_func.c ****         #endif /* CY_PSOC3 || CY_PSOC5 */
 530:Generated_Source\PSoC5/CAN_TX_RX_func.c ****             {
 531:Generated_Source\PSoC5/CAN_TX_RX_func.c ****                 result = CAN_FAIL;
 532:Generated_Source\PSoC5/CAN_TX_RX_func.c ****             }
 533:Generated_Source\PSoC5/CAN_TX_RX_func.c ****             else
 534:Generated_Source\PSoC5/CAN_TX_RX_func.c ****             {
 535:Generated_Source\PSoC5/CAN_TX_RX_func.c ****                 /* `#START MESSAGE_6_TRASMITTED` */
 536:Generated_Source\PSoC5/CAN_TX_RX_func.c **** 
 537:Generated_Source\PSoC5/CAN_TX_RX_func.c ****                 /* `#END` */
 538:Generated_Source\PSoC5/CAN_TX_RX_func.c **** 
 539:Generated_Source\PSoC5/CAN_TX_RX_func.c ****                 #ifdef CAN_SEND_MSG_6_CALLBACK
 540:Generated_Source\PSoC5/CAN_TX_RX_func.c ****                     CAN_SendMsg_6_Callback();
 541:Generated_Source\PSoC5/CAN_TX_RX_func.c ****                 #endif /* CAN_SEND_MSG_6_CALLBACK */
 542:Generated_Source\PSoC5/CAN_TX_RX_func.c **** 
 543:Generated_Source\PSoC5/CAN_TX_RX_func.c ****                 CY_SET_REG32(CAN_TX_CMD_PTR(6u),
 544:Generated_Source\PSoC5/CAN_TX_RX_func.c ****                 CY_GET_REG32(CAN_TX_CMD_PTR(6u)) | CAN_SEND_MESSAGE);
 545:Generated_Source\PSoC5/CAN_TX_RX_func.c ****             }
 546:Generated_Source\PSoC5/CAN_TX_RX_func.c **** 
 547:Generated_Source\PSoC5/CAN_TX_RX_func.c ****         return (result);
 548:Generated_Source\PSoC5/CAN_TX_RX_func.c ****     }
 549:Generated_Source\PSoC5/CAN_TX_RX_func.c **** #endif /* CAN_TX6_FUNC_ENABLE */
 550:Generated_Source\PSoC5/CAN_TX_RX_func.c **** 
 551:Generated_Source\PSoC5/CAN_TX_RX_func.c **** 
 552:Generated_Source\PSoC5/CAN_TX_RX_func.c **** #if (CAN_TX7_FUNC_ENABLE)
 553:Generated_Source\PSoC5/CAN_TX_RX_func.c ****     /*******************************************************************************
 554:Generated_Source\PSoC5/CAN_TX_RX_func.c ****     * FUNCTION NAME:   CAN_SendMsg7)
 555:Generated_Source\PSoC5/CAN_TX_RX_func.c ****     ********************************************************************************
 556:Generated_Source\PSoC5/CAN_TX_RX_func.c ****     *
 557:Generated_Source\PSoC5/CAN_TX_RX_func.c ****     * Summary:
 558:Generated_Source\PSoC5/CAN_TX_RX_func.c ****     *  This function is the entry point to Transmit Message 7. The function checks
 559:Generated_Source\PSoC5/CAN_TX_RX_func.c ****     *  if mailbox 7 doesn't already have un-transmitted messages waiting for
 560:Generated_Source\PSoC5/CAN_TX_RX_func.c ****     *  arbitration. If not initiate transmission of the message.
 561:Generated_Source\PSoC5/CAN_TX_RX_func.c ****     *  Generated only for the Transmit mailbox designed as Full.
 562:Generated_Source\PSoC5/CAN_TX_RX_func.c ****     *
 563:Generated_Source\PSoC5/CAN_TX_RX_func.c ****     * Parameters:
 564:Generated_Source\PSoC5/CAN_TX_RX_func.c ****     *  None.
 565:Generated_Source\PSoC5/CAN_TX_RX_func.c ****     *
ARM GAS  C:\Users\ANDREY~1\AppData\Local\Temp\cccGypfV.s 			page 17


 566:Generated_Source\PSoC5/CAN_TX_RX_func.c ****     * Return:
 567:Generated_Source\PSoC5/CAN_TX_RX_func.c ****     *  Indication if Message has been sent.
 568:Generated_Source\PSoC5/CAN_TX_RX_func.c ****     *   Define                             Description
 569:Generated_Source\PSoC5/CAN_TX_RX_func.c ****     *    CYRET_SUCCESS                      The function passed successfully
 570:Generated_Source\PSoC5/CAN_TX_RX_func.c ****     *    CAN_FAIL              The function failed
 571:Generated_Source\PSoC5/CAN_TX_RX_func.c ****     *
 572:Generated_Source\PSoC5/CAN_TX_RX_func.c ****     *******************************************************************************/
 573:Generated_Source\PSoC5/CAN_TX_RX_func.c ****     uint8 CAN_SendMsg7(void) 
 574:Generated_Source\PSoC5/CAN_TX_RX_func.c ****     {
 575:Generated_Source\PSoC5/CAN_TX_RX_func.c ****         uint8 result = CYRET_SUCCESS;
 576:Generated_Source\PSoC5/CAN_TX_RX_func.c **** 
 577:Generated_Source\PSoC5/CAN_TX_RX_func.c ****         #if (CY_PSOC3 || CY_PSOC5)
 578:Generated_Source\PSoC5/CAN_TX_RX_func.c ****             if ((CAN_TX[7u].txcmd.byte[0u] & CAN_TX_REQUEST_PENDING) != 0u)
 579:Generated_Source\PSoC5/CAN_TX_RX_func.c ****         #else  /* CY_PSOC4 */
 580:Generated_Source\PSoC5/CAN_TX_RX_func.c ****             if ((CAN_TX_CMD_REG(7u) & CAN_TX_REQUEST_PENDING) != 0u)
 581:Generated_Source\PSoC5/CAN_TX_RX_func.c ****         #endif /* CY_PSOC3 || CY_PSOC5 */
 582:Generated_Source\PSoC5/CAN_TX_RX_func.c ****             {
 583:Generated_Source\PSoC5/CAN_TX_RX_func.c ****                 result = CAN_FAIL;
 584:Generated_Source\PSoC5/CAN_TX_RX_func.c ****             }
 585:Generated_Source\PSoC5/CAN_TX_RX_func.c ****             else
 586:Generated_Source\PSoC5/CAN_TX_RX_func.c ****             {
 587:Generated_Source\PSoC5/CAN_TX_RX_func.c ****                 /* `#START MESSAGE_7_TRASMITTED` */
 588:Generated_Source\PSoC5/CAN_TX_RX_func.c **** 
 589:Generated_Source\PSoC5/CAN_TX_RX_func.c ****                 /* `#END` */
 590:Generated_Source\PSoC5/CAN_TX_RX_func.c **** 
 591:Generated_Source\PSoC5/CAN_TX_RX_func.c ****                 #ifdef CAN_SEND_MSG_7_CALLBACK
 592:Generated_Source\PSoC5/CAN_TX_RX_func.c ****                     CAN_SendMsg_7_Callback();
 593:Generated_Source\PSoC5/CAN_TX_RX_func.c ****                 #endif /* CAN_SEND_MSG_7_CALLBACK */
 594:Generated_Source\PSoC5/CAN_TX_RX_func.c **** 
 595:Generated_Source\PSoC5/CAN_TX_RX_func.c ****                 CY_SET_REG32(CAN_TX_CMD_PTR(7u),
 596:Generated_Source\PSoC5/CAN_TX_RX_func.c ****                 CY_GET_REG32(CAN_TX_CMD_PTR(7u)) | CAN_SEND_MESSAGE);
 597:Generated_Source\PSoC5/CAN_TX_RX_func.c ****             }
 598:Generated_Source\PSoC5/CAN_TX_RX_func.c **** 
 599:Generated_Source\PSoC5/CAN_TX_RX_func.c ****         return (result);
 600:Generated_Source\PSoC5/CAN_TX_RX_func.c ****     }
 601:Generated_Source\PSoC5/CAN_TX_RX_func.c **** #endif /* CAN_TX7_FUNC_ENABLE */
 602:Generated_Source\PSoC5/CAN_TX_RX_func.c **** 
 603:Generated_Source\PSoC5/CAN_TX_RX_func.c **** 
 604:Generated_Source\PSoC5/CAN_TX_RX_func.c **** /*******************************************************************************
 605:Generated_Source\PSoC5/CAN_TX_RX_func.c **** * FUNCTION NAME:   CAN_ReceiveMsg
 606:Generated_Source\PSoC5/CAN_TX_RX_func.c **** ********************************************************************************
 607:Generated_Source\PSoC5/CAN_TX_RX_func.c **** *
 608:Generated_Source\PSoC5/CAN_TX_RX_func.c **** * Summary:
 609:Generated_Source\PSoC5/CAN_TX_RX_func.c **** *  This function is the entry point to Receive Message Interrupt for Basic
 610:Generated_Source\PSoC5/CAN_TX_RX_func.c **** *  mailboxes. Clears the Receive particular Message interrupt flag. Generated
 611:Generated_Source\PSoC5/CAN_TX_RX_func.c **** *  only if one of the Receive mailboxes is designed as Basic.
 612:Generated_Source\PSoC5/CAN_TX_RX_func.c **** *
 613:Generated_Source\PSoC5/CAN_TX_RX_func.c **** * Parameters:
 614:Generated_Source\PSoC5/CAN_TX_RX_func.c **** *  rxMailbox: The mailbox number that trig Receive Message Interrupt.
 615:Generated_Source\PSoC5/CAN_TX_RX_func.c **** *
 616:Generated_Source\PSoC5/CAN_TX_RX_func.c **** * Return:
 617:Generated_Source\PSoC5/CAN_TX_RX_func.c **** *  None.
 618:Generated_Source\PSoC5/CAN_TX_RX_func.c **** *
 619:Generated_Source\PSoC5/CAN_TX_RX_func.c **** * Reentrant:
 620:Generated_Source\PSoC5/CAN_TX_RX_func.c **** *  Depends on the Customer code.
 621:Generated_Source\PSoC5/CAN_TX_RX_func.c **** *
 622:Generated_Source\PSoC5/CAN_TX_RX_func.c **** *******************************************************************************/
ARM GAS  C:\Users\ANDREY~1\AppData\Local\Temp\cccGypfV.s 			page 18


 623:Generated_Source\PSoC5/CAN_TX_RX_func.c **** void CAN_ReceiveMsg(uint8 rxMailbox) 
 624:Generated_Source\PSoC5/CAN_TX_RX_func.c **** {
 337              		.loc 1 624 0
 338              		.cfi_startproc
 339              		@ args = 0, pretend = 0, frame = 40
 340              		@ frame_needed = 0, uses_anonymous_args = 0
 341              	.LVL32:
 342 0000 F0B5     		push	{r4, r5, r6, r7, lr}
 343              		.cfi_def_cfa_offset 20
 344              		.cfi_offset 4, -20
 345              		.cfi_offset 5, -16
 346              		.cfi_offset 6, -12
 347              		.cfi_offset 7, -8
 348              		.cfi_offset 14, -4
 349 0002 8BB0     		sub	sp, sp, #44
 350              		.cfi_def_cfa_offset 64
 625:Generated_Source\PSoC5/CAN_TX_RX_func.c ****     #if (CY_PSOC3 || CY_PSOC5)
 626:Generated_Source\PSoC5/CAN_TX_RX_func.c ****         if ((CAN_RX[rxMailbox].rxcmd.byte[0u] & CAN_RX_ACK_MSG) != 0u)
 351              		.loc 1 626 0
 352 0004 4701     		lsls	r7, r0, #5
 353 0006 184E     		ldr	r6, .L45
 354 0008 BC19     		adds	r4, r7, r6
 355 000a BB5D     		ldrb	r3, [r7, r6]	@ zero_extendqisi2
 356 000c 13F0010F 		tst	r3, #1
 357 0010 28D0     		beq	.L38
 358              	.LBB2:
 627:Generated_Source\PSoC5/CAN_TX_RX_func.c ****     #else  /* CY_PSOC4 */
 628:Generated_Source\PSoC5/CAN_TX_RX_func.c ****         if ((CAN_RX_CMD_REG(rxMailbox) & CAN_RX_ACK_MSG) != 0u)
 629:Generated_Source\PSoC5/CAN_TX_RX_func.c ****     #endif /* CY_PSOC3 || CY_PSOC5 */
 630:Generated_Source\PSoC5/CAN_TX_RX_func.c ****         {
 631:Generated_Source\PSoC5/CAN_TX_RX_func.c ****             /* `#START MESSAGE_BASIC_RECEIVED` */
 632:Generated_Source\PSoC5/CAN_TX_RX_func.c ****             
 633:Generated_Source\PSoC5/CAN_TX_RX_func.c ****             int ID = CAN_GET_RX_ID(rxMailbox);
 359              		.loc 1 633 0
 360 0012 A378     		ldrb	r3, [r4, #2]	@ zero_extendqisi2
 361 0014 13F0100F 		tst	r3, #16
 362 0018 03D0     		beq	.L40
 363              		.loc 1 633 0 is_stmt 0 discriminator 1
 364 001a 6368     		ldr	r3, [r4, #4]
 365 001c 4FEAD30E 		lsr	lr, r3, #3
 366 0020 02E0     		b	.L41
 367              	.L40:
 368              		.loc 1 633 0 discriminator 2
 369 0022 6368     		ldr	r3, [r4, #4]
 370 0024 4FEA535E 		lsr	lr, r3, #21
 371              	.L41:
 372              	.LVL33:
 634:Generated_Source\PSoC5/CAN_TX_RX_func.c ****             CAN_RX_STRUCT test = CAN_RX[rxMailbox]; // is test always 0s?
 373              		.loc 1 634 0 is_stmt 1 discriminator 4
 374 0028 02AD     		add	r5, sp, #8
 375 002a 2068     		ldr	r0, [r4]	@ unaligned
 376              	.LVL34:
 377 002c 6168     		ldr	r1, [r4, #4]	@ unaligned
 378 002e A268     		ldr	r2, [r4, #8]	@ unaligned
 379 0030 E368     		ldr	r3, [r4, #12]	@ unaligned
 380 0032 0FC5     		stmia	r5!, {r0, r1, r2, r3}
 381 0034 2069     		ldr	r0, [r4, #16]	@ unaligned
ARM GAS  C:\Users\ANDREY~1\AppData\Local\Temp\cccGypfV.s 			page 19


 382 0036 6169     		ldr	r1, [r4, #20]	@ unaligned
 383 0038 A269     		ldr	r2, [r4, #24]	@ unaligned
 384 003a E369     		ldr	r3, [r4, #28]	@ unaligned
 385 003c 0FC5     		stmia	r5!, {r0, r1, r2, r3}
 386              	.LVL35:
 635:Generated_Source\PSoC5/CAN_TX_RX_func.c ****             uint8_t data[8];
 636:Generated_Source\PSoC5/CAN_TX_RX_func.c ****             int i = 0;
 637:Generated_Source\PSoC5/CAN_TX_RX_func.c ****             for (i = 0; i < 8; i++)
 387              		.loc 1 637 0 discriminator 4
 388 003e 0023     		movs	r3, #0
 389 0040 06E0     		b	.L42
 390              	.LVL36:
 391              	.L43:
 638:Generated_Source\PSoC5/CAN_TX_RX_func.c ****                 data[i] = CAN_RX[rxMailbox].rxdata.byte[i];
 392              		.loc 1 638 0 discriminator 3
 393 0042 E218     		adds	r2, r4, r3
 394 0044 117A     		ldrb	r1, [r2, #8]	@ zero_extendqisi2
 395 0046 0AAA     		add	r2, sp, #40
 396 0048 1A44     		add	r2, r2, r3
 397 004a 02F8281C 		strb	r1, [r2, #-40]
 637:Generated_Source\PSoC5/CAN_TX_RX_func.c ****                 data[i] = CAN_RX[rxMailbox].rxdata.byte[i];
 398              		.loc 1 637 0 discriminator 3
 399 004e 0133     		adds	r3, r3, #1
 400              	.LVL37:
 401              	.L42:
 637:Generated_Source\PSoC5/CAN_TX_RX_func.c ****                 data[i] = CAN_RX[rxMailbox].rxdata.byte[i];
 402              		.loc 1 637 0 is_stmt 0 discriminator 1
 403 0050 072B     		cmp	r3, #7
 404 0052 F6DD     		ble	.L43
 639:Generated_Source\PSoC5/CAN_TX_RX_func.c ****             
 640:Generated_Source\PSoC5/CAN_TX_RX_func.c ****             can_receive(data, ID);
 405              		.loc 1 640 0 is_stmt 1
 406 0054 7146     		mov	r1, lr
 407 0056 6846     		mov	r0, sp
 408 0058 FFF7FEFF 		bl	can_receive
 409              	.LVL38:
 641:Generated_Source\PSoC5/CAN_TX_RX_func.c ****             /* `#END` */
 642:Generated_Source\PSoC5/CAN_TX_RX_func.c **** 
 643:Generated_Source\PSoC5/CAN_TX_RX_func.c ****             #ifdef CAN_RECEIVE_MSG_CALLBACK
 644:Generated_Source\PSoC5/CAN_TX_RX_func.c ****                 CAN_ReceiveMsg_Callback();
 645:Generated_Source\PSoC5/CAN_TX_RX_func.c ****             #endif /* CAN_RECEIVE_MSG_CALLBACK */
 646:Generated_Source\PSoC5/CAN_TX_RX_func.c **** 
 647:Generated_Source\PSoC5/CAN_TX_RX_func.c ****             #if (CY_PSOC3 || CY_PSOC5)
 648:Generated_Source\PSoC5/CAN_TX_RX_func.c ****                 CAN_RX[rxMailbox].rxcmd.byte[0u] |= CAN_RX_ACK_MSG;
 410              		.loc 1 648 0
 411 005c BB5D     		ldrb	r3, [r7, r6]	@ zero_extendqisi2
 412 005e 43F00103 		orr	r3, r3, #1
 413 0062 BB55     		strb	r3, [r7, r6]
 414              	.L38:
 415              	.LBE2:
 649:Generated_Source\PSoC5/CAN_TX_RX_func.c ****             #else  /* CY_PSOC4 */
 650:Generated_Source\PSoC5/CAN_TX_RX_func.c ****                 CAN_RX_CMD_REG(rxMailbox) |= CAN_RX_ACK_MSG;
 651:Generated_Source\PSoC5/CAN_TX_RX_func.c ****             #endif /* CY_PSOC3 || CY_PSOC5 */
 652:Generated_Source\PSoC5/CAN_TX_RX_func.c ****         }
 653:Generated_Source\PSoC5/CAN_TX_RX_func.c **** }
 416              		.loc 1 653 0
 417 0064 0BB0     		add	sp, sp, #44
ARM GAS  C:\Users\ANDREY~1\AppData\Local\Temp\cccGypfV.s 			page 20


 418              		.cfi_def_cfa_offset 20
 419              		@ sp needed
 420 0066 F0BD     		pop	{r4, r5, r6, r7, pc}
 421              	.L46:
 422              		.align	2
 423              	.L45:
 424 0068 A0A00040 		.word	1073782944
 425              		.cfi_endproc
 426              	.LFE67:
 427              		.size	CAN_ReceiveMsg, .-CAN_ReceiveMsg
 428              		.text
 429              	.Letext0:
 430              		.file 2 "c:\\program files (x86)\\cypress\\psoc creator\\4.4\\psoc creator\\import\\gnu\\arm\\5.4.
 431              		.file 3 "c:\\program files (x86)\\cypress\\psoc creator\\4.4\\psoc creator\\import\\gnu\\arm\\5.4.
 432              		.file 4 "Generated_Source\\PSoC5\\cytypes.h"
 433              		.file 5 "Generated_Source\\PSoC5\\CAN.h"
 434              		.file 6 "Generated_Source\\PSoC5/core_cm3.h"
 435              		.file 7 "./can_manga.h"