ARM GAS  C:\Users\ANDREY~1\AppData\Local\Temp\cc12Ensd.s 			page 1


   1              		.syntax unified
   2              		.cpu cortex-m3
   3              		.fpu softvfp
   4              		.eabi_attribute 20, 1
   5              		.eabi_attribute 21, 1
   6              		.eabi_attribute 23, 3
   7              		.eabi_attribute 24, 1
   8              		.eabi_attribute 25, 1
   9              		.eabi_attribute 26, 1
  10              		.eabi_attribute 30, 1
  11              		.eabi_attribute 34, 1
  12              		.eabi_attribute 18, 4
  13              		.thumb
  14              		.syntax unified
  15              		.file	"cyfitter_cfg.c"
  16              		.text
  17              	.Ltext0:
  18              		.cfi_sections	.debug_frame
  19              		.section	.text.CyClockStartupError,"ax",%progbits
  20              		.align	2
  21              		.thumb
  22              		.thumb_func
  23              		.type	CyClockStartupError, %function
  24              	CyClockStartupError:
  25              	.LFB3:
  26              		.file 1 "Generated_Source\\PSoC5\\cyfitter_cfg.c"
   1:Generated_Source\PSoC5/cyfitter_cfg.c **** 
   2:Generated_Source\PSoC5/cyfitter_cfg.c **** /*******************************************************************************
   3:Generated_Source\PSoC5/cyfitter_cfg.c **** * File Name: cyfitter_cfg.c
   4:Generated_Source\PSoC5/cyfitter_cfg.c **** * 
   5:Generated_Source\PSoC5/cyfitter_cfg.c **** * PSoC Creator  4.4
   6:Generated_Source\PSoC5/cyfitter_cfg.c **** *
   7:Generated_Source\PSoC5/cyfitter_cfg.c **** * Description:
   8:Generated_Source\PSoC5/cyfitter_cfg.c **** * This file contains device initialization code.
   9:Generated_Source\PSoC5/cyfitter_cfg.c **** * Except for the user defined sections in CyClockStartupError(), this file should not be modified.
  10:Generated_Source\PSoC5/cyfitter_cfg.c **** * This file is automatically generated by PSoC Creator.
  11:Generated_Source\PSoC5/cyfitter_cfg.c **** *
  12:Generated_Source\PSoC5/cyfitter_cfg.c **** ********************************************************************************
  13:Generated_Source\PSoC5/cyfitter_cfg.c **** * Copyright (c) 2007-2020 Cypress Semiconductor.  All rights reserved.
  14:Generated_Source\PSoC5/cyfitter_cfg.c **** * You may use this file only in accordance with the license, terms, conditions, 
  15:Generated_Source\PSoC5/cyfitter_cfg.c **** * disclaimers, and limitations in the end user license agreement accompanying 
  16:Generated_Source\PSoC5/cyfitter_cfg.c **** * the software package with which this file was provided.
  17:Generated_Source\PSoC5/cyfitter_cfg.c **** ********************************************************************************/
  18:Generated_Source\PSoC5/cyfitter_cfg.c **** 
  19:Generated_Source\PSoC5/cyfitter_cfg.c **** #include <string.h>
  20:Generated_Source\PSoC5/cyfitter_cfg.c **** #include "cytypes.h"
  21:Generated_Source\PSoC5/cyfitter_cfg.c **** #include "cydevice_trm.h"
  22:Generated_Source\PSoC5/cyfitter_cfg.c **** #include "cyfitter.h"
  23:Generated_Source\PSoC5/cyfitter_cfg.c **** #include "CyLib.h"
  24:Generated_Source\PSoC5/cyfitter_cfg.c **** #include "cyfitter_cfg.h"
  25:Generated_Source\PSoC5/cyfitter_cfg.c **** #include "cyapicallbacks.h"
  26:Generated_Source\PSoC5/cyfitter_cfg.c **** 
  27:Generated_Source\PSoC5/cyfitter_cfg.c **** #define CY_NEED_CYCLOCKSTARTUPERROR 1
  28:Generated_Source\PSoC5/cyfitter_cfg.c **** 
  29:Generated_Source\PSoC5/cyfitter_cfg.c **** 
  30:Generated_Source\PSoC5/cyfitter_cfg.c **** #if defined(__GNUC__) || defined(__ARMCC_VERSION)
  31:Generated_Source\PSoC5/cyfitter_cfg.c ****     #define CYPACKED 
ARM GAS  C:\Users\ANDREY~1\AppData\Local\Temp\cc12Ensd.s 			page 2


  32:Generated_Source\PSoC5/cyfitter_cfg.c ****     #define CYPACKED_ATTR __attribute__ ((packed))
  33:Generated_Source\PSoC5/cyfitter_cfg.c ****     #define CYALIGNED __attribute__ ((aligned))
  34:Generated_Source\PSoC5/cyfitter_cfg.c ****     #define CY_CFG_UNUSED __attribute__ ((unused))
  35:Generated_Source\PSoC5/cyfitter_cfg.c ****     #ifndef CY_CFG_SECTION
  36:Generated_Source\PSoC5/cyfitter_cfg.c ****         #define CY_CFG_SECTION __attribute__ ((section(".psocinit")))
  37:Generated_Source\PSoC5/cyfitter_cfg.c ****     #endif
  38:Generated_Source\PSoC5/cyfitter_cfg.c ****     
  39:Generated_Source\PSoC5/cyfitter_cfg.c ****     #if defined(__ARMCC_VERSION)
  40:Generated_Source\PSoC5/cyfitter_cfg.c ****         #define CY_CFG_MEMORY_BARRIER() __memory_changed()
  41:Generated_Source\PSoC5/cyfitter_cfg.c ****     #else
  42:Generated_Source\PSoC5/cyfitter_cfg.c ****         #define CY_CFG_MEMORY_BARRIER() __sync_synchronize()
  43:Generated_Source\PSoC5/cyfitter_cfg.c ****     #endif
  44:Generated_Source\PSoC5/cyfitter_cfg.c ****     
  45:Generated_Source\PSoC5/cyfitter_cfg.c **** #elif defined(__ICCARM__)
  46:Generated_Source\PSoC5/cyfitter_cfg.c ****     #include <intrinsics.h>
  47:Generated_Source\PSoC5/cyfitter_cfg.c **** 
  48:Generated_Source\PSoC5/cyfitter_cfg.c ****     #define CYPACKED __packed
  49:Generated_Source\PSoC5/cyfitter_cfg.c ****     #define CYPACKED_ATTR 
  50:Generated_Source\PSoC5/cyfitter_cfg.c ****     #define CYALIGNED _Pragma("data_alignment=4")
  51:Generated_Source\PSoC5/cyfitter_cfg.c ****     #define CY_CFG_UNUSED _Pragma("diag_suppress=Pe177")
  52:Generated_Source\PSoC5/cyfitter_cfg.c ****     #define CY_CFG_SECTION _Pragma("location=\".psocinit\"")
  53:Generated_Source\PSoC5/cyfitter_cfg.c ****     
  54:Generated_Source\PSoC5/cyfitter_cfg.c ****     #define CY_CFG_MEMORY_BARRIER() __DMB()
  55:Generated_Source\PSoC5/cyfitter_cfg.c ****     
  56:Generated_Source\PSoC5/cyfitter_cfg.c **** #else
  57:Generated_Source\PSoC5/cyfitter_cfg.c ****     #error Unsupported toolchain
  58:Generated_Source\PSoC5/cyfitter_cfg.c **** #endif
  59:Generated_Source\PSoC5/cyfitter_cfg.c **** 
  60:Generated_Source\PSoC5/cyfitter_cfg.c **** #ifndef CYCODE
  61:Generated_Source\PSoC5/cyfitter_cfg.c ****     #define CYCODE
  62:Generated_Source\PSoC5/cyfitter_cfg.c **** #endif
  63:Generated_Source\PSoC5/cyfitter_cfg.c **** #ifndef CYDATA
  64:Generated_Source\PSoC5/cyfitter_cfg.c ****     #define CYDATA
  65:Generated_Source\PSoC5/cyfitter_cfg.c **** #endif
  66:Generated_Source\PSoC5/cyfitter_cfg.c **** #ifndef CYFAR
  67:Generated_Source\PSoC5/cyfitter_cfg.c ****     #define CYFAR
  68:Generated_Source\PSoC5/cyfitter_cfg.c **** #endif
  69:Generated_Source\PSoC5/cyfitter_cfg.c **** #ifndef CYXDATA
  70:Generated_Source\PSoC5/cyfitter_cfg.c ****     #define CYXDATA
  71:Generated_Source\PSoC5/cyfitter_cfg.c **** #endif
  72:Generated_Source\PSoC5/cyfitter_cfg.c **** 
  73:Generated_Source\PSoC5/cyfitter_cfg.c **** 
  74:Generated_Source\PSoC5/cyfitter_cfg.c **** CY_CFG_UNUSED
  75:Generated_Source\PSoC5/cyfitter_cfg.c **** static void CYMEMZERO(void *s, size_t n);
  76:Generated_Source\PSoC5/cyfitter_cfg.c **** CY_CFG_UNUSED
  77:Generated_Source\PSoC5/cyfitter_cfg.c **** static void CYMEMZERO(void *s, size_t n)
  78:Generated_Source\PSoC5/cyfitter_cfg.c **** {
  79:Generated_Source\PSoC5/cyfitter_cfg.c **** 	(void)memset(s, 0, n);
  80:Generated_Source\PSoC5/cyfitter_cfg.c **** }
  81:Generated_Source\PSoC5/cyfitter_cfg.c **** CY_CFG_UNUSED
  82:Generated_Source\PSoC5/cyfitter_cfg.c **** static void CYCONFIGCPY(void *dest, const void *src, size_t n);
  83:Generated_Source\PSoC5/cyfitter_cfg.c **** CY_CFG_UNUSED
  84:Generated_Source\PSoC5/cyfitter_cfg.c **** static void CYCONFIGCPY(void *dest, const void *src, size_t n)
  85:Generated_Source\PSoC5/cyfitter_cfg.c **** {
  86:Generated_Source\PSoC5/cyfitter_cfg.c **** 	(void)memcpy(dest, src, n);
  87:Generated_Source\PSoC5/cyfitter_cfg.c **** }
  88:Generated_Source\PSoC5/cyfitter_cfg.c **** CY_CFG_UNUSED
ARM GAS  C:\Users\ANDREY~1\AppData\Local\Temp\cc12Ensd.s 			page 3


  89:Generated_Source\PSoC5/cyfitter_cfg.c **** static void CYCONFIGCPYCODE(void *dest, const void *src, size_t n);
  90:Generated_Source\PSoC5/cyfitter_cfg.c **** CY_CFG_UNUSED
  91:Generated_Source\PSoC5/cyfitter_cfg.c **** static void CYCONFIGCPYCODE(void *dest, const void *src, size_t n)
  92:Generated_Source\PSoC5/cyfitter_cfg.c **** {
  93:Generated_Source\PSoC5/cyfitter_cfg.c **** 	(void)memcpy(dest, src, n);
  94:Generated_Source\PSoC5/cyfitter_cfg.c **** }
  95:Generated_Source\PSoC5/cyfitter_cfg.c **** 
  96:Generated_Source\PSoC5/cyfitter_cfg.c **** 
  97:Generated_Source\PSoC5/cyfitter_cfg.c **** 
  98:Generated_Source\PSoC5/cyfitter_cfg.c **** 
  99:Generated_Source\PSoC5/cyfitter_cfg.c **** /* Clock startup error codes                                                   */
 100:Generated_Source\PSoC5/cyfitter_cfg.c **** #define CYCLOCKSTART_NO_ERROR    0u
 101:Generated_Source\PSoC5/cyfitter_cfg.c **** #define CYCLOCKSTART_XTAL_ERROR  1u
 102:Generated_Source\PSoC5/cyfitter_cfg.c **** #define CYCLOCKSTART_32KHZ_ERROR 2u
 103:Generated_Source\PSoC5/cyfitter_cfg.c **** #define CYCLOCKSTART_PLL_ERROR   3u
 104:Generated_Source\PSoC5/cyfitter_cfg.c **** #define CYCLOCKSTART_FLL_ERROR   4u
 105:Generated_Source\PSoC5/cyfitter_cfg.c **** #define CYCLOCKSTART_WCO_ERROR   5u
 106:Generated_Source\PSoC5/cyfitter_cfg.c **** 
 107:Generated_Source\PSoC5/cyfitter_cfg.c **** 
 108:Generated_Source\PSoC5/cyfitter_cfg.c **** #ifdef CY_NEED_CYCLOCKSTARTUPERROR
 109:Generated_Source\PSoC5/cyfitter_cfg.c **** /*******************************************************************************
 110:Generated_Source\PSoC5/cyfitter_cfg.c **** * Function Name: CyClockStartupError
 111:Generated_Source\PSoC5/cyfitter_cfg.c **** ********************************************************************************
 112:Generated_Source\PSoC5/cyfitter_cfg.c **** * Summary:
 113:Generated_Source\PSoC5/cyfitter_cfg.c **** *  If an error is encountered during clock configuration (crystal startup error,
 114:Generated_Source\PSoC5/cyfitter_cfg.c **** *  PLL lock error, etc.), the system will end up here.  Unless reimplemented by
 115:Generated_Source\PSoC5/cyfitter_cfg.c **** *  the customer, this function will stop in an infinite loop.
 116:Generated_Source\PSoC5/cyfitter_cfg.c **** *
 117:Generated_Source\PSoC5/cyfitter_cfg.c **** * Parameters:
 118:Generated_Source\PSoC5/cyfitter_cfg.c **** *   void
 119:Generated_Source\PSoC5/cyfitter_cfg.c **** *
 120:Generated_Source\PSoC5/cyfitter_cfg.c **** * Return:
 121:Generated_Source\PSoC5/cyfitter_cfg.c **** *   void
 122:Generated_Source\PSoC5/cyfitter_cfg.c **** *
 123:Generated_Source\PSoC5/cyfitter_cfg.c **** *******************************************************************************/
 124:Generated_Source\PSoC5/cyfitter_cfg.c **** CY_CFG_UNUSED
 125:Generated_Source\PSoC5/cyfitter_cfg.c **** static void CyClockStartupError(uint8 errorCode);
 126:Generated_Source\PSoC5/cyfitter_cfg.c **** CY_CFG_UNUSED
 127:Generated_Source\PSoC5/cyfitter_cfg.c **** static void CyClockStartupError(uint8 errorCode)
 128:Generated_Source\PSoC5/cyfitter_cfg.c **** {
  27              		.loc 1 128 0
  28              		.cfi_startproc
  29              		@ Volatile: function does not return.
  30              		@ args = 0, pretend = 0, frame = 0
  31              		@ frame_needed = 0, uses_anonymous_args = 0
  32              		@ link register save eliminated.
  33              	.LVL0:
  34              	.L2:
  35 0000 FEE7     		b	.L2
  36              		.cfi_endproc
  37              	.LFE3:
  38              		.size	CyClockStartupError, .-CyClockStartupError
  39 0002 00BF     		.section	.text.cfg_write_bytes32,"ax",%progbits
  40              		.align	2
  41              		.thumb
  42              		.thumb_func
  43              		.type	cfg_write_bytes32, %function
ARM GAS  C:\Users\ANDREY~1\AppData\Local\Temp\cc12Ensd.s 			page 4


  44              	cfg_write_bytes32:
  45              	.LFB4:
 129:Generated_Source\PSoC5/cyfitter_cfg.c ****     /* To remove the compiler warning if errorCode not used.                */
 130:Generated_Source\PSoC5/cyfitter_cfg.c ****     errorCode = errorCode;
 131:Generated_Source\PSoC5/cyfitter_cfg.c **** 
 132:Generated_Source\PSoC5/cyfitter_cfg.c ****     /* If we have a clock startup error (bad MHz crystal, PLL lock, etc.),  */
 133:Generated_Source\PSoC5/cyfitter_cfg.c ****     /* we will end up here to allow the customer to implement something to  */
 134:Generated_Source\PSoC5/cyfitter_cfg.c ****     /* deal with the clock condition.                                       */
 135:Generated_Source\PSoC5/cyfitter_cfg.c **** 
 136:Generated_Source\PSoC5/cyfitter_cfg.c **** #ifdef CY_CFG_CLOCK_STARTUP_ERROR_CALLBACK
 137:Generated_Source\PSoC5/cyfitter_cfg.c ****     CY_CFG_Clock_Startup_ErrorCallback();
 138:Generated_Source\PSoC5/cyfitter_cfg.c **** #else
 139:Generated_Source\PSoC5/cyfitter_cfg.c ****     /*  If not using CY_CFG_CLOCK_STARTUP_ERROR_CALLBACK, place your clock startup code here. */
 140:Generated_Source\PSoC5/cyfitter_cfg.c ****     /* `#START CyClockStartupError` */
 141:Generated_Source\PSoC5/cyfitter_cfg.c **** 
 142:Generated_Source\PSoC5/cyfitter_cfg.c **** 
 143:Generated_Source\PSoC5/cyfitter_cfg.c **** 
 144:Generated_Source\PSoC5/cyfitter_cfg.c ****     /* `#END` */
 145:Generated_Source\PSoC5/cyfitter_cfg.c **** 
 146:Generated_Source\PSoC5/cyfitter_cfg.c ****     while(1) {}
 147:Generated_Source\PSoC5/cyfitter_cfg.c **** #endif /* CY_CFG_CLOCK_STARTUP_ERROR_CALLBACK */
 148:Generated_Source\PSoC5/cyfitter_cfg.c **** }
 149:Generated_Source\PSoC5/cyfitter_cfg.c **** #endif
 150:Generated_Source\PSoC5/cyfitter_cfg.c **** 
 151:Generated_Source\PSoC5/cyfitter_cfg.c **** #define CY_CFG_BASE_ADDR_COUNT 31u
 152:Generated_Source\PSoC5/cyfitter_cfg.c **** CYPACKED typedef struct
 153:Generated_Source\PSoC5/cyfitter_cfg.c **** {
 154:Generated_Source\PSoC5/cyfitter_cfg.c **** 	uint8 offset;
 155:Generated_Source\PSoC5/cyfitter_cfg.c **** 	uint8 value;
 156:Generated_Source\PSoC5/cyfitter_cfg.c **** } CYPACKED_ATTR cy_cfg_addrvalue_t;
 157:Generated_Source\PSoC5/cyfitter_cfg.c **** 
 158:Generated_Source\PSoC5/cyfitter_cfg.c **** #define cy_cfg_addr_table ((const uint32 CYFAR *)0x48000000u)
 159:Generated_Source\PSoC5/cyfitter_cfg.c **** #define cy_cfg_data_table ((const cy_cfg_addrvalue_t CYFAR *)0x4800007Cu)
 160:Generated_Source\PSoC5/cyfitter_cfg.c **** 
 161:Generated_Source\PSoC5/cyfitter_cfg.c **** /* IOPORT_0 Address: CYDEV_PRTDSI_PRT0_BASE Size (bytes): 7 */
 162:Generated_Source\PSoC5/cyfitter_cfg.c **** #define BS_IOPORT_0_VAL ((const uint8 CYFAR *)0x480004A4u)
 163:Generated_Source\PSoC5/cyfitter_cfg.c **** 
 164:Generated_Source\PSoC5/cyfitter_cfg.c **** /* IOPORT_4 Address: CYDEV_PRTDSI_PRT4_BASE Size (bytes): 7 */
 165:Generated_Source\PSoC5/cyfitter_cfg.c **** #define BS_IOPORT_4_VAL ((const uint8 CYFAR *)0x480004ACu)
 166:Generated_Source\PSoC5/cyfitter_cfg.c **** 
 167:Generated_Source\PSoC5/cyfitter_cfg.c **** /* UDB_1_4_1_CONFIG Address: CYDEV_UCFG_B0_P1_U0_BASE Size (bytes): 128 */
 168:Generated_Source\PSoC5/cyfitter_cfg.c **** #define BS_UDB_1_4_1_CONFIG_VAL ((const uint8 CYFAR *)0x480004B4u)
 169:Generated_Source\PSoC5/cyfitter_cfg.c **** 
 170:Generated_Source\PSoC5/cyfitter_cfg.c **** /* IOPINS0_0 Address: CYREG_PRT0_DR Size (bytes): 10 */
 171:Generated_Source\PSoC5/cyfitter_cfg.c **** #define BS_IOPINS0_0_VAL ((const uint8 CYFAR *)0x48000534u)
 172:Generated_Source\PSoC5/cyfitter_cfg.c **** 
 173:Generated_Source\PSoC5/cyfitter_cfg.c **** /* IOPINS0_7 Address: CYREG_PRT12_DM0 Size (bytes): 8 */
 174:Generated_Source\PSoC5/cyfitter_cfg.c **** #define BS_IOPINS0_7_VAL ((const uint8 CYFAR *)0x48000540u)
 175:Generated_Source\PSoC5/cyfitter_cfg.c **** 
 176:Generated_Source\PSoC5/cyfitter_cfg.c **** /* IOPINS0_1 Address: CYREG_PRT1_DR Size (bytes): 10 */
 177:Generated_Source\PSoC5/cyfitter_cfg.c **** #define BS_IOPINS0_1_VAL ((const uint8 CYFAR *)0x48000548u)
 178:Generated_Source\PSoC5/cyfitter_cfg.c **** 
 179:Generated_Source\PSoC5/cyfitter_cfg.c **** /* IOPINS0_2 Address: CYREG_PRT2_DR Size (bytes): 10 */
 180:Generated_Source\PSoC5/cyfitter_cfg.c **** #define BS_IOPINS0_2_VAL ((const uint8 CYFAR *)0x48000554u)
 181:Generated_Source\PSoC5/cyfitter_cfg.c **** 
 182:Generated_Source\PSoC5/cyfitter_cfg.c **** /* IOPINS0_3 Address: CYREG_PRT3_DR Size (bytes): 10 */
 183:Generated_Source\PSoC5/cyfitter_cfg.c **** #define BS_IOPINS0_3_VAL ((const uint8 CYFAR *)0x48000560u)
ARM GAS  C:\Users\ANDREY~1\AppData\Local\Temp\cc12Ensd.s 			page 5


 184:Generated_Source\PSoC5/cyfitter_cfg.c **** 
 185:Generated_Source\PSoC5/cyfitter_cfg.c **** /* IOPINS0_4 Address: CYREG_PRT4_DM0 Size (bytes): 8 */
 186:Generated_Source\PSoC5/cyfitter_cfg.c **** #define BS_IOPINS0_4_VAL ((const uint8 CYFAR *)0x4800056Cu)
 187:Generated_Source\PSoC5/cyfitter_cfg.c **** 
 188:Generated_Source\PSoC5/cyfitter_cfg.c **** /* IOPINS0_5 Address: CYREG_PRT5_DR Size (bytes): 10 */
 189:Generated_Source\PSoC5/cyfitter_cfg.c **** #define BS_IOPINS0_5_VAL ((const uint8 CYFAR *)0x48000574u)
 190:Generated_Source\PSoC5/cyfitter_cfg.c **** 
 191:Generated_Source\PSoC5/cyfitter_cfg.c **** /* IOPINS0_6 Address: CYREG_PRT6_DM0 Size (bytes): 8 */
 192:Generated_Source\PSoC5/cyfitter_cfg.c **** #define BS_IOPINS0_6_VAL ((const uint8 CYFAR *)0x48000580u)
 193:Generated_Source\PSoC5/cyfitter_cfg.c **** 
 194:Generated_Source\PSoC5/cyfitter_cfg.c **** /* CYDEV_CLKDIST_ACFG0_CFG0 Address: CYREG_CLKDIST_ACFG0_CFG0 Size (bytes): 4 */
 195:Generated_Source\PSoC5/cyfitter_cfg.c **** #define BS_CYDEV_CLKDIST_ACFG0_CFG0_VAL ((const uint8 CYFAR *)0x48000588u)
 196:Generated_Source\PSoC5/cyfitter_cfg.c **** 
 197:Generated_Source\PSoC5/cyfitter_cfg.c **** 
 198:Generated_Source\PSoC5/cyfitter_cfg.c **** /*******************************************************************************
 199:Generated_Source\PSoC5/cyfitter_cfg.c **** * Function Name: cfg_write_bytes32
 200:Generated_Source\PSoC5/cyfitter_cfg.c **** ********************************************************************************
 201:Generated_Source\PSoC5/cyfitter_cfg.c **** * Summary:
 202:Generated_Source\PSoC5/cyfitter_cfg.c **** *  This function is used for setting up the chip configuration areas that
 203:Generated_Source\PSoC5/cyfitter_cfg.c **** *  contain relatively sparse data.
 204:Generated_Source\PSoC5/cyfitter_cfg.c **** *
 205:Generated_Source\PSoC5/cyfitter_cfg.c **** * Parameters:
 206:Generated_Source\PSoC5/cyfitter_cfg.c **** *   void
 207:Generated_Source\PSoC5/cyfitter_cfg.c **** *
 208:Generated_Source\PSoC5/cyfitter_cfg.c **** * Return:
 209:Generated_Source\PSoC5/cyfitter_cfg.c **** *   void
 210:Generated_Source\PSoC5/cyfitter_cfg.c **** *
 211:Generated_Source\PSoC5/cyfitter_cfg.c **** *******************************************************************************/
 212:Generated_Source\PSoC5/cyfitter_cfg.c **** static void cfg_write_bytes32(const uint32 addr_table[], const cy_cfg_addrvalue_t data_table[]);
 213:Generated_Source\PSoC5/cyfitter_cfg.c **** static void cfg_write_bytes32(const uint32 addr_table[], const cy_cfg_addrvalue_t data_table[])
 214:Generated_Source\PSoC5/cyfitter_cfg.c **** {
  46              		.loc 1 214 0
  47              		.cfi_startproc
  48              		@ args = 0, pretend = 0, frame = 0
  49              		@ frame_needed = 0, uses_anonymous_args = 0
  50              		@ link register save eliminated.
  51              	.LVL1:
  52              		.loc 1 214 0
  53 0000 F0B4     		push	{r4, r5, r6, r7}
  54              		.cfi_def_cfa_offset 16
  55              		.cfi_offset 4, -16
  56              		.cfi_offset 5, -12
  57              		.cfi_offset 6, -8
  58              		.cfi_offset 7, -4
  59              	.LVL2:
 215:Generated_Source\PSoC5/cyfitter_cfg.c **** 	/* For 32-bit little-endian architectures */
 216:Generated_Source\PSoC5/cyfitter_cfg.c **** 	uint32 i, j = 0u;
  60              		.loc 1 216 0
  61 0002 0022     		movs	r2, #0
 217:Generated_Source\PSoC5/cyfitter_cfg.c **** 	for (i = 0u; i < CY_CFG_BASE_ADDR_COUNT; i++)
  62              		.loc 1 217 0
  63 0004 1746     		mov	r7, r2
  64 0006 11E0     		b	.L4
  65              	.LVL3:
  66              	.L7:
  67              	.LBB2:
 218:Generated_Source\PSoC5/cyfitter_cfg.c **** 	{
ARM GAS  C:\Users\ANDREY~1\AppData\Local\Temp\cc12Ensd.s 			page 6


 219:Generated_Source\PSoC5/cyfitter_cfg.c **** 		uint32 baseAddr = addr_table[i];
  68              		.loc 1 219 0
  69 0008 50F82760 		ldr	r6, [r0, r7, lsl #2]
  70              	.LVL4:
 220:Generated_Source\PSoC5/cyfitter_cfg.c **** 		uint8 count = (uint8)baseAddr;
  71              		.loc 1 220 0
  72 000c F3B2     		uxtb	r3, r6
  73              	.LVL5:
 221:Generated_Source\PSoC5/cyfitter_cfg.c **** 		baseAddr &= 0xFFFFFF00u;
  74              		.loc 1 221 0
  75 000e 26F0FF06 		bic	r6, r6, #255
  76              	.LVL6:
 222:Generated_Source\PSoC5/cyfitter_cfg.c **** 		while (count != 0u)
  77              		.loc 1 222 0
  78 0012 08E0     		b	.L5
  79              	.L6:
 223:Generated_Source\PSoC5/cyfitter_cfg.c **** 		{
 224:Generated_Source\PSoC5/cyfitter_cfg.c **** 			CY_SET_REG8((void *)(baseAddr + data_table[j].offset), data_table[j].value);
  80              		.loc 1 224 0
  81 0014 01EB4205 		add	r5, r1, r2, lsl #1
  82 0018 11F81240 		ldrb	r4, [r1, r2, lsl #1]	@ zero_extendqisi2
  83 001c 6D78     		ldrb	r5, [r5, #1]	@ zero_extendqisi2
  84 001e A555     		strb	r5, [r4, r6]
 225:Generated_Source\PSoC5/cyfitter_cfg.c **** 			j++;
  85              		.loc 1 225 0
  86 0020 0132     		adds	r2, r2, #1
  87              	.LVL7:
 226:Generated_Source\PSoC5/cyfitter_cfg.c **** 			count--;
  88              		.loc 1 226 0
  89 0022 013B     		subs	r3, r3, #1
  90              	.LVL8:
  91 0024 DBB2     		uxtb	r3, r3
  92              	.LVL9:
  93              	.L5:
 222:Generated_Source\PSoC5/cyfitter_cfg.c **** 		{
  94              		.loc 1 222 0
  95 0026 002B     		cmp	r3, #0
  96 0028 F4D1     		bne	.L6
  97              	.LBE2:
 217:Generated_Source\PSoC5/cyfitter_cfg.c **** 	{
  98              		.loc 1 217 0 discriminator 2
  99 002a 0137     		adds	r7, r7, #1
 100              	.LVL10:
 101              	.L4:
 217:Generated_Source\PSoC5/cyfitter_cfg.c **** 	{
 102              		.loc 1 217 0 is_stmt 0 discriminator 1
 103 002c 1E2F     		cmp	r7, #30
 104 002e EBD9     		bls	.L7
 227:Generated_Source\PSoC5/cyfitter_cfg.c **** 		}
 228:Generated_Source\PSoC5/cyfitter_cfg.c **** 	}
 229:Generated_Source\PSoC5/cyfitter_cfg.c **** }
 105              		.loc 1 229 0 is_stmt 1
 106 0030 F0BC     		pop	{r4, r5, r6, r7}
 107              		.cfi_restore 7
 108              		.cfi_restore 6
 109              		.cfi_restore 5
 110              		.cfi_restore 4
ARM GAS  C:\Users\ANDREY~1\AppData\Local\Temp\cc12Ensd.s 			page 7


 111              		.cfi_def_cfa_offset 0
 112              	.LVL11:
 113 0032 7047     		bx	lr
 114              		.cfi_endproc
 115              	.LFE4:
 116              		.size	cfg_write_bytes32, .-cfg_write_bytes32
 117              		.section	.text.AnalogSetDefault,"ax",%progbits
 118              		.align	2
 119              		.thumb
 120              		.thumb_func
 121              		.type	AnalogSetDefault, %function
 122              	AnalogSetDefault:
 123              	.LFB6:
 230:Generated_Source\PSoC5/cyfitter_cfg.c **** 
 231:Generated_Source\PSoC5/cyfitter_cfg.c **** /*******************************************************************************
 232:Generated_Source\PSoC5/cyfitter_cfg.c **** * Function Name: ClockSetup
 233:Generated_Source\PSoC5/cyfitter_cfg.c **** ********************************************************************************
 234:Generated_Source\PSoC5/cyfitter_cfg.c **** *
 235:Generated_Source\PSoC5/cyfitter_cfg.c **** * Summary:
 236:Generated_Source\PSoC5/cyfitter_cfg.c **** *  Performs the initialization of all of the clocks in the device based on the
 237:Generated_Source\PSoC5/cyfitter_cfg.c **** *  settings in the Clock tab of the DWR.  This includes enabling the requested
 238:Generated_Source\PSoC5/cyfitter_cfg.c **** *  clocks and setting the necessary dividers to produce the desired frequency. 
 239:Generated_Source\PSoC5/cyfitter_cfg.c **** *
 240:Generated_Source\PSoC5/cyfitter_cfg.c **** * Parameters:
 241:Generated_Source\PSoC5/cyfitter_cfg.c **** *  void
 242:Generated_Source\PSoC5/cyfitter_cfg.c **** *
 243:Generated_Source\PSoC5/cyfitter_cfg.c **** * Return:
 244:Generated_Source\PSoC5/cyfitter_cfg.c **** *  void
 245:Generated_Source\PSoC5/cyfitter_cfg.c **** *
 246:Generated_Source\PSoC5/cyfitter_cfg.c **** *******************************************************************************/
 247:Generated_Source\PSoC5/cyfitter_cfg.c **** static void ClockSetup(void);
 248:Generated_Source\PSoC5/cyfitter_cfg.c **** static void ClockSetup(void)
 249:Generated_Source\PSoC5/cyfitter_cfg.c **** {
 250:Generated_Source\PSoC5/cyfitter_cfg.c **** 	uint32 timeout;
 251:Generated_Source\PSoC5/cyfitter_cfg.c **** 	uint8 pllLock;
 252:Generated_Source\PSoC5/cyfitter_cfg.c **** 
 253:Generated_Source\PSoC5/cyfitter_cfg.c **** 
 254:Generated_Source\PSoC5/cyfitter_cfg.c **** 	/* Configure Digital Clocks based on settings from Clock DWR */
 255:Generated_Source\PSoC5/cyfitter_cfg.c **** 	CY_SET_XTND_REG16((void CYFAR *)(CYREG_CLKDIST_DCFG0_CFG0), 0x0000u);
 256:Generated_Source\PSoC5/cyfitter_cfg.c **** 	CY_SET_XTND_REG8((void CYFAR *)(CYREG_CLKDIST_DCFG0_CFG0 + 0x2u), 0x50u);
 257:Generated_Source\PSoC5/cyfitter_cfg.c **** 	CY_SET_XTND_REG16((void CYFAR *)(CYREG_CLKDIST_DCFG1_CFG0), 0x0000u);
 258:Generated_Source\PSoC5/cyfitter_cfg.c **** 	CY_SET_XTND_REG8((void CYFAR *)(CYREG_CLKDIST_DCFG1_CFG0 + 0x2u), 0x58u);
 259:Generated_Source\PSoC5/cyfitter_cfg.c **** 	CY_SET_XTND_REG16((void CYFAR *)(CYREG_CLKDIST_DCFG2_CFG0), 0x5DBFu);
 260:Generated_Source\PSoC5/cyfitter_cfg.c **** 	CY_SET_XTND_REG8((void CYFAR *)(CYREG_CLKDIST_DCFG2_CFG0 + 0x2u), 0x18u);
 261:Generated_Source\PSoC5/cyfitter_cfg.c **** 
 262:Generated_Source\PSoC5/cyfitter_cfg.c **** 	/* Configure Analog Clocks based on settings from Clock DWR */
 263:Generated_Source\PSoC5/cyfitter_cfg.c **** 	CYCONFIGCPY((void CYFAR *)(CYREG_CLKDIST_ACFG0_CFG0), (const void CYFAR *)(BS_CYDEV_CLKDIST_ACFG0_
 264:Generated_Source\PSoC5/cyfitter_cfg.c **** 
 265:Generated_Source\PSoC5/cyfitter_cfg.c **** 	/* Configure ILO based on settings from Clock DWR */
 266:Generated_Source\PSoC5/cyfitter_cfg.c **** 	CY_SET_XTND_REG8((void CYFAR *)(CYREG_SLOWCLK_ILO_CR0), 0x06u);
 267:Generated_Source\PSoC5/cyfitter_cfg.c **** 
 268:Generated_Source\PSoC5/cyfitter_cfg.c **** 	/* Configure IMO based on settings from Clock DWR */
 269:Generated_Source\PSoC5/cyfitter_cfg.c **** 	CY_SET_XTND_REG8((void CYFAR *)(CYREG_FASTCLK_IMO_CR), 0x02u);
 270:Generated_Source\PSoC5/cyfitter_cfg.c **** 	CY_SET_XTND_REG8((void CYFAR *)(CYREG_IMO_TR1), (CY_GET_XTND_REG8((void CYFAR *)CYREG_FLSHID_CUST_
 271:Generated_Source\PSoC5/cyfitter_cfg.c **** 
 272:Generated_Source\PSoC5/cyfitter_cfg.c **** 	/* Configure PLL based on settings from Clock DWR */
 273:Generated_Source\PSoC5/cyfitter_cfg.c **** 	CY_SET_XTND_REG16((void CYFAR *)(CYREG_FASTCLK_PLL_P), 0x0708u);
ARM GAS  C:\Users\ANDREY~1\AppData\Local\Temp\cc12Ensd.s 			page 8


 274:Generated_Source\PSoC5/cyfitter_cfg.c **** 	CY_SET_XTND_REG16((void CYFAR *)(CYREG_FASTCLK_PLL_CFG0), 0x1251u);
 275:Generated_Source\PSoC5/cyfitter_cfg.c **** 	/* Wait up to 250us for the PLL to lock */
 276:Generated_Source\PSoC5/cyfitter_cfg.c **** 	pllLock = 0u;
 277:Generated_Source\PSoC5/cyfitter_cfg.c **** 	for (timeout = 250u / 10u; (timeout > 0u) && (pllLock != 0x03u); timeout--)
 278:Generated_Source\PSoC5/cyfitter_cfg.c **** 	{ 
 279:Generated_Source\PSoC5/cyfitter_cfg.c **** 		pllLock = 0x03u & ((uint8)((uint8)pllLock << 1) | ((CY_GET_XTND_REG8((void CYFAR *)CYREG_FASTCLK_
 280:Generated_Source\PSoC5/cyfitter_cfg.c **** 		CyDelayCycles(10u * 48u); /* Delay 10us based on 48MHz clock */
 281:Generated_Source\PSoC5/cyfitter_cfg.c **** 	}
 282:Generated_Source\PSoC5/cyfitter_cfg.c **** 	/* If we ran out of time the PLL didn't lock so go to the error function */
 283:Generated_Source\PSoC5/cyfitter_cfg.c **** 	if (timeout == 0u)
 284:Generated_Source\PSoC5/cyfitter_cfg.c **** 	{
 285:Generated_Source\PSoC5/cyfitter_cfg.c **** 		CyClockStartupError(CYCLOCKSTART_PLL_ERROR);
 286:Generated_Source\PSoC5/cyfitter_cfg.c **** 	}
 287:Generated_Source\PSoC5/cyfitter_cfg.c **** 
 288:Generated_Source\PSoC5/cyfitter_cfg.c **** 	/* Configure Bus/Master Clock based on settings from Clock DWR */
 289:Generated_Source\PSoC5/cyfitter_cfg.c **** 	CY_SET_XTND_REG16((void CYFAR *)(CYREG_CLKDIST_MSTR0), 0x0100u);
 290:Generated_Source\PSoC5/cyfitter_cfg.c **** 	CY_SET_XTND_REG8((void CYFAR *)(CYREG_CLKDIST_MSTR0), 0x07u);
 291:Generated_Source\PSoC5/cyfitter_cfg.c **** 	CY_SET_XTND_REG8((void CYFAR *)(CYREG_CLKDIST_BCFG0), 0x00u);
 292:Generated_Source\PSoC5/cyfitter_cfg.c **** 	CY_SET_XTND_REG8((void CYFAR *)(CYREG_CLKDIST_BCFG2), 0x48u);
 293:Generated_Source\PSoC5/cyfitter_cfg.c **** 	CY_SET_XTND_REG8((void CYFAR *)(CYREG_CLKDIST_MSTR0), 0x00u);
 294:Generated_Source\PSoC5/cyfitter_cfg.c **** 	CY_SET_XTND_REG8((void CYFAR *)(CYREG_CLKDIST_LD), 0x02u);
 295:Generated_Source\PSoC5/cyfitter_cfg.c **** 	CY_SET_XTND_REG8((void CYFAR *)(CYREG_CLKDIST_DLY1), 0x04u);
 296:Generated_Source\PSoC5/cyfitter_cfg.c **** 
 297:Generated_Source\PSoC5/cyfitter_cfg.c **** 	CY_SET_XTND_REG8((void CYFAR *)(CYREG_PM_ACT_CFG2), ((CY_GET_XTND_REG8((void CYFAR *)CYREG_PM_ACT_
 298:Generated_Source\PSoC5/cyfitter_cfg.c **** 	CY_SET_XTND_REG8((void CYFAR *)(CYREG_PM_ACT_CFG1), ((CY_GET_XTND_REG8((void CYFAR *)CYREG_PM_ACT_
 299:Generated_Source\PSoC5/cyfitter_cfg.c **** 	CY_SET_XTND_REG8((void CYFAR *)(CYREG_PM_ACT_CFG0), ((CY_GET_XTND_REG8((void CYFAR *)CYREG_PM_ACT_
 300:Generated_Source\PSoC5/cyfitter_cfg.c **** }
 301:Generated_Source\PSoC5/cyfitter_cfg.c **** 
 302:Generated_Source\PSoC5/cyfitter_cfg.c **** 
 303:Generated_Source\PSoC5/cyfitter_cfg.c **** /* Analog API Functions */
 304:Generated_Source\PSoC5/cyfitter_cfg.c **** 
 305:Generated_Source\PSoC5/cyfitter_cfg.c **** 
 306:Generated_Source\PSoC5/cyfitter_cfg.c **** /*******************************************************************************
 307:Generated_Source\PSoC5/cyfitter_cfg.c **** * Function Name: AnalogSetDefault
 308:Generated_Source\PSoC5/cyfitter_cfg.c **** ********************************************************************************
 309:Generated_Source\PSoC5/cyfitter_cfg.c **** *
 310:Generated_Source\PSoC5/cyfitter_cfg.c **** * Summary:
 311:Generated_Source\PSoC5/cyfitter_cfg.c **** *  Sets up the analog portions of the chip to default values based on chip
 312:Generated_Source\PSoC5/cyfitter_cfg.c **** *  configuration options from the project.
 313:Generated_Source\PSoC5/cyfitter_cfg.c **** *
 314:Generated_Source\PSoC5/cyfitter_cfg.c **** * Parameters:
 315:Generated_Source\PSoC5/cyfitter_cfg.c **** *  void
 316:Generated_Source\PSoC5/cyfitter_cfg.c **** *
 317:Generated_Source\PSoC5/cyfitter_cfg.c **** * Return:
 318:Generated_Source\PSoC5/cyfitter_cfg.c **** *  void
 319:Generated_Source\PSoC5/cyfitter_cfg.c **** *
 320:Generated_Source\PSoC5/cyfitter_cfg.c **** *******************************************************************************/
 321:Generated_Source\PSoC5/cyfitter_cfg.c **** static void AnalogSetDefault(void);
 322:Generated_Source\PSoC5/cyfitter_cfg.c **** static void AnalogSetDefault(void)
 323:Generated_Source\PSoC5/cyfitter_cfg.c **** {
 124              		.loc 1 323 0
 125              		.cfi_startproc
 126              		@ args = 0, pretend = 0, frame = 0
 127              		@ frame_needed = 0, uses_anonymous_args = 0
 128              		@ link register save eliminated.
 324:Generated_Source\PSoC5/cyfitter_cfg.c **** 	uint8 bg_xover_inl_trim = CY_GET_XTND_REG8((void CYFAR *)(CYREG_FLSHID_MFG_CFG_BG_XOVER_INL_TRIM +
 129              		.loc 1 324 0
ARM GAS  C:\Users\ANDREY~1\AppData\Local\Temp\cc12Ensd.s 			page 9


 130 0000 0A4B     		ldr	r3, .L10
 131 0002 1B78     		ldrb	r3, [r3]	@ zero_extendqisi2
 132 0004 DBB2     		uxtb	r3, r3
 133              	.LVL12:
 325:Generated_Source\PSoC5/cyfitter_cfg.c **** 	CY_SET_XTND_REG8((void CYFAR *)(CYREG_BG_DFT0), (bg_xover_inl_trim & 0x07u));
 134              		.loc 1 325 0
 135 0006 03F00701 		and	r1, r3, #7
 136 000a 094A     		ldr	r2, .L10+4
 137 000c 1170     		strb	r1, [r2]
 326:Generated_Source\PSoC5/cyfitter_cfg.c **** 	CY_SET_XTND_REG8((void CYFAR *)(CYREG_BG_DFT1), ((bg_xover_inl_trim >> 4) & 0x0Fu));
 138              		.loc 1 326 0
 139 000e 1B09     		lsrs	r3, r3, #4
 140              	.LVL13:
 141 0010 0132     		adds	r2, r2, #1
 142 0012 1370     		strb	r3, [r2]
 327:Generated_Source\PSoC5/cyfitter_cfg.c **** 	CY_SET_XTND_REG8((void CYFAR *)CYREG_PRT3_AG, 0x04u);
 143              		.loc 1 327 0
 144 0014 0422     		movs	r2, #4
 145 0016 074B     		ldr	r3, .L10+8
 146 0018 1A70     		strb	r2, [r3]
 328:Generated_Source\PSoC5/cyfitter_cfg.c **** 	CY_SET_XTND_REG8((void CYFAR *)CYREG_DSM0_SW0, 0x40u);
 147              		.loc 1 328 0
 148 001a 4023     		movs	r3, #64
 149 001c 064A     		ldr	r2, .L10+12
 150 001e 1370     		strb	r3, [r2]
 329:Generated_Source\PSoC5/cyfitter_cfg.c **** 	CY_SET_XTND_REG8((void CYFAR *)CYREG_BUS_SW0, 0x40u);
 151              		.loc 1 329 0
 152 0020 5832     		adds	r2, r2, #88
 153 0022 1370     		strb	r3, [r2]
 330:Generated_Source\PSoC5/cyfitter_cfg.c **** 	CY_SET_XTND_REG8((void CYFAR *)CYREG_PUMP_CR0, 0x66u);
 154              		.loc 1 330 0
 155 0024 6622     		movs	r2, #102
 156 0026 054B     		ldr	r3, .L10+16
 157 0028 1A70     		strb	r2, [r3]
 158 002a 7047     		bx	lr
 159              	.L11:
 160              		.align	2
 161              	.L10:
 162 002c CF010049 		.word	1224737231
 163 0030 6E580040 		.word	1073764462
 164 0034 3D510040 		.word	1073762621
 165 0038 005B0040 		.word	1073765120
 166 003c 76580040 		.word	1073764470
 167              		.cfi_endproc
 168              	.LFE6:
 169              		.size	AnalogSetDefault, .-AnalogSetDefault
 170              		.section	.text.CYMEMZERO,"ax",%progbits
 171              		.align	2
 172              		.thumb
 173              		.thumb_func
 174              		.type	CYMEMZERO, %function
 175              	CYMEMZERO:
 176              	.LFB0:
  78:Generated_Source\PSoC5/cyfitter_cfg.c **** 	(void)memset(s, 0, n);
 177              		.loc 1 78 0
 178              		.cfi_startproc
 179              		@ args = 0, pretend = 0, frame = 0
ARM GAS  C:\Users\ANDREY~1\AppData\Local\Temp\cc12Ensd.s 			page 10


 180              		@ frame_needed = 0, uses_anonymous_args = 0
 181              	.LVL14:
 182 0000 08B5     		push	{r3, lr}
 183              		.cfi_def_cfa_offset 8
 184              		.cfi_offset 3, -8
 185              		.cfi_offset 14, -4
  79:Generated_Source\PSoC5/cyfitter_cfg.c **** }
 186              		.loc 1 79 0
 187 0002 0A46     		mov	r2, r1
 188 0004 0021     		movs	r1, #0
 189              	.LVL15:
 190 0006 FFF7FEFF 		bl	memset
 191              	.LVL16:
 192 000a 08BD     		pop	{r3, pc}
 193              		.cfi_endproc
 194              	.LFE0:
 195              		.size	CYMEMZERO, .-CYMEMZERO
 196              		.section	.text.CYCONFIGCPY,"ax",%progbits
 197              		.align	2
 198              		.thumb
 199              		.thumb_func
 200              		.type	CYCONFIGCPY, %function
 201              	CYCONFIGCPY:
 202              	.LFB1:
  85:Generated_Source\PSoC5/cyfitter_cfg.c **** 	(void)memcpy(dest, src, n);
 203              		.loc 1 85 0
 204              		.cfi_startproc
 205              		@ args = 0, pretend = 0, frame = 0
 206              		@ frame_needed = 0, uses_anonymous_args = 0
 207              	.LVL17:
 208 0000 08B5     		push	{r3, lr}
 209              		.cfi_def_cfa_offset 8
 210              		.cfi_offset 3, -8
 211              		.cfi_offset 14, -4
  86:Generated_Source\PSoC5/cyfitter_cfg.c **** }
 212              		.loc 1 86 0
 213 0002 FFF7FEFF 		bl	memcpy
 214              	.LVL18:
 215 0006 08BD     		pop	{r3, pc}
 216              		.cfi_endproc
 217              	.LFE1:
 218              		.size	CYCONFIGCPY, .-CYCONFIGCPY
 219              		.section	.text.ClockSetup,"ax",%progbits
 220              		.align	2
 221              		.thumb
 222              		.thumb_func
 223              		.type	ClockSetup, %function
 224              	ClockSetup:
 225              	.LFB5:
 249:Generated_Source\PSoC5/cyfitter_cfg.c **** 	uint32 timeout;
 226              		.loc 1 249 0
 227              		.cfi_startproc
 228              		@ args = 0, pretend = 0, frame = 0
 229              		@ frame_needed = 0, uses_anonymous_args = 0
 230 0000 38B5     		push	{r3, r4, r5, lr}
 231              		.cfi_def_cfa_offset 16
 232              		.cfi_offset 3, -16
ARM GAS  C:\Users\ANDREY~1\AppData\Local\Temp\cc12Ensd.s 			page 11


 233              		.cfi_offset 4, -12
 234              		.cfi_offset 5, -8
 235              		.cfi_offset 14, -4
 255:Generated_Source\PSoC5/cyfitter_cfg.c **** 	CY_SET_XTND_REG8((void CYFAR *)(CYREG_CLKDIST_DCFG0_CFG0 + 0x2u), 0x50u);
 236              		.loc 1 255 0
 237 0002 0024     		movs	r4, #0
 238 0004 314B     		ldr	r3, .L22
 239 0006 1C80     		strh	r4, [r3]	@ movhi
 256:Generated_Source\PSoC5/cyfitter_cfg.c **** 	CY_SET_XTND_REG16((void CYFAR *)(CYREG_CLKDIST_DCFG1_CFG0), 0x0000u);
 240              		.loc 1 256 0
 241 0008 5022     		movs	r2, #80
 242 000a 0233     		adds	r3, r3, #2
 243 000c 1A70     		strb	r2, [r3]
 257:Generated_Source\PSoC5/cyfitter_cfg.c **** 	CY_SET_XTND_REG8((void CYFAR *)(CYREG_CLKDIST_DCFG1_CFG0 + 0x2u), 0x58u);
 244              		.loc 1 257 0
 245 000e 0233     		adds	r3, r3, #2
 246 0010 1C80     		strh	r4, [r3]	@ movhi
 258:Generated_Source\PSoC5/cyfitter_cfg.c **** 	CY_SET_XTND_REG16((void CYFAR *)(CYREG_CLKDIST_DCFG2_CFG0), 0x5DBFu);
 247              		.loc 1 258 0
 248 0012 5822     		movs	r2, #88
 249 0014 0233     		adds	r3, r3, #2
 250 0016 1A70     		strb	r2, [r3]
 259:Generated_Source\PSoC5/cyfitter_cfg.c **** 	CY_SET_XTND_REG8((void CYFAR *)(CYREG_CLKDIST_DCFG2_CFG0 + 0x2u), 0x18u);
 251              		.loc 1 259 0
 252 0018 45F6BF52 		movw	r2, #23999
 253 001c 0233     		adds	r3, r3, #2
 254 001e 1A80     		strh	r2, [r3]	@ movhi
 260:Generated_Source\PSoC5/cyfitter_cfg.c **** 
 255              		.loc 1 260 0
 256 0020 1822     		movs	r2, #24
 257 0022 0233     		adds	r3, r3, #2
 258 0024 1A70     		strb	r2, [r3]
 263:Generated_Source\PSoC5/cyfitter_cfg.c **** 
 259              		.loc 1 263 0
 260 0026 0422     		movs	r2, #4
 261 0028 2949     		ldr	r1, .L22+4
 262 002a 2A48     		ldr	r0, .L22+8
 263 002c FFF7FEFF 		bl	CYCONFIGCPY
 264              	.LVL19:
 266:Generated_Source\PSoC5/cyfitter_cfg.c **** 
 265              		.loc 1 266 0
 266 0030 0622     		movs	r2, #6
 267 0032 294B     		ldr	r3, .L22+12
 268 0034 1A70     		strb	r2, [r3]
 269:Generated_Source\PSoC5/cyfitter_cfg.c **** 	CY_SET_XTND_REG8((void CYFAR *)(CYREG_IMO_TR1), (CY_GET_XTND_REG8((void CYFAR *)CYREG_FLSHID_CUST_
 269              		.loc 1 269 0
 270 0036 0222     		movs	r2, #2
 271 0038 A3F58073 		sub	r3, r3, #256
 272 003c 1A70     		strb	r2, [r3]
 270:Generated_Source\PSoC5/cyfitter_cfg.c **** 
 273              		.loc 1 270 0
 274 003e 274B     		ldr	r3, .L22+16
 275 0040 1B78     		ldrb	r3, [r3]	@ zero_extendqisi2
 276 0042 DBB2     		uxtb	r3, r3
 277 0044 264A     		ldr	r2, .L22+20
 278 0046 1370     		strb	r3, [r2]
 273:Generated_Source\PSoC5/cyfitter_cfg.c **** 	CY_SET_XTND_REG16((void CYFAR *)(CYREG_FASTCLK_PLL_CFG0), 0x1251u);
ARM GAS  C:\Users\ANDREY~1\AppData\Local\Temp\cc12Ensd.s 			page 12


 279              		.loc 1 273 0
 280 0048 4FF4E162 		mov	r2, #1800
 281 004c 254B     		ldr	r3, .L22+24
 282 004e 1A80     		strh	r2, [r3]	@ movhi
 274:Generated_Source\PSoC5/cyfitter_cfg.c **** 	/* Wait up to 250us for the PLL to lock */
 283              		.loc 1 274 0
 284 0050 41F25122 		movw	r2, #4689
 285 0054 023B     		subs	r3, r3, #2
 286 0056 1A80     		strh	r2, [r3]	@ movhi
 287              	.LVL20:
 277:Generated_Source\PSoC5/cyfitter_cfg.c **** 	{ 
 288              		.loc 1 277 0
 289 0058 1925     		movs	r5, #25
 290 005a 0CE0     		b	.L17
 291              	.LVL21:
 292              	.L19:
 279:Generated_Source\PSoC5/cyfitter_cfg.c **** 		CyDelayCycles(10u * 48u); /* Delay 10us based on 48MHz clock */
 293              		.loc 1 279 0 discriminator 4
 294 005c 224B     		ldr	r3, .L22+28
 295 005e 1B78     		ldrb	r3, [r3]	@ zero_extendqisi2
 296 0060 03F00103 		and	r3, r3, #1
 297 0064 43EA4404 		orr	r4, r3, r4, lsl #1
 298              	.LVL22:
 299 0068 04F00304 		and	r4, r4, #3
 300              	.LVL23:
 280:Generated_Source\PSoC5/cyfitter_cfg.c **** 	}
 301              		.loc 1 280 0 discriminator 4
 302 006c 4FF4F070 		mov	r0, #480
 303 0070 FFF7FEFF 		bl	CyDelayCycles
 304              	.LVL24:
 277:Generated_Source\PSoC5/cyfitter_cfg.c **** 	{ 
 305              		.loc 1 277 0 discriminator 4
 306 0074 013D     		subs	r5, r5, #1
 307              	.LVL25:
 308              	.L17:
 277:Generated_Source\PSoC5/cyfitter_cfg.c **** 	{ 
 309              		.loc 1 277 0 is_stmt 0 discriminator 1
 310 0076 0DB1     		cbz	r5, .L18
 277:Generated_Source\PSoC5/cyfitter_cfg.c **** 	{ 
 311              		.loc 1 277 0 discriminator 3
 312 0078 032C     		cmp	r4, #3
 313 007a EFD1     		bne	.L19
 314              	.L18:
 283:Generated_Source\PSoC5/cyfitter_cfg.c **** 	{
 315              		.loc 1 283 0 is_stmt 1
 316 007c 15B9     		cbnz	r5, .L20
 285:Generated_Source\PSoC5/cyfitter_cfg.c **** 	}
 317              		.loc 1 285 0
 318 007e 0320     		movs	r0, #3
 319 0080 FFF7FEFF 		bl	CyClockStartupError
 320              	.LVL26:
 321              	.L20:
 289:Generated_Source\PSoC5/cyfitter_cfg.c **** 	CY_SET_XTND_REG8((void CYFAR *)(CYREG_CLKDIST_MSTR0), 0x07u);
 322              		.loc 1 289 0
 323 0084 194B     		ldr	r3, .L22+32
 324 0086 4FF48072 		mov	r2, #256
 325 008a 1A80     		strh	r2, [r3]	@ movhi
ARM GAS  C:\Users\ANDREY~1\AppData\Local\Temp\cc12Ensd.s 			page 13


 290:Generated_Source\PSoC5/cyfitter_cfg.c **** 	CY_SET_XTND_REG8((void CYFAR *)(CYREG_CLKDIST_BCFG0), 0x00u);
 326              		.loc 1 290 0
 327 008c 0722     		movs	r2, #7
 328 008e 1A70     		strb	r2, [r3]
 291:Generated_Source\PSoC5/cyfitter_cfg.c **** 	CY_SET_XTND_REG8((void CYFAR *)(CYREG_CLKDIST_BCFG2), 0x48u);
 329              		.loc 1 291 0
 330 0090 0022     		movs	r2, #0
 331 0092 1749     		ldr	r1, .L22+36
 332 0094 0A70     		strb	r2, [r1]
 292:Generated_Source\PSoC5/cyfitter_cfg.c **** 	CY_SET_XTND_REG8((void CYFAR *)(CYREG_CLKDIST_MSTR0), 0x00u);
 333              		.loc 1 292 0
 334 0096 4820     		movs	r0, #72
 335 0098 0231     		adds	r1, r1, #2
 336 009a 0870     		strb	r0, [r1]
 293:Generated_Source\PSoC5/cyfitter_cfg.c **** 	CY_SET_XTND_REG8((void CYFAR *)(CYREG_CLKDIST_LD), 0x02u);
 337              		.loc 1 293 0
 338 009c 1A70     		strb	r2, [r3]
 294:Generated_Source\PSoC5/cyfitter_cfg.c **** 	CY_SET_XTND_REG8((void CYFAR *)(CYREG_CLKDIST_DLY1), 0x04u);
 339              		.loc 1 294 0
 340 009e 0222     		movs	r2, #2
 341 00a0 033B     		subs	r3, r3, #3
 342 00a2 1A70     		strb	r2, [r3]
 295:Generated_Source\PSoC5/cyfitter_cfg.c **** 
 343              		.loc 1 295 0
 344 00a4 0422     		movs	r2, #4
 345 00a6 0A33     		adds	r3, r3, #10
 346 00a8 1A70     		strb	r2, [r3]
 297:Generated_Source\PSoC5/cyfitter_cfg.c **** 	CY_SET_XTND_REG8((void CYFAR *)(CYREG_PM_ACT_CFG1), ((CY_GET_XTND_REG8((void CYFAR *)CYREG_PM_ACT_
 347              		.loc 1 297 0
 348 00aa 124A     		ldr	r2, .L22+40
 349 00ac 1378     		ldrb	r3, [r2]	@ zero_extendqisi2
 350 00ae 43F00703 		orr	r3, r3, #7
 351 00b2 1370     		strb	r3, [r2]
 298:Generated_Source\PSoC5/cyfitter_cfg.c **** 	CY_SET_XTND_REG8((void CYFAR *)(CYREG_PM_ACT_CFG0), ((CY_GET_XTND_REG8((void CYFAR *)CYREG_PM_ACT_
 352              		.loc 1 298 0
 353 00b4 013A     		subs	r2, r2, #1
 354 00b6 1378     		ldrb	r3, [r2]	@ zero_extendqisi2
 355 00b8 43F00103 		orr	r3, r3, #1
 356 00bc 1370     		strb	r3, [r2]
 299:Generated_Source\PSoC5/cyfitter_cfg.c **** }
 357              		.loc 1 299 0
 358 00be 013A     		subs	r2, r2, #1
 359 00c0 1378     		ldrb	r3, [r2]	@ zero_extendqisi2
 360 00c2 43F08003 		orr	r3, r3, #128
 361 00c6 1370     		strb	r3, [r2]
 362 00c8 38BD     		pop	{r3, r4, r5, pc}
 363              	.LVL27:
 364              	.L23:
 365 00ca 00BF     		.align	2
 366              	.L22:
 367 00cc 80400040 		.word	1073758336
 368 00d0 88050048 		.word	1207960968
 369 00d4 00410040 		.word	1073758464
 370 00d8 00430040 		.word	1073758976
 371 00dc 0B010049 		.word	1224737035
 372 00e0 A1460040 		.word	1073759905
 373 00e4 22420040 		.word	1073758754
ARM GAS  C:\Users\ANDREY~1\AppData\Local\Temp\cc12Ensd.s 			page 14


 374 00e8 25420040 		.word	1073758757
 375 00ec 04400040 		.word	1073758212
 376 00f0 06400040 		.word	1073758214
 377 00f4 A2430040 		.word	1073759138
 378              		.cfi_endproc
 379              	.LFE5:
 380              		.size	ClockSetup, .-ClockSetup
 381              		.section	.text.SetAnalogRoutingPumps,"ax",%progbits
 382              		.align	2
 383              		.global	SetAnalogRoutingPumps
 384              		.thumb
 385              		.thumb_func
 386              		.type	SetAnalogRoutingPumps, %function
 387              	SetAnalogRoutingPumps:
 388              	.LFB7:
 331:Generated_Source\PSoC5/cyfitter_cfg.c **** }
 332:Generated_Source\PSoC5/cyfitter_cfg.c **** 
 333:Generated_Source\PSoC5/cyfitter_cfg.c **** 
 334:Generated_Source\PSoC5/cyfitter_cfg.c **** /*******************************************************************************
 335:Generated_Source\PSoC5/cyfitter_cfg.c **** * Function Name: SetAnalogRoutingPumps
 336:Generated_Source\PSoC5/cyfitter_cfg.c **** ********************************************************************************
 337:Generated_Source\PSoC5/cyfitter_cfg.c **** *
 338:Generated_Source\PSoC5/cyfitter_cfg.c **** * Summary:
 339:Generated_Source\PSoC5/cyfitter_cfg.c **** * Enables or disables the analog pumps feeding analog routing switches.
 340:Generated_Source\PSoC5/cyfitter_cfg.c **** * Intended to be called at startup, based on the Vdda system configuration;
 341:Generated_Source\PSoC5/cyfitter_cfg.c **** * may be called during operation when the user informs us that the Vdda voltage
 342:Generated_Source\PSoC5/cyfitter_cfg.c **** * crossed the pump threshold.
 343:Generated_Source\PSoC5/cyfitter_cfg.c **** *
 344:Generated_Source\PSoC5/cyfitter_cfg.c **** * Parameters:
 345:Generated_Source\PSoC5/cyfitter_cfg.c **** *  enabled - 1 to enable the pumps, 0 to disable the pumps
 346:Generated_Source\PSoC5/cyfitter_cfg.c **** *
 347:Generated_Source\PSoC5/cyfitter_cfg.c **** * Return:
 348:Generated_Source\PSoC5/cyfitter_cfg.c **** *  void
 349:Generated_Source\PSoC5/cyfitter_cfg.c **** *
 350:Generated_Source\PSoC5/cyfitter_cfg.c **** *******************************************************************************/
 351:Generated_Source\PSoC5/cyfitter_cfg.c **** void SetAnalogRoutingPumps(uint8 enabled)
 352:Generated_Source\PSoC5/cyfitter_cfg.c **** {
 389              		.loc 1 352 0
 390              		.cfi_startproc
 391              		@ args = 0, pretend = 0, frame = 0
 392              		@ frame_needed = 0, uses_anonymous_args = 0
 393              		@ link register save eliminated.
 394              	.LVL28:
 353:Generated_Source\PSoC5/cyfitter_cfg.c **** 	uint8 regValue = CY_GET_XTND_REG8((void CYFAR *)CYREG_PUMP_CR0);
 395              		.loc 1 353 0
 396 0000 054B     		ldr	r3, .L27
 397 0002 1B78     		ldrb	r3, [r3]	@ zero_extendqisi2
 398 0004 DBB2     		uxtb	r3, r3
 399              	.LVL29:
 354:Generated_Source\PSoC5/cyfitter_cfg.c **** 	if (enabled != 0u)
 400              		.loc 1 354 0
 401 0006 10B1     		cbz	r0, .L25
 355:Generated_Source\PSoC5/cyfitter_cfg.c **** 	{
 356:Generated_Source\PSoC5/cyfitter_cfg.c **** 		regValue |= 0x22u;
 402              		.loc 1 356 0
 403 0008 43F02203 		orr	r3, r3, #34
 404              	.LVL30:
ARM GAS  C:\Users\ANDREY~1\AppData\Local\Temp\cc12Ensd.s 			page 15


 405 000c 01E0     		b	.L26
 406              	.L25:
 357:Generated_Source\PSoC5/cyfitter_cfg.c **** 	}
 358:Generated_Source\PSoC5/cyfitter_cfg.c **** 	else
 359:Generated_Source\PSoC5/cyfitter_cfg.c **** 	{
 360:Generated_Source\PSoC5/cyfitter_cfg.c **** 		regValue &= (uint8)~0x22u;
 407              		.loc 1 360 0
 408 000e 03F0DD03 		and	r3, r3, #221
 409              	.LVL31:
 410              	.L26:
 361:Generated_Source\PSoC5/cyfitter_cfg.c **** 	}
 362:Generated_Source\PSoC5/cyfitter_cfg.c **** 	CY_SET_XTND_REG8((void CYFAR *)CYREG_PUMP_CR0, regValue);
 411              		.loc 1 362 0
 412 0012 014A     		ldr	r2, .L27
 413 0014 1370     		strb	r3, [r2]
 414 0016 7047     		bx	lr
 415              	.L28:
 416              		.align	2
 417              	.L27:
 418 0018 76580040 		.word	1073764470
 419              		.cfi_endproc
 420              	.LFE7:
 421              		.size	SetAnalogRoutingPumps, .-SetAnalogRoutingPumps
 422              		.section	.text.ADC_GLV_V_AMux_Set,"ax",%progbits
 423              		.align	2
 424              		.global	ADC_GLV_V_AMux_Set
 425              		.thumb
 426              		.thumb_func
 427              		.type	ADC_GLV_V_AMux_Set, %function
 428              	ADC_GLV_V_AMux_Set:
 429              	.LFB8:
 363:Generated_Source\PSoC5/cyfitter_cfg.c **** }
 364:Generated_Source\PSoC5/cyfitter_cfg.c **** 
 365:Generated_Source\PSoC5/cyfitter_cfg.c **** 
 366:Generated_Source\PSoC5/cyfitter_cfg.c **** #define CY_AMUX_UNUSED CYREG_BOOST_SR
 367:Generated_Source\PSoC5/cyfitter_cfg.c **** /* This is an implementation detail of the AMux. Code that depends on it may be
 368:Generated_Source\PSoC5/cyfitter_cfg.c ****    incompatible with other versions of PSoC Creator. */
 369:Generated_Source\PSoC5/cyfitter_cfg.c **** uint8 CYXDATA * const CYCODE ADC_GLV_V_AMux__addrTable[2] = {
 370:Generated_Source\PSoC5/cyfitter_cfg.c **** 	(uint8 CYXDATA *)CYREG_DSM0_SW3, 
 371:Generated_Source\PSoC5/cyfitter_cfg.c **** 	(uint8 CYXDATA *)CY_AMUX_UNUSED, 
 372:Generated_Source\PSoC5/cyfitter_cfg.c **** };
 373:Generated_Source\PSoC5/cyfitter_cfg.c **** 
 374:Generated_Source\PSoC5/cyfitter_cfg.c **** /* This is an implementation detail of the AMux. Code that depends on it may be
 375:Generated_Source\PSoC5/cyfitter_cfg.c ****    incompatible with other versions of PSoC Creator. */
 376:Generated_Source\PSoC5/cyfitter_cfg.c **** const uint8 CYCODE ADC_GLV_V_AMux__maskTable[2] = {
 377:Generated_Source\PSoC5/cyfitter_cfg.c **** 	0x40u, 
 378:Generated_Source\PSoC5/cyfitter_cfg.c **** 	0x00u, 
 379:Generated_Source\PSoC5/cyfitter_cfg.c **** };
 380:Generated_Source\PSoC5/cyfitter_cfg.c **** 
 381:Generated_Source\PSoC5/cyfitter_cfg.c **** /*******************************************************************************
 382:Generated_Source\PSoC5/cyfitter_cfg.c **** * Function Name: ADC_GLV_V_AMux_Set
 383:Generated_Source\PSoC5/cyfitter_cfg.c **** ********************************************************************************
 384:Generated_Source\PSoC5/cyfitter_cfg.c **** * Summary:
 385:Generated_Source\PSoC5/cyfitter_cfg.c **** *  This function is used to set a particular channel as active on the AMux.
 386:Generated_Source\PSoC5/cyfitter_cfg.c **** *
 387:Generated_Source\PSoC5/cyfitter_cfg.c **** * Parameters:  
 388:Generated_Source\PSoC5/cyfitter_cfg.c **** *   channel - The mux channel input to set as active
ARM GAS  C:\Users\ANDREY~1\AppData\Local\Temp\cc12Ensd.s 			page 16


 389:Generated_Source\PSoC5/cyfitter_cfg.c **** *
 390:Generated_Source\PSoC5/cyfitter_cfg.c **** * Return:
 391:Generated_Source\PSoC5/cyfitter_cfg.c **** *   void
 392:Generated_Source\PSoC5/cyfitter_cfg.c **** *
 393:Generated_Source\PSoC5/cyfitter_cfg.c **** *******************************************************************************/
 394:Generated_Source\PSoC5/cyfitter_cfg.c **** void ADC_GLV_V_AMux_Set(uint8 channel)
 395:Generated_Source\PSoC5/cyfitter_cfg.c **** {
 430              		.loc 1 395 0
 431              		.cfi_startproc
 432              		@ args = 0, pretend = 0, frame = 0
 433              		@ frame_needed = 0, uses_anonymous_args = 0
 434              		@ link register save eliminated.
 435              	.LVL32:
 396:Generated_Source\PSoC5/cyfitter_cfg.c **** 	if (channel < 2)
 436              		.loc 1 396 0
 437 0000 0128     		cmp	r0, #1
 438 0002 07D8     		bhi	.L29
 397:Generated_Source\PSoC5/cyfitter_cfg.c **** 	{
 398:Generated_Source\PSoC5/cyfitter_cfg.c **** 		*ADC_GLV_V_AMux__addrTable[channel] |= ADC_GLV_V_AMux__maskTable[channel];
 439              		.loc 1 398 0
 440 0004 044B     		ldr	r3, .L31
 441 0006 53F82020 		ldr	r2, [r3, r0, lsl #2]
 442 000a 1844     		add	r0, r0, r3
 443              	.LVL33:
 444 000c 017A     		ldrb	r1, [r0, #8]	@ zero_extendqisi2
 445 000e 1378     		ldrb	r3, [r2]	@ zero_extendqisi2
 446 0010 0B43     		orrs	r3, r3, r1
 447 0012 1370     		strb	r3, [r2]
 448              	.L29:
 449 0014 7047     		bx	lr
 450              	.L32:
 451 0016 00BF     		.align	2
 452              	.L31:
 453 0018 00000000 		.word	.LANCHOR0
 454              		.cfi_endproc
 455              	.LFE8:
 456              		.size	ADC_GLV_V_AMux_Set, .-ADC_GLV_V_AMux_Set
 457              		.section	.text.ADC_GLV_V_AMux_Unset,"ax",%progbits
 458              		.align	2
 459              		.global	ADC_GLV_V_AMux_Unset
 460              		.thumb
 461              		.thumb_func
 462              		.type	ADC_GLV_V_AMux_Unset, %function
 463              	ADC_GLV_V_AMux_Unset:
 464              	.LFB9:
 399:Generated_Source\PSoC5/cyfitter_cfg.c **** 	}
 400:Generated_Source\PSoC5/cyfitter_cfg.c **** }
 401:Generated_Source\PSoC5/cyfitter_cfg.c **** 
 402:Generated_Source\PSoC5/cyfitter_cfg.c **** /*******************************************************************************
 403:Generated_Source\PSoC5/cyfitter_cfg.c **** * Function Name: ADC_GLV_V_AMux_Unset
 404:Generated_Source\PSoC5/cyfitter_cfg.c **** ********************************************************************************
 405:Generated_Source\PSoC5/cyfitter_cfg.c **** * Summary:
 406:Generated_Source\PSoC5/cyfitter_cfg.c **** *  This function is used to clear a particular channel from being active on the
 407:Generated_Source\PSoC5/cyfitter_cfg.c **** *  AMux.
 408:Generated_Source\PSoC5/cyfitter_cfg.c **** *
 409:Generated_Source\PSoC5/cyfitter_cfg.c **** * Parameters:  
 410:Generated_Source\PSoC5/cyfitter_cfg.c **** *   channel - The mux channel input to mark inactive
ARM GAS  C:\Users\ANDREY~1\AppData\Local\Temp\cc12Ensd.s 			page 17


 411:Generated_Source\PSoC5/cyfitter_cfg.c **** *
 412:Generated_Source\PSoC5/cyfitter_cfg.c **** * Return:
 413:Generated_Source\PSoC5/cyfitter_cfg.c **** *   void
 414:Generated_Source\PSoC5/cyfitter_cfg.c **** *
 415:Generated_Source\PSoC5/cyfitter_cfg.c **** *******************************************************************************/
 416:Generated_Source\PSoC5/cyfitter_cfg.c **** void ADC_GLV_V_AMux_Unset(uint8 channel)
 417:Generated_Source\PSoC5/cyfitter_cfg.c **** {
 465              		.loc 1 417 0
 466              		.cfi_startproc
 467              		@ args = 0, pretend = 0, frame = 0
 468              		@ frame_needed = 0, uses_anonymous_args = 0
 469              		@ link register save eliminated.
 470              	.LVL34:
 418:Generated_Source\PSoC5/cyfitter_cfg.c **** 	if (channel < 2)
 471              		.loc 1 418 0
 472 0000 0128     		cmp	r0, #1
 473 0002 08D8     		bhi	.L33
 419:Generated_Source\PSoC5/cyfitter_cfg.c **** 	{
 420:Generated_Source\PSoC5/cyfitter_cfg.c **** 		*ADC_GLV_V_AMux__addrTable[channel] &= (uint8)~ADC_GLV_V_AMux__maskTable[channel];
 474              		.loc 1 420 0
 475 0004 044B     		ldr	r3, .L35
 476 0006 53F82020 		ldr	r2, [r3, r0, lsl #2]
 477 000a 1844     		add	r0, r0, r3
 478              	.LVL35:
 479 000c 017A     		ldrb	r1, [r0, #8]	@ zero_extendqisi2
 480 000e 1378     		ldrb	r3, [r2]	@ zero_extendqisi2
 481 0010 23EA0103 		bic	r3, r3, r1
 482 0014 1370     		strb	r3, [r2]
 483              	.L33:
 484 0016 7047     		bx	lr
 485              	.L36:
 486              		.align	2
 487              	.L35:
 488 0018 00000000 		.word	.LANCHOR0
 489              		.cfi_endproc
 490              	.LFE9:
 491              		.size	ADC_GLV_V_AMux_Unset, .-ADC_GLV_V_AMux_Unset
 492              		.section	.text.cyfitter_cfg,"ax",%progbits
 493              		.align	2
 494              		.global	cyfitter_cfg
 495              		.thumb
 496              		.thumb_func
 497              		.type	cyfitter_cfg, %function
 498              	cyfitter_cfg:
 499              	.LFB10:
 421:Generated_Source\PSoC5/cyfitter_cfg.c **** 	}
 422:Generated_Source\PSoC5/cyfitter_cfg.c **** }
 423:Generated_Source\PSoC5/cyfitter_cfg.c **** 
 424:Generated_Source\PSoC5/cyfitter_cfg.c **** 
 425:Generated_Source\PSoC5/cyfitter_cfg.c **** 
 426:Generated_Source\PSoC5/cyfitter_cfg.c **** /*******************************************************************************
 427:Generated_Source\PSoC5/cyfitter_cfg.c **** * Function Name: cyfitter_cfg
 428:Generated_Source\PSoC5/cyfitter_cfg.c **** ********************************************************************************
 429:Generated_Source\PSoC5/cyfitter_cfg.c **** * Summary:
 430:Generated_Source\PSoC5/cyfitter_cfg.c **** *  This function is called by the start-up code for the selected device. It
 431:Generated_Source\PSoC5/cyfitter_cfg.c **** *  performs all of the necessary device configuration based on the design
 432:Generated_Source\PSoC5/cyfitter_cfg.c **** *  settings.  This includes settings from the Design Wide Resources (DWR) such
ARM GAS  C:\Users\ANDREY~1\AppData\Local\Temp\cc12Ensd.s 			page 18


 433:Generated_Source\PSoC5/cyfitter_cfg.c **** *  as Clocks and Pins as well as any component configuration that is necessary.
 434:Generated_Source\PSoC5/cyfitter_cfg.c **** *
 435:Generated_Source\PSoC5/cyfitter_cfg.c **** * Parameters:
 436:Generated_Source\PSoC5/cyfitter_cfg.c **** *   void
 437:Generated_Source\PSoC5/cyfitter_cfg.c **** *
 438:Generated_Source\PSoC5/cyfitter_cfg.c **** * Return:
 439:Generated_Source\PSoC5/cyfitter_cfg.c **** *   void
 440:Generated_Source\PSoC5/cyfitter_cfg.c **** *
 441:Generated_Source\PSoC5/cyfitter_cfg.c **** *******************************************************************************/
 442:Generated_Source\PSoC5/cyfitter_cfg.c **** 
 443:Generated_Source\PSoC5/cyfitter_cfg.c **** void cyfitter_cfg(void)
 444:Generated_Source\PSoC5/cyfitter_cfg.c **** {
 500              		.loc 1 444 0
 501              		.cfi_startproc
 502              		@ args = 0, pretend = 0, frame = 0
 503              		@ frame_needed = 0, uses_anonymous_args = 0
 504 0000 38B5     		push	{r3, r4, r5, lr}
 505              		.cfi_def_cfa_offset 16
 506              		.cfi_offset 3, -16
 507              		.cfi_offset 4, -12
 508              		.cfi_offset 5, -8
 509              		.cfi_offset 14, -4
 445:Generated_Source\PSoC5/cyfitter_cfg.c **** #ifdef CYGlobalIntDisable
 446:Generated_Source\PSoC5/cyfitter_cfg.c **** 	/* Disable interrupts by default. Let user enable if/when they want. */
 447:Generated_Source\PSoC5/cyfitter_cfg.c **** 	CYGlobalIntDisable
 510              		.loc 1 447 0
 511              		.syntax unified
 512              	@ 447 "Generated_Source\PSoC5\cyfitter_cfg.c" 1
 513 0002 72B6     		CPSID   i
 514              	@ 0 "" 2
 448:Generated_Source\PSoC5/cyfitter_cfg.c **** #endif
 449:Generated_Source\PSoC5/cyfitter_cfg.c **** 
 450:Generated_Source\PSoC5/cyfitter_cfg.c **** 	/* Enable/Disable Debug functionality based on settings from System DWR */
 451:Generated_Source\PSoC5/cyfitter_cfg.c **** 	CY_SET_XTND_REG8((void CYFAR *)CYREG_MLOGIC_DEBUG, (CY_GET_XTND_REG8((void CYFAR *)CYREG_MLOGIC_DE
 515              		.loc 1 451 0
 516              		.thumb
 517              		.syntax unified
 518 0004 414A     		ldr	r2, .L43
 519 0006 1378     		ldrb	r3, [r2]	@ zero_extendqisi2
 520 0008 43F00403 		orr	r3, r3, #4
 521 000c 1370     		strb	r3, [r2]
 522              	.LVL36:
 523              	.LBB3:
 452:Generated_Source\PSoC5/cyfitter_cfg.c **** 
 453:Generated_Source\PSoC5/cyfitter_cfg.c **** 	{
 454:Generated_Source\PSoC5/cyfitter_cfg.c **** 
 455:Generated_Source\PSoC5/cyfitter_cfg.c **** 		CYPACKED typedef struct {
 456:Generated_Source\PSoC5/cyfitter_cfg.c **** 			void CYFAR *address;
 457:Generated_Source\PSoC5/cyfitter_cfg.c **** 			uint16 size;
 458:Generated_Source\PSoC5/cyfitter_cfg.c **** 		} CYPACKED_ATTR cfg_memset_t;
 459:Generated_Source\PSoC5/cyfitter_cfg.c **** 
 460:Generated_Source\PSoC5/cyfitter_cfg.c **** 
 461:Generated_Source\PSoC5/cyfitter_cfg.c **** 		CYPACKED typedef struct {
 462:Generated_Source\PSoC5/cyfitter_cfg.c **** 			void CYFAR *dest;
 463:Generated_Source\PSoC5/cyfitter_cfg.c **** 			const void CYFAR *src;
 464:Generated_Source\PSoC5/cyfitter_cfg.c **** 			uint16 size;
 465:Generated_Source\PSoC5/cyfitter_cfg.c **** 		} CYPACKED_ATTR cfg_memcpy_t;
ARM GAS  C:\Users\ANDREY~1\AppData\Local\Temp\cc12Ensd.s 			page 19


 466:Generated_Source\PSoC5/cyfitter_cfg.c **** 
 467:Generated_Source\PSoC5/cyfitter_cfg.c **** 		static const cfg_memset_t CYCODE cfg_memset_list[] = {
 468:Generated_Source\PSoC5/cyfitter_cfg.c **** 			/* address, size */
 469:Generated_Source\PSoC5/cyfitter_cfg.c **** 			{(void CYFAR *)(CYREG_TMR0_CFG0), 12u},
 470:Generated_Source\PSoC5/cyfitter_cfg.c **** 			{(void CYFAR *)(CYREG_PRT15_DR), 16u},
 471:Generated_Source\PSoC5/cyfitter_cfg.c **** 			{(void CYFAR *)(CYDEV_UCFG_B0_P0_U0_BASE), 512u},
 472:Generated_Source\PSoC5/cyfitter_cfg.c **** 			{(void CYFAR *)(CYDEV_UCFG_B0_P1_U1_BASE), 3456u},
 473:Generated_Source\PSoC5/cyfitter_cfg.c **** 			{(void CYFAR *)(CYDEV_UCFG_B1_P2_U0_BASE), 2048u},
 474:Generated_Source\PSoC5/cyfitter_cfg.c **** 			{(void CYFAR *)(CYDEV_UCFG_DSI0_BASE), 2560u},
 475:Generated_Source\PSoC5/cyfitter_cfg.c **** 			{(void CYFAR *)(CYDEV_UCFG_DSI12_BASE), 512u},
 476:Generated_Source\PSoC5/cyfitter_cfg.c **** 			{(void CYFAR *)(CYREG_BCTL0_MDCLK_EN), 32u},
 477:Generated_Source\PSoC5/cyfitter_cfg.c **** 		};
 478:Generated_Source\PSoC5/cyfitter_cfg.c **** 
 479:Generated_Source\PSoC5/cyfitter_cfg.c **** 		static const cfg_memcpy_t CYCODE cfg_memcpy_list [] = {
 480:Generated_Source\PSoC5/cyfitter_cfg.c **** 			/* dest, src, size */
 481:Generated_Source\PSoC5/cyfitter_cfg.c **** 			{(void CYFAR *)(CYDEV_PRTDSI_PRT0_BASE), BS_IOPORT_0_VAL, 7u},
 482:Generated_Source\PSoC5/cyfitter_cfg.c **** 			{(void CYFAR *)(CYDEV_PRTDSI_PRT4_BASE), BS_IOPORT_4_VAL, 7u},
 483:Generated_Source\PSoC5/cyfitter_cfg.c **** 			{(void CYFAR *)(CYDEV_UCFG_B0_P1_U0_BASE), BS_UDB_1_4_1_CONFIG_VAL, 128u},
 484:Generated_Source\PSoC5/cyfitter_cfg.c **** 		};
 485:Generated_Source\PSoC5/cyfitter_cfg.c **** 
 486:Generated_Source\PSoC5/cyfitter_cfg.c **** 		uint8 CYDATA i;
 487:Generated_Source\PSoC5/cyfitter_cfg.c **** 
 488:Generated_Source\PSoC5/cyfitter_cfg.c **** 		/* Zero out critical memory blocks before beginning configuration */
 489:Generated_Source\PSoC5/cyfitter_cfg.c **** 		for (i = 0u; i < (sizeof(cfg_memset_list)/sizeof(cfg_memset_list[0])); i++)
 524              		.loc 1 489 0
 525 000e 0024     		movs	r4, #0
 526 0010 0BE0     		b	.L38
 527              	.LVL37:
 528              	.L39:
 529              	.LBB4:
 490:Generated_Source\PSoC5/cyfitter_cfg.c **** 		{
 491:Generated_Source\PSoC5/cyfitter_cfg.c **** 			const cfg_memset_t CYCODE * CYDATA ms = &cfg_memset_list[i];
 492:Generated_Source\PSoC5/cyfitter_cfg.c **** 			CYMEMZERO(ms->address, (size_t)(uint32)(ms->size));
 530              		.loc 1 492 0 discriminator 3
 531 0012 3F48     		ldr	r0, .L43+4
 532 0014 6300     		lsls	r3, r4, #1
 533 0016 1A19     		adds	r2, r3, r4
 534 0018 5100     		lsls	r1, r2, #1
 535 001a 0144     		add	r1, r1, r0
 536 001c 0A46     		mov	r2, r1
 537 001e 098A     		ldrh	r1, [r1, #16]
 538 0020 D068     		ldr	r0, [r2, #12]	@ unaligned
 539 0022 FFF7FEFF 		bl	CYMEMZERO
 540              	.LVL38:
 541              	.LBE4:
 489:Generated_Source\PSoC5/cyfitter_cfg.c **** 		{
 542              		.loc 1 489 0 discriminator 3
 543 0026 0134     		adds	r4, r4, #1
 544              	.LVL39:
 545 0028 E4B2     		uxtb	r4, r4
 546              	.LVL40:
 547              	.L38:
 489:Generated_Source\PSoC5/cyfitter_cfg.c **** 		{
 548              		.loc 1 489 0 is_stmt 0 discriminator 1
 549 002a 072C     		cmp	r4, #7
 550 002c F1D9     		bls	.L39
 551 002e 0024     		movs	r4, #0
ARM GAS  C:\Users\ANDREY~1\AppData\Local\Temp\cc12Ensd.s 			page 20


 552              	.LVL41:
 553 0030 0CE0     		b	.L40
 554              	.LVL42:
 555              	.L41:
 556              	.LBB5:
 493:Generated_Source\PSoC5/cyfitter_cfg.c **** 		}
 494:Generated_Source\PSoC5/cyfitter_cfg.c **** 
 495:Generated_Source\PSoC5/cyfitter_cfg.c **** 		/* Copy device configuration data into registers */
 496:Generated_Source\PSoC5/cyfitter_cfg.c **** 		for (i = 0u; i < (sizeof(cfg_memcpy_list)/sizeof(cfg_memcpy_list[0])); i++)
 497:Generated_Source\PSoC5/cyfitter_cfg.c **** 		{
 498:Generated_Source\PSoC5/cyfitter_cfg.c **** 			const cfg_memcpy_t CYCODE * CYDATA mc = &cfg_memcpy_list[i];
 499:Generated_Source\PSoC5/cyfitter_cfg.c **** 			void * CYDATA destPtr = mc->dest;
 557              		.loc 1 499 0 is_stmt 1 discriminator 3
 558 0032 3748     		ldr	r0, .L43+4
 559 0034 A200     		lsls	r2, r4, #2
 560 0036 1119     		adds	r1, r2, r4
 561 0038 4B00     		lsls	r3, r1, #1
 562 003a 0344     		add	r3, r3, r0
 563              	.LVL43:
 500:Generated_Source\PSoC5/cyfitter_cfg.c **** 			const void * CYDATA srcPtr = mc->src;
 501:Generated_Source\PSoC5/cyfitter_cfg.c **** 			uint16 CYDATA numBytes = mc->size;
 502:Generated_Source\PSoC5/cyfitter_cfg.c **** 			CYCONFIGCPY(destPtr, srcPtr, numBytes);
 564              		.loc 1 502 0 discriminator 3
 565 003c B3F84420 		ldrh	r2, [r3, #68]
 566 0040 196C     		ldr	r1, [r3, #64]	@ unaligned
 567              	.LVL44:
 568 0042 D86B     		ldr	r0, [r3, #60]	@ unaligned
 569              	.LVL45:
 570 0044 FFF7FEFF 		bl	CYCONFIGCPY
 571              	.LVL46:
 572              	.LBE5:
 496:Generated_Source\PSoC5/cyfitter_cfg.c **** 		{
 573              		.loc 1 496 0 discriminator 3
 574 0048 0134     		adds	r4, r4, #1
 575              	.LVL47:
 576 004a E4B2     		uxtb	r4, r4
 577              	.LVL48:
 578              	.L40:
 496:Generated_Source\PSoC5/cyfitter_cfg.c **** 		{
 579              		.loc 1 496 0 is_stmt 0 discriminator 1
 580 004c 022C     		cmp	r4, #2
 581 004e F0D9     		bls	.L41
 503:Generated_Source\PSoC5/cyfitter_cfg.c **** 		}
 504:Generated_Source\PSoC5/cyfitter_cfg.c **** 
 505:Generated_Source\PSoC5/cyfitter_cfg.c **** 		cfg_write_bytes32(cy_cfg_addr_table, cy_cfg_data_table);
 582              		.loc 1 505 0 is_stmt 1
 583 0050 3049     		ldr	r1, .L43+8
 584 0052 4FF09040 		mov	r0, #1207959552
 585 0056 FFF7FEFF 		bl	cfg_write_bytes32
 586              	.LVL49:
 506:Generated_Source\PSoC5/cyfitter_cfg.c **** 
 507:Generated_Source\PSoC5/cyfitter_cfg.c **** 		/* Perform normal device configuration. Order is not critical for these items. */
 508:Generated_Source\PSoC5/cyfitter_cfg.c **** 		CY_SET_XTND_REG8((void CYFAR *)(CYREG_DSM0_CR3), 0x0Au);
 587              		.loc 1 508 0
 588 005a 0A24     		movs	r4, #10
 589              	.LVL50:
 590 005c 2E4B     		ldr	r3, .L43+12
ARM GAS  C:\Users\ANDREY~1\AppData\Local\Temp\cc12Ensd.s 			page 21


 591 005e 1C70     		strb	r4, [r3]
 509:Generated_Source\PSoC5/cyfitter_cfg.c **** 
 510:Generated_Source\PSoC5/cyfitter_cfg.c **** 		/* Enable digital routing */
 511:Generated_Source\PSoC5/cyfitter_cfg.c **** 		CY_SET_XTND_REG8((void CYFAR *)CYREG_BCTL0_BANK_CTL, CY_GET_XTND_REG8((void CYFAR *)CYREG_BCTL0_B
 592              		.loc 1 511 0
 593 0060 2E4A     		ldr	r2, .L43+16
 594 0062 1378     		ldrb	r3, [r2]	@ zero_extendqisi2
 595 0064 43F00203 		orr	r3, r3, #2
 596 0068 1370     		strb	r3, [r2]
 512:Generated_Source\PSoC5/cyfitter_cfg.c **** 		CY_SET_XTND_REG8((void CYFAR *)CYREG_BCTL1_BANK_CTL, CY_GET_XTND_REG8((void CYFAR *)CYREG_BCTL1_B
 597              		.loc 1 512 0
 598 006a 1032     		adds	r2, r2, #16
 599 006c 1378     		ldrb	r3, [r2]	@ zero_extendqisi2
 600 006e 43F00203 		orr	r3, r3, #2
 601 0072 1370     		strb	r3, [r2]
 513:Generated_Source\PSoC5/cyfitter_cfg.c **** 
 514:Generated_Source\PSoC5/cyfitter_cfg.c **** 		/* Enable UDB array */
 515:Generated_Source\PSoC5/cyfitter_cfg.c **** 		CY_SET_XTND_REG8((void CYFAR *)CYREG_PM_ACT_CFG0, CY_GET_XTND_REG8((void CYFAR *)CYREG_PM_ACT_CFG
 602              		.loc 1 515 0
 603 0074 2A4D     		ldr	r5, .L43+20
 604 0076 2B78     		ldrb	r3, [r5]	@ zero_extendqisi2
 605 0078 43F04003 		orr	r3, r3, #64
 606 007c 2B70     		strb	r3, [r5]
 516:Generated_Source\PSoC5/cyfitter_cfg.c **** 		CY_SET_XTND_REG8((void CYFAR *)CYREG_PM_AVAIL_CR2, CY_GET_XTND_REG8((void CYFAR *)CYREG_PM_AVAIL_
 607              		.loc 1 516 0
 608 007e A2F58632 		sub	r2, r2, #68608
 609 0082 513A     		subs	r2, r2, #81
 610 0084 1378     		ldrb	r3, [r2]	@ zero_extendqisi2
 611 0086 43F01003 		orr	r3, r3, #16
 612 008a 1370     		strb	r3, [r2]
 613              	.LBE3:
 517:Generated_Source\PSoC5/cyfitter_cfg.c **** 	}
 518:Generated_Source\PSoC5/cyfitter_cfg.c **** 
 519:Generated_Source\PSoC5/cyfitter_cfg.c **** 
 520:Generated_Source\PSoC5/cyfitter_cfg.c **** 	/* Perform second pass device configuration. These items must be configured in specific order afte
 521:Generated_Source\PSoC5/cyfitter_cfg.c **** 	CYCONFIGCPY((void CYFAR *)(CYREG_PRT0_DR), (const void CYFAR *)(BS_IOPINS0_0_VAL), 10u);
 614              		.loc 1 521 0
 615 008c 2246     		mov	r2, r4
 616 008e 2549     		ldr	r1, .L43+24
 617 0090 2548     		ldr	r0, .L43+28
 618 0092 FFF7FEFF 		bl	CYCONFIGCPY
 619              	.LVL51:
 522:Generated_Source\PSoC5/cyfitter_cfg.c **** 	CYCONFIGCPY((void CYFAR *)(CYREG_PRT12_DM0), (const void CYFAR *)(BS_IOPINS0_7_VAL), 8u);
 620              		.loc 1 522 0
 621 0096 0822     		movs	r2, #8
 622 0098 2449     		ldr	r1, .L43+32
 623 009a 2548     		ldr	r0, .L43+36
 624 009c FFF7FEFF 		bl	CYCONFIGCPY
 625              	.LVL52:
 523:Generated_Source\PSoC5/cyfitter_cfg.c **** 	CYCONFIGCPY((void CYFAR *)(CYREG_PRT1_DR), (const void CYFAR *)(BS_IOPINS0_1_VAL), 10u);
 626              		.loc 1 523 0
 627 00a0 2246     		mov	r2, r4
 628 00a2 2449     		ldr	r1, .L43+40
 629 00a4 2448     		ldr	r0, .L43+44
 630 00a6 FFF7FEFF 		bl	CYCONFIGCPY
 631              	.LVL53:
 524:Generated_Source\PSoC5/cyfitter_cfg.c **** 	CYCONFIGCPY((void CYFAR *)(CYREG_PRT2_DR), (const void CYFAR *)(BS_IOPINS0_2_VAL), 10u);
ARM GAS  C:\Users\ANDREY~1\AppData\Local\Temp\cc12Ensd.s 			page 22


 632              		.loc 1 524 0
 633 00aa 2246     		mov	r2, r4
 634 00ac 2349     		ldr	r1, .L43+48
 635 00ae 2448     		ldr	r0, .L43+52
 636 00b0 FFF7FEFF 		bl	CYCONFIGCPY
 637              	.LVL54:
 525:Generated_Source\PSoC5/cyfitter_cfg.c **** 	CYCONFIGCPY((void CYFAR *)(CYREG_PRT3_DR), (const void CYFAR *)(BS_IOPINS0_3_VAL), 10u);
 638              		.loc 1 525 0
 639 00b4 2246     		mov	r2, r4
 640 00b6 2349     		ldr	r1, .L43+56
 641 00b8 2348     		ldr	r0, .L43+60
 642 00ba FFF7FEFF 		bl	CYCONFIGCPY
 643              	.LVL55:
 526:Generated_Source\PSoC5/cyfitter_cfg.c **** 	CYCONFIGCPY((void CYFAR *)(CYREG_PRT4_DM0), (const void CYFAR *)(BS_IOPINS0_4_VAL), 8u);
 644              		.loc 1 526 0
 645 00be 0822     		movs	r2, #8
 646 00c0 2249     		ldr	r1, .L43+64
 647 00c2 2348     		ldr	r0, .L43+68
 648 00c4 FFF7FEFF 		bl	CYCONFIGCPY
 649              	.LVL56:
 527:Generated_Source\PSoC5/cyfitter_cfg.c **** 	CYCONFIGCPY((void CYFAR *)(CYREG_PRT5_DR), (const void CYFAR *)(BS_IOPINS0_5_VAL), 10u);
 650              		.loc 1 527 0
 651 00c8 2246     		mov	r2, r4
 652 00ca 2249     		ldr	r1, .L43+72
 653 00cc 2248     		ldr	r0, .L43+76
 654 00ce FFF7FEFF 		bl	CYCONFIGCPY
 655              	.LVL57:
 528:Generated_Source\PSoC5/cyfitter_cfg.c **** 	CYCONFIGCPY((void CYFAR *)(CYREG_PRT6_DM0), (const void CYFAR *)(BS_IOPINS0_6_VAL), 8u);
 656              		.loc 1 528 0
 657 00d2 0822     		movs	r2, #8
 658 00d4 2149     		ldr	r1, .L43+80
 659 00d6 2248     		ldr	r0, .L43+84
 660 00d8 FFF7FEFF 		bl	CYCONFIGCPY
 661              	.LVL58:
 529:Generated_Source\PSoC5/cyfitter_cfg.c **** 	/* Switch Boost to the precision bandgap reference from its internal reference */
 530:Generated_Source\PSoC5/cyfitter_cfg.c **** 	CY_SET_REG8((void CYXDATA *)CYREG_BOOST_CR2, (CY_GET_REG8((void CYXDATA *)CYREG_BOOST_CR2) | 0x08u
 662              		.loc 1 530 0
 663 00dc 214A     		ldr	r2, .L43+88
 664 00de 1378     		ldrb	r3, [r2]	@ zero_extendqisi2
 665 00e0 43F00803 		orr	r3, r3, #8
 666 00e4 1370     		strb	r3, [r2]
 531:Generated_Source\PSoC5/cyfitter_cfg.c **** 
 532:Generated_Source\PSoC5/cyfitter_cfg.c **** 	/* Set Flash Cycles based on max possible frequency in case a glitch occurs during ClockSetup(). *
 533:Generated_Source\PSoC5/cyfitter_cfg.c **** 	CY_SET_XTND_REG8((void CYFAR *)(CYREG_CACHE_CC_CTL), (((CYDEV_INSTRUCT_CACHE_ENABLED) != 0) ? 0x61
 667              		.loc 1 533 0
 668 00e6 204C     		ldr	r4, .L43+92
 669 00e8 6123     		movs	r3, #97
 670 00ea 2370     		strb	r3, [r4]
 534:Generated_Source\PSoC5/cyfitter_cfg.c **** 	/* Setup clocks based on selections from Clock DWR */
 535:Generated_Source\PSoC5/cyfitter_cfg.c **** 	ClockSetup();
 671              		.loc 1 535 0
 672 00ec FFF7FEFF 		bl	ClockSetup
 673              	.LVL59:
 536:Generated_Source\PSoC5/cyfitter_cfg.c **** 	/* Set Flash Cycles based on newly configured 24.00MHz Bus Clock. */
 537:Generated_Source\PSoC5/cyfitter_cfg.c **** 	CY_SET_XTND_REG8((void CYFAR *)(CYREG_CACHE_CC_CTL), (((CYDEV_INSTRUCT_CACHE_ENABLED) != 0) ? 0x81
 674              		.loc 1 537 0
 675 00f0 8123     		movs	r3, #129
ARM GAS  C:\Users\ANDREY~1\AppData\Local\Temp\cc12Ensd.s 			page 23


 676 00f2 2370     		strb	r3, [r4]
 538:Generated_Source\PSoC5/cyfitter_cfg.c **** 	CY_SET_XTND_REG8((void CYFAR *)(CYREG_PANTHER_WAITPIPE), 0x01u);
 677              		.loc 1 538 0
 678 00f4 0122     		movs	r2, #1
 679 00f6 1D4B     		ldr	r3, .L43+96
 680 00f8 1A70     		strb	r2, [r3]
 539:Generated_Source\PSoC5/cyfitter_cfg.c **** 
 540:Generated_Source\PSoC5/cyfitter_cfg.c **** 	/* Perform basic analog initialization to defaults */
 541:Generated_Source\PSoC5/cyfitter_cfg.c **** 	AnalogSetDefault();
 681              		.loc 1 541 0
 682 00fa FFF7FEFF 		bl	AnalogSetDefault
 683              	.LVL60:
 542:Generated_Source\PSoC5/cyfitter_cfg.c **** 
 543:Generated_Source\PSoC5/cyfitter_cfg.c **** 	/* Configure alternate active mode */
 544:Generated_Source\PSoC5/cyfitter_cfg.c **** 	CYCONFIGCPY((void CYFAR *)CYDEV_PM_STBY_BASE, (const void CYFAR *)CYDEV_PM_ACT_BASE, 14u);
 684              		.loc 1 544 0
 685 00fe 0E22     		movs	r2, #14
 686 0100 2946     		mov	r1, r5
 687 0102 1B48     		ldr	r0, .L43+100
 688 0104 FFF7FEFF 		bl	CYCONFIGCPY
 689              	.LVL61:
 690 0108 38BD     		pop	{r3, r4, r5, pc}
 691              	.L44:
 692 010a 00BF     		.align	2
 693              	.L43:
 694 010c E8460040 		.word	1073759976
 695 0110 00000000 		.word	.LANCHOR0
 696 0114 7C000048 		.word	1207959676
 697 0118 83580040 		.word	1073764483
 698 011c 03500140 		.word	1073827843
 699 0120 A0430040 		.word	1073759136
 700 0124 34050048 		.word	1207960884
 701 0128 00510040 		.word	1073762560
 702 012c 40050048 		.word	1207960896
 703 0130 C2510040 		.word	1073762754
 704 0134 48050048 		.word	1207960904
 705 0138 10510040 		.word	1073762576
 706 013c 54050048 		.word	1207960916
 707 0140 20510040 		.word	1073762592
 708 0144 60050048 		.word	1207960928
 709 0148 30510040 		.word	1073762608
 710 014c 6C050048 		.word	1207960940
 711 0150 42510040 		.word	1073762626
 712 0154 74050048 		.word	1207960948
 713 0158 50510040 		.word	1073762640
 714 015c 80050048 		.word	1207960960
 715 0160 62510040 		.word	1073762658
 716 0164 22430040 		.word	1073759010
 717 0168 00480040 		.word	1073760256
 718 016c 04000840 		.word	1074266116
 719 0170 B0430040 		.word	1073759152
 720              		.cfi_endproc
 721              	.LFE10:
 722              		.size	cyfitter_cfg, .-cyfitter_cfg
 723              		.global	ADC_GLV_V_AMux__maskTable
 724              		.global	ADC_GLV_V_AMux__addrTable
 725              		.section	.rodata
ARM GAS  C:\Users\ANDREY~1\AppData\Local\Temp\cc12Ensd.s 			page 24


 726              		.align	2
 727              		.set	.LANCHOR0,. + 0
 728              		.type	ADC_GLV_V_AMux__addrTable, %object
 729              		.size	ADC_GLV_V_AMux__addrTable, 8
 730              	ADC_GLV_V_AMux__addrTable:
 731 0000 035B0040 		.word	1073765123
 732 0004 24430040 		.word	1073759012
 733              		.type	ADC_GLV_V_AMux__maskTable, %object
 734              		.size	ADC_GLV_V_AMux__maskTable, 2
 735              	ADC_GLV_V_AMux__maskTable:
 736 0008 40       		.byte	64
 737 0009 00       		.byte	0
 738 000a 0000     		.space	2
 739              		.type	cfg_memset_list.5021, %object
 740              		.size	cfg_memset_list.5021, 48
 741              	cfg_memset_list.5021:
 742 000c 004F0040 		.word	1073762048
 743 0010 0C00     		.short	12
 744 0012 F0510040 		.4byte	1073762800
 745 0016 1000     		.short	16
 746 0018 00000140 		.word	1073807360
 747 001c 0002     		.short	512
 748 001e 80020140 		.4byte	1073808000
 749 0022 800D     		.short	3456
 750 0024 00140140 		.word	1073812480
 751 0028 0008     		.short	2048
 752 002a 00400140 		.4byte	1073823744
 753 002e 000A     		.short	2560
 754 0030 004C0140 		.word	1073826816
 755 0034 0002     		.short	512
 756 0036 00500140 		.4byte	1073827840
 757 003a 2000     		.short	32
 758              		.type	cfg_memcpy_list.5022, %object
 759              		.size	cfg_memcpy_list.5022, 30
 760              	cfg_memcpy_list.5022:
 761 003c 00520040 		.word	1073762816
 762 0040 A4040048 		.word	1207960740
 763 0044 0700     		.short	7
 764 0046 20520040 		.4byte	1073762848
 765 004a AC040048 		.4byte	1207960748
 766 004e 0700     		.short	7
 767 0050 00020140 		.word	1073807872
 768 0054 B4040048 		.word	1207960756
 769 0058 8000     		.short	128
 770              		.text
 771              	.Letext0:
 772              		.file 2 "c:\\program files (x86)\\cypress\\psoc creator\\4.4\\psoc creator\\import\\gnu\\arm\\5.4.
 773              		.file 3 "Generated_Source\\PSoC5\\cytypes.h"
 774              		.file 4 "Generated_Source\\PSoC5\\CyLib.h"