ARM GAS  C:\Users\ANDREY~1\AppData\Local\Temp\cc2zgKhH.s 			page 1


   1              		.syntax unified
   2              		.cpu cortex-m3
   3              		.fpu softvfp
   4              		.eabi_attribute 20, 1
   5              		.eabi_attribute 21, 1
   6              		.eabi_attribute 23, 3
   7              		.eabi_attribute 24, 1
   8              		.eabi_attribute 25, 1
   9              		.eabi_attribute 26, 1
  10              		.eabi_attribute 30, 1
  11              		.eabi_attribute 34, 1
  12              		.eabi_attribute 18, 4
  13              		.thumb
  14              		.syntax unified
  15              		.file	"frucd_display.c"
  16              		.text
  17              	.Ltext0:
  18              		.cfi_sections	.debug_frame
  19              		.section	.text.calibrateScreen,"ax",%progbits
  20              		.align	2
  21              		.global	calibrateScreen
  22              		.thumb
  23              		.thumb_func
  24              		.type	calibrateScreen, %function
  25              	calibrateScreen:
  26              	.LFB64:
  27              		.file 1 "frucd_display.c"
   1:frucd_display.c **** /* ========================================
   2:frucd_display.c ****  *
   3:frucd_display.c ****  * APIs for updating FRUCD Dashboard display
   4:frucd_display.c ****  *
   5:frucd_display.c ****  * ========================================
   6:frucd_display.c **** */
   7:frucd_display.c **** #include "frucd_display.h"
   8:frucd_display.c **** 
   9:frucd_display.c **** // Just a test function that displays elements at the supposed corners of the screen
  10:frucd_display.c **** void calibrateScreen() {
  28              		.loc 1 10 0
  29              		.cfi_startproc
  30              		@ args = 0, pretend = 0, frame = 0
  31              		@ frame_needed = 0, uses_anonymous_args = 0
  32 0000 00B5     		push	{lr}
  33              		.cfi_def_cfa_offset 4
  34              		.cfi_offset 14, -4
  35 0002 83B0     		sub	sp, sp, #12
  36              		.cfi_def_cfa_offset 16
  11:frucd_display.c ****     UG_FillScreen(C_WHITE);
  37              		.loc 1 11 0
  38 0004 6FF07F40 		mvn	r0, #-16777216
  39 0008 FFF7FEFF 		bl	UG_FillScreen
  40              	.LVL0:
  12:frucd_display.c ****     //libTFT_FillRectangle(0, 0, 10, 10, RED);
  13:frucd_display.c ****     UG_FillFrame(0, 0, 10, 10, C_RED);
  41              		.loc 1 13 0
  42 000c 4FF47F03 		mov	r3, #16711680
  43 0010 0093     		str	r3, [sp]
  44 0012 0A23     		movs	r3, #10
ARM GAS  C:\Users\ANDREY~1\AppData\Local\Temp\cc2zgKhH.s 			page 2


  45 0014 1A46     		mov	r2, r3
  46 0016 0021     		movs	r1, #0
  47 0018 0846     		mov	r0, r1
  48 001a FFF7FEFF 		bl	UG_FillFrame
  49              	.LVL1:
  14:frucd_display.c ****     //libTFT_FillRectangle(0, 262, 10, 10, BLUE);
  15:frucd_display.c ****     UG_FillFrame(0, 262, 10, 272, C_BLUE);
  50              		.loc 1 15 0
  51 001e FF23     		movs	r3, #255
  52 0020 0093     		str	r3, [sp]
  53 0022 4FF48873 		mov	r3, #272
  54 0026 0A22     		movs	r2, #10
  55 0028 4FF48371 		mov	r1, #262
  56 002c 0020     		movs	r0, #0
  57 002e FFF7FEFF 		bl	UG_FillFrame
  58              	.LVL2:
  16:frucd_display.c ****     //libTFT_FillRectangle(470, 0, 10, 10, GREEN);
  17:frucd_display.c ****     UG_FillFrame(470, 0, 480, 10, C_GREEN);
  59              		.loc 1 17 0
  60 0032 4FF47F43 		mov	r3, #65280
  61 0036 0093     		str	r3, [sp]
  62 0038 0A23     		movs	r3, #10
  63 003a 4FF4F072 		mov	r2, #480
  64 003e 0021     		movs	r1, #0
  65 0040 4FF4EB70 		mov	r0, #470
  66 0044 FFF7FEFF 		bl	UG_FillFrame
  67              	.LVL3:
  18:frucd_display.c ****     //libTFT_FillRectangle(470, 262, 10, 10, YELLOW);
  19:frucd_display.c ****     UG_FillFrame(470, 262, 480, 272, C_YELLOW);
  68              		.loc 1 19 0
  69 0048 094B     		ldr	r3, .L3
  70 004a 0093     		str	r3, [sp]
  71 004c 4FF48873 		mov	r3, #272
  72 0050 4FF4F072 		mov	r2, #480
  73 0054 4FF48371 		mov	r1, #262
  74 0058 4FF4EB70 		mov	r0, #470
  75 005c FFF7FEFF 		bl	UG_FillFrame
  76              	.LVL4:
  20:frucd_display.c ****     CyDelay(300);
  77              		.loc 1 20 0
  78 0060 4FF49670 		mov	r0, #300
  79 0064 FFF7FEFF 		bl	CyDelay
  80              	.LVL5:
  21:frucd_display.c **** }
  81              		.loc 1 21 0
  82 0068 03B0     		add	sp, sp, #12
  83              		.cfi_def_cfa_offset 4
  84              		@ sp needed
  85 006a 5DF804FB 		ldr	pc, [sp], #4
  86              	.L4:
  87 006e 00BF     		.align	2
  88              	.L3:
  89 0070 00FFFF00 		.word	16776960
  90              		.cfi_endproc
  91              	.LFE64:
  92              		.size	calibrateScreen, .-calibrateScreen
  93              		.section	.text.initDashTemplate,"ax",%progbits
ARM GAS  C:\Users\ANDREY~1\AppData\Local\Temp\cc2zgKhH.s 			page 3


  94              		.align	2
  95              		.global	initDashTemplate
  96              		.thumb
  97              		.thumb_func
  98              		.type	initDashTemplate, %function
  99              	initDashTemplate:
 100              	.LFB65:
  22:frucd_display.c **** 
  23:frucd_display.c **** // Initializes dashboard layout/labels
  24:frucd_display.c **** void initDashTemplate() {
 101              		.loc 1 24 0
 102              		.cfi_startproc
 103              		@ args = 0, pretend = 0, frame = 0
 104              		@ frame_needed = 0, uses_anonymous_args = 0
 105 0000 08B5     		push	{r3, lr}
 106              		.cfi_def_cfa_offset 8
 107              		.cfi_offset 3, -8
 108              		.cfi_offset 14, -4
  25:frucd_display.c ****     UG_FillScreen(C_BLACK);
 109              		.loc 1 25 0
 110 0002 0020     		movs	r0, #0
 111 0004 FFF7FEFF 		bl	UG_FillScreen
 112              	.LVL6:
  26:frucd_display.c ****     UG_PutString(68, 10, "PACK SOC");
 113              		.loc 1 26 0
 114 0008 104A     		ldr	r2, .L7
 115 000a 0A21     		movs	r1, #10
 116 000c 4420     		movs	r0, #68
 117 000e FFF7FEFF 		bl	UG_PutString
 118              	.LVL7:
  27:frucd_display.c ****     UG_PutString(297, 10, "MAX PACK T");
 119              		.loc 1 27 0
 120 0012 0F4A     		ldr	r2, .L7+4
 121 0014 0A21     		movs	r1, #10
 122 0016 40F22910 		movw	r0, #297
 123 001a FFF7FEFF 		bl	UG_PutString
 124              	.LVL8:
  28:frucd_display.c ****     UG_PutString(10, 195, "STATE:");
 125              		.loc 1 28 0
 126 001e 0D4A     		ldr	r2, .L7+8
 127 0020 C321     		movs	r1, #195
 128 0022 0A20     		movs	r0, #10
 129 0024 FFF7FEFF 		bl	UG_PutString
 130              	.LVL9:
  29:frucd_display.c ****     UG_PutString(10, 240, "GLV V:");
 131              		.loc 1 29 0
 132 0028 0B4A     		ldr	r2, .L7+12
 133 002a F021     		movs	r1, #240
 134 002c 0A20     		movs	r0, #10
 135 002e FFF7FEFF 		bl	UG_PutString
 136              	.LVL10:
  30:frucd_display.c ****     UG_PutString(339, 195, "MC T:");
 137              		.loc 1 30 0
 138 0032 0A4A     		ldr	r2, .L7+16
 139 0034 C321     		movs	r1, #195
 140 0036 40F25310 		movw	r0, #339
 141 003a FFF7FEFF 		bl	UG_PutString
ARM GAS  C:\Users\ANDREY~1\AppData\Local\Temp\cc2zgKhH.s 			page 4


 142              	.LVL11:
  31:frucd_display.c ****     UG_PutString(300, 240, "MOTOR T:");
 143              		.loc 1 31 0
 144 003e 084A     		ldr	r2, .L7+20
 145 0040 F021     		movs	r1, #240
 146 0042 4FF49670 		mov	r0, #300
 147 0046 FFF7FEFF 		bl	UG_PutString
 148              	.LVL12:
 149 004a 08BD     		pop	{r3, pc}
 150              	.L8:
 151              		.align	2
 152              	.L7:
 153 004c 00000000 		.word	.LC0
 154 0050 0C000000 		.word	.LC1
 155 0054 18000000 		.word	.LC2
 156 0058 20000000 		.word	.LC3
 157 005c 28000000 		.word	.LC4
 158 0060 30000000 		.word	.LC5
 159              		.cfi_endproc
 160              	.LFE65:
 161              		.size	initDashTemplate, .-initDashTemplate
 162              		.section	.text.disp_SOC,"ax",%progbits
 163              		.align	2
 164              		.global	disp_SOC
 165              		.thumb
 166              		.thumb_func
 167              		.type	disp_SOC, %function
 168              	disp_SOC:
 169              	.LFB66:
  32:frucd_display.c **** }
  33:frucd_display.c **** 
  34:frucd_display.c **** /*
  35:frucd_display.c ****  * BEGIN: functions to show data on dash
  36:frucd_display.c ****  * - handle variety of digit counts
  37:frucd_display.c ****  * - color decision logic is in here
  38:frucd_display.c ****  */
  39:frucd_display.c **** void disp_SOC(uint8 data) {
 170              		.loc 1 39 0
 171              		.cfi_startproc
 172              		@ args = 0, pretend = 0, frame = 8
 173              		@ frame_needed = 0, uses_anonymous_args = 0
 174              	.LVL13:
 175 0000 30B5     		push	{r4, r5, lr}
 176              		.cfi_def_cfa_offset 12
 177              		.cfi_offset 4, -12
 178              		.cfi_offset 5, -8
 179              		.cfi_offset 14, -4
 180 0002 85B0     		sub	sp, sp, #20
 181              		.cfi_def_cfa_offset 32
 182 0004 0446     		mov	r4, r0
  40:frucd_display.c ****     UG_FontSelect(&FONT_32X53);
 183              		.loc 1 40 0
 184 0006 3948     		ldr	r0, .L21
 185              	.LVL14:
 186 0008 FFF7FEFF 		bl	UG_FontSelect
 187              	.LVL15:
  41:frucd_display.c ****     UG_COLOR color;
ARM GAS  C:\Users\ANDREY~1\AppData\Local\Temp\cc2zgKhH.s 			page 5


  42:frucd_display.c ****     if (data == 100) {
 188              		.loc 1 42 0
 189 000c 642C     		cmp	r4, #100
 190 000e 19D1     		bne	.L10
 191              	.LVL16:
  43:frucd_display.c ****         // handle 100% case
  44:frucd_display.c ****         color = C_GREEN;
  45:frucd_display.c ****         if (color != last_SOC_color) {
 192              		.loc 1 45 0
 193 0010 374B     		ldr	r3, .L21+4
 194 0012 1B68     		ldr	r3, [r3]
 195 0014 B3F57F4F 		cmp	r3, #65280
 196 0018 0AD0     		beq	.L11
  46:frucd_display.c ****             // only draw rectangle if color changed
  47:frucd_display.c ****             UG_FillFrame(30, 35, 210, 170, color);
 197              		.loc 1 47 0
 198 001a 4FF47F44 		mov	r4, #65280
 199 001e 0094     		str	r4, [sp]
 200 0020 AA23     		movs	r3, #170
 201 0022 D222     		movs	r2, #210
 202 0024 2321     		movs	r1, #35
 203 0026 1E20     		movs	r0, #30
 204 0028 FFF7FEFF 		bl	UG_FillFrame
 205              	.LVL17:
  48:frucd_display.c ****             last_SOC_color = color;
 206              		.loc 1 48 0
 207 002c 304B     		ldr	r3, .L21+4
 208 002e 1C60     		str	r4, [r3]
 209              	.L11:
  49:frucd_display.c ****         }
  50:frucd_display.c ****         UG_PutColorString(55, 80, "100%", C_BLACK, C_GREEN);
 210              		.loc 1 50 0
 211 0030 4FF47F43 		mov	r3, #65280
 212 0034 0093     		str	r3, [sp]
 213 0036 0023     		movs	r3, #0
 214 0038 2E4A     		ldr	r2, .L21+8
 215 003a 5021     		movs	r1, #80
 216 003c 3720     		movs	r0, #55
 217 003e FFF7FEFF 		bl	UG_PutColorString
 218              	.LVL18:
 219 0042 4DE0     		b	.L12
 220              	.LVL19:
 221              	.L10:
 222              	.LBB2:
  51:frucd_display.c ****     } else {
  52:frucd_display.c ****         // handle other cases
  53:frucd_display.c ****         char data_s[4];
  54:frucd_display.c ****         sprintf(data_s, "%d", data);
 223              		.loc 1 54 0
 224 0044 2246     		mov	r2, r4
 225 0046 2C49     		ldr	r1, .L21+12
 226 0048 03A8     		add	r0, sp, #12
 227 004a FFF7FEFF 		bl	sprintf
 228              	.LVL20:
  55:frucd_display.c ****         if (data >= 10) {
 229              		.loc 1 55 0
 230 004e 092C     		cmp	r4, #9
ARM GAS  C:\Users\ANDREY~1\AppData\Local\Temp\cc2zgKhH.s 			page 6


 231 0050 29D9     		bls	.L13
  56:frucd_display.c ****             // handle 2 digit cases
  57:frucd_display.c ****             // choose color
  58:frucd_display.c ****             if (data > 75) {
 232              		.loc 1 58 0
 233 0052 4B2C     		cmp	r4, #75
 234 0054 05D8     		bhi	.L17
  59:frucd_display.c ****                 color = C_GREEN;
  60:frucd_display.c ****             } else if (data > 50) {
 235              		.loc 1 60 0
 236 0056 322C     		cmp	r4, #50
 237 0058 06D8     		bhi	.L18
  61:frucd_display.c ****                 color = C_YELLOW;
  62:frucd_display.c ****             } else if (data > 25) {
 238              		.loc 1 62 0
 239 005a 192C     		cmp	r4, #25
 240 005c 06D9     		bls	.L19
  63:frucd_display.c ****                 color = C_ORANGE;
 241              		.loc 1 63 0
 242 005e 274C     		ldr	r4, .L21+16
 243 0060 06E0     		b	.L14
 244              	.L17:
  59:frucd_display.c ****                 color = C_GREEN;
 245              		.loc 1 59 0
 246 0062 4FF47F44 		mov	r4, #65280
 247 0066 03E0     		b	.L14
 248              	.L18:
  61:frucd_display.c ****                 color = C_YELLOW;
 249              		.loc 1 61 0
 250 0068 254C     		ldr	r4, .L21+20
 251 006a 01E0     		b	.L14
 252              	.L19:
  64:frucd_display.c ****             } else {
  65:frucd_display.c ****                 color = C_RED;
 253              		.loc 1 65 0
 254 006c 4FF47F04 		mov	r4, #16711680
 255              	.L14:
 256              	.LVL21:
  66:frucd_display.c ****             }
  67:frucd_display.c ****             data_s[2] = '%';
 257              		.loc 1 67 0
 258 0070 2523     		movs	r3, #37
 259 0072 8DF80E30 		strb	r3, [sp, #14]
  68:frucd_display.c ****             data_s[3] = '\0';
 260              		.loc 1 68 0
 261 0076 0023     		movs	r3, #0
 262 0078 8DF80F30 		strb	r3, [sp, #15]
  69:frucd_display.c ****             if (color != last_SOC_color) {
 263              		.loc 1 69 0
 264 007c 1C4B     		ldr	r3, .L21+4
 265 007e 1B68     		ldr	r3, [r3]
 266 0080 9C42     		cmp	r4, r3
 267 0082 08D0     		beq	.L15
  70:frucd_display.c ****                 // only draw rectangle if color changed
  71:frucd_display.c ****                 UG_FillFrame(30, 35, 210, 170, color);
 268              		.loc 1 71 0
 269 0084 0094     		str	r4, [sp]
ARM GAS  C:\Users\ANDREY~1\AppData\Local\Temp\cc2zgKhH.s 			page 7


 270 0086 AA23     		movs	r3, #170
 271 0088 D222     		movs	r2, #210
 272 008a 2321     		movs	r1, #35
 273 008c 1E20     		movs	r0, #30
 274 008e FFF7FEFF 		bl	UG_FillFrame
 275              	.LVL22:
  72:frucd_display.c ****                 last_SOC_color = color;
 276              		.loc 1 72 0
 277 0092 174B     		ldr	r3, .L21+4
 278 0094 1C60     		str	r4, [r3]
 279              	.L15:
  73:frucd_display.c ****             }
  74:frucd_display.c ****             UG_PutColorString(70, 80, data_s, C_BLACK, color);
 280              		.loc 1 74 0
 281 0096 0094     		str	r4, [sp]
 282 0098 0023     		movs	r3, #0
 283 009a 03AA     		add	r2, sp, #12
 284 009c 5021     		movs	r1, #80
 285 009e 4620     		movs	r0, #70
 286 00a0 FFF7FEFF 		bl	UG_PutColorString
 287              	.LVL23:
 288 00a4 1CE0     		b	.L12
 289              	.LVL24:
 290              	.L13:
  75:frucd_display.c ****         } else {
  76:frucd_display.c ****             // handle 1 digit cases
  77:frucd_display.c ****             data_s[1] = '%';
 291              		.loc 1 77 0
 292 00a6 2523     		movs	r3, #37
 293 00a8 8DF80D30 		strb	r3, [sp, #13]
  78:frucd_display.c ****             data_s[2] = '\0';
 294              		.loc 1 78 0
 295 00ac 0024     		movs	r4, #0
 296 00ae 8DF80E40 		strb	r4, [sp, #14]
 297              	.LVL25:
  79:frucd_display.c ****             color = C_RED;
  80:frucd_display.c ****             UG_FillFrame(30, 35, 210, 170, C_BLACK);
 298              		.loc 1 80 0
 299 00b2 0094     		str	r4, [sp]
 300 00b4 AA23     		movs	r3, #170
 301 00b6 D222     		movs	r2, #210
 302 00b8 2321     		movs	r1, #35
 303 00ba 1E20     		movs	r0, #30
 304 00bc FFF7FEFF 		bl	UG_FillFrame
 305              	.LVL26:
  81:frucd_display.c ****             UG_FillFrame(30, 35, 210, 170, color);
 306              		.loc 1 81 0
 307 00c0 4FF47F05 		mov	r5, #16711680
 308 00c4 0095     		str	r5, [sp]
 309 00c6 AA23     		movs	r3, #170
 310 00c8 D222     		movs	r2, #210
 311 00ca 2321     		movs	r1, #35
 312 00cc 1E20     		movs	r0, #30
 313 00ce FFF7FEFF 		bl	UG_FillFrame
 314              	.LVL27:
  82:frucd_display.c ****             UG_PutColorString(90, 80, data_s, C_BLACK, color);
 315              		.loc 1 82 0
ARM GAS  C:\Users\ANDREY~1\AppData\Local\Temp\cc2zgKhH.s 			page 8


 316 00d2 0095     		str	r5, [sp]
 317 00d4 2346     		mov	r3, r4
 318 00d6 03AA     		add	r2, sp, #12
 319 00d8 5021     		movs	r1, #80
 320 00da 5A20     		movs	r0, #90
 321 00dc FFF7FEFF 		bl	UG_PutColorString
 322              	.LVL28:
 323              	.L12:
 324              	.LBE2:
  83:frucd_display.c ****         }   
  84:frucd_display.c ****     }
  85:frucd_display.c ****     UG_FontSelect(&FONT_12X16);
 325              		.loc 1 85 0
 326 00e0 0848     		ldr	r0, .L21+24
 327 00e2 FFF7FEFF 		bl	UG_FontSelect
 328              	.LVL29:
  86:frucd_display.c **** }
 329              		.loc 1 86 0
 330 00e6 05B0     		add	sp, sp, #20
 331              		.cfi_def_cfa_offset 12
 332              		@ sp needed
 333 00e8 30BD     		pop	{r4, r5, pc}
 334              	.L22:
 335 00ea 00BF     		.align	2
 336              	.L21:
 337 00ec 00000000 		.word	FONT_32X53
 338 00f0 00000000 		.word	last_SOC_color
 339 00f4 3C000000 		.word	.LC6
 340 00f8 44000000 		.word	.LC7
 341 00fc 00A5FF00 		.word	16753920
 342 0100 00FFFF00 		.word	16776960
 343 0104 00000000 		.word	FONT_12X16
 344              		.cfi_endproc
 345              	.LFE66:
 346              		.size	disp_SOC, .-disp_SOC
 347              		.section	.text.disp_max_pack_temp,"ax",%progbits
 348              		.align	2
 349              		.global	disp_max_pack_temp
 350              		.thumb
 351              		.thumb_func
 352              		.type	disp_max_pack_temp, %function
 353              	disp_max_pack_temp:
 354              	.LFB67:
  87:frucd_display.c **** 
  88:frucd_display.c **** void disp_max_pack_temp(uint8 data) {
 355              		.loc 1 88 0
 356              		.cfi_startproc
 357              		@ args = 0, pretend = 0, frame = 8
 358              		@ frame_needed = 0, uses_anonymous_args = 0
 359              	.LVL30:
 360 0000 30B5     		push	{r4, r5, lr}
 361              		.cfi_def_cfa_offset 12
 362              		.cfi_offset 4, -12
 363              		.cfi_offset 5, -8
 364              		.cfi_offset 14, -4
 365 0002 85B0     		sub	sp, sp, #20
 366              		.cfi_def_cfa_offset 32
ARM GAS  C:\Users\ANDREY~1\AppData\Local\Temp\cc2zgKhH.s 			page 9


 367 0004 0546     		mov	r5, r0
  89:frucd_display.c ****     // choose color
  90:frucd_display.c ****     UG_COLOR color;
  91:frucd_display.c ****     if (data < 45) {
 368              		.loc 1 91 0
 369 0006 2C28     		cmp	r0, #44
 370 0008 19D9     		bls	.L26
  92:frucd_display.c ****         color = C_GREEN;
  93:frucd_display.c ****     } else if (data < 50) {
 371              		.loc 1 93 0
 372 000a 3128     		cmp	r0, #49
 373 000c 1AD9     		bls	.L27
  94:frucd_display.c ****         color = C_YELLOW;
  95:frucd_display.c ****     } else if (data < 55) {
 374              		.loc 1 95 0
 375 000e 3628     		cmp	r0, #54
 376 0010 1AD9     		bls	.L28
 377              	.LVL31:
  96:frucd_display.c ****         color = C_ORANGE;
  97:frucd_display.c ****     } else {
  98:frucd_display.c ****         color = C_RED;
  99:frucd_display.c ****         UG_FillFrame(270, 35, 450, 170, C_BLACK);
 378              		.loc 1 99 0
 379 0012 0023     		movs	r3, #0
 380 0014 0093     		str	r3, [sp]
 381 0016 AA23     		movs	r3, #170
 382 0018 4FF4E172 		mov	r2, #450
 383 001c 2321     		movs	r1, #35
 384 001e 4FF48770 		mov	r0, #270
 385              	.LVL32:
 386 0022 FFF7FEFF 		bl	UG_FillFrame
 387              	.LVL33:
 100:frucd_display.c ****         UG_FillFrame(270, 35, 450, 170, color);
 388              		.loc 1 100 0
 389 0026 4FF47F04 		mov	r4, #16711680
 390 002a 0094     		str	r4, [sp]
 391 002c AA23     		movs	r3, #170
 392 002e 4FF4E172 		mov	r2, #450
 393 0032 2321     		movs	r1, #35
 394 0034 4FF48770 		mov	r0, #270
 395 0038 FFF7FEFF 		bl	UG_FillFrame
 396              	.LVL34:
 397 003c 05E0     		b	.L24
 398              	.LVL35:
 399              	.L26:
  92:frucd_display.c ****     } else if (data < 50) {
 400              		.loc 1 92 0
 401 003e 4FF47F44 		mov	r4, #65280
 402 0042 02E0     		b	.L24
 403              	.L27:
  94:frucd_display.c ****     } else if (data < 55) {
 404              		.loc 1 94 0
 405 0044 154C     		ldr	r4, .L30
 406 0046 00E0     		b	.L24
 407              	.L28:
  96:frucd_display.c ****     } else {
 408              		.loc 1 96 0
ARM GAS  C:\Users\ANDREY~1\AppData\Local\Temp\cc2zgKhH.s 			page 10


 409 0048 154C     		ldr	r4, .L30+4
 410              	.LVL36:
 411              	.L24:
 101:frucd_display.c ****     }
 102:frucd_display.c ****     
 103:frucd_display.c ****     if (color != last_max_pack_temp_color) {
 412              		.loc 1 103 0
 413 004a 164B     		ldr	r3, .L30+8
 414 004c 1B68     		ldr	r3, [r3]
 415 004e 9C42     		cmp	r4, r3
 416 0050 0AD0     		beq	.L25
 104:frucd_display.c ****         // only draw rectangle if color changed
 105:frucd_display.c ****         UG_FillFrame(270, 35, 450, 170, color);
 417              		.loc 1 105 0
 418 0052 0094     		str	r4, [sp]
 419 0054 AA23     		movs	r3, #170
 420 0056 4FF4E172 		mov	r2, #450
 421 005a 2321     		movs	r1, #35
 422 005c 4FF48770 		mov	r0, #270
 423 0060 FFF7FEFF 		bl	UG_FillFrame
 424              	.LVL37:
 106:frucd_display.c ****         last_max_pack_temp_color = color;
 425              		.loc 1 106 0
 426 0064 0F4B     		ldr	r3, .L30+8
 427 0066 1C60     		str	r4, [r3]
 428              	.L25:
 107:frucd_display.c ****     }
 108:frucd_display.c ****     UG_FontSelect(&FONT_32X53);
 429              		.loc 1 108 0
 430 0068 0F48     		ldr	r0, .L30+12
 431 006a FFF7FEFF 		bl	UG_FontSelect
 432              	.LVL38:
 109:frucd_display.c ****     char data_s[4];
 110:frucd_display.c ****     sprintf(data_s, "%d", data);
 433              		.loc 1 110 0
 434 006e 2A46     		mov	r2, r5
 435 0070 0E49     		ldr	r1, .L30+16
 436 0072 03A8     		add	r0, sp, #12
 437 0074 FFF7FEFF 		bl	sprintf
 438              	.LVL39:
 111:frucd_display.c ****     data_s[2] = 'C';
 439              		.loc 1 111 0
 440 0078 4323     		movs	r3, #67
 441 007a 8DF80E30 		strb	r3, [sp, #14]
 112:frucd_display.c ****     data_s[3] = '\0';
 442              		.loc 1 112 0
 443 007e 0023     		movs	r3, #0
 444 0080 8DF80F30 		strb	r3, [sp, #15]
 113:frucd_display.c ****     UG_PutColorString(310, 80, data_s, C_BLACK, color);
 445              		.loc 1 113 0
 446 0084 0094     		str	r4, [sp]
 447 0086 03AA     		add	r2, sp, #12
 448 0088 5021     		movs	r1, #80
 449 008a 4FF49B70 		mov	r0, #310
 450 008e FFF7FEFF 		bl	UG_PutColorString
 451              	.LVL40:
 114:frucd_display.c ****     UG_FontSelect(&FONT_12X16);
ARM GAS  C:\Users\ANDREY~1\AppData\Local\Temp\cc2zgKhH.s 			page 11


 452              		.loc 1 114 0
 453 0092 0748     		ldr	r0, .L30+20
 454 0094 FFF7FEFF 		bl	UG_FontSelect
 455              	.LVL41:
 115:frucd_display.c **** }
 456              		.loc 1 115 0
 457 0098 05B0     		add	sp, sp, #20
 458              		.cfi_def_cfa_offset 12
 459              		@ sp needed
 460 009a 30BD     		pop	{r4, r5, pc}
 461              	.LVL42:
 462              	.L31:
 463              		.align	2
 464              	.L30:
 465 009c 00FFFF00 		.word	16776960
 466 00a0 00A5FF00 		.word	16753920
 467 00a4 00000000 		.word	last_max_pack_temp_color
 468 00a8 00000000 		.word	FONT_32X53
 469 00ac 44000000 		.word	.LC7
 470 00b0 00000000 		.word	FONT_12X16
 471              		.cfi_endproc
 472              	.LFE67:
 473              		.size	disp_max_pack_temp, .-disp_max_pack_temp
 474              		.section	.text.disp_state,"ax",%progbits
 475              		.align	2
 476              		.global	disp_state
 477              		.thumb
 478              		.thumb_func
 479              		.type	disp_state, %function
 480              	disp_state:
 481              	.LFB68:
 116:frucd_display.c **** 
 117:frucd_display.c **** void disp_state(uint8 state) { // TODO
 482              		.loc 1 117 0
 483              		.cfi_startproc
 484              		@ args = 0, pretend = 0, frame = 0
 485              		@ frame_needed = 0, uses_anonymous_args = 0
 486              	.LVL43:
 487 0000 30B5     		push	{r4, r5, lr}
 488              		.cfi_def_cfa_offset 12
 489              		.cfi_offset 4, -12
 490              		.cfi_offset 5, -8
 491              		.cfi_offset 14, -4
 492 0002 83B0     		sub	sp, sp, #12
 493              		.cfi_def_cfa_offset 24
 494 0004 0446     		mov	r4, r0
 118:frucd_display.c ****     UG_COLOR color;
 119:frucd_display.c ****     // check fault bit
 120:frucd_display.c ****     if (state & 0x80) {
 495              		.loc 1 120 0
 496 0006 10F0800F 		tst	r0, #128
 497 000a 00F0C080 		beq	.L33
 498              	.LBB3:
 121:frucd_display.c ****         // *************** FAULTS ***************
 122:frucd_display.c ****         uint8 fault = state & 0x7f; // mask off fault bit
 499              		.loc 1 122 0
 500 000e 00F07F04 		and	r4, r0, #127
ARM GAS  C:\Users\ANDREY~1\AppData\Local\Temp\cc2zgKhH.s 			page 12


 501              	.LVL44:
 123:frucd_display.c ****         switch(fault) {
 502              		.loc 1 123 0
 503 0012 013C     		subs	r4, r4, #1
 504              	.LVL45:
 505 0014 062C     		cmp	r4, #6
 506 0016 00F2F780 		bhi	.L32
 507 001a DFE804F0 		tbb	[pc, r4]
 508              	.L36:
 509 001e 04       		.byte	(.L35-.L36)/2
 510 001f 1E       		.byte	(.L37-.L36)/2
 511 0020 38       		.byte	(.L38-.L36)/2
 512 0021 52       		.byte	(.L39-.L36)/2
 513 0022 6C       		.byte	(.L40-.L36)/2
 514 0023 86       		.byte	(.L41-.L36)/2
 515 0024 9E       		.byte	(.L42-.L36)/2
 516 0025 00       		.p2align 1
 517              	.L35:
 518              	.LVL46:
 124:frucd_display.c ****             case DRIVE_REQUEST_FROM_LV:
 125:frucd_display.c ****                 color = C_RED;
 126:frucd_display.c ****                 if (color != last_state_color) {
 519              		.loc 1 126 0
 520 0026 794B     		ldr	r3, .L57
 521 0028 1B68     		ldr	r3, [r3]
 522 002a B3F57F0F 		cmp	r3, #16711680
 523 002e 0AD0     		beq	.L43
 127:frucd_display.c ****                     // only draw rectangle if color changed
 128:frucd_display.c ****                     UG_FillFrame(95, 185, 240, 215, color);
 524              		.loc 1 128 0
 525 0030 4FF47F04 		mov	r4, #16711680
 526              	.LVL47:
 527 0034 0094     		str	r4, [sp]
 528 0036 D723     		movs	r3, #215
 529 0038 F022     		movs	r2, #240
 530 003a B921     		movs	r1, #185
 531 003c 5F20     		movs	r0, #95
 532              	.LVL48:
 533 003e FFF7FEFF 		bl	UG_FillFrame
 534              	.LVL49:
 129:frucd_display.c ****                     last_state_color = color;
 535              		.loc 1 129 0
 536 0042 724B     		ldr	r3, .L57
 537 0044 1C60     		str	r4, [r3]
 538              	.L43:
 130:frucd_display.c ****                 }
 131:frucd_display.c ****                 UG_PutColorString(100, 195, "DRV FRM LV", C_BLACK, color);
 539              		.loc 1 131 0
 540 0046 4FF47F03 		mov	r3, #16711680
 541 004a 0093     		str	r3, [sp]
 542 004c 0023     		movs	r3, #0
 543 004e 704A     		ldr	r2, .L57+4
 544 0050 C321     		movs	r1, #195
 545 0052 6420     		movs	r0, #100
 546 0054 FFF7FEFF 		bl	UG_PutColorString
 547              	.LVL50:
 132:frucd_display.c ****                 break;
ARM GAS  C:\Users\ANDREY~1\AppData\Local\Temp\cc2zgKhH.s 			page 13


 548              		.loc 1 132 0
 549 0058 D6E0     		b	.L32
 550              	.LVL51:
 551              	.L37:
 133:frucd_display.c ****             case CONSERVATIVE_TIMER_MAXED:
 134:frucd_display.c ****                 color = C_RED;
 135:frucd_display.c ****                 if (color != last_state_color) {
 552              		.loc 1 135 0
 553 005a 6C4B     		ldr	r3, .L57
 554 005c 1B68     		ldr	r3, [r3]
 555 005e B3F57F0F 		cmp	r3, #16711680
 556 0062 0AD0     		beq	.L44
 136:frucd_display.c ****                     // only draw rectangle if color changed
 137:frucd_display.c ****                     UG_FillFrame(95, 185, 240, 215, color);
 557              		.loc 1 137 0
 558 0064 4FF47F04 		mov	r4, #16711680
 559              	.LVL52:
 560 0068 0094     		str	r4, [sp]
 561 006a D723     		movs	r3, #215
 562 006c F022     		movs	r2, #240
 563 006e B921     		movs	r1, #185
 564 0070 5F20     		movs	r0, #95
 565              	.LVL53:
 566 0072 FFF7FEFF 		bl	UG_FillFrame
 567              	.LVL54:
 138:frucd_display.c ****                     last_state_color = color;
 568              		.loc 1 138 0
 569 0076 654B     		ldr	r3, .L57
 570 0078 1C60     		str	r4, [r3]
 571              	.L44:
 139:frucd_display.c ****                 }
 140:frucd_display.c ****                 UG_PutColorString(100, 195, "PRE TM OUT", C_BLACK, color);
 572              		.loc 1 140 0
 573 007a 4FF47F03 		mov	r3, #16711680
 574 007e 0093     		str	r3, [sp]
 575 0080 0023     		movs	r3, #0
 576 0082 644A     		ldr	r2, .L57+8
 577 0084 C321     		movs	r1, #195
 578 0086 6420     		movs	r0, #100
 579 0088 FFF7FEFF 		bl	UG_PutColorString
 580              	.LVL55:
 141:frucd_display.c ****                 break;
 581              		.loc 1 141 0
 582 008c BCE0     		b	.L32
 583              	.LVL56:
 584              	.L38:
 142:frucd_display.c ****             case BRAKE_NOT_PRESSED:
 143:frucd_display.c ****                 color = C_RED;
 144:frucd_display.c ****                 if (color != last_state_color) {
 585              		.loc 1 144 0
 586 008e 5F4B     		ldr	r3, .L57
 587 0090 1B68     		ldr	r3, [r3]
 588 0092 B3F57F0F 		cmp	r3, #16711680
 589 0096 0AD0     		beq	.L45
 145:frucd_display.c ****                     // only draw rectangle if color changed
 146:frucd_display.c ****                     UG_FillFrame(95, 185, 240, 215, color);
 590              		.loc 1 146 0
ARM GAS  C:\Users\ANDREY~1\AppData\Local\Temp\cc2zgKhH.s 			page 14


 591 0098 4FF47F04 		mov	r4, #16711680
 592              	.LVL57:
 593 009c 0094     		str	r4, [sp]
 594 009e D723     		movs	r3, #215
 595 00a0 F022     		movs	r2, #240
 596 00a2 B921     		movs	r1, #185
 597 00a4 5F20     		movs	r0, #95
 598              	.LVL58:
 599 00a6 FFF7FEFF 		bl	UG_FillFrame
 600              	.LVL59:
 147:frucd_display.c ****                     last_state_color = color;
 601              		.loc 1 147 0
 602 00aa 584B     		ldr	r3, .L57
 603 00ac 1C60     		str	r4, [r3]
 604              	.L45:
 148:frucd_display.c ****                 }
 149:frucd_display.c ****                 UG_PutColorString(100, 195, "BR NOT PRS", C_BLACK, color);
 605              		.loc 1 149 0
 606 00ae 4FF47F03 		mov	r3, #16711680
 607 00b2 0093     		str	r3, [sp]
 608 00b4 0023     		movs	r3, #0
 609 00b6 584A     		ldr	r2, .L57+12
 610 00b8 C321     		movs	r1, #195
 611 00ba 6420     		movs	r0, #100
 612 00bc FFF7FEFF 		bl	UG_PutColorString
 613              	.LVL60:
 150:frucd_display.c ****                 break;
 614              		.loc 1 150 0
 615 00c0 A2E0     		b	.L32
 616              	.LVL61:
 617              	.L39:
 151:frucd_display.c ****             case HV_DISABLED_WHILE_DRIVING:
 152:frucd_display.c ****                 color = C_RED;
 153:frucd_display.c ****                 if (color != last_state_color) {
 618              		.loc 1 153 0
 619 00c2 524B     		ldr	r3, .L57
 620 00c4 1B68     		ldr	r3, [r3]
 621 00c6 B3F57F0F 		cmp	r3, #16711680
 622 00ca 0AD0     		beq	.L46
 154:frucd_display.c ****                     // only draw rectangle if color changed
 155:frucd_display.c ****                     UG_FillFrame(95, 185, 240, 215, color);
 623              		.loc 1 155 0
 624 00cc 4FF47F04 		mov	r4, #16711680
 625              	.LVL62:
 626 00d0 0094     		str	r4, [sp]
 627 00d2 D723     		movs	r3, #215
 628 00d4 F022     		movs	r2, #240
 629 00d6 B921     		movs	r1, #185
 630 00d8 5F20     		movs	r0, #95
 631              	.LVL63:
 632 00da FFF7FEFF 		bl	UG_FillFrame
 633              	.LVL64:
 156:frucd_display.c ****                     last_state_color = color;
 634              		.loc 1 156 0
 635 00de 4B4B     		ldr	r3, .L57
 636 00e0 1C60     		str	r4, [r3]
 637              	.L46:
ARM GAS  C:\Users\ANDREY~1\AppData\Local\Temp\cc2zgKhH.s 			page 15


 157:frucd_display.c ****                 }
 158:frucd_display.c ****                 UG_PutColorString(100, 195, "HV OFF DRV", C_BLACK, color);
 638              		.loc 1 158 0
 639 00e2 4FF47F03 		mov	r3, #16711680
 640 00e6 0093     		str	r3, [sp]
 641 00e8 0023     		movs	r3, #0
 642 00ea 4C4A     		ldr	r2, .L57+16
 643 00ec C321     		movs	r1, #195
 644 00ee 6420     		movs	r0, #100
 645 00f0 FFF7FEFF 		bl	UG_PutColorString
 646              	.LVL65:
 159:frucd_display.c ****                 break;
 647              		.loc 1 159 0
 648 00f4 88E0     		b	.L32
 649              	.LVL66:
 650              	.L40:
 160:frucd_display.c ****             case SENSOR_DISCREPANCY:
 161:frucd_display.c ****                 color = C_RED;
 162:frucd_display.c ****                 if (color != last_state_color) {
 651              		.loc 1 162 0
 652 00f6 454B     		ldr	r3, .L57
 653 00f8 1B68     		ldr	r3, [r3]
 654 00fa B3F57F0F 		cmp	r3, #16711680
 655 00fe 0AD0     		beq	.L47
 163:frucd_display.c ****                     // only draw rectangle if color changed
 164:frucd_display.c ****                     UG_FillFrame(95, 185, 240, 215, color);
 656              		.loc 1 164 0
 657 0100 4FF47F04 		mov	r4, #16711680
 658              	.LVL67:
 659 0104 0094     		str	r4, [sp]
 660 0106 D723     		movs	r3, #215
 661 0108 F022     		movs	r2, #240
 662 010a B921     		movs	r1, #185
 663 010c 5F20     		movs	r0, #95
 664              	.LVL68:
 665 010e FFF7FEFF 		bl	UG_FillFrame
 666              	.LVL69:
 165:frucd_display.c ****                     last_state_color = color;
 667              		.loc 1 165 0
 668 0112 3E4B     		ldr	r3, .L57
 669 0114 1C60     		str	r4, [r3]
 670              	.L47:
 166:frucd_display.c ****                 }
 167:frucd_display.c ****                 UG_PutColorString(100, 195, "SNSR DSCRP", C_BLACK, color);
 671              		.loc 1 167 0
 672 0116 4FF47F03 		mov	r3, #16711680
 673 011a 0093     		str	r3, [sp]
 674 011c 0023     		movs	r3, #0
 675 011e 404A     		ldr	r2, .L57+20
 676 0120 C321     		movs	r1, #195
 677 0122 6420     		movs	r0, #100
 678 0124 FFF7FEFF 		bl	UG_PutColorString
 679              	.LVL70:
 168:frucd_display.c ****                 break;
 680              		.loc 1 168 0
 681 0128 6EE0     		b	.L32
 682              	.LVL71:
ARM GAS  C:\Users\ANDREY~1\AppData\Local\Temp\cc2zgKhH.s 			page 16


 683              	.L41:
 169:frucd_display.c ****             case BRAKE_IMPLAUSIBLE:
 170:frucd_display.c ****                 color = C_YELLOW;
 171:frucd_display.c ****                 if (color != last_state_color) {
 684              		.loc 1 171 0
 685 012a 384B     		ldr	r3, .L57
 686 012c 1A68     		ldr	r2, [r3]
 687 012e 3D4B     		ldr	r3, .L57+24
 688 0130 9A42     		cmp	r2, r3
 689 0132 09D0     		beq	.L48
 172:frucd_display.c ****                     // only draw rectangle if color changed
 173:frucd_display.c ****                     UG_FillFrame(95, 185, 240, 215, color);
 690              		.loc 1 173 0
 691 0134 1C46     		mov	r4, r3
 692              	.LVL72:
 693 0136 0093     		str	r3, [sp]
 694 0138 D723     		movs	r3, #215
 695 013a F022     		movs	r2, #240
 696 013c B921     		movs	r1, #185
 697 013e 5F20     		movs	r0, #95
 698              	.LVL73:
 699 0140 FFF7FEFF 		bl	UG_FillFrame
 700              	.LVL74:
 174:frucd_display.c ****                     last_state_color = color;
 701              		.loc 1 174 0
 702 0144 314B     		ldr	r3, .L57
 703 0146 1C60     		str	r4, [r3]
 704              	.L48:
 175:frucd_display.c ****                 }
 176:frucd_display.c ****                 UG_PutColorString(100, 195, "BSPD TRIPD", C_BLACK, color); //whitespace to clear
 705              		.loc 1 176 0
 706 0148 364B     		ldr	r3, .L57+24
 707 014a 0093     		str	r3, [sp]
 708 014c 0023     		movs	r3, #0
 709 014e 364A     		ldr	r2, .L57+28
 710 0150 C321     		movs	r1, #195
 711 0152 6420     		movs	r0, #100
 712 0154 FFF7FEFF 		bl	UG_PutColorString
 713              	.LVL75:
 177:frucd_display.c ****                 break;
 714              		.loc 1 177 0
 715 0158 56E0     		b	.L32
 716              	.LVL76:
 717              	.L42:
 178:frucd_display.c ****             case ESTOP:
 179:frucd_display.c ****                 color = C_RED;
 180:frucd_display.c ****                 if (color != last_state_color) {
 718              		.loc 1 180 0
 719 015a 2C4B     		ldr	r3, .L57
 720 015c 1B68     		ldr	r3, [r3]
 721 015e B3F57F0F 		cmp	r3, #16711680
 722 0162 0AD0     		beq	.L49
 181:frucd_display.c ****                     // only draw rectangle if color changed
 182:frucd_display.c ****                     UG_FillFrame(95, 185, 240, 215, color);
 723              		.loc 1 182 0
 724 0164 4FF47F04 		mov	r4, #16711680
 725              	.LVL77:
ARM GAS  C:\Users\ANDREY~1\AppData\Local\Temp\cc2zgKhH.s 			page 17


 726 0168 0094     		str	r4, [sp]
 727 016a D723     		movs	r3, #215
 728 016c F022     		movs	r2, #240
 729 016e B921     		movs	r1, #185
 730 0170 5F20     		movs	r0, #95
 731              	.LVL78:
 732 0172 FFF7FEFF 		bl	UG_FillFrame
 733              	.LVL79:
 183:frucd_display.c ****                     last_state_color = color;
 734              		.loc 1 183 0
 735 0176 254B     		ldr	r3, .L57
 736 0178 1C60     		str	r4, [r3]
 737              	.L49:
 184:frucd_display.c ****                 }
 185:frucd_display.c ****                 UG_PutColorString(100, 195, "SHTDWN OPN", C_BLACK, color); //whitespace to clear
 738              		.loc 1 185 0
 739 017a 4FF47F03 		mov	r3, #16711680
 740 017e 0093     		str	r3, [sp]
 741 0180 0023     		movs	r3, #0
 742 0182 2A4A     		ldr	r2, .L57+32
 743 0184 C321     		movs	r1, #195
 744 0186 6420     		movs	r0, #100
 745 0188 FFF7FEFF 		bl	UG_PutColorString
 746              	.LVL80:
 186:frucd_display.c ****                 break;
 747              		.loc 1 186 0
 748 018c 3CE0     		b	.L32
 749              	.LVL81:
 750              	.L33:
 751              	.LBE3:
 187:frucd_display.c ****         }
 188:frucd_display.c ****         
 189:frucd_display.c ****     } else {
 190:frucd_display.c ****         // *************** NO FAULTS ***************
 191:frucd_display.c ****         color = C_GREEN;
 192:frucd_display.c ****         if (color != last_state_color) {
 752              		.loc 1 192 0
 753 018e 1F4B     		ldr	r3, .L57
 754 0190 1B68     		ldr	r3, [r3]
 755 0192 B3F57F4F 		cmp	r3, #65280
 756 0196 0AD0     		beq	.L50
 193:frucd_display.c ****             // only draw rectangle if color changed
 194:frucd_display.c ****             UG_FillFrame(95, 185, 240, 215, color);
 757              		.loc 1 194 0
 758 0198 4FF47F45 		mov	r5, #65280
 759 019c 0095     		str	r5, [sp]
 760 019e D723     		movs	r3, #215
 761 01a0 F022     		movs	r2, #240
 762 01a2 B921     		movs	r1, #185
 763 01a4 5F20     		movs	r0, #95
 764              	.LVL82:
 765 01a6 FFF7FEFF 		bl	UG_FillFrame
 766              	.LVL83:
 195:frucd_display.c ****             last_state_color = color;
 767              		.loc 1 195 0
 768 01aa 184B     		ldr	r3, .L57
 769 01ac 1D60     		str	r5, [r3]
ARM GAS  C:\Users\ANDREY~1\AppData\Local\Temp\cc2zgKhH.s 			page 18


 770              	.L50:
 196:frucd_display.c ****         }
 197:frucd_display.c ****         switch(state) {
 771              		.loc 1 197 0
 772 01ae 032C     		cmp	r4, #3
 773 01b0 2AD8     		bhi	.L32
 774 01b2 DFE804F0 		tbb	[pc, r4]
 775              	.L52:
 776 01b6 02       		.byte	(.L51-.L52)/2
 777 01b7 0C       		.byte	(.L53-.L52)/2
 778 01b8 16       		.byte	(.L54-.L52)/2
 779 01b9 20       		.byte	(.L55-.L52)/2
 780              		.p2align 1
 781              	.L51:
 198:frucd_display.c ****             case LV:
 199:frucd_display.c ****                 UG_PutColorString(100, 195, "    LV    ", C_BLACK, color);
 782              		.loc 1 199 0
 783 01ba 4FF47F43 		mov	r3, #65280
 784 01be 0093     		str	r3, [sp]
 785 01c0 0023     		movs	r3, #0
 786 01c2 1B4A     		ldr	r2, .L57+36
 787 01c4 C321     		movs	r1, #195
 788 01c6 6420     		movs	r0, #100
 789 01c8 FFF7FEFF 		bl	UG_PutColorString
 790              	.LVL84:
 200:frucd_display.c ****                 break;
 791              		.loc 1 200 0
 792 01cc 1CE0     		b	.L32
 793              	.L53:
 201:frucd_display.c ****             case PRECHARGING:
 202:frucd_display.c ****                 UG_PutColorString(100, 195, "PRECHARGE ", C_BLACK, color);
 794              		.loc 1 202 0
 795 01ce 4FF47F43 		mov	r3, #65280
 796 01d2 0093     		str	r3, [sp]
 797 01d4 0023     		movs	r3, #0
 798 01d6 174A     		ldr	r2, .L57+40
 799 01d8 C321     		movs	r1, #195
 800 01da 6420     		movs	r0, #100
 801 01dc FFF7FEFF 		bl	UG_PutColorString
 802              	.LVL85:
 203:frucd_display.c ****                 break;
 803              		.loc 1 203 0
 804 01e0 12E0     		b	.L32
 805              	.L54:
 204:frucd_display.c ****             case HV_ENABLED:
 205:frucd_display.c ****                 UG_PutColorString(100, 195, "HV ENABLED", C_BLACK, color);
 806              		.loc 1 205 0
 807 01e2 4FF47F43 		mov	r3, #65280
 808 01e6 0093     		str	r3, [sp]
 809 01e8 0023     		movs	r3, #0
 810 01ea 134A     		ldr	r2, .L57+44
 811 01ec C321     		movs	r1, #195
 812 01ee 6420     		movs	r0, #100
 813 01f0 FFF7FEFF 		bl	UG_PutColorString
 814              	.LVL86:
 206:frucd_display.c ****                 break;
 815              		.loc 1 206 0
ARM GAS  C:\Users\ANDREY~1\AppData\Local\Temp\cc2zgKhH.s 			page 19


 816 01f4 08E0     		b	.L32
 817              	.L55:
 207:frucd_display.c ****             case DRIVE:
 208:frucd_display.c ****                 UG_PutColorString(100, 195, "  DRIVE   ", C_BLACK, color);
 818              		.loc 1 208 0
 819 01f6 4FF47F43 		mov	r3, #65280
 820 01fa 0093     		str	r3, [sp]
 821 01fc 0023     		movs	r3, #0
 822 01fe 0F4A     		ldr	r2, .L57+48
 823 0200 C321     		movs	r1, #195
 824 0202 6420     		movs	r0, #100
 825 0204 FFF7FEFF 		bl	UG_PutColorString
 826              	.LVL87:
 827              	.L32:
 209:frucd_display.c ****                 break;
 210:frucd_display.c ****         }
 211:frucd_display.c ****     }
 212:frucd_display.c **** }
 828              		.loc 1 212 0
 829 0208 03B0     		add	sp, sp, #12
 830              		.cfi_def_cfa_offset 12
 831              		@ sp needed
 832 020a 30BD     		pop	{r4, r5, pc}
 833              	.L58:
 834              		.align	2
 835              	.L57:
 836 020c 00000000 		.word	last_state_color
 837 0210 48000000 		.word	.LC8
 838 0214 54000000 		.word	.LC9
 839 0218 60000000 		.word	.LC10
 840 021c 6C000000 		.word	.LC11
 841 0220 78000000 		.word	.LC12
 842 0224 00FFFF00 		.word	16776960
 843 0228 84000000 		.word	.LC13
 844 022c 90000000 		.word	.LC14
 845 0230 9C000000 		.word	.LC15
 846 0234 A8000000 		.word	.LC16
 847 0238 B4000000 		.word	.LC17
 848 023c C0000000 		.word	.LC18
 849              		.cfi_endproc
 850              	.LFE68:
 851              		.size	disp_state, .-disp_state
 852              		.section	.text.disp_glv_v,"ax",%progbits
 853              		.align	2
 854              		.global	disp_glv_v
 855              		.thumb
 856              		.thumb_func
 857              		.type	disp_glv_v, %function
 858              	disp_glv_v:
 859              	.LFB69:
 213:frucd_display.c **** 
 214:frucd_display.c **** void disp_glv_v(uint16 data) {
 860              		.loc 1 214 0
 861              		.cfi_startproc
 862              		@ args = 0, pretend = 0, frame = 8
 863              		@ frame_needed = 0, uses_anonymous_args = 0
 864              	.LVL88:
ARM GAS  C:\Users\ANDREY~1\AppData\Local\Temp\cc2zgKhH.s 			page 20


 865 0000 70B5     		push	{r4, r5, r6, lr}
 866              		.cfi_def_cfa_offset 16
 867              		.cfi_offset 4, -16
 868              		.cfi_offset 5, -12
 869              		.cfi_offset 6, -8
 870              		.cfi_offset 14, -4
 871 0002 84B0     		sub	sp, sp, #16
 872              		.cfi_def_cfa_offset 32
 215:frucd_display.c ****     // format to 0-1200 range
 216:frucd_display.c ****     data *= 12;
 873              		.loc 1 216 0
 874 0004 00EB4000 		add	r0, r0, r0, lsl #1
 875              	.LVL89:
 876 0008 8300     		lsls	r3, r0, #2
 877 000a 9AB2     		uxth	r2, r3
 878              	.LVL90:
 217:frucd_display.c ****     data = 100 * (data / 0xfff) + (100 * data / 0xfff - 100 * (data / 0xfff));
 879              		.loc 1 217 0
 880 000c 6423     		movs	r3, #100
 881 000e 03FB02F3 		mul	r3, r3, r2
 882 0012 2D4C     		ldr	r4, .L67
 883 0014 84FB0324 		smull	r2, r4, r4, r3
 884              	.LVL91:
 885 0018 1C44     		add	r4, r4, r3
 886 001a DB17     		asrs	r3, r3, #31
 887 001c C3EBE424 		rsb	r4, r3, r4, asr #11
 888 0020 A6B2     		uxth	r6, r4
 889              	.LVL92:
 218:frucd_display.c ****     UG_COLOR color;
 219:frucd_display.c ****     if (data > 1150) {
 890              		.loc 1 219 0
 891 0022 40F27E43 		movw	r3, #1150
 892 0026 9E42     		cmp	r6, r3
 893 0028 09D8     		bhi	.L63
 220:frucd_display.c ****         color = C_GREEN;
 221:frucd_display.c ****     } else if (data > 1100) {
 894              		.loc 1 221 0
 895 002a 40F24C43 		movw	r3, #1100
 896 002e 9E42     		cmp	r6, r3
 897 0030 08D8     		bhi	.L64
 222:frucd_display.c ****         color = C_YELLOW;
 223:frucd_display.c ****     } else if (data > 1050) {
 898              		.loc 1 223 0
 899 0032 40F21A43 		movw	r3, #1050
 900 0036 9E42     		cmp	r6, r3
 901 0038 06D9     		bls	.L65
 224:frucd_display.c ****         color = C_ORANGE;
 902              		.loc 1 224 0
 903 003a 244D     		ldr	r5, .L67+4
 904 003c 06E0     		b	.L60
 905              	.L63:
 220:frucd_display.c ****         color = C_GREEN;
 906              		.loc 1 220 0
 907 003e 4FF47F45 		mov	r5, #65280
 908 0042 03E0     		b	.L60
 909              	.L64:
 222:frucd_display.c ****         color = C_YELLOW;
ARM GAS  C:\Users\ANDREY~1\AppData\Local\Temp\cc2zgKhH.s 			page 21


 910              		.loc 1 222 0
 911 0044 224D     		ldr	r5, .L67+8
 912 0046 01E0     		b	.L60
 913              	.L65:
 225:frucd_display.c ****     } else {
 226:frucd_display.c ****         color = C_RED;
 914              		.loc 1 226 0
 915 0048 4FF47F05 		mov	r5, #16711680
 916              	.L60:
 917              	.LVL93:
 227:frucd_display.c ****     }
 228:frucd_display.c ****     if (color != last_glv_v_color) {
 918              		.loc 1 228 0
 919 004c 214B     		ldr	r3, .L67+12
 920 004e 1B68     		ldr	r3, [r3]
 921 0050 9D42     		cmp	r5, r3
 922 0052 09D0     		beq	.L61
 229:frucd_display.c ****         // only draw rectangle if color changed
 230:frucd_display.c ****         UG_FillFrame(95, 230, 182, 260, color);
 923              		.loc 1 230 0
 924 0054 0095     		str	r5, [sp]
 925 0056 4FF48273 		mov	r3, #260
 926 005a B622     		movs	r2, #182
 927 005c E621     		movs	r1, #230
 928 005e 5F20     		movs	r0, #95
 929 0060 FFF7FEFF 		bl	UG_FillFrame
 930              	.LVL94:
 231:frucd_display.c ****         last_glv_v_color = color;
 931              		.loc 1 231 0
 932 0064 1B4B     		ldr	r3, .L67+12
 933 0066 1D60     		str	r5, [r3]
 934              	.L61:
 232:frucd_display.c ****     }
 233:frucd_display.c ****     char data_s[7];
 234:frucd_display.c ****     sprintf(data_s, "%d", data);
 935              		.loc 1 234 0
 936 0068 A2B2     		uxth	r2, r4
 937 006a 1B49     		ldr	r1, .L67+16
 938 006c 02A8     		add	r0, sp, #8
 939 006e FFF7FEFF 		bl	sprintf
 940              	.LVL95:
 235:frucd_display.c ****     // handle 3 digit cases; 2 and 1 are practically impossible
 236:frucd_display.c ****     if (data < 1000) {
 941              		.loc 1 236 0
 942 0072 B6F57A7F 		cmp	r6, #1000
 943 0076 0ED2     		bcs	.L62
 237:frucd_display.c ****         data_s[3] = data_s[2];
 944              		.loc 1 237 0
 945 0078 9DF80A30 		ldrb	r3, [sp, #10]	@ zero_extendqisi2
 946 007c 8DF80B30 		strb	r3, [sp, #11]
 238:frucd_display.c ****         data_s[2] = data_s[1];
 947              		.loc 1 238 0
 948 0080 9DF80930 		ldrb	r3, [sp, #9]	@ zero_extendqisi2
 949 0084 8DF80A30 		strb	r3, [sp, #10]
 239:frucd_display.c ****         data_s[1] = data_s[0];  
 950              		.loc 1 239 0
 951 0088 9DF80830 		ldrb	r3, [sp, #8]	@ zero_extendqisi2
ARM GAS  C:\Users\ANDREY~1\AppData\Local\Temp\cc2zgKhH.s 			page 22


 952 008c 8DF80930 		strb	r3, [sp, #9]
 240:frucd_display.c ****         data_s[0] = ' ';
 953              		.loc 1 240 0
 954 0090 2023     		movs	r3, #32
 955 0092 8DF80830 		strb	r3, [sp, #8]
 956              	.L62:
 241:frucd_display.c ****     }
 242:frucd_display.c ****     // shift over fractional part
 243:frucd_display.c ****     data_s[4] = data_s[3];
 957              		.loc 1 243 0
 958 0096 9DF80B30 		ldrb	r3, [sp, #11]	@ zero_extendqisi2
 959 009a 8DF80C30 		strb	r3, [sp, #12]
 244:frucd_display.c ****     data_s[3] = data_s[2];
 960              		.loc 1 244 0
 961 009e 9DF80A30 		ldrb	r3, [sp, #10]	@ zero_extendqisi2
 962 00a2 8DF80B30 		strb	r3, [sp, #11]
 245:frucd_display.c ****     // add syntax
 246:frucd_display.c ****     data_s[2] = '.';
 963              		.loc 1 246 0
 964 00a6 2E23     		movs	r3, #46
 965 00a8 8DF80A30 		strb	r3, [sp, #10]
 247:frucd_display.c ****     data_s[5] = 'V';
 966              		.loc 1 247 0
 967 00ac 5623     		movs	r3, #86
 968 00ae 8DF80D30 		strb	r3, [sp, #13]
 248:frucd_display.c ****     data_s[6] = '\0';
 969              		.loc 1 248 0
 970 00b2 0023     		movs	r3, #0
 971 00b4 8DF80E30 		strb	r3, [sp, #14]
 249:frucd_display.c ****     UG_PutColorString(100, 240, data_s, C_BLACK, color);
 972              		.loc 1 249 0
 973 00b8 0095     		str	r5, [sp]
 974 00ba 02AA     		add	r2, sp, #8
 975 00bc F021     		movs	r1, #240
 976 00be 6420     		movs	r0, #100
 977 00c0 FFF7FEFF 		bl	UG_PutColorString
 978              	.LVL96:
 250:frucd_display.c **** }
 979              		.loc 1 250 0
 980 00c4 04B0     		add	sp, sp, #16
 981              		.cfi_def_cfa_offset 16
 982              		@ sp needed
 983 00c6 70BD     		pop	{r4, r5, r6, pc}
 984              	.LVL97:
 985              	.L68:
 986              		.align	2
 987              	.L67:
 988 00c8 81000880 		.word	-2146959231
 989 00cc 00A5FF00 		.word	16753920
 990 00d0 00FFFF00 		.word	16776960
 991 00d4 00000000 		.word	last_glv_v_color
 992 00d8 44000000 		.word	.LC7
 993              		.cfi_endproc
 994              	.LFE69:
 995              		.size	disp_glv_v, .-disp_glv_v
 996              		.section	.text.disp_mc_temp,"ax",%progbits
 997              		.align	2
ARM GAS  C:\Users\ANDREY~1\AppData\Local\Temp\cc2zgKhH.s 			page 23


 998              		.global	disp_mc_temp
 999              		.thumb
 1000              		.thumb_func
 1001              		.type	disp_mc_temp, %function
 1002              	disp_mc_temp:
 1003              	.LFB70:
 251:frucd_display.c **** 
 252:frucd_display.c **** void disp_mc_temp(uint8 data) {
 1004              		.loc 1 252 0
 1005              		.cfi_startproc
 1006              		@ args = 0, pretend = 0, frame = 8
 1007              		@ frame_needed = 0, uses_anonymous_args = 0
 1008              	.LVL98:
 1009 0000 30B5     		push	{r4, r5, lr}
 1010              		.cfi_def_cfa_offset 12
 1011              		.cfi_offset 4, -12
 1012              		.cfi_offset 5, -8
 1013              		.cfi_offset 14, -4
 1014 0002 85B0     		sub	sp, sp, #20
 1015              		.cfi_def_cfa_offset 32
 1016 0004 0446     		mov	r4, r0
 253:frucd_display.c ****     if (data >= 100) {
 1017              		.loc 1 253 0
 1018 0006 6328     		cmp	r0, #99
 1019 0008 1DD9     		bls	.L70
 1020              	.LBB4:
 254:frucd_display.c ****         // handle 3 digit cases
 255:frucd_display.c ****         UG_FillFrame(410, 185, 470, 215, C_GREEN);
 1021              		.loc 1 255 0
 1022 000a 4FF47F45 		mov	r5, #65280
 1023 000e 0095     		str	r5, [sp]
 1024 0010 D723     		movs	r3, #215
 1025 0012 4FF4EB72 		mov	r2, #470
 1026 0016 B921     		movs	r1, #185
 1027 0018 4FF4CD70 		mov	r0, #410
 1028              	.LVL99:
 1029 001c FFF7FEFF 		bl	UG_FillFrame
 1030              	.LVL100:
 256:frucd_display.c ****         char data_s[5];
 257:frucd_display.c ****         sprintf(data_s, "%d", data);
 1031              		.loc 1 257 0
 1032 0020 2246     		mov	r2, r4
 1033 0022 1849     		ldr	r1, .L73
 1034 0024 02A8     		add	r0, sp, #8
 1035 0026 FFF7FEFF 		bl	sprintf
 1036              	.LVL101:
 258:frucd_display.c ****         data_s[3] = 'C';
 1037              		.loc 1 258 0
 1038 002a 4323     		movs	r3, #67
 1039 002c 8DF80B30 		strb	r3, [sp, #11]
 259:frucd_display.c ****         data_s[4] = '\0';
 1040              		.loc 1 259 0
 1041 0030 0023     		movs	r3, #0
 1042 0032 8DF80C30 		strb	r3, [sp, #12]
 260:frucd_display.c ****         UG_PutColorString(415, 195, data_s, C_BLACK, C_GREEN);
 1043              		.loc 1 260 0
 1044 0036 0095     		str	r5, [sp]
ARM GAS  C:\Users\ANDREY~1\AppData\Local\Temp\cc2zgKhH.s 			page 24


 1045 0038 02AA     		add	r2, sp, #8
 1046 003a C321     		movs	r1, #195
 1047 003c 40F29F10 		movw	r0, #415
 1048 0040 FFF7FEFF 		bl	UG_PutColorString
 1049              	.LVL102:
 1050              	.LBE4:
 1051 0044 1CE0     		b	.L69
 1052              	.LVL103:
 1053              	.L70:
 1054              	.LBB5:
 261:frucd_display.c ****     } else {
 262:frucd_display.c ****         // handle 2 digit cases
 263:frucd_display.c ****         UG_FillFrame(410, 185, 470, 215, C_GREEN);
 1055              		.loc 1 263 0
 1056 0046 4FF47F45 		mov	r5, #65280
 1057 004a 0095     		str	r5, [sp]
 1058 004c D723     		movs	r3, #215
 1059 004e 4FF4EB72 		mov	r2, #470
 1060 0052 B921     		movs	r1, #185
 1061 0054 4FF4CD70 		mov	r0, #410
 1062              	.LVL104:
 1063 0058 FFF7FEFF 		bl	UG_FillFrame
 1064              	.LVL105:
 264:frucd_display.c ****         char data_s[4];
 265:frucd_display.c ****         sprintf(data_s, "%d", data);
 1065              		.loc 1 265 0
 1066 005c 2246     		mov	r2, r4
 1067 005e 0949     		ldr	r1, .L73
 1068 0060 02A8     		add	r0, sp, #8
 1069 0062 FFF7FEFF 		bl	sprintf
 1070              	.LVL106:
 266:frucd_display.c ****         data_s[2] = 'C';
 1071              		.loc 1 266 0
 1072 0066 4323     		movs	r3, #67
 1073 0068 8DF80A30 		strb	r3, [sp, #10]
 267:frucd_display.c ****         data_s[3] = '\0';
 1074              		.loc 1 267 0
 1075 006c 0023     		movs	r3, #0
 1076 006e 8DF80B30 		strb	r3, [sp, #11]
 268:frucd_display.c ****         UG_PutColorString(422, 195, data_s, C_BLACK, C_GREEN);
 1077              		.loc 1 268 0
 1078 0072 0095     		str	r5, [sp]
 1079 0074 02AA     		add	r2, sp, #8
 1080 0076 C321     		movs	r1, #195
 1081 0078 4FF4D370 		mov	r0, #422
 1082 007c FFF7FEFF 		bl	UG_PutColorString
 1083              	.LVL107:
 1084              	.L69:
 1085              	.LBE5:
 269:frucd_display.c ****     }
 270:frucd_display.c **** }
 1086              		.loc 1 270 0
 1087 0080 05B0     		add	sp, sp, #20
 1088              		.cfi_def_cfa_offset 12
 1089              		@ sp needed
 1090 0082 30BD     		pop	{r4, r5, pc}
 1091              	.L74:
ARM GAS  C:\Users\ANDREY~1\AppData\Local\Temp\cc2zgKhH.s 			page 25


 1092              		.align	2
 1093              	.L73:
 1094 0084 44000000 		.word	.LC7
 1095              		.cfi_endproc
 1096              	.LFE70:
 1097              		.size	disp_mc_temp, .-disp_mc_temp
 1098              		.section	.text.disp_motor_temp,"ax",%progbits
 1099              		.align	2
 1100              		.global	disp_motor_temp
 1101              		.thumb
 1102              		.thumb_func
 1103              		.type	disp_motor_temp, %function
 1104              	disp_motor_temp:
 1105              	.LFB71:
 271:frucd_display.c **** 
 272:frucd_display.c **** void disp_motor_temp(uint8 data) {
 1106              		.loc 1 272 0
 1107              		.cfi_startproc
 1108              		@ args = 0, pretend = 0, frame = 8
 1109              		@ frame_needed = 0, uses_anonymous_args = 0
 1110              	.LVL108:
 1111 0000 30B5     		push	{r4, r5, lr}
 1112              		.cfi_def_cfa_offset 12
 1113              		.cfi_offset 4, -12
 1114              		.cfi_offset 5, -8
 1115              		.cfi_offset 14, -4
 1116 0002 85B0     		sub	sp, sp, #20
 1117              		.cfi_def_cfa_offset 32
 1118 0004 0446     		mov	r4, r0
 273:frucd_display.c ****     if (data >= 100) {
 1119              		.loc 1 273 0
 1120 0006 6328     		cmp	r0, #99
 1121 0008 1ED9     		bls	.L76
 1122              	.LBB6:
 274:frucd_display.c ****         // handle 3 digit cases
 275:frucd_display.c ****         UG_FillFrame(410, 230, 470, 260, C_GREEN);
 1123              		.loc 1 275 0
 1124 000a 4FF47F45 		mov	r5, #65280
 1125 000e 0095     		str	r5, [sp]
 1126 0010 4FF48273 		mov	r3, #260
 1127 0014 4FF4EB72 		mov	r2, #470
 1128 0018 E621     		movs	r1, #230
 1129 001a 4FF4CD70 		mov	r0, #410
 1130              	.LVL109:
 1131 001e FFF7FEFF 		bl	UG_FillFrame
 1132              	.LVL110:
 276:frucd_display.c ****         char data_s[5];
 277:frucd_display.c ****         sprintf(data_s, "%d", data);
 1133              		.loc 1 277 0
 1134 0022 2246     		mov	r2, r4
 1135 0024 1849     		ldr	r1, .L79
 1136 0026 02A8     		add	r0, sp, #8
 1137 0028 FFF7FEFF 		bl	sprintf
 1138              	.LVL111:
 278:frucd_display.c ****         data_s[3] = 'C';
 1139              		.loc 1 278 0
 1140 002c 4323     		movs	r3, #67
ARM GAS  C:\Users\ANDREY~1\AppData\Local\Temp\cc2zgKhH.s 			page 26


 1141 002e 8DF80B30 		strb	r3, [sp, #11]
 279:frucd_display.c ****         data_s[4] = '\0';
 1142              		.loc 1 279 0
 1143 0032 0023     		movs	r3, #0
 1144 0034 8DF80C30 		strb	r3, [sp, #12]
 280:frucd_display.c ****         UG_PutColorString(415, 240, data_s, C_BLACK, C_GREEN);
 1145              		.loc 1 280 0
 1146 0038 0095     		str	r5, [sp]
 1147 003a 02AA     		add	r2, sp, #8
 1148 003c F021     		movs	r1, #240
 1149 003e 40F29F10 		movw	r0, #415
 1150 0042 FFF7FEFF 		bl	UG_PutColorString
 1151              	.LVL112:
 1152              	.LBE6:
 1153 0046 1DE0     		b	.L75
 1154              	.LVL113:
 1155              	.L76:
 1156              	.LBB7:
 281:frucd_display.c ****     } else {
 282:frucd_display.c ****         // handle 2 digit cases
 283:frucd_display.c ****         UG_FillFrame(410, 230, 470, 260, C_GREEN);
 1157              		.loc 1 283 0
 1158 0048 4FF47F45 		mov	r5, #65280
 1159 004c 0095     		str	r5, [sp]
 1160 004e 4FF48273 		mov	r3, #260
 1161 0052 4FF4EB72 		mov	r2, #470
 1162 0056 E621     		movs	r1, #230
 1163 0058 4FF4CD70 		mov	r0, #410
 1164              	.LVL114:
 1165 005c FFF7FEFF 		bl	UG_FillFrame
 1166              	.LVL115:
 284:frucd_display.c ****         char data_s[4];
 285:frucd_display.c ****         sprintf(data_s, "%d", data);
 1167              		.loc 1 285 0
 1168 0060 2246     		mov	r2, r4
 1169 0062 0949     		ldr	r1, .L79
 1170 0064 02A8     		add	r0, sp, #8
 1171 0066 FFF7FEFF 		bl	sprintf
 1172              	.LVL116:
 286:frucd_display.c ****         data_s[2] = 'C';
 1173              		.loc 1 286 0
 1174 006a 4323     		movs	r3, #67
 1175 006c 8DF80A30 		strb	r3, [sp, #10]
 287:frucd_display.c ****         data_s[3] = '\0';
 1176              		.loc 1 287 0
 1177 0070 0023     		movs	r3, #0
 1178 0072 8DF80B30 		strb	r3, [sp, #11]
 288:frucd_display.c ****         UG_PutColorString(422, 240, data_s, C_BLACK, C_GREEN);
 1179              		.loc 1 288 0
 1180 0076 0095     		str	r5, [sp]
 1181 0078 02AA     		add	r2, sp, #8
 1182 007a F021     		movs	r1, #240
 1183 007c 4FF4D370 		mov	r0, #422
 1184 0080 FFF7FEFF 		bl	UG_PutColorString
 1185              	.LVL117:
 1186              	.L75:
 1187              	.LBE7:
ARM GAS  C:\Users\ANDREY~1\AppData\Local\Temp\cc2zgKhH.s 			page 27


 289:frucd_display.c ****     }
 290:frucd_display.c **** }
 1188              		.loc 1 290 0
 1189 0084 05B0     		add	sp, sp, #20
 1190              		.cfi_def_cfa_offset 12
 1191              		@ sp needed
 1192 0086 30BD     		pop	{r4, r5, pc}
 1193              	.L80:
 1194              		.align	2
 1195              	.L79:
 1196 0088 44000000 		.word	.LC7
 1197              		.cfi_endproc
 1198              	.LFE71:
 1199              		.size	disp_motor_temp, .-disp_motor_temp
 1200              		.comm	last_motor_temp_color,4,4
 1201              		.comm	last_mc_temp_color,4,4
 1202              		.comm	last_glv_v_color,4,4
 1203              		.comm	last_state_color,4,4
 1204              		.comm	last_max_pack_temp_color,4,4
 1205              		.comm	last_SOC_color,4,4
 1206              		.comm	gui1963,120,4
 1207              		.section	.rodata.str1.4,"aMS",%progbits,1
 1208              		.align	2
 1209              	.LC0:
 1210 0000 5041434B 		.ascii	"PACK SOC\000"
 1210      20534F43 
 1210      00
 1211 0009 000000   		.space	3
 1212              	.LC1:
 1213 000c 4D415820 		.ascii	"MAX PACK T\000"
 1213      5041434B 
 1213      205400
 1214 0017 00       		.space	1
 1215              	.LC2:
 1216 0018 53544154 		.ascii	"STATE:\000"
 1216      453A00
 1217 001f 00       		.space	1
 1218              	.LC3:
 1219 0020 474C5620 		.ascii	"GLV V:\000"
 1219      563A00
 1220 0027 00       		.space	1
 1221              	.LC4:
 1222 0028 4D432054 		.ascii	"MC T:\000"
 1222      3A00
 1223 002e 0000     		.space	2
 1224              	.LC5:
 1225 0030 4D4F544F 		.ascii	"MOTOR T:\000"
 1225      5220543A 
 1225      00
 1226 0039 000000   		.space	3
 1227              	.LC6:
 1228 003c 31303025 		.ascii	"100%\000"
 1228      00
 1229 0041 000000   		.space	3
 1230              	.LC7:
 1231 0044 256400   		.ascii	"%d\000"
 1232 0047 00       		.space	1
ARM GAS  C:\Users\ANDREY~1\AppData\Local\Temp\cc2zgKhH.s 			page 28


 1233              	.LC8:
 1234 0048 44525620 		.ascii	"DRV FRM LV\000"
 1234      46524D20 
 1234      4C5600
 1235 0053 00       		.space	1
 1236              	.LC9:
 1237 0054 50524520 		.ascii	"PRE TM OUT\000"
 1237      544D204F 
 1237      555400
 1238 005f 00       		.space	1
 1239              	.LC10:
 1240 0060 4252204E 		.ascii	"BR NOT PRS\000"
 1240      4F542050 
 1240      525300
 1241 006b 00       		.space	1
 1242              	.LC11:
 1243 006c 4856204F 		.ascii	"HV OFF DRV\000"
 1243      46462044 
 1243      525600
 1244 0077 00       		.space	1
 1245              	.LC12:
 1246 0078 534E5352 		.ascii	"SNSR DSCRP\000"
 1246      20445343 
 1246      525000
 1247 0083 00       		.space	1
 1248              	.LC13:
 1249 0084 42535044 		.ascii	"BSPD TRIPD\000"
 1249      20545249 
 1249      504400
 1250 008f 00       		.space	1
 1251              	.LC14:
 1252 0090 53485444 		.ascii	"SHTDWN OPN\000"
 1252      574E204F 
 1252      504E00
 1253 009b 00       		.space	1
 1254              	.LC15:
 1255 009c 20202020 		.ascii	"    LV    \000"
 1255      4C562020 
 1255      202000
 1256 00a7 00       		.space	1
 1257              	.LC16:
 1258 00a8 50524543 		.ascii	"PRECHARGE \000"
 1258      48415247 
 1258      452000
 1259 00b3 00       		.space	1
 1260              	.LC17:
 1261 00b4 48562045 		.ascii	"HV ENABLED\000"
 1261      4E41424C 
 1261      454400
 1262 00bf 00       		.space	1
 1263              	.LC18:
 1264 00c0 20204452 		.ascii	"  DRIVE   \000"
 1264      49564520 
 1264      202000
 1265              		.text
 1266              	.Letext0:
 1267              		.file 2 "c:\\program files (x86)\\cypress\\psoc creator\\4.4\\psoc creator\\import\\gnu\\arm\\5.4.
ARM GAS  C:\Users\ANDREY~1\AppData\Local\Temp\cc2zgKhH.s 			page 29


 1268              		.file 3 "c:\\program files (x86)\\cypress\\psoc creator\\4.4\\psoc creator\\import\\gnu\\arm\\5.4.
 1269              		.file 4 "Generated_Source\\PSoC5/cytypes.h"
 1270              		.file 5 "data.h"
 1271              		.file 6 "ugui_config.h"
 1272              		.file 7 "ugui.h"
 1273              		.file 8 "Generated_Source\\PSoC5/core_cm3.h"
 1274              		.file 9 "ugui_SSD1963.h"
 1275              		.file 10 "frucd_display.h"
 1276              		.file 11 "Generated_Source\\PSoC5/CyLib.h"
 1277              		.file 12 "c:\\program files (x86)\\cypress\\psoc creator\\4.4\\psoc creator\\import\\gnu\\arm\\5.4
 1278              		.section	.debug_info,"",%progbits
 1279              	.Ldebug_info0:
 1280 0000 19140000 		.4byte	0x1419
 1281 0004 0400     		.2byte	0x4
 1282 0006 00000000 		.4byte	.Ldebug_abbrev0
 1283 000a 04       		.byte	0x4
 1284 000b 01       		.uleb128 0x1
 1285 000c A2010000 		.4byte	.LASF132
 1286 0010 0C       		.byte	0xc
 1287 0011 D7050000 		.4byte	.LASF133
 1288 0015 DC030000 		.4byte	.LASF134
 1289 0019 00000000 		.4byte	.Ldebug_ranges0+0
 1290 001d 00000000 		.4byte	0
 1291 0021 00000000 		.4byte	.Ldebug_line0
 1292 0025 02       		.uleb128 0x2
 1293 0026 B3030000 		.4byte	.LASF0
 1294 002a 02       		.byte	0x2
 1295 002b 1B       		.byte	0x1b
 1296 002c 30000000 		.4byte	0x30
 1297 0030 03       		.uleb128 0x3
 1298 0031 01       		.byte	0x1
 1299 0032 06       		.byte	0x6
 1300 0033 B8050000 		.4byte	.LASF2
 1301 0037 02       		.uleb128 0x2
 1302 0038 B6040000 		.4byte	.LASF1
 1303 003c 02       		.byte	0x2
 1304 003d 1D       		.byte	0x1d
 1305 003e 42000000 		.4byte	0x42
 1306 0042 03       		.uleb128 0x3
 1307 0043 01       		.byte	0x1
 1308 0044 08       		.byte	0x8
 1309 0045 3A050000 		.4byte	.LASF3
 1310 0049 02       		.uleb128 0x2
 1311 004a 67030000 		.4byte	.LASF4
 1312 004e 02       		.byte	0x2
 1313 004f 29       		.byte	0x29
 1314 0050 54000000 		.4byte	0x54
 1315 0054 03       		.uleb128 0x3
 1316 0055 02       		.byte	0x2
 1317 0056 05       		.byte	0x5
 1318 0057 5A040000 		.4byte	.LASF5
 1319 005b 02       		.uleb128 0x2
 1320 005c 64010000 		.4byte	.LASF6
 1321 0060 02       		.byte	0x2
 1322 0061 2B       		.byte	0x2b
 1323 0062 66000000 		.4byte	0x66
 1324 0066 03       		.uleb128 0x3
ARM GAS  C:\Users\ANDREY~1\AppData\Local\Temp\cc2zgKhH.s 			page 30


 1325 0067 02       		.byte	0x2
 1326 0068 07       		.byte	0x7
 1327 0069 C4050000 		.4byte	.LASF7
 1328 006d 02       		.uleb128 0x2
 1329 006e 67000000 		.4byte	.LASF8
 1330 0072 02       		.byte	0x2
 1331 0073 3F       		.byte	0x3f
 1332 0074 78000000 		.4byte	0x78
 1333 0078 03       		.uleb128 0x3
 1334 0079 04       		.byte	0x4
 1335 007a 05       		.byte	0x5
 1336 007b 75040000 		.4byte	.LASF9
 1337 007f 02       		.uleb128 0x2
 1338 0080 48050000 		.4byte	.LASF10
 1339 0084 02       		.byte	0x2
 1340 0085 41       		.byte	0x41
 1341 0086 8A000000 		.4byte	0x8a
 1342 008a 03       		.uleb128 0x3
 1343 008b 04       		.byte	0x4
 1344 008c 07       		.byte	0x7
 1345 008d DF040000 		.4byte	.LASF11
 1346 0091 03       		.uleb128 0x3
 1347 0092 08       		.byte	0x8
 1348 0093 05       		.byte	0x5
 1349 0094 40030000 		.4byte	.LASF12
 1350 0098 03       		.uleb128 0x3
 1351 0099 08       		.byte	0x8
 1352 009a 07       		.byte	0x7
 1353 009b 3D010000 		.4byte	.LASF13
 1354 009f 04       		.uleb128 0x4
 1355 00a0 04       		.byte	0x4
 1356 00a1 05       		.byte	0x5
 1357 00a2 696E7400 		.ascii	"int\000"
 1358 00a6 03       		.uleb128 0x3
 1359 00a7 04       		.byte	0x4
 1360 00a8 07       		.byte	0x7
 1361 00a9 48000000 		.4byte	.LASF14
 1362 00ad 02       		.uleb128 0x2
 1363 00ae ED000000 		.4byte	.LASF15
 1364 00b2 03       		.byte	0x3
 1365 00b3 14       		.byte	0x14
 1366 00b4 25000000 		.4byte	0x25
 1367 00b8 02       		.uleb128 0x2
 1368 00b9 1F030000 		.4byte	.LASF16
 1369 00bd 03       		.byte	0x3
 1370 00be 18       		.byte	0x18
 1371 00bf 37000000 		.4byte	0x37
 1372 00c3 02       		.uleb128 0x2
 1373 00c4 2A010000 		.4byte	.LASF17
 1374 00c8 03       		.byte	0x3
 1375 00c9 20       		.byte	0x20
 1376 00ca 49000000 		.4byte	0x49
 1377 00ce 02       		.uleb128 0x2
 1378 00cf 24040000 		.4byte	.LASF18
 1379 00d3 03       		.byte	0x3
 1380 00d4 24       		.byte	0x24
 1381 00d5 5B000000 		.4byte	0x5b
ARM GAS  C:\Users\ANDREY~1\AppData\Local\Temp\cc2zgKhH.s 			page 31


 1382 00d9 02       		.uleb128 0x2
 1383 00da 09050000 		.4byte	.LASF19
 1384 00de 03       		.byte	0x3
 1385 00df 2C       		.byte	0x2c
 1386 00e0 6D000000 		.4byte	0x6d
 1387 00e4 02       		.uleb128 0x2
 1388 00e5 E4000000 		.4byte	.LASF20
 1389 00e9 03       		.byte	0x3
 1390 00ea 30       		.byte	0x30
 1391 00eb 7F000000 		.4byte	0x7f
 1392 00ef 05       		.uleb128 0x5
 1393 00f0 E7050000 		.4byte	.LASF21
 1394 00f4 04       		.byte	0x4
 1395 00f5 3801     		.2byte	0x138
 1396 00f7 42000000 		.4byte	0x42
 1397 00fb 05       		.uleb128 0x5
 1398 00fc 13030000 		.4byte	.LASF22
 1399 0100 04       		.byte	0x4
 1400 0101 3901     		.2byte	0x139
 1401 0103 66000000 		.4byte	0x66
 1402 0107 03       		.uleb128 0x3
 1403 0108 04       		.byte	0x4
 1404 0109 04       		.byte	0x4
 1405 010a 01010000 		.4byte	.LASF23
 1406 010e 03       		.uleb128 0x3
 1407 010f 08       		.byte	0x8
 1408 0110 04       		.byte	0x4
 1409 0111 ED050000 		.4byte	.LASF24
 1410 0115 03       		.uleb128 0x3
 1411 0116 01       		.byte	0x1
 1412 0117 08       		.byte	0x8
 1413 0118 D8020000 		.4byte	.LASF25
 1414 011c 03       		.uleb128 0x3
 1415 011d 08       		.byte	0x8
 1416 011e 04       		.byte	0x4
 1417 011f D0030000 		.4byte	.LASF26
 1418 0123 03       		.uleb128 0x3
 1419 0124 04       		.byte	0x4
 1420 0125 07       		.byte	0x7
 1421 0126 C5040000 		.4byte	.LASF27
 1422 012a 06       		.uleb128 0x6
 1423 012b 04       		.byte	0x4
 1424 012c 07       		.uleb128 0x7
 1425 012d 04       		.byte	0x4
 1426 012e 15010000 		.4byte	0x115
 1427 0132 07       		.uleb128 0x7
 1428 0133 04       		.byte	0x4
 1429 0134 42000000 		.4byte	0x42
 1430 0138 08       		.uleb128 0x8
 1431 0139 01       		.byte	0x1
 1432 013a 42000000 		.4byte	0x42
 1433 013e 05       		.byte	0x5
 1434 013f 09       		.byte	0x9
 1435 0140 62010000 		.4byte	0x162
 1436 0144 09       		.uleb128 0x9
 1437 0145 4C5600   		.ascii	"LV\000"
 1438 0148 00       		.byte	0
ARM GAS  C:\Users\ANDREY~1\AppData\Local\Temp\cc2zgKhH.s 			page 32


 1439 0149 0A       		.uleb128 0xa
 1440 014a A1030000 		.4byte	.LASF28
 1441 014e 01       		.byte	0x1
 1442 014f 0A       		.uleb128 0xa
 1443 0150 BD020000 		.4byte	.LASF29
 1444 0154 02       		.byte	0x2
 1445 0155 0A       		.uleb128 0xa
 1446 0156 24010000 		.4byte	.LASF30
 1447 015a 03       		.byte	0x3
 1448 015b 0A       		.uleb128 0xa
 1449 015c 6E050000 		.4byte	.LASF31
 1450 0160 80       		.byte	0x80
 1451 0161 00       		.byte	0
 1452 0162 08       		.uleb128 0x8
 1453 0163 01       		.byte	0x1
 1454 0164 42000000 		.4byte	0x42
 1455 0168 05       		.byte	0x5
 1456 0169 11       		.byte	0x11
 1457 016a 9F010000 		.4byte	0x19f
 1458 016e 0A       		.uleb128 0xa
 1459 016f 62000000 		.4byte	.LASF32
 1460 0173 00       		.byte	0
 1461 0174 0A       		.uleb128 0xa
 1462 0175 02060000 		.4byte	.LASF33
 1463 0179 01       		.byte	0x1
 1464 017a 0A       		.uleb128 0xa
 1465 017b DD020000 		.4byte	.LASF34
 1466 017f 02       		.byte	0x2
 1467 0180 0A       		.uleb128 0xa
 1468 0181 42020000 		.4byte	.LASF35
 1469 0185 03       		.byte	0x3
 1470 0186 0A       		.uleb128 0xa
 1471 0187 7C020000 		.4byte	.LASF36
 1472 018b 04       		.byte	0x4
 1473 018c 0A       		.uleb128 0xa
 1474 018d 82000000 		.4byte	.LASF37
 1475 0191 05       		.byte	0x5
 1476 0192 0A       		.uleb128 0xa
 1477 0193 AC000000 		.4byte	.LASF38
 1478 0197 06       		.byte	0x6
 1479 0198 0A       		.uleb128 0xa
 1480 0199 96020000 		.4byte	.LASF39
 1481 019d 07       		.byte	0x7
 1482 019e 00       		.byte	0
 1483 019f 02       		.uleb128 0x2
 1484 01a0 AD030000 		.4byte	.LASF40
 1485 01a4 06       		.byte	0x6
 1486 01a5 26       		.byte	0x26
 1487 01a6 B8000000 		.4byte	0xb8
 1488 01aa 02       		.uleb128 0x2
 1489 01ab 34030000 		.4byte	.LASF41
 1490 01af 06       		.byte	0x6
 1491 01b0 27       		.byte	0x27
 1492 01b1 AD000000 		.4byte	0xad
 1493 01b5 02       		.uleb128 0x2
 1494 01b6 41000000 		.4byte	.LASF42
 1495 01ba 06       		.byte	0x6
ARM GAS  C:\Users\ANDREY~1\AppData\Local\Temp\cc2zgKhH.s 			page 33


 1496 01bb 28       		.byte	0x28
 1497 01bc CE000000 		.4byte	0xce
 1498 01c0 02       		.uleb128 0x2
 1499 01c1 84010000 		.4byte	.LASF43
 1500 01c5 06       		.byte	0x6
 1501 01c6 29       		.byte	0x29
 1502 01c7 C3000000 		.4byte	0xc3
 1503 01cb 02       		.uleb128 0x2
 1504 01cc F4000000 		.4byte	.LASF44
 1505 01d0 06       		.byte	0x6
 1506 01d1 2A       		.byte	0x2a
 1507 01d2 E4000000 		.4byte	0xe4
 1508 01d6 08       		.uleb128 0x8
 1509 01d7 01       		.byte	0x1
 1510 01d8 42000000 		.4byte	0x42
 1511 01dc 07       		.byte	0x7
 1512 01dd 1F       		.byte	0x1f
 1513 01de EF010000 		.4byte	0x1ef
 1514 01e2 0A       		.uleb128 0xa
 1515 01e3 33060000 		.4byte	.LASF45
 1516 01e7 00       		.byte	0
 1517 01e8 0A       		.uleb128 0xa
 1518 01e9 0F000000 		.4byte	.LASF46
 1519 01ed 01       		.byte	0x1
 1520 01ee 00       		.byte	0
 1521 01ef 02       		.uleb128 0x2
 1522 01f0 A2000000 		.4byte	.LASF47
 1523 01f4 07       		.byte	0x7
 1524 01f5 22       		.byte	0x22
 1525 01f6 D6010000 		.4byte	0x1d6
 1526 01fa 0B       		.uleb128 0xb
 1527 01fb 14       		.byte	0x14
 1528 01fc 07       		.byte	0x7
 1529 01fd 24       		.byte	0x24
 1530 01fe 55020000 		.4byte	0x255
 1531 0202 0C       		.uleb128 0xc
 1532 0203 7000     		.ascii	"p\000"
 1533 0205 07       		.byte	0x7
 1534 0206 26       		.byte	0x26
 1535 0207 32010000 		.4byte	0x132
 1536 020b 00       		.byte	0
 1537 020c 0D       		.uleb128 0xd
 1538 020d F6020000 		.4byte	.LASF48
 1539 0211 07       		.byte	0x7
 1540 0212 27       		.byte	0x27
 1541 0213 EF010000 		.4byte	0x1ef
 1542 0217 04       		.byte	0x4
 1543 0218 0D       		.uleb128 0xd
 1544 0219 71020000 		.4byte	.LASF49
 1545 021d 07       		.byte	0x7
 1546 021e 28       		.byte	0x28
 1547 021f C0010000 		.4byte	0x1c0
 1548 0223 06       		.byte	0x6
 1549 0224 0D       		.uleb128 0xd
 1550 0225 4E040000 		.4byte	.LASF50
 1551 0229 07       		.byte	0x7
 1552 022a 29       		.byte	0x29
ARM GAS  C:\Users\ANDREY~1\AppData\Local\Temp\cc2zgKhH.s 			page 34


 1553 022b C0010000 		.4byte	0x1c0
 1554 022f 08       		.byte	0x8
 1555 0230 0D       		.uleb128 0xd
 1556 0231 8E030000 		.4byte	.LASF51
 1557 0235 07       		.byte	0x7
 1558 0236 2A       		.byte	0x2a
 1559 0237 B5010000 		.4byte	0x1b5
 1560 023b 0A       		.byte	0xa
 1561 023c 0D       		.uleb128 0xd
 1562 023d A5040000 		.4byte	.LASF52
 1563 0241 07       		.byte	0x7
 1564 0242 2B       		.byte	0x2b
 1565 0243 B5010000 		.4byte	0x1b5
 1566 0247 0C       		.byte	0xc
 1567 0248 0D       		.uleb128 0xd
 1568 0249 BC030000 		.4byte	.LASF53
 1569 024d 07       		.byte	0x7
 1570 024e 2C       		.byte	0x2c
 1571 024f 55020000 		.4byte	0x255
 1572 0253 10       		.byte	0x10
 1573 0254 00       		.byte	0
 1574 0255 07       		.uleb128 0x7
 1575 0256 04       		.byte	0x4
 1576 0257 9F010000 		.4byte	0x19f
 1577 025b 02       		.uleb128 0x2
 1578 025c AE040000 		.4byte	.LASF54
 1579 0260 07       		.byte	0x7
 1580 0261 2D       		.byte	0x2d
 1581 0262 FA010000 		.4byte	0x1fa
 1582 0266 02       		.uleb128 0x2
 1583 0267 71030000 		.4byte	.LASF55
 1584 026b 07       		.byte	0x7
 1585 026c 66       		.byte	0x66
 1586 026d 71020000 		.4byte	0x271
 1587 0271 0E       		.uleb128 0xe
 1588 0272 18060000 		.4byte	.LASF65
 1589 0276 20       		.byte	0x20
 1590 0277 07       		.byte	0x7
 1591 0278 F7       		.byte	0xf7
 1592 0279 EB020000 		.4byte	0x2eb
 1593 027d 0D       		.uleb128 0xd
 1594 027e 93050000 		.4byte	.LASF56
 1595 0282 07       		.byte	0x7
 1596 0283 F9       		.byte	0xf9
 1597 0284 9F010000 		.4byte	0x19f
 1598 0288 00       		.byte	0
 1599 0289 0D       		.uleb128 0xd
 1600 028a 2C000000 		.4byte	.LASF57
 1601 028e 07       		.byte	0x7
 1602 028f FA       		.byte	0xfa
 1603 0290 9F010000 		.4byte	0x19f
 1604 0294 01       		.byte	0x1
 1605 0295 0D       		.uleb128 0xd
 1606 0296 95000000 		.4byte	.LASF58
 1607 029a 07       		.byte	0x7
 1608 029b FB       		.byte	0xfb
 1609 029c 90040000 		.4byte	0x490
ARM GAS  C:\Users\ANDREY~1\AppData\Local\Temp\cc2zgKhH.s 			page 35


 1610 02a0 04       		.byte	0x4
 1611 02a1 0D       		.uleb128 0xd
 1612 02a2 27060000 		.4byte	.LASF59
 1613 02a6 07       		.byte	0x7
 1614 02a7 FC       		.byte	0xfc
 1615 02a8 D9030000 		.4byte	0x3d9
 1616 02ac 08       		.byte	0x8
 1617 02ad 0D       		.uleb128 0xd
 1618 02ae A9050000 		.4byte	.LASF60
 1619 02b2 07       		.byte	0x7
 1620 02b3 FD       		.byte	0xfd
 1621 02b4 D9030000 		.4byte	0x3d9
 1622 02b8 10       		.byte	0x10
 1623 02b9 0D       		.uleb128 0xd
 1624 02ba 35050000 		.4byte	.LASF61
 1625 02be 07       		.byte	0x7
 1626 02bf FE       		.byte	0xfe
 1627 02c0 9F010000 		.4byte	0x19f
 1628 02c4 18       		.byte	0x18
 1629 02c5 0C       		.uleb128 0xc
 1630 02c6 696400   		.ascii	"id\000"
 1631 02c9 07       		.byte	0x7
 1632 02ca FF       		.byte	0xff
 1633 02cb 9F010000 		.4byte	0x19f
 1634 02cf 19       		.byte	0x19
 1635 02d0 0F       		.uleb128 0xf
 1636 02d1 07010000 		.4byte	.LASF62
 1637 02d5 07       		.byte	0x7
 1638 02d6 0001     		.2byte	0x100
 1639 02d8 9F010000 		.4byte	0x19f
 1640 02dc 1A       		.byte	0x1a
 1641 02dd 0F       		.uleb128 0xf
 1642 02de 1A030000 		.4byte	.LASF63
 1643 02e2 07       		.byte	0x7
 1644 02e3 0101     		.2byte	0x101
 1645 02e5 2A010000 		.4byte	0x12a
 1646 02e9 1C       		.byte	0x1c
 1647 02ea 00       		.byte	0
 1648 02eb 02       		.uleb128 0x2
 1649 02ec 7E040000 		.4byte	.LASF64
 1650 02f0 07       		.byte	0x7
 1651 02f1 67       		.byte	0x67
 1652 02f2 F6020000 		.4byte	0x2f6
 1653 02f6 10       		.uleb128 0x10
 1654 02f7 79000000 		.4byte	.LASF66
 1655 02fb 44       		.byte	0x44
 1656 02fc 07       		.byte	0x7
 1657 02fd 4101     		.2byte	0x141
 1658 02ff 99030000 		.4byte	0x399
 1659 0303 0F       		.uleb128 0xf
 1660 0304 7D010000 		.4byte	.LASF67
 1661 0308 07       		.byte	0x7
 1662 0309 4301     		.2byte	0x143
 1663 030b 9F010000 		.4byte	0x19f
 1664 030f 00       		.byte	0
 1665 0310 0F       		.uleb128 0xf
 1666 0311 CB000000 		.4byte	.LASF68
ARM GAS  C:\Users\ANDREY~1\AppData\Local\Temp\cc2zgKhH.s 			page 36


 1667 0315 07       		.byte	0x7
 1668 0316 4401     		.2byte	0x144
 1669 0318 8A040000 		.4byte	0x48a
 1670 031c 04       		.byte	0x4
 1671 031d 0F       		.uleb128 0xf
 1672 031e 93050000 		.4byte	.LASF56
 1673 0322 07       		.byte	0x7
 1674 0323 4501     		.2byte	0x145
 1675 0325 9F010000 		.4byte	0x19f
 1676 0329 08       		.byte	0x8
 1677 032a 11       		.uleb128 0x11
 1678 032b 666300   		.ascii	"fc\000"
 1679 032e 07       		.byte	0x7
 1680 032f 4601     		.2byte	0x146
 1681 0331 99030000 		.4byte	0x399
 1682 0335 0C       		.byte	0xc
 1683 0336 11       		.uleb128 0x11
 1684 0337 626300   		.ascii	"bc\000"
 1685 033a 07       		.byte	0x7
 1686 033b 4701     		.2byte	0x147
 1687 033d 99030000 		.4byte	0x399
 1688 0341 10       		.byte	0x10
 1689 0342 11       		.uleb128 0x11
 1690 0343 787300   		.ascii	"xs\000"
 1691 0346 07       		.byte	0x7
 1692 0347 4801     		.2byte	0x148
 1693 0349 C0010000 		.4byte	0x1c0
 1694 034d 14       		.byte	0x14
 1695 034e 11       		.uleb128 0x11
 1696 034f 797300   		.ascii	"ys\000"
 1697 0352 07       		.byte	0x7
 1698 0353 4901     		.2byte	0x149
 1699 0355 C0010000 		.4byte	0x1c0
 1700 0359 16       		.byte	0x16
 1701 035a 11       		.uleb128 0x11
 1702 035b 786500   		.ascii	"xe\000"
 1703 035e 07       		.byte	0x7
 1704 035f 4A01     		.2byte	0x14a
 1705 0361 C0010000 		.4byte	0x1c0
 1706 0365 18       		.byte	0x18
 1707 0366 11       		.uleb128 0x11
 1708 0367 796500   		.ascii	"ye\000"
 1709 036a 07       		.byte	0x7
 1710 036b 4B01     		.2byte	0x14b
 1711 036d C0010000 		.4byte	0x1c0
 1712 0371 1A       		.byte	0x1a
 1713 0372 0F       		.uleb128 0xf
 1714 0373 8D050000 		.4byte	.LASF69
 1715 0377 07       		.byte	0x7
 1716 0378 4C01     		.2byte	0x14c
 1717 037a 9F010000 		.4byte	0x19f
 1718 037e 1C       		.byte	0x1c
 1719 037f 0F       		.uleb128 0xf
 1720 0380 DE000000 		.4byte	.LASF70
 1721 0384 07       		.byte	0x7
 1722 0385 4D01     		.2byte	0x14d
 1723 0387 20050000 		.4byte	0x520
ARM GAS  C:\Users\ANDREY~1\AppData\Local\Temp\cc2zgKhH.s 			page 37


 1724 038b 20       		.byte	0x20
 1725 038c 11       		.uleb128 0x11
 1726 038d 636200   		.ascii	"cb\000"
 1727 0390 07       		.byte	0x7
 1728 0391 4E01     		.2byte	0x14e
 1729 0393 3D050000 		.4byte	0x53d
 1730 0397 40       		.byte	0x40
 1731 0398 00       		.byte	0
 1732 0399 02       		.uleb128 0x2
 1733 039a 38000000 		.4byte	.LASF71
 1734 039e 07       		.byte	0x7
 1735 039f 6A       		.byte	0x6a
 1736 03a0 CB010000 		.4byte	0x1cb
 1737 03a4 0B       		.uleb128 0xb
 1738 03a5 08       		.byte	0x8
 1739 03a6 07       		.byte	0x7
 1740 03a7 A7       		.byte	0xa7
 1741 03a8 D9030000 		.4byte	0x3d9
 1742 03ac 0C       		.uleb128 0xc
 1743 03ad 787300   		.ascii	"xs\000"
 1744 03b0 07       		.byte	0x7
 1745 03b1 A9       		.byte	0xa9
 1746 03b2 C0010000 		.4byte	0x1c0
 1747 03b6 00       		.byte	0
 1748 03b7 0C       		.uleb128 0xc
 1749 03b8 797300   		.ascii	"ys\000"
 1750 03bb 07       		.byte	0x7
 1751 03bc AA       		.byte	0xaa
 1752 03bd C0010000 		.4byte	0x1c0
 1753 03c1 02       		.byte	0x2
 1754 03c2 0C       		.uleb128 0xc
 1755 03c3 786500   		.ascii	"xe\000"
 1756 03c6 07       		.byte	0x7
 1757 03c7 AB       		.byte	0xab
 1758 03c8 C0010000 		.4byte	0x1c0
 1759 03cc 04       		.byte	0x4
 1760 03cd 0C       		.uleb128 0xc
 1761 03ce 796500   		.ascii	"ye\000"
 1762 03d1 07       		.byte	0x7
 1763 03d2 AC       		.byte	0xac
 1764 03d3 C0010000 		.4byte	0x1c0
 1765 03d7 06       		.byte	0x6
 1766 03d8 00       		.byte	0
 1767 03d9 02       		.uleb128 0x2
 1768 03da 00030000 		.4byte	.LASF72
 1769 03de 07       		.byte	0x7
 1770 03df AD       		.byte	0xad
 1771 03e0 A4030000 		.4byte	0x3a4
 1772 03e4 07       		.uleb128 0x7
 1773 03e5 04       		.byte	0x4
 1774 03e6 EA030000 		.4byte	0x3ea
 1775 03ea 12       		.uleb128 0x12
 1776 03eb 5B020000 		.4byte	0x25b
 1777 03ef 0B       		.uleb128 0xb
 1778 03f0 08       		.byte	0x8
 1779 03f1 07       		.byte	0x7
 1780 03f2 D6       		.byte	0xd6
ARM GAS  C:\Users\ANDREY~1\AppData\Local\Temp\cc2zgKhH.s 			page 38


 1781 03f3 33040000 		.4byte	0x433
 1782 03f7 0D       		.uleb128 0xd
 1783 03f8 35050000 		.4byte	.LASF61
 1784 03fc 07       		.byte	0x7
 1785 03fd D8       		.byte	0xd8
 1786 03fe 9F010000 		.4byte	0x19f
 1787 0402 00       		.byte	0
 1788 0403 0C       		.uleb128 0xc
 1789 0404 696400   		.ascii	"id\000"
 1790 0407 07       		.byte	0x7
 1791 0408 D9       		.byte	0xd9
 1792 0409 9F010000 		.4byte	0x19f
 1793 040d 01       		.byte	0x1
 1794 040e 0D       		.uleb128 0xd
 1795 040f 80030000 		.4byte	.LASF73
 1796 0413 07       		.byte	0x7
 1797 0414 DA       		.byte	0xda
 1798 0415 9F010000 		.4byte	0x19f
 1799 0419 02       		.byte	0x2
 1800 041a 0D       		.uleb128 0xd
 1801 041b 07010000 		.4byte	.LASF62
 1802 041f 07       		.byte	0x7
 1803 0420 DB       		.byte	0xdb
 1804 0421 9F010000 		.4byte	0x19f
 1805 0425 03       		.byte	0x3
 1806 0426 0C       		.uleb128 0xc
 1807 0427 73726300 		.ascii	"src\000"
 1808 042b 07       		.byte	0x7
 1809 042c DC       		.byte	0xdc
 1810 042d 2A010000 		.4byte	0x12a
 1811 0431 04       		.byte	0x4
 1812 0432 00       		.byte	0
 1813 0433 02       		.uleb128 0x2
 1814 0434 08030000 		.4byte	.LASF74
 1815 0438 07       		.byte	0x7
 1816 0439 DD       		.byte	0xdd
 1817 043a EF030000 		.4byte	0x3ef
 1818 043e 0B       		.uleb128 0xb
 1819 043f 06       		.byte	0x6
 1820 0440 07       		.byte	0x7
 1821 0441 E8       		.byte	0xe8
 1822 0442 69040000 		.4byte	0x469
 1823 0446 0D       		.uleb128 0xd
 1824 0447 93050000 		.4byte	.LASF56
 1825 044b 07       		.byte	0x7
 1826 044c EA       		.byte	0xea
 1827 044d 9F010000 		.4byte	0x19f
 1828 0451 00       		.byte	0
 1829 0452 0C       		.uleb128 0xc
 1830 0453 787000   		.ascii	"xp\000"
 1831 0456 07       		.byte	0x7
 1832 0457 EB       		.byte	0xeb
 1833 0458 C0010000 		.4byte	0x1c0
 1834 045c 02       		.byte	0x2
 1835 045d 0C       		.uleb128 0xc
 1836 045e 797000   		.ascii	"yp\000"
 1837 0461 07       		.byte	0x7
ARM GAS  C:\Users\ANDREY~1\AppData\Local\Temp\cc2zgKhH.s 			page 39


 1838 0462 EC       		.byte	0xec
 1839 0463 C0010000 		.4byte	0x1c0
 1840 0467 04       		.byte	0x4
 1841 0468 00       		.byte	0
 1842 0469 02       		.uleb128 0x2
 1843 046a AF050000 		.4byte	.LASF75
 1844 046e 07       		.byte	0x7
 1845 046f ED       		.byte	0xed
 1846 0470 3E040000 		.4byte	0x43e
 1847 0474 13       		.uleb128 0x13
 1848 0475 84040000 		.4byte	0x484
 1849 0479 14       		.uleb128 0x14
 1850 047a 84040000 		.4byte	0x484
 1851 047e 14       		.uleb128 0x14
 1852 047f 8A040000 		.4byte	0x48a
 1853 0483 00       		.byte	0
 1854 0484 07       		.uleb128 0x7
 1855 0485 04       		.byte	0x4
 1856 0486 EB020000 		.4byte	0x2eb
 1857 048a 07       		.uleb128 0x7
 1858 048b 04       		.byte	0x4
 1859 048c 66020000 		.4byte	0x266
 1860 0490 07       		.uleb128 0x7
 1861 0491 04       		.byte	0x4
 1862 0492 74040000 		.4byte	0x474
 1863 0496 15       		.uleb128 0x15
 1864 0497 20       		.byte	0x20
 1865 0498 07       		.byte	0x7
 1866 0499 3201     		.2byte	0x132
 1867 049b 20050000 		.4byte	0x520
 1868 049f 11       		.uleb128 0x11
 1869 04a0 73747200 		.ascii	"str\000"
 1870 04a4 07       		.byte	0x7
 1871 04a5 3401     		.2byte	0x134
 1872 04a7 2C010000 		.4byte	0x12c
 1873 04ab 00       		.byte	0
 1874 04ac 0F       		.uleb128 0xf
 1875 04ad C0040000 		.4byte	.LASF76
 1876 04b1 07       		.byte	0x7
 1877 04b2 3501     		.2byte	0x135
 1878 04b4 E4030000 		.4byte	0x3e4
 1879 04b8 04       		.byte	0x4
 1880 04b9 0F       		.uleb128 0xf
 1881 04ba 53050000 		.4byte	.LASF77
 1882 04be 07       		.byte	0x7
 1883 04bf 3601     		.2byte	0x136
 1884 04c1 AA010000 		.4byte	0x1aa
 1885 04c5 08       		.byte	0x8
 1886 04c6 0F       		.uleb128 0xf
 1887 04c7 D0020000 		.4byte	.LASF78
 1888 04cb 07       		.byte	0x7
 1889 04cc 3701     		.2byte	0x137
 1890 04ce AA010000 		.4byte	0x1aa
 1891 04d2 09       		.byte	0x9
 1892 04d3 0F       		.uleb128 0xf
 1893 04d4 21060000 		.4byte	.LASF79
 1894 04d8 07       		.byte	0x7
ARM GAS  C:\Users\ANDREY~1\AppData\Local\Temp\cc2zgKhH.s 			page 40


 1895 04d9 3801     		.2byte	0x138
 1896 04db 9F010000 		.4byte	0x19f
 1897 04df 0A       		.byte	0xa
 1898 04e0 11       		.uleb128 0x11
 1899 04e1 666300   		.ascii	"fc\000"
 1900 04e4 07       		.byte	0x7
 1901 04e5 3901     		.2byte	0x139
 1902 04e7 99030000 		.4byte	0x399
 1903 04eb 0C       		.byte	0xc
 1904 04ec 11       		.uleb128 0x11
 1905 04ed 626300   		.ascii	"bc\000"
 1906 04f0 07       		.byte	0x7
 1907 04f1 3A01     		.2byte	0x13a
 1908 04f3 99030000 		.4byte	0x399
 1909 04f7 10       		.byte	0x10
 1910 04f8 11       		.uleb128 0x11
 1911 04f9 69666300 		.ascii	"ifc\000"
 1912 04fd 07       		.byte	0x7
 1913 04fe 3B01     		.2byte	0x13b
 1914 0500 99030000 		.4byte	0x399
 1915 0504 14       		.byte	0x14
 1916 0505 11       		.uleb128 0x11
 1917 0506 69626300 		.ascii	"ibc\000"
 1918 050a 07       		.byte	0x7
 1919 050b 3C01     		.2byte	0x13c
 1920 050d 99030000 		.4byte	0x399
 1921 0511 18       		.byte	0x18
 1922 0512 0F       		.uleb128 0xf
 1923 0513 87030000 		.4byte	.LASF80
 1924 0517 07       		.byte	0x7
 1925 0518 3D01     		.2byte	0x13d
 1926 051a 9F010000 		.4byte	0x19f
 1927 051e 1C       		.byte	0x1c
 1928 051f 00       		.byte	0
 1929 0520 05       		.uleb128 0x5
 1930 0521 35040000 		.4byte	.LASF81
 1931 0525 07       		.byte	0x7
 1932 0526 3E01     		.2byte	0x13e
 1933 0528 96040000 		.4byte	0x496
 1934 052c 13       		.uleb128 0x13
 1935 052d 37050000 		.4byte	0x537
 1936 0531 14       		.uleb128 0x14
 1937 0532 37050000 		.4byte	0x537
 1938 0536 00       		.byte	0
 1939 0537 07       		.uleb128 0x7
 1940 0538 04       		.byte	0x4
 1941 0539 33040000 		.4byte	0x433
 1942 053d 07       		.uleb128 0x7
 1943 053e 04       		.byte	0x4
 1944 053f 2C050000 		.4byte	0x52c
 1945 0543 15       		.uleb128 0x15
 1946 0544 08       		.byte	0x8
 1947 0545 07       		.byte	0x7
 1948 0546 2002     		.2byte	0x220
 1949 0548 67050000 		.4byte	0x567
 1950 054c 0F       		.uleb128 0xf
 1951 054d 2D030000 		.4byte	.LASF82
ARM GAS  C:\Users\ANDREY~1\AppData\Local\Temp\cc2zgKhH.s 			page 41


 1952 0551 07       		.byte	0x7
 1953 0552 2202     		.2byte	0x222
 1954 0554 2A010000 		.4byte	0x12a
 1955 0558 00       		.byte	0
 1956 0559 0F       		.uleb128 0xf
 1957 055a 93050000 		.4byte	.LASF56
 1958 055e 07       		.byte	0x7
 1959 055f 2302     		.2byte	0x223
 1960 0561 9F010000 		.4byte	0x19f
 1961 0565 04       		.byte	0x4
 1962 0566 00       		.byte	0
 1963 0567 05       		.uleb128 0x5
 1964 0568 3E040000 		.4byte	.LASF83
 1965 056c 07       		.byte	0x7
 1966 056d 2402     		.2byte	0x224
 1967 056f 43050000 		.4byte	0x543
 1968 0573 15       		.uleb128 0x15
 1969 0574 14       		.byte	0x14
 1970 0575 07       		.byte	0x7
 1971 0576 3C02     		.2byte	0x23c
 1972 0578 E5050000 		.4byte	0x5e5
 1973 057c 0F       		.uleb128 0xf
 1974 057d 48040000 		.4byte	.LASF84
 1975 0581 07       		.byte	0x7
 1976 0582 3E02     		.2byte	0x23e
 1977 0584 C0010000 		.4byte	0x1c0
 1978 0588 00       		.byte	0
 1979 0589 0F       		.uleb128 0xf
 1980 058a 96010000 		.4byte	.LASF85
 1981 058e 07       		.byte	0x7
 1982 058f 3F02     		.2byte	0x23f
 1983 0591 C0010000 		.4byte	0x1c0
 1984 0595 02       		.byte	0x2
 1985 0596 0F       		.uleb128 0xf
 1986 0597 66050000 		.4byte	.LASF86
 1987 059b 07       		.byte	0x7
 1988 059c 4002     		.2byte	0x240
 1989 059e C0010000 		.4byte	0x1c0
 1990 05a2 04       		.byte	0x4
 1991 05a3 0F       		.uleb128 0xf
 1992 05a4 C8020000 		.4byte	.LASF87
 1993 05a8 07       		.byte	0x7
 1994 05a9 4102     		.2byte	0x241
 1995 05ab C0010000 		.4byte	0x1c0
 1996 05af 06       		.byte	0x6
 1997 05b0 0F       		.uleb128 0xf
 1998 05b1 FB000000 		.4byte	.LASF88
 1999 05b5 07       		.byte	0x7
 2000 05b6 4202     		.2byte	0x242
 2001 05b8 C0010000 		.4byte	0x1c0
 2002 05bc 08       		.byte	0x8
 2003 05bd 0F       		.uleb128 0xf
 2004 05be 74050000 		.4byte	.LASF89
 2005 05c2 07       		.byte	0x7
 2006 05c3 4302     		.2byte	0x243
 2007 05c5 C0010000 		.4byte	0x1c0
 2008 05c9 0A       		.byte	0xa
ARM GAS  C:\Users\ANDREY~1\AppData\Local\Temp\cc2zgKhH.s 			page 42


 2009 05ca 0F       		.uleb128 0xf
 2010 05cb 8B010000 		.4byte	.LASF90
 2011 05cf 07       		.byte	0x7
 2012 05d0 4402     		.2byte	0x244
 2013 05d2 99030000 		.4byte	0x399
 2014 05d6 0C       		.byte	0xc
 2015 05d7 0F       		.uleb128 0xf
 2016 05d8 19010000 		.4byte	.LASF91
 2017 05dc 07       		.byte	0x7
 2018 05dd 4502     		.2byte	0x245
 2019 05df 99030000 		.4byte	0x399
 2020 05e3 10       		.byte	0x10
 2021 05e4 00       		.byte	0
 2022 05e5 15       		.uleb128 0x15
 2023 05e6 78       		.byte	0x78
 2024 05e7 07       		.byte	0x7
 2025 05e8 3302     		.2byte	0x233
 2026 05ea BF060000 		.4byte	0x6bf
 2027 05ee 0F       		.uleb128 0xf
 2028 05ef 7B030000 		.4byte	.LASF92
 2029 05f3 07       		.byte	0x7
 2030 05f4 3502     		.2byte	0x235
 2031 05f6 D4060000 		.4byte	0x6d4
 2032 05fa 00       		.byte	0
 2033 05fb 0F       		.uleb128 0xf
 2034 05fc 3A030000 		.4byte	.LASF93
 2035 0600 07       		.byte	0x7
 2036 0601 3602     		.2byte	0x236
 2037 0603 C0010000 		.4byte	0x1c0
 2038 0607 04       		.byte	0x4
 2039 0608 0F       		.uleb128 0xf
 2040 0609 9C000000 		.4byte	.LASF94
 2041 060d 07       		.byte	0x7
 2042 060e 3702     		.2byte	0x237
 2043 0610 C0010000 		.4byte	0x1c0
 2044 0614 06       		.byte	0x6
 2045 0615 0F       		.uleb128 0xf
 2046 0616 27030000 		.4byte	.LASF95
 2047 061a 07       		.byte	0x7
 2048 061b 3802     		.2byte	0x238
 2049 061d 69040000 		.4byte	0x469
 2050 0621 08       		.byte	0x8
 2051 0622 0F       		.uleb128 0xf
 2052 0623 D2000000 		.4byte	.LASF96
 2053 0627 07       		.byte	0x7
 2054 0628 3902     		.2byte	0x239
 2055 062a 84040000 		.4byte	0x484
 2056 062e 10       		.byte	0x10
 2057 062f 0F       		.uleb128 0xf
 2058 0630 6F010000 		.4byte	.LASF97
 2059 0634 07       		.byte	0x7
 2060 0635 3A02     		.2byte	0x23a
 2061 0637 84040000 		.4byte	0x484
 2062 063b 14       		.byte	0x14
 2063 063c 0F       		.uleb128 0xf
 2064 063d 0D010000 		.4byte	.LASF98
 2065 0641 07       		.byte	0x7
ARM GAS  C:\Users\ANDREY~1\AppData\Local\Temp\cc2zgKhH.s 			page 43


 2066 0642 3B02     		.2byte	0x23b
 2067 0644 84040000 		.4byte	0x484
 2068 0648 18       		.byte	0x18
 2069 0649 0F       		.uleb128 0xf
 2070 064a 71000000 		.4byte	.LASF99
 2071 064e 07       		.byte	0x7
 2072 064f 4602     		.2byte	0x246
 2073 0651 73050000 		.4byte	0x573
 2074 0655 1C       		.byte	0x1c
 2075 0656 0F       		.uleb128 0xf
 2076 0657 C0040000 		.4byte	.LASF76
 2077 065b 07       		.byte	0x7
 2078 065c 4702     		.2byte	0x247
 2079 065e 5B020000 		.4byte	0x25b
 2080 0662 30       		.byte	0x30
 2081 0663 0F       		.uleb128 0xf
 2082 0664 42060000 		.4byte	.LASF100
 2083 0668 07       		.byte	0x7
 2084 0669 4802     		.2byte	0x248
 2085 066b AA010000 		.4byte	0x1aa
 2086 066f 44       		.byte	0x44
 2087 0670 0F       		.uleb128 0xf
 2088 0671 55000000 		.4byte	.LASF101
 2089 0675 07       		.byte	0x7
 2090 0676 4902     		.2byte	0x249
 2091 0678 AA010000 		.4byte	0x1aa
 2092 067c 45       		.byte	0x45
 2093 067d 0F       		.uleb128 0xf
 2094 067e 8B010000 		.4byte	.LASF90
 2095 0682 07       		.byte	0x7
 2096 0683 4A02     		.2byte	0x24a
 2097 0685 99030000 		.4byte	0x399
 2098 0689 48       		.byte	0x48
 2099 068a 0F       		.uleb128 0xf
 2100 068b 19010000 		.4byte	.LASF91
 2101 068f 07       		.byte	0x7
 2102 0690 4B02     		.2byte	0x24b
 2103 0692 99030000 		.4byte	0x399
 2104 0696 4C       		.byte	0x4c
 2105 0697 0F       		.uleb128 0xf
 2106 0698 1E000000 		.4byte	.LASF102
 2107 069c 07       		.byte	0x7
 2108 069d 4C02     		.2byte	0x24c
 2109 069f 99030000 		.4byte	0x399
 2110 06a3 50       		.byte	0x50
 2111 06a4 0F       		.uleb128 0xf
 2112 06a5 93050000 		.4byte	.LASF56
 2113 06a9 07       		.byte	0x7
 2114 06aa 4D02     		.2byte	0x24d
 2115 06ac 9F010000 		.4byte	0x19f
 2116 06b0 54       		.byte	0x54
 2117 06b1 0F       		.uleb128 0xf
 2118 06b2 2D030000 		.4byte	.LASF82
 2119 06b6 07       		.byte	0x7
 2120 06b7 4E02     		.2byte	0x24e
 2121 06b9 DA060000 		.4byte	0x6da
 2122 06bd 58       		.byte	0x58
ARM GAS  C:\Users\ANDREY~1\AppData\Local\Temp\cc2zgKhH.s 			page 44


 2123 06be 00       		.byte	0
 2124 06bf 13       		.uleb128 0x13
 2125 06c0 D4060000 		.4byte	0x6d4
 2126 06c4 14       		.uleb128 0x14
 2127 06c5 C0010000 		.4byte	0x1c0
 2128 06c9 14       		.uleb128 0x14
 2129 06ca C0010000 		.4byte	0x1c0
 2130 06ce 14       		.uleb128 0x14
 2131 06cf 99030000 		.4byte	0x399
 2132 06d3 00       		.byte	0
 2133 06d4 07       		.uleb128 0x7
 2134 06d5 04       		.byte	0x4
 2135 06d6 BF060000 		.4byte	0x6bf
 2136 06da 16       		.uleb128 0x16
 2137 06db 67050000 		.4byte	0x567
 2138 06df EA060000 		.4byte	0x6ea
 2139 06e3 17       		.uleb128 0x17
 2140 06e4 23010000 		.4byte	0x123
 2141 06e8 03       		.byte	0x3
 2142 06e9 00       		.byte	0
 2143 06ea 05       		.uleb128 0x5
 2144 06eb A2050000 		.4byte	.LASF103
 2145 06ef 07       		.byte	0x7
 2146 06f0 4F02     		.2byte	0x24f
 2147 06f2 E5050000 		.4byte	0x5e5
 2148 06f6 18       		.uleb128 0x18
 2149 06f7 54010000 		.4byte	.LASF104
 2150 06fb 01       		.byte	0x1
 2151 06fc 0A       		.byte	0xa
 2152 06fd 00000000 		.4byte	.LFB64
 2153 0701 74000000 		.4byte	.LFE64-.LFB64
 2154 0705 01       		.uleb128 0x1
 2155 0706 9C       		.byte	0x9c
 2156 0707 EE070000 		.4byte	0x7ee
 2157 070b 19       		.uleb128 0x19
 2158 070c 0C000000 		.4byte	.LVL0
 2159 0710 CA130000 		.4byte	0x13ca
 2160 0714 22070000 		.4byte	0x722
 2161 0718 1A       		.uleb128 0x1a
 2162 0719 01       		.uleb128 0x1
 2163 071a 50       		.byte	0x50
 2164 071b 05       		.uleb128 0x5
 2165 071c 0C       		.byte	0xc
 2166 071d FFFFFF00 		.4byte	0xffffff
 2167 0721 00       		.byte	0
 2168 0722 19       		.uleb128 0x19
 2169 0723 1E000000 		.4byte	.LVL1
 2170 0727 D6130000 		.4byte	0x13d6
 2171 072b 4D070000 		.4byte	0x74d
 2172 072f 1A       		.uleb128 0x1a
 2173 0730 01       		.uleb128 0x1
 2174 0731 50       		.byte	0x50
 2175 0732 01       		.uleb128 0x1
 2176 0733 30       		.byte	0x30
 2177 0734 1A       		.uleb128 0x1a
 2178 0735 01       		.uleb128 0x1
 2179 0736 51       		.byte	0x51
ARM GAS  C:\Users\ANDREY~1\AppData\Local\Temp\cc2zgKhH.s 			page 45


 2180 0737 01       		.uleb128 0x1
 2181 0738 30       		.byte	0x30
 2182 0739 1A       		.uleb128 0x1a
 2183 073a 01       		.uleb128 0x1
 2184 073b 52       		.byte	0x52
 2185 073c 01       		.uleb128 0x1
 2186 073d 3A       		.byte	0x3a
 2187 073e 1A       		.uleb128 0x1a
 2188 073f 01       		.uleb128 0x1
 2189 0740 53       		.byte	0x53
 2190 0741 01       		.uleb128 0x1
 2191 0742 3A       		.byte	0x3a
 2192 0743 1A       		.uleb128 0x1a
 2193 0744 02       		.uleb128 0x2
 2194 0745 7D       		.byte	0x7d
 2195 0746 00       		.sleb128 0
 2196 0747 04       		.uleb128 0x4
 2197 0748 08       		.byte	0x8
 2198 0749 FF       		.byte	0xff
 2199 074a 40       		.byte	0x40
 2200 074b 24       		.byte	0x24
 2201 074c 00       		.byte	0
 2202 074d 19       		.uleb128 0x19
 2203 074e 32000000 		.4byte	.LVL2
 2204 0752 D6130000 		.4byte	0x13d6
 2205 0756 7A070000 		.4byte	0x77a
 2206 075a 1A       		.uleb128 0x1a
 2207 075b 01       		.uleb128 0x1
 2208 075c 50       		.byte	0x50
 2209 075d 01       		.uleb128 0x1
 2210 075e 30       		.byte	0x30
 2211 075f 1A       		.uleb128 0x1a
 2212 0760 01       		.uleb128 0x1
 2213 0761 51       		.byte	0x51
 2214 0762 03       		.uleb128 0x3
 2215 0763 0A       		.byte	0xa
 2216 0764 0601     		.2byte	0x106
 2217 0766 1A       		.uleb128 0x1a
 2218 0767 01       		.uleb128 0x1
 2219 0768 52       		.byte	0x52
 2220 0769 01       		.uleb128 0x1
 2221 076a 3A       		.byte	0x3a
 2222 076b 1A       		.uleb128 0x1a
 2223 076c 01       		.uleb128 0x1
 2224 076d 53       		.byte	0x53
 2225 076e 03       		.uleb128 0x3
 2226 076f 0A       		.byte	0xa
 2227 0770 1001     		.2byte	0x110
 2228 0772 1A       		.uleb128 0x1a
 2229 0773 02       		.uleb128 0x2
 2230 0774 7D       		.byte	0x7d
 2231 0775 00       		.sleb128 0
 2232 0776 02       		.uleb128 0x2
 2233 0777 08       		.byte	0x8
 2234 0778 FF       		.byte	0xff
 2235 0779 00       		.byte	0
 2236 077a 19       		.uleb128 0x19
ARM GAS  C:\Users\ANDREY~1\AppData\Local\Temp\cc2zgKhH.s 			page 46


 2237 077b 48000000 		.4byte	.LVL3
 2238 077f D6130000 		.4byte	0x13d6
 2239 0783 A8070000 		.4byte	0x7a8
 2240 0787 1A       		.uleb128 0x1a
 2241 0788 01       		.uleb128 0x1
 2242 0789 50       		.byte	0x50
 2243 078a 03       		.uleb128 0x3
 2244 078b 0A       		.byte	0xa
 2245 078c D601     		.2byte	0x1d6
 2246 078e 1A       		.uleb128 0x1a
 2247 078f 01       		.uleb128 0x1
 2248 0790 51       		.byte	0x51
 2249 0791 01       		.uleb128 0x1
 2250 0792 30       		.byte	0x30
 2251 0793 1A       		.uleb128 0x1a
 2252 0794 01       		.uleb128 0x1
 2253 0795 52       		.byte	0x52
 2254 0796 03       		.uleb128 0x3
 2255 0797 0A       		.byte	0xa
 2256 0798 E001     		.2byte	0x1e0
 2257 079a 1A       		.uleb128 0x1a
 2258 079b 01       		.uleb128 0x1
 2259 079c 53       		.byte	0x53
 2260 079d 01       		.uleb128 0x1
 2261 079e 3A       		.byte	0x3a
 2262 079f 1A       		.uleb128 0x1a
 2263 07a0 02       		.uleb128 0x2
 2264 07a1 7D       		.byte	0x7d
 2265 07a2 00       		.sleb128 0
 2266 07a3 03       		.uleb128 0x3
 2267 07a4 0A       		.byte	0xa
 2268 07a5 00FF     		.2byte	0xff00
 2269 07a7 00       		.byte	0
 2270 07a8 19       		.uleb128 0x19
 2271 07a9 60000000 		.4byte	.LVL4
 2272 07ad D6130000 		.4byte	0x13d6
 2273 07b1 DC070000 		.4byte	0x7dc
 2274 07b5 1A       		.uleb128 0x1a
 2275 07b6 01       		.uleb128 0x1
 2276 07b7 50       		.byte	0x50
 2277 07b8 03       		.uleb128 0x3
 2278 07b9 0A       		.byte	0xa
 2279 07ba D601     		.2byte	0x1d6
 2280 07bc 1A       		.uleb128 0x1a
 2281 07bd 01       		.uleb128 0x1
 2282 07be 51       		.byte	0x51
 2283 07bf 03       		.uleb128 0x3
 2284 07c0 0A       		.byte	0xa
 2285 07c1 0601     		.2byte	0x106
 2286 07c3 1A       		.uleb128 0x1a
 2287 07c4 01       		.uleb128 0x1
 2288 07c5 52       		.byte	0x52
 2289 07c6 03       		.uleb128 0x3
 2290 07c7 0A       		.byte	0xa
 2291 07c8 E001     		.2byte	0x1e0
 2292 07ca 1A       		.uleb128 0x1a
 2293 07cb 01       		.uleb128 0x1
ARM GAS  C:\Users\ANDREY~1\AppData\Local\Temp\cc2zgKhH.s 			page 47


 2294 07cc 53       		.byte	0x53
 2295 07cd 03       		.uleb128 0x3
 2296 07ce 0A       		.byte	0xa
 2297 07cf 1001     		.2byte	0x110
 2298 07d1 1A       		.uleb128 0x1a
 2299 07d2 02       		.uleb128 0x2
 2300 07d3 7D       		.byte	0x7d
 2301 07d4 00       		.sleb128 0
 2302 07d5 05       		.uleb128 0x5
 2303 07d6 0C       		.byte	0xc
 2304 07d7 00FFFF00 		.4byte	0xffff00
 2305 07db 00       		.byte	0
 2306 07dc 1B       		.uleb128 0x1b
 2307 07dd 68000000 		.4byte	.LVL5
 2308 07e1 E2130000 		.4byte	0x13e2
 2309 07e5 1A       		.uleb128 0x1a
 2310 07e6 01       		.uleb128 0x1
 2311 07e7 50       		.byte	0x50
 2312 07e8 03       		.uleb128 0x3
 2313 07e9 0A       		.byte	0xa
 2314 07ea 2C01     		.2byte	0x12c
 2315 07ec 00       		.byte	0
 2316 07ed 00       		.byte	0
 2317 07ee 18       		.uleb128 0x18
 2318 07ef CE040000 		.4byte	.LASF105
 2319 07f3 01       		.byte	0x1
 2320 07f4 18       		.byte	0x18
 2321 07f5 00000000 		.4byte	.LFB65
 2322 07f9 64000000 		.4byte	.LFE65-.LFB65
 2323 07fd 01       		.uleb128 0x1
 2324 07fe 9C       		.byte	0x9c
 2325 07ff E4080000 		.4byte	0x8e4
 2326 0803 19       		.uleb128 0x19
 2327 0804 08000000 		.4byte	.LVL6
 2328 0808 CA130000 		.4byte	0x13ca
 2329 080c 16080000 		.4byte	0x816
 2330 0810 1A       		.uleb128 0x1a
 2331 0811 01       		.uleb128 0x1
 2332 0812 50       		.byte	0x50
 2333 0813 01       		.uleb128 0x1
 2334 0814 30       		.byte	0x30
 2335 0815 00       		.byte	0
 2336 0816 19       		.uleb128 0x19
 2337 0817 12000000 		.4byte	.LVL7
 2338 081b ED130000 		.4byte	0x13ed
 2339 081f 38080000 		.4byte	0x838
 2340 0823 1A       		.uleb128 0x1a
 2341 0824 01       		.uleb128 0x1
 2342 0825 50       		.byte	0x50
 2343 0826 02       		.uleb128 0x2
 2344 0827 08       		.byte	0x8
 2345 0828 44       		.byte	0x44
 2346 0829 1A       		.uleb128 0x1a
 2347 082a 01       		.uleb128 0x1
 2348 082b 51       		.byte	0x51
 2349 082c 01       		.uleb128 0x1
 2350 082d 3A       		.byte	0x3a
ARM GAS  C:\Users\ANDREY~1\AppData\Local\Temp\cc2zgKhH.s 			page 48


 2351 082e 1A       		.uleb128 0x1a
 2352 082f 01       		.uleb128 0x1
 2353 0830 52       		.byte	0x52
 2354 0831 05       		.uleb128 0x5
 2355 0832 03       		.byte	0x3
 2356 0833 00000000 		.4byte	.LC0
 2357 0837 00       		.byte	0
 2358 0838 19       		.uleb128 0x19
 2359 0839 1E000000 		.4byte	.LVL8
 2360 083d ED130000 		.4byte	0x13ed
 2361 0841 5B080000 		.4byte	0x85b
 2362 0845 1A       		.uleb128 0x1a
 2363 0846 01       		.uleb128 0x1
 2364 0847 50       		.byte	0x50
 2365 0848 03       		.uleb128 0x3
 2366 0849 0A       		.byte	0xa
 2367 084a 2901     		.2byte	0x129
 2368 084c 1A       		.uleb128 0x1a
 2369 084d 01       		.uleb128 0x1
 2370 084e 51       		.byte	0x51
 2371 084f 01       		.uleb128 0x1
 2372 0850 3A       		.byte	0x3a
 2373 0851 1A       		.uleb128 0x1a
 2374 0852 01       		.uleb128 0x1
 2375 0853 52       		.byte	0x52
 2376 0854 05       		.uleb128 0x5
 2377 0855 03       		.byte	0x3
 2378 0856 0C000000 		.4byte	.LC1
 2379 085a 00       		.byte	0
 2380 085b 19       		.uleb128 0x19
 2381 085c 28000000 		.4byte	.LVL9
 2382 0860 ED130000 		.4byte	0x13ed
 2383 0864 7D080000 		.4byte	0x87d
 2384 0868 1A       		.uleb128 0x1a
 2385 0869 01       		.uleb128 0x1
 2386 086a 50       		.byte	0x50
 2387 086b 01       		.uleb128 0x1
 2388 086c 3A       		.byte	0x3a
 2389 086d 1A       		.uleb128 0x1a
 2390 086e 01       		.uleb128 0x1
 2391 086f 51       		.byte	0x51
 2392 0870 02       		.uleb128 0x2
 2393 0871 08       		.byte	0x8
 2394 0872 C3       		.byte	0xc3
 2395 0873 1A       		.uleb128 0x1a
 2396 0874 01       		.uleb128 0x1
 2397 0875 52       		.byte	0x52
 2398 0876 05       		.uleb128 0x5
 2399 0877 03       		.byte	0x3
 2400 0878 18000000 		.4byte	.LC2
 2401 087c 00       		.byte	0
 2402 087d 19       		.uleb128 0x19
 2403 087e 32000000 		.4byte	.LVL10
 2404 0882 ED130000 		.4byte	0x13ed
 2405 0886 9F080000 		.4byte	0x89f
 2406 088a 1A       		.uleb128 0x1a
 2407 088b 01       		.uleb128 0x1
ARM GAS  C:\Users\ANDREY~1\AppData\Local\Temp\cc2zgKhH.s 			page 49


 2408 088c 50       		.byte	0x50
 2409 088d 01       		.uleb128 0x1
 2410 088e 3A       		.byte	0x3a
 2411 088f 1A       		.uleb128 0x1a
 2412 0890 01       		.uleb128 0x1
 2413 0891 51       		.byte	0x51
 2414 0892 02       		.uleb128 0x2
 2415 0893 08       		.byte	0x8
 2416 0894 F0       		.byte	0xf0
 2417 0895 1A       		.uleb128 0x1a
 2418 0896 01       		.uleb128 0x1
 2419 0897 52       		.byte	0x52
 2420 0898 05       		.uleb128 0x5
 2421 0899 03       		.byte	0x3
 2422 089a 20000000 		.4byte	.LC3
 2423 089e 00       		.byte	0
 2424 089f 19       		.uleb128 0x19
 2425 08a0 3E000000 		.4byte	.LVL11
 2426 08a4 ED130000 		.4byte	0x13ed
 2427 08a8 C3080000 		.4byte	0x8c3
 2428 08ac 1A       		.uleb128 0x1a
 2429 08ad 01       		.uleb128 0x1
 2430 08ae 50       		.byte	0x50
 2431 08af 03       		.uleb128 0x3
 2432 08b0 0A       		.byte	0xa
 2433 08b1 5301     		.2byte	0x153
 2434 08b3 1A       		.uleb128 0x1a
 2435 08b4 01       		.uleb128 0x1
 2436 08b5 51       		.byte	0x51
 2437 08b6 02       		.uleb128 0x2
 2438 08b7 08       		.byte	0x8
 2439 08b8 C3       		.byte	0xc3
 2440 08b9 1A       		.uleb128 0x1a
 2441 08ba 01       		.uleb128 0x1
 2442 08bb 52       		.byte	0x52
 2443 08bc 05       		.uleb128 0x5
 2444 08bd 03       		.byte	0x3
 2445 08be 28000000 		.4byte	.LC4
 2446 08c2 00       		.byte	0
 2447 08c3 1B       		.uleb128 0x1b
 2448 08c4 4A000000 		.4byte	.LVL12
 2449 08c8 ED130000 		.4byte	0x13ed
 2450 08cc 1A       		.uleb128 0x1a
 2451 08cd 01       		.uleb128 0x1
 2452 08ce 50       		.byte	0x50
 2453 08cf 03       		.uleb128 0x3
 2454 08d0 0A       		.byte	0xa
 2455 08d1 2C01     		.2byte	0x12c
 2456 08d3 1A       		.uleb128 0x1a
 2457 08d4 01       		.uleb128 0x1
 2458 08d5 51       		.byte	0x51
 2459 08d6 02       		.uleb128 0x2
 2460 08d7 08       		.byte	0x8
 2461 08d8 F0       		.byte	0xf0
 2462 08d9 1A       		.uleb128 0x1a
 2463 08da 01       		.uleb128 0x1
 2464 08db 52       		.byte	0x52
ARM GAS  C:\Users\ANDREY~1\AppData\Local\Temp\cc2zgKhH.s 			page 50


 2465 08dc 05       		.uleb128 0x5
 2466 08dd 03       		.byte	0x3
 2467 08de 30000000 		.4byte	.LC5
 2468 08e2 00       		.byte	0
 2469 08e3 00       		.byte	0
 2470 08e4 1C       		.uleb128 0x1c
 2471 08e5 99050000 		.4byte	.LASF108
 2472 08e9 01       		.byte	0x1
 2473 08ea 27       		.byte	0x27
 2474 08eb 00000000 		.4byte	.LFB66
 2475 08ef 08010000 		.4byte	.LFE66-.LFB66
 2476 08f3 01       		.uleb128 0x1
 2477 08f4 9C       		.byte	0x9c
 2478 08f5 9E0A0000 		.4byte	0xa9e
 2479 08f9 1D       		.uleb128 0x1d
 2480 08fa 1A030000 		.4byte	.LASF63
 2481 08fe 01       		.byte	0x1
 2482 08ff 27       		.byte	0x27
 2483 0900 EF000000 		.4byte	0xef
 2484 0904 00000000 		.4byte	.LLST0
 2485 0908 1E       		.uleb128 0x1e
 2486 0909 9C010000 		.4byte	.LASF106
 2487 090d 01       		.byte	0x1
 2488 090e 29       		.byte	0x29
 2489 090f 99030000 		.4byte	0x399
 2490 0913 21000000 		.4byte	.LLST1
 2491 0917 1F       		.uleb128 0x1f
 2492 0918 44000000 		.4byte	.LBB2
 2493 091c 9C000000 		.4byte	.LBE2-.LBB2
 2494 0920 2F0A0000 		.4byte	0xa2f
 2495 0924 20       		.uleb128 0x20
 2496 0925 08000000 		.4byte	.LASF107
 2497 0929 01       		.byte	0x1
 2498 092a 35       		.byte	0x35
 2499 092b 9E0A0000 		.4byte	0xa9e
 2500 092f 02       		.uleb128 0x2
 2501 0930 91       		.byte	0x91
 2502 0931 6C       		.sleb128 -20
 2503 0932 19       		.uleb128 0x19
 2504 0933 4E000000 		.4byte	.LVL20
 2505 0937 F9130000 		.4byte	0x13f9
 2506 093b 55090000 		.4byte	0x955
 2507 093f 1A       		.uleb128 0x1a
 2508 0940 01       		.uleb128 0x1
 2509 0941 50       		.byte	0x50
 2510 0942 02       		.uleb128 0x2
 2511 0943 91       		.byte	0x91
 2512 0944 6C       		.sleb128 -20
 2513 0945 1A       		.uleb128 0x1a
 2514 0946 01       		.uleb128 0x1
 2515 0947 51       		.byte	0x51
 2516 0948 05       		.uleb128 0x5
 2517 0949 03       		.byte	0x3
 2518 094a 44000000 		.4byte	.LC7
 2519 094e 1A       		.uleb128 0x1a
 2520 094f 01       		.uleb128 0x1
 2521 0950 52       		.byte	0x52
ARM GAS  C:\Users\ANDREY~1\AppData\Local\Temp\cc2zgKhH.s 			page 51


 2522 0951 02       		.uleb128 0x2
 2523 0952 74       		.byte	0x74
 2524 0953 00       		.sleb128 0
 2525 0954 00       		.byte	0
 2526 0955 19       		.uleb128 0x19
 2527 0956 92000000 		.4byte	.LVL22
 2528 095a D6130000 		.4byte	0x13d6
 2529 095e 81090000 		.4byte	0x981
 2530 0962 1A       		.uleb128 0x1a
 2531 0963 01       		.uleb128 0x1
 2532 0964 50       		.byte	0x50
 2533 0965 01       		.uleb128 0x1
 2534 0966 4E       		.byte	0x4e
 2535 0967 1A       		.uleb128 0x1a
 2536 0968 01       		.uleb128 0x1
 2537 0969 51       		.byte	0x51
 2538 096a 02       		.uleb128 0x2
 2539 096b 08       		.byte	0x8
 2540 096c 23       		.byte	0x23
 2541 096d 1A       		.uleb128 0x1a
 2542 096e 01       		.uleb128 0x1
 2543 096f 52       		.byte	0x52
 2544 0970 02       		.uleb128 0x2
 2545 0971 08       		.byte	0x8
 2546 0972 D2       		.byte	0xd2
 2547 0973 1A       		.uleb128 0x1a
 2548 0974 01       		.uleb128 0x1
 2549 0975 53       		.byte	0x53
 2550 0976 02       		.uleb128 0x2
 2551 0977 08       		.byte	0x8
 2552 0978 AA       		.byte	0xaa
 2553 0979 1A       		.uleb128 0x1a
 2554 097a 02       		.uleb128 0x2
 2555 097b 7D       		.byte	0x7d
 2556 097c 00       		.sleb128 0
 2557 097d 02       		.uleb128 0x2
 2558 097e 74       		.byte	0x74
 2559 097f 00       		.sleb128 0
 2560 0980 00       		.byte	0
 2561 0981 19       		.uleb128 0x19
 2562 0982 A4000000 		.4byte	.LVL23
 2563 0986 04140000 		.4byte	0x1404
 2564 098a AD090000 		.4byte	0x9ad
 2565 098e 1A       		.uleb128 0x1a
 2566 098f 01       		.uleb128 0x1
 2567 0990 50       		.byte	0x50
 2568 0991 02       		.uleb128 0x2
 2569 0992 08       		.byte	0x8
 2570 0993 46       		.byte	0x46
 2571 0994 1A       		.uleb128 0x1a
 2572 0995 01       		.uleb128 0x1
 2573 0996 51       		.byte	0x51
 2574 0997 02       		.uleb128 0x2
 2575 0998 08       		.byte	0x8
 2576 0999 50       		.byte	0x50
 2577 099a 1A       		.uleb128 0x1a
 2578 099b 01       		.uleb128 0x1
ARM GAS  C:\Users\ANDREY~1\AppData\Local\Temp\cc2zgKhH.s 			page 52


 2579 099c 52       		.byte	0x52
 2580 099d 02       		.uleb128 0x2
 2581 099e 91       		.byte	0x91
 2582 099f 6C       		.sleb128 -20
 2583 09a0 1A       		.uleb128 0x1a
 2584 09a1 01       		.uleb128 0x1
 2585 09a2 53       		.byte	0x53
 2586 09a3 01       		.uleb128 0x1
 2587 09a4 30       		.byte	0x30
 2588 09a5 1A       		.uleb128 0x1a
 2589 09a6 02       		.uleb128 0x2
 2590 09a7 7D       		.byte	0x7d
 2591 09a8 00       		.sleb128 0
 2592 09a9 02       		.uleb128 0x2
 2593 09aa 74       		.byte	0x74
 2594 09ab 00       		.sleb128 0
 2595 09ac 00       		.byte	0
 2596 09ad 19       		.uleb128 0x19
 2597 09ae C0000000 		.4byte	.LVL26
 2598 09b2 D6130000 		.4byte	0x13d6
 2599 09b6 D9090000 		.4byte	0x9d9
 2600 09ba 1A       		.uleb128 0x1a
 2601 09bb 01       		.uleb128 0x1
 2602 09bc 50       		.byte	0x50
 2603 09bd 01       		.uleb128 0x1
 2604 09be 4E       		.byte	0x4e
 2605 09bf 1A       		.uleb128 0x1a
 2606 09c0 01       		.uleb128 0x1
 2607 09c1 51       		.byte	0x51
 2608 09c2 02       		.uleb128 0x2
 2609 09c3 08       		.byte	0x8
 2610 09c4 23       		.byte	0x23
 2611 09c5 1A       		.uleb128 0x1a
 2612 09c6 01       		.uleb128 0x1
 2613 09c7 52       		.byte	0x52
 2614 09c8 02       		.uleb128 0x2
 2615 09c9 08       		.byte	0x8
 2616 09ca D2       		.byte	0xd2
 2617 09cb 1A       		.uleb128 0x1a
 2618 09cc 01       		.uleb128 0x1
 2619 09cd 53       		.byte	0x53
 2620 09ce 02       		.uleb128 0x2
 2621 09cf 08       		.byte	0x8
 2622 09d0 AA       		.byte	0xaa
 2623 09d1 1A       		.uleb128 0x1a
 2624 09d2 02       		.uleb128 0x2
 2625 09d3 7D       		.byte	0x7d
 2626 09d4 00       		.sleb128 0
 2627 09d5 02       		.uleb128 0x2
 2628 09d6 74       		.byte	0x74
 2629 09d7 00       		.sleb128 0
 2630 09d8 00       		.byte	0
 2631 09d9 19       		.uleb128 0x19
 2632 09da D2000000 		.4byte	.LVL27
 2633 09de D6130000 		.4byte	0x13d6
 2634 09e2 050A0000 		.4byte	0xa05
 2635 09e6 1A       		.uleb128 0x1a
ARM GAS  C:\Users\ANDREY~1\AppData\Local\Temp\cc2zgKhH.s 			page 53


 2636 09e7 01       		.uleb128 0x1
 2637 09e8 50       		.byte	0x50
 2638 09e9 01       		.uleb128 0x1
 2639 09ea 4E       		.byte	0x4e
 2640 09eb 1A       		.uleb128 0x1a
 2641 09ec 01       		.uleb128 0x1
 2642 09ed 51       		.byte	0x51
 2643 09ee 02       		.uleb128 0x2
 2644 09ef 08       		.byte	0x8
 2645 09f0 23       		.byte	0x23
 2646 09f1 1A       		.uleb128 0x1a
 2647 09f2 01       		.uleb128 0x1
 2648 09f3 52       		.byte	0x52
 2649 09f4 02       		.uleb128 0x2
 2650 09f5 08       		.byte	0x8
 2651 09f6 D2       		.byte	0xd2
 2652 09f7 1A       		.uleb128 0x1a
 2653 09f8 01       		.uleb128 0x1
 2654 09f9 53       		.byte	0x53
 2655 09fa 02       		.uleb128 0x2
 2656 09fb 08       		.byte	0x8
 2657 09fc AA       		.byte	0xaa
 2658 09fd 1A       		.uleb128 0x1a
 2659 09fe 02       		.uleb128 0x2
 2660 09ff 7D       		.byte	0x7d
 2661 0a00 00       		.sleb128 0
 2662 0a01 02       		.uleb128 0x2
 2663 0a02 75       		.byte	0x75
 2664 0a03 00       		.sleb128 0
 2665 0a04 00       		.byte	0
 2666 0a05 1B       		.uleb128 0x1b
 2667 0a06 E0000000 		.4byte	.LVL28
 2668 0a0a 04140000 		.4byte	0x1404
 2669 0a0e 1A       		.uleb128 0x1a
 2670 0a0f 01       		.uleb128 0x1
 2671 0a10 50       		.byte	0x50
 2672 0a11 02       		.uleb128 0x2
 2673 0a12 08       		.byte	0x8
 2674 0a13 5A       		.byte	0x5a
 2675 0a14 1A       		.uleb128 0x1a
 2676 0a15 01       		.uleb128 0x1
 2677 0a16 51       		.byte	0x51
 2678 0a17 02       		.uleb128 0x2
 2679 0a18 08       		.byte	0x8
 2680 0a19 50       		.byte	0x50
 2681 0a1a 1A       		.uleb128 0x1a
 2682 0a1b 01       		.uleb128 0x1
 2683 0a1c 52       		.byte	0x52
 2684 0a1d 02       		.uleb128 0x2
 2685 0a1e 91       		.byte	0x91
 2686 0a1f 6C       		.sleb128 -20
 2687 0a20 1A       		.uleb128 0x1a
 2688 0a21 01       		.uleb128 0x1
 2689 0a22 53       		.byte	0x53
 2690 0a23 02       		.uleb128 0x2
 2691 0a24 74       		.byte	0x74
 2692 0a25 00       		.sleb128 0
ARM GAS  C:\Users\ANDREY~1\AppData\Local\Temp\cc2zgKhH.s 			page 54


 2693 0a26 1A       		.uleb128 0x1a
 2694 0a27 02       		.uleb128 0x2
 2695 0a28 7D       		.byte	0x7d
 2696 0a29 00       		.sleb128 0
 2697 0a2a 02       		.uleb128 0x2
 2698 0a2b 75       		.byte	0x75
 2699 0a2c 00       		.sleb128 0
 2700 0a2d 00       		.byte	0
 2701 0a2e 00       		.byte	0
 2702 0a2f 21       		.uleb128 0x21
 2703 0a30 0C000000 		.4byte	.LVL15
 2704 0a34 10140000 		.4byte	0x1410
 2705 0a38 19       		.uleb128 0x19
 2706 0a39 2C000000 		.4byte	.LVL17
 2707 0a3d D6130000 		.4byte	0x13d6
 2708 0a41 640A0000 		.4byte	0xa64
 2709 0a45 1A       		.uleb128 0x1a
 2710 0a46 01       		.uleb128 0x1
 2711 0a47 50       		.byte	0x50
 2712 0a48 01       		.uleb128 0x1
 2713 0a49 4E       		.byte	0x4e
 2714 0a4a 1A       		.uleb128 0x1a
 2715 0a4b 01       		.uleb128 0x1
 2716 0a4c 51       		.byte	0x51
 2717 0a4d 02       		.uleb128 0x2
 2718 0a4e 08       		.byte	0x8
 2719 0a4f 23       		.byte	0x23
 2720 0a50 1A       		.uleb128 0x1a
 2721 0a51 01       		.uleb128 0x1
 2722 0a52 52       		.byte	0x52
 2723 0a53 02       		.uleb128 0x2
 2724 0a54 08       		.byte	0x8
 2725 0a55 D2       		.byte	0xd2
 2726 0a56 1A       		.uleb128 0x1a
 2727 0a57 01       		.uleb128 0x1
 2728 0a58 53       		.byte	0x53
 2729 0a59 02       		.uleb128 0x2
 2730 0a5a 08       		.byte	0x8
 2731 0a5b AA       		.byte	0xaa
 2732 0a5c 1A       		.uleb128 0x1a
 2733 0a5d 02       		.uleb128 0x2
 2734 0a5e 7D       		.byte	0x7d
 2735 0a5f 00       		.sleb128 0
 2736 0a60 02       		.uleb128 0x2
 2737 0a61 74       		.byte	0x74
 2738 0a62 00       		.sleb128 0
 2739 0a63 00       		.byte	0
 2740 0a64 19       		.uleb128 0x19
 2741 0a65 42000000 		.4byte	.LVL18
 2742 0a69 04140000 		.4byte	0x1404
 2743 0a6d 940A0000 		.4byte	0xa94
 2744 0a71 1A       		.uleb128 0x1a
 2745 0a72 01       		.uleb128 0x1
 2746 0a73 50       		.byte	0x50
 2747 0a74 02       		.uleb128 0x2
 2748 0a75 08       		.byte	0x8
 2749 0a76 37       		.byte	0x37
ARM GAS  C:\Users\ANDREY~1\AppData\Local\Temp\cc2zgKhH.s 			page 55


 2750 0a77 1A       		.uleb128 0x1a
 2751 0a78 01       		.uleb128 0x1
 2752 0a79 51       		.byte	0x51
 2753 0a7a 02       		.uleb128 0x2
 2754 0a7b 08       		.byte	0x8
 2755 0a7c 50       		.byte	0x50
 2756 0a7d 1A       		.uleb128 0x1a
 2757 0a7e 01       		.uleb128 0x1
 2758 0a7f 52       		.byte	0x52
 2759 0a80 05       		.uleb128 0x5
 2760 0a81 03       		.byte	0x3
 2761 0a82 3C000000 		.4byte	.LC6
 2762 0a86 1A       		.uleb128 0x1a
 2763 0a87 01       		.uleb128 0x1
 2764 0a88 53       		.byte	0x53
 2765 0a89 01       		.uleb128 0x1
 2766 0a8a 30       		.byte	0x30
 2767 0a8b 1A       		.uleb128 0x1a
 2768 0a8c 02       		.uleb128 0x2
 2769 0a8d 7D       		.byte	0x7d
 2770 0a8e 00       		.sleb128 0
 2771 0a8f 03       		.uleb128 0x3
 2772 0a90 0A       		.byte	0xa
 2773 0a91 00FF     		.2byte	0xff00
 2774 0a93 00       		.byte	0
 2775 0a94 21       		.uleb128 0x21
 2776 0a95 E6000000 		.4byte	.LVL29
 2777 0a99 10140000 		.4byte	0x1410
 2778 0a9d 00       		.byte	0
 2779 0a9e 16       		.uleb128 0x16
 2780 0a9f 15010000 		.4byte	0x115
 2781 0aa3 AE0A0000 		.4byte	0xaae
 2782 0aa7 17       		.uleb128 0x17
 2783 0aa8 23010000 		.4byte	0x123
 2784 0aac 03       		.byte	0x3
 2785 0aad 00       		.byte	0
 2786 0aae 1C       		.uleb128 0x1c
 2787 0aaf 11050000 		.4byte	.LASF109
 2788 0ab3 01       		.byte	0x1
 2789 0ab4 58       		.byte	0x58
 2790 0ab5 00000000 		.4byte	.LFB67
 2791 0ab9 B4000000 		.4byte	.LFE67-.LFB67
 2792 0abd 01       		.uleb128 0x1
 2793 0abe 9C       		.byte	0x9c
 2794 0abf DE0B0000 		.4byte	0xbde
 2795 0ac3 1D       		.uleb128 0x1d
 2796 0ac4 1A030000 		.4byte	.LASF63
 2797 0ac8 01       		.byte	0x1
 2798 0ac9 58       		.byte	0x58
 2799 0aca EF000000 		.4byte	0xef
 2800 0ace 51000000 		.4byte	.LLST2
 2801 0ad2 1E       		.uleb128 0x1e
 2802 0ad3 9C010000 		.4byte	.LASF106
 2803 0ad7 01       		.byte	0x1
 2804 0ad8 5A       		.byte	0x5a
 2805 0ad9 99030000 		.4byte	0x399
 2806 0add 8B000000 		.4byte	.LLST3
ARM GAS  C:\Users\ANDREY~1\AppData\Local\Temp\cc2zgKhH.s 			page 56


 2807 0ae1 20       		.uleb128 0x20
 2808 0ae2 08000000 		.4byte	.LASF107
 2809 0ae6 01       		.byte	0x1
 2810 0ae7 6D       		.byte	0x6d
 2811 0ae8 9E0A0000 		.4byte	0xa9e
 2812 0aec 02       		.uleb128 0x2
 2813 0aed 91       		.byte	0x91
 2814 0aee 6C       		.sleb128 -20
 2815 0aef 19       		.uleb128 0x19
 2816 0af0 26000000 		.4byte	.LVL33
 2817 0af4 D6130000 		.4byte	0x13d6
 2818 0af8 1D0B0000 		.4byte	0xb1d
 2819 0afc 1A       		.uleb128 0x1a
 2820 0afd 01       		.uleb128 0x1
 2821 0afe 50       		.byte	0x50
 2822 0aff 03       		.uleb128 0x3
 2823 0b00 0A       		.byte	0xa
 2824 0b01 0E01     		.2byte	0x10e
 2825 0b03 1A       		.uleb128 0x1a
 2826 0b04 01       		.uleb128 0x1
 2827 0b05 51       		.byte	0x51
 2828 0b06 02       		.uleb128 0x2
 2829 0b07 08       		.byte	0x8
 2830 0b08 23       		.byte	0x23
 2831 0b09 1A       		.uleb128 0x1a
 2832 0b0a 01       		.uleb128 0x1
 2833 0b0b 52       		.byte	0x52
 2834 0b0c 03       		.uleb128 0x3
 2835 0b0d 0A       		.byte	0xa
 2836 0b0e C201     		.2byte	0x1c2
 2837 0b10 1A       		.uleb128 0x1a
 2838 0b11 01       		.uleb128 0x1
 2839 0b12 53       		.byte	0x53
 2840 0b13 02       		.uleb128 0x2
 2841 0b14 08       		.byte	0x8
 2842 0b15 AA       		.byte	0xaa
 2843 0b16 1A       		.uleb128 0x1a
 2844 0b17 02       		.uleb128 0x2
 2845 0b18 7D       		.byte	0x7d
 2846 0b19 00       		.sleb128 0
 2847 0b1a 01       		.uleb128 0x1
 2848 0b1b 30       		.byte	0x30
 2849 0b1c 00       		.byte	0
 2850 0b1d 19       		.uleb128 0x19
 2851 0b1e 3C000000 		.4byte	.LVL34
 2852 0b22 D6130000 		.4byte	0x13d6
 2853 0b26 4C0B0000 		.4byte	0xb4c
 2854 0b2a 1A       		.uleb128 0x1a
 2855 0b2b 01       		.uleb128 0x1
 2856 0b2c 50       		.byte	0x50
 2857 0b2d 03       		.uleb128 0x3
 2858 0b2e 0A       		.byte	0xa
 2859 0b2f 0E01     		.2byte	0x10e
 2860 0b31 1A       		.uleb128 0x1a
 2861 0b32 01       		.uleb128 0x1
 2862 0b33 51       		.byte	0x51
 2863 0b34 02       		.uleb128 0x2
ARM GAS  C:\Users\ANDREY~1\AppData\Local\Temp\cc2zgKhH.s 			page 57


 2864 0b35 08       		.byte	0x8
 2865 0b36 23       		.byte	0x23
 2866 0b37 1A       		.uleb128 0x1a
 2867 0b38 01       		.uleb128 0x1
 2868 0b39 52       		.byte	0x52
 2869 0b3a 03       		.uleb128 0x3
 2870 0b3b 0A       		.byte	0xa
 2871 0b3c C201     		.2byte	0x1c2
 2872 0b3e 1A       		.uleb128 0x1a
 2873 0b3f 01       		.uleb128 0x1
 2874 0b40 53       		.byte	0x53
 2875 0b41 02       		.uleb128 0x2
 2876 0b42 08       		.byte	0x8
 2877 0b43 AA       		.byte	0xaa
 2878 0b44 1A       		.uleb128 0x1a
 2879 0b45 02       		.uleb128 0x2
 2880 0b46 7D       		.byte	0x7d
 2881 0b47 00       		.sleb128 0
 2882 0b48 02       		.uleb128 0x2
 2883 0b49 74       		.byte	0x74
 2884 0b4a 00       		.sleb128 0
 2885 0b4b 00       		.byte	0
 2886 0b4c 19       		.uleb128 0x19
 2887 0b4d 64000000 		.4byte	.LVL37
 2888 0b51 D6130000 		.4byte	0x13d6
 2889 0b55 7B0B0000 		.4byte	0xb7b
 2890 0b59 1A       		.uleb128 0x1a
 2891 0b5a 01       		.uleb128 0x1
 2892 0b5b 50       		.byte	0x50
 2893 0b5c 03       		.uleb128 0x3
 2894 0b5d 0A       		.byte	0xa
 2895 0b5e 0E01     		.2byte	0x10e
 2896 0b60 1A       		.uleb128 0x1a
 2897 0b61 01       		.uleb128 0x1
 2898 0b62 51       		.byte	0x51
 2899 0b63 02       		.uleb128 0x2
 2900 0b64 08       		.byte	0x8
 2901 0b65 23       		.byte	0x23
 2902 0b66 1A       		.uleb128 0x1a
 2903 0b67 01       		.uleb128 0x1
 2904 0b68 52       		.byte	0x52
 2905 0b69 03       		.uleb128 0x3
 2906 0b6a 0A       		.byte	0xa
 2907 0b6b C201     		.2byte	0x1c2
 2908 0b6d 1A       		.uleb128 0x1a
 2909 0b6e 01       		.uleb128 0x1
 2910 0b6f 53       		.byte	0x53
 2911 0b70 02       		.uleb128 0x2
 2912 0b71 08       		.byte	0x8
 2913 0b72 AA       		.byte	0xaa
 2914 0b73 1A       		.uleb128 0x1a
 2915 0b74 02       		.uleb128 0x2
 2916 0b75 7D       		.byte	0x7d
 2917 0b76 00       		.sleb128 0
 2918 0b77 02       		.uleb128 0x2
 2919 0b78 74       		.byte	0x74
 2920 0b79 00       		.sleb128 0
ARM GAS  C:\Users\ANDREY~1\AppData\Local\Temp\cc2zgKhH.s 			page 58


 2921 0b7a 00       		.byte	0
 2922 0b7b 21       		.uleb128 0x21
 2923 0b7c 6E000000 		.4byte	.LVL38
 2924 0b80 10140000 		.4byte	0x1410
 2925 0b84 19       		.uleb128 0x19
 2926 0b85 78000000 		.4byte	.LVL39
 2927 0b89 F9130000 		.4byte	0x13f9
 2928 0b8d A70B0000 		.4byte	0xba7
 2929 0b91 1A       		.uleb128 0x1a
 2930 0b92 01       		.uleb128 0x1
 2931 0b93 50       		.byte	0x50
 2932 0b94 02       		.uleb128 0x2
 2933 0b95 91       		.byte	0x91
 2934 0b96 6C       		.sleb128 -20
 2935 0b97 1A       		.uleb128 0x1a
 2936 0b98 01       		.uleb128 0x1
 2937 0b99 51       		.byte	0x51
 2938 0b9a 05       		.uleb128 0x5
 2939 0b9b 03       		.byte	0x3
 2940 0b9c 44000000 		.4byte	.LC7
 2941 0ba0 1A       		.uleb128 0x1a
 2942 0ba1 01       		.uleb128 0x1
 2943 0ba2 52       		.byte	0x52
 2944 0ba3 02       		.uleb128 0x2
 2945 0ba4 75       		.byte	0x75
 2946 0ba5 00       		.sleb128 0
 2947 0ba6 00       		.byte	0
 2948 0ba7 19       		.uleb128 0x19
 2949 0ba8 92000000 		.4byte	.LVL40
 2950 0bac 04140000 		.4byte	0x1404
 2951 0bb0 D40B0000 		.4byte	0xbd4
 2952 0bb4 1A       		.uleb128 0x1a
 2953 0bb5 01       		.uleb128 0x1
 2954 0bb6 50       		.byte	0x50
 2955 0bb7 03       		.uleb128 0x3
 2956 0bb8 0A       		.byte	0xa
 2957 0bb9 3601     		.2byte	0x136
 2958 0bbb 1A       		.uleb128 0x1a
 2959 0bbc 01       		.uleb128 0x1
 2960 0bbd 51       		.byte	0x51
 2961 0bbe 02       		.uleb128 0x2
 2962 0bbf 08       		.byte	0x8
 2963 0bc0 50       		.byte	0x50
 2964 0bc1 1A       		.uleb128 0x1a
 2965 0bc2 01       		.uleb128 0x1
 2966 0bc3 52       		.byte	0x52
 2967 0bc4 02       		.uleb128 0x2
 2968 0bc5 91       		.byte	0x91
 2969 0bc6 6C       		.sleb128 -20
 2970 0bc7 1A       		.uleb128 0x1a
 2971 0bc8 01       		.uleb128 0x1
 2972 0bc9 53       		.byte	0x53
 2973 0bca 01       		.uleb128 0x1
 2974 0bcb 30       		.byte	0x30
 2975 0bcc 1A       		.uleb128 0x1a
 2976 0bcd 02       		.uleb128 0x2
 2977 0bce 7D       		.byte	0x7d
ARM GAS  C:\Users\ANDREY~1\AppData\Local\Temp\cc2zgKhH.s 			page 59


 2978 0bcf 00       		.sleb128 0
 2979 0bd0 02       		.uleb128 0x2
 2980 0bd1 74       		.byte	0x74
 2981 0bd2 00       		.sleb128 0
 2982 0bd3 00       		.byte	0
 2983 0bd4 21       		.uleb128 0x21
 2984 0bd5 98000000 		.4byte	.LVL41
 2985 0bd9 10140000 		.4byte	0x1410
 2986 0bdd 00       		.byte	0
 2987 0bde 1C       		.uleb128 0x1c
 2988 0bdf 5B050000 		.4byte	.LASF110
 2989 0be3 01       		.byte	0x1
 2990 0be4 75       		.byte	0x75
 2991 0be5 00000000 		.4byte	.LFB68
 2992 0be9 40020000 		.4byte	.LFE68-.LFB68
 2993 0bed 01       		.uleb128 0x1
 2994 0bee 9C       		.byte	0x9c
 2995 0bef A70F0000 		.4byte	0xfa7
 2996 0bf3 1D       		.uleb128 0x1d
 2997 0bf4 93050000 		.4byte	.LASF56
 2998 0bf8 01       		.byte	0x1
 2999 0bf9 75       		.byte	0x75
 3000 0bfa EF000000 		.4byte	0xef
 3001 0bfe AD000000 		.4byte	.LLST4
 3002 0c02 1E       		.uleb128 0x1e
 3003 0c03 9C010000 		.4byte	.LASF106
 3004 0c07 01       		.byte	0x1
 3005 0c08 76       		.byte	0x76
 3006 0c09 99030000 		.4byte	0x399
 3007 0c0d 7D010000 		.4byte	.LLST5
 3008 0c11 1F       		.uleb128 0x1f
 3009 0c12 0E000000 		.4byte	.LBB3
 3010 0c16 80010000 		.4byte	.LBE3-.LBB3
 3011 0c1a BD0E0000 		.4byte	0xebd
 3012 0c1e 1E       		.uleb128 0x1e
 3013 0c1f 2D060000 		.4byte	.LASF111
 3014 0c23 01       		.byte	0x1
 3015 0c24 7A       		.byte	0x7a
 3016 0c25 EF000000 		.4byte	0xef
 3017 0c29 C1010000 		.4byte	.LLST6
 3018 0c2d 19       		.uleb128 0x19
 3019 0c2e 42000000 		.4byte	.LVL49
 3020 0c32 D6130000 		.4byte	0x13d6
 3021 0c36 5A0C0000 		.4byte	0xc5a
 3022 0c3a 1A       		.uleb128 0x1a
 3023 0c3b 01       		.uleb128 0x1
 3024 0c3c 50       		.byte	0x50
 3025 0c3d 02       		.uleb128 0x2
 3026 0c3e 08       		.byte	0x8
 3027 0c3f 5F       		.byte	0x5f
 3028 0c40 1A       		.uleb128 0x1a
 3029 0c41 01       		.uleb128 0x1
 3030 0c42 51       		.byte	0x51
 3031 0c43 02       		.uleb128 0x2
 3032 0c44 08       		.byte	0x8
 3033 0c45 B9       		.byte	0xb9
 3034 0c46 1A       		.uleb128 0x1a
ARM GAS  C:\Users\ANDREY~1\AppData\Local\Temp\cc2zgKhH.s 			page 60


 3035 0c47 01       		.uleb128 0x1
 3036 0c48 52       		.byte	0x52
 3037 0c49 02       		.uleb128 0x2
 3038 0c4a 08       		.byte	0x8
 3039 0c4b F0       		.byte	0xf0
 3040 0c4c 1A       		.uleb128 0x1a
 3041 0c4d 01       		.uleb128 0x1
 3042 0c4e 53       		.byte	0x53
 3043 0c4f 02       		.uleb128 0x2
 3044 0c50 08       		.byte	0x8
 3045 0c51 D7       		.byte	0xd7
 3046 0c52 1A       		.uleb128 0x1a
 3047 0c53 02       		.uleb128 0x2
 3048 0c54 7D       		.byte	0x7d
 3049 0c55 00       		.sleb128 0
 3050 0c56 02       		.uleb128 0x2
 3051 0c57 74       		.byte	0x74
 3052 0c58 00       		.sleb128 0
 3053 0c59 00       		.byte	0
 3054 0c5a 19       		.uleb128 0x19
 3055 0c5b 58000000 		.4byte	.LVL50
 3056 0c5f 04140000 		.4byte	0x1404
 3057 0c63 8B0C0000 		.4byte	0xc8b
 3058 0c67 1A       		.uleb128 0x1a
 3059 0c68 01       		.uleb128 0x1
 3060 0c69 50       		.byte	0x50
 3061 0c6a 02       		.uleb128 0x2
 3062 0c6b 08       		.byte	0x8
 3063 0c6c 64       		.byte	0x64
 3064 0c6d 1A       		.uleb128 0x1a
 3065 0c6e 01       		.uleb128 0x1
 3066 0c6f 51       		.byte	0x51
 3067 0c70 02       		.uleb128 0x2
 3068 0c71 08       		.byte	0x8
 3069 0c72 C3       		.byte	0xc3
 3070 0c73 1A       		.uleb128 0x1a
 3071 0c74 01       		.uleb128 0x1
 3072 0c75 52       		.byte	0x52
 3073 0c76 05       		.uleb128 0x5
 3074 0c77 03       		.byte	0x3
 3075 0c78 48000000 		.4byte	.LC8
 3076 0c7c 1A       		.uleb128 0x1a
 3077 0c7d 01       		.uleb128 0x1
 3078 0c7e 53       		.byte	0x53
 3079 0c7f 01       		.uleb128 0x1
 3080 0c80 30       		.byte	0x30
 3081 0c81 1A       		.uleb128 0x1a
 3082 0c82 02       		.uleb128 0x2
 3083 0c83 7D       		.byte	0x7d
 3084 0c84 00       		.sleb128 0
 3085 0c85 04       		.uleb128 0x4
 3086 0c86 08       		.byte	0x8
 3087 0c87 FF       		.byte	0xff
 3088 0c88 40       		.byte	0x40
 3089 0c89 24       		.byte	0x24
 3090 0c8a 00       		.byte	0
 3091 0c8b 19       		.uleb128 0x19
ARM GAS  C:\Users\ANDREY~1\AppData\Local\Temp\cc2zgKhH.s 			page 61


 3092 0c8c 76000000 		.4byte	.LVL54
 3093 0c90 D6130000 		.4byte	0x13d6
 3094 0c94 B80C0000 		.4byte	0xcb8
 3095 0c98 1A       		.uleb128 0x1a
 3096 0c99 01       		.uleb128 0x1
 3097 0c9a 50       		.byte	0x50
 3098 0c9b 02       		.uleb128 0x2
 3099 0c9c 08       		.byte	0x8
 3100 0c9d 5F       		.byte	0x5f
 3101 0c9e 1A       		.uleb128 0x1a
 3102 0c9f 01       		.uleb128 0x1
 3103 0ca0 51       		.byte	0x51
 3104 0ca1 02       		.uleb128 0x2
 3105 0ca2 08       		.byte	0x8
 3106 0ca3 B9       		.byte	0xb9
 3107 0ca4 1A       		.uleb128 0x1a
 3108 0ca5 01       		.uleb128 0x1
 3109 0ca6 52       		.byte	0x52
 3110 0ca7 02       		.uleb128 0x2
 3111 0ca8 08       		.byte	0x8
 3112 0ca9 F0       		.byte	0xf0
 3113 0caa 1A       		.uleb128 0x1a
 3114 0cab 01       		.uleb128 0x1
 3115 0cac 53       		.byte	0x53
 3116 0cad 02       		.uleb128 0x2
 3117 0cae 08       		.byte	0x8
 3118 0caf D7       		.byte	0xd7
 3119 0cb0 1A       		.uleb128 0x1a
 3120 0cb1 02       		.uleb128 0x2
 3121 0cb2 7D       		.byte	0x7d
 3122 0cb3 00       		.sleb128 0
 3123 0cb4 02       		.uleb128 0x2
 3124 0cb5 74       		.byte	0x74
 3125 0cb6 00       		.sleb128 0
 3126 0cb7 00       		.byte	0
 3127 0cb8 19       		.uleb128 0x19
 3128 0cb9 8C000000 		.4byte	.LVL55
 3129 0cbd 04140000 		.4byte	0x1404
 3130 0cc1 E90C0000 		.4byte	0xce9
 3131 0cc5 1A       		.uleb128 0x1a
 3132 0cc6 01       		.uleb128 0x1
 3133 0cc7 50       		.byte	0x50
 3134 0cc8 02       		.uleb128 0x2
 3135 0cc9 08       		.byte	0x8
 3136 0cca 64       		.byte	0x64
 3137 0ccb 1A       		.uleb128 0x1a
 3138 0ccc 01       		.uleb128 0x1
 3139 0ccd 51       		.byte	0x51
 3140 0cce 02       		.uleb128 0x2
 3141 0ccf 08       		.byte	0x8
 3142 0cd0 C3       		.byte	0xc3
 3143 0cd1 1A       		.uleb128 0x1a
 3144 0cd2 01       		.uleb128 0x1
 3145 0cd3 52       		.byte	0x52
 3146 0cd4 05       		.uleb128 0x5
 3147 0cd5 03       		.byte	0x3
 3148 0cd6 54000000 		.4byte	.LC9
ARM GAS  C:\Users\ANDREY~1\AppData\Local\Temp\cc2zgKhH.s 			page 62


 3149 0cda 1A       		.uleb128 0x1a
 3150 0cdb 01       		.uleb128 0x1
 3151 0cdc 53       		.byte	0x53
 3152 0cdd 01       		.uleb128 0x1
 3153 0cde 30       		.byte	0x30
 3154 0cdf 1A       		.uleb128 0x1a
 3155 0ce0 02       		.uleb128 0x2
 3156 0ce1 7D       		.byte	0x7d
 3157 0ce2 00       		.sleb128 0
 3158 0ce3 04       		.uleb128 0x4
 3159 0ce4 08       		.byte	0x8
 3160 0ce5 FF       		.byte	0xff
 3161 0ce6 40       		.byte	0x40
 3162 0ce7 24       		.byte	0x24
 3163 0ce8 00       		.byte	0
 3164 0ce9 19       		.uleb128 0x19
 3165 0cea AA000000 		.4byte	.LVL59
 3166 0cee D6130000 		.4byte	0x13d6
 3167 0cf2 160D0000 		.4byte	0xd16
 3168 0cf6 1A       		.uleb128 0x1a
 3169 0cf7 01       		.uleb128 0x1
 3170 0cf8 50       		.byte	0x50
 3171 0cf9 02       		.uleb128 0x2
 3172 0cfa 08       		.byte	0x8
 3173 0cfb 5F       		.byte	0x5f
 3174 0cfc 1A       		.uleb128 0x1a
 3175 0cfd 01       		.uleb128 0x1
 3176 0cfe 51       		.byte	0x51
 3177 0cff 02       		.uleb128 0x2
 3178 0d00 08       		.byte	0x8
 3179 0d01 B9       		.byte	0xb9
 3180 0d02 1A       		.uleb128 0x1a
 3181 0d03 01       		.uleb128 0x1
 3182 0d04 52       		.byte	0x52
 3183 0d05 02       		.uleb128 0x2
 3184 0d06 08       		.byte	0x8
 3185 0d07 F0       		.byte	0xf0
 3186 0d08 1A       		.uleb128 0x1a
 3187 0d09 01       		.uleb128 0x1
 3188 0d0a 53       		.byte	0x53
 3189 0d0b 02       		.uleb128 0x2
 3190 0d0c 08       		.byte	0x8
 3191 0d0d D7       		.byte	0xd7
 3192 0d0e 1A       		.uleb128 0x1a
 3193 0d0f 02       		.uleb128 0x2
 3194 0d10 7D       		.byte	0x7d
 3195 0d11 00       		.sleb128 0
 3196 0d12 02       		.uleb128 0x2
 3197 0d13 74       		.byte	0x74
 3198 0d14 00       		.sleb128 0
 3199 0d15 00       		.byte	0
 3200 0d16 19       		.uleb128 0x19
 3201 0d17 C0000000 		.4byte	.LVL60
 3202 0d1b 04140000 		.4byte	0x1404
 3203 0d1f 470D0000 		.4byte	0xd47
 3204 0d23 1A       		.uleb128 0x1a
 3205 0d24 01       		.uleb128 0x1
ARM GAS  C:\Users\ANDREY~1\AppData\Local\Temp\cc2zgKhH.s 			page 63


 3206 0d25 50       		.byte	0x50
 3207 0d26 02       		.uleb128 0x2
 3208 0d27 08       		.byte	0x8
 3209 0d28 64       		.byte	0x64
 3210 0d29 1A       		.uleb128 0x1a
 3211 0d2a 01       		.uleb128 0x1
 3212 0d2b 51       		.byte	0x51
 3213 0d2c 02       		.uleb128 0x2
 3214 0d2d 08       		.byte	0x8
 3215 0d2e C3       		.byte	0xc3
 3216 0d2f 1A       		.uleb128 0x1a
 3217 0d30 01       		.uleb128 0x1
 3218 0d31 52       		.byte	0x52
 3219 0d32 05       		.uleb128 0x5
 3220 0d33 03       		.byte	0x3
 3221 0d34 60000000 		.4byte	.LC10
 3222 0d38 1A       		.uleb128 0x1a
 3223 0d39 01       		.uleb128 0x1
 3224 0d3a 53       		.byte	0x53
 3225 0d3b 01       		.uleb128 0x1
 3226 0d3c 30       		.byte	0x30
 3227 0d3d 1A       		.uleb128 0x1a
 3228 0d3e 02       		.uleb128 0x2
 3229 0d3f 7D       		.byte	0x7d
 3230 0d40 00       		.sleb128 0
 3231 0d41 04       		.uleb128 0x4
 3232 0d42 08       		.byte	0x8
 3233 0d43 FF       		.byte	0xff
 3234 0d44 40       		.byte	0x40
 3235 0d45 24       		.byte	0x24
 3236 0d46 00       		.byte	0
 3237 0d47 19       		.uleb128 0x19
 3238 0d48 DE000000 		.4byte	.LVL64
 3239 0d4c D6130000 		.4byte	0x13d6
 3240 0d50 740D0000 		.4byte	0xd74
 3241 0d54 1A       		.uleb128 0x1a
 3242 0d55 01       		.uleb128 0x1
 3243 0d56 50       		.byte	0x50
 3244 0d57 02       		.uleb128 0x2
 3245 0d58 08       		.byte	0x8
 3246 0d59 5F       		.byte	0x5f
 3247 0d5a 1A       		.uleb128 0x1a
 3248 0d5b 01       		.uleb128 0x1
 3249 0d5c 51       		.byte	0x51
 3250 0d5d 02       		.uleb128 0x2
 3251 0d5e 08       		.byte	0x8
 3252 0d5f B9       		.byte	0xb9
 3253 0d60 1A       		.uleb128 0x1a
 3254 0d61 01       		.uleb128 0x1
 3255 0d62 52       		.byte	0x52
 3256 0d63 02       		.uleb128 0x2
 3257 0d64 08       		.byte	0x8
 3258 0d65 F0       		.byte	0xf0
 3259 0d66 1A       		.uleb128 0x1a
 3260 0d67 01       		.uleb128 0x1
 3261 0d68 53       		.byte	0x53
 3262 0d69 02       		.uleb128 0x2
ARM GAS  C:\Users\ANDREY~1\AppData\Local\Temp\cc2zgKhH.s 			page 64


 3263 0d6a 08       		.byte	0x8
 3264 0d6b D7       		.byte	0xd7
 3265 0d6c 1A       		.uleb128 0x1a
 3266 0d6d 02       		.uleb128 0x2
 3267 0d6e 7D       		.byte	0x7d
 3268 0d6f 00       		.sleb128 0
 3269 0d70 02       		.uleb128 0x2
 3270 0d71 74       		.byte	0x74
 3271 0d72 00       		.sleb128 0
 3272 0d73 00       		.byte	0
 3273 0d74 19       		.uleb128 0x19
 3274 0d75 F4000000 		.4byte	.LVL65
 3275 0d79 04140000 		.4byte	0x1404
 3276 0d7d A50D0000 		.4byte	0xda5
 3277 0d81 1A       		.uleb128 0x1a
 3278 0d82 01       		.uleb128 0x1
 3279 0d83 50       		.byte	0x50
 3280 0d84 02       		.uleb128 0x2
 3281 0d85 08       		.byte	0x8
 3282 0d86 64       		.byte	0x64
 3283 0d87 1A       		.uleb128 0x1a
 3284 0d88 01       		.uleb128 0x1
 3285 0d89 51       		.byte	0x51
 3286 0d8a 02       		.uleb128 0x2
 3287 0d8b 08       		.byte	0x8
 3288 0d8c C3       		.byte	0xc3
 3289 0d8d 1A       		.uleb128 0x1a
 3290 0d8e 01       		.uleb128 0x1
 3291 0d8f 52       		.byte	0x52
 3292 0d90 05       		.uleb128 0x5
 3293 0d91 03       		.byte	0x3
 3294 0d92 6C000000 		.4byte	.LC11
 3295 0d96 1A       		.uleb128 0x1a
 3296 0d97 01       		.uleb128 0x1
 3297 0d98 53       		.byte	0x53
 3298 0d99 01       		.uleb128 0x1
 3299 0d9a 30       		.byte	0x30
 3300 0d9b 1A       		.uleb128 0x1a
 3301 0d9c 02       		.uleb128 0x2
 3302 0d9d 7D       		.byte	0x7d
 3303 0d9e 00       		.sleb128 0
 3304 0d9f 04       		.uleb128 0x4
 3305 0da0 08       		.byte	0x8
 3306 0da1 FF       		.byte	0xff
 3307 0da2 40       		.byte	0x40
 3308 0da3 24       		.byte	0x24
 3309 0da4 00       		.byte	0
 3310 0da5 19       		.uleb128 0x19
 3311 0da6 12010000 		.4byte	.LVL69
 3312 0daa D6130000 		.4byte	0x13d6
 3313 0dae D20D0000 		.4byte	0xdd2
 3314 0db2 1A       		.uleb128 0x1a
 3315 0db3 01       		.uleb128 0x1
 3316 0db4 50       		.byte	0x50
 3317 0db5 02       		.uleb128 0x2
 3318 0db6 08       		.byte	0x8
 3319 0db7 5F       		.byte	0x5f
ARM GAS  C:\Users\ANDREY~1\AppData\Local\Temp\cc2zgKhH.s 			page 65


 3320 0db8 1A       		.uleb128 0x1a
 3321 0db9 01       		.uleb128 0x1
 3322 0dba 51       		.byte	0x51
 3323 0dbb 02       		.uleb128 0x2
 3324 0dbc 08       		.byte	0x8
 3325 0dbd B9       		.byte	0xb9
 3326 0dbe 1A       		.uleb128 0x1a
 3327 0dbf 01       		.uleb128 0x1
 3328 0dc0 52       		.byte	0x52
 3329 0dc1 02       		.uleb128 0x2
 3330 0dc2 08       		.byte	0x8
 3331 0dc3 F0       		.byte	0xf0
 3332 0dc4 1A       		.uleb128 0x1a
 3333 0dc5 01       		.uleb128 0x1
 3334 0dc6 53       		.byte	0x53
 3335 0dc7 02       		.uleb128 0x2
 3336 0dc8 08       		.byte	0x8
 3337 0dc9 D7       		.byte	0xd7
 3338 0dca 1A       		.uleb128 0x1a
 3339 0dcb 02       		.uleb128 0x2
 3340 0dcc 7D       		.byte	0x7d
 3341 0dcd 00       		.sleb128 0
 3342 0dce 02       		.uleb128 0x2
 3343 0dcf 74       		.byte	0x74
 3344 0dd0 00       		.sleb128 0
 3345 0dd1 00       		.byte	0
 3346 0dd2 19       		.uleb128 0x19
 3347 0dd3 28010000 		.4byte	.LVL70
 3348 0dd7 04140000 		.4byte	0x1404
 3349 0ddb 030E0000 		.4byte	0xe03
 3350 0ddf 1A       		.uleb128 0x1a
 3351 0de0 01       		.uleb128 0x1
 3352 0de1 50       		.byte	0x50
 3353 0de2 02       		.uleb128 0x2
 3354 0de3 08       		.byte	0x8
 3355 0de4 64       		.byte	0x64
 3356 0de5 1A       		.uleb128 0x1a
 3357 0de6 01       		.uleb128 0x1
 3358 0de7 51       		.byte	0x51
 3359 0de8 02       		.uleb128 0x2
 3360 0de9 08       		.byte	0x8
 3361 0dea C3       		.byte	0xc3
 3362 0deb 1A       		.uleb128 0x1a
 3363 0dec 01       		.uleb128 0x1
 3364 0ded 52       		.byte	0x52
 3365 0dee 05       		.uleb128 0x5
 3366 0def 03       		.byte	0x3
 3367 0df0 78000000 		.4byte	.LC12
 3368 0df4 1A       		.uleb128 0x1a
 3369 0df5 01       		.uleb128 0x1
 3370 0df6 53       		.byte	0x53
 3371 0df7 01       		.uleb128 0x1
 3372 0df8 30       		.byte	0x30
 3373 0df9 1A       		.uleb128 0x1a
 3374 0dfa 02       		.uleb128 0x2
 3375 0dfb 7D       		.byte	0x7d
 3376 0dfc 00       		.sleb128 0
ARM GAS  C:\Users\ANDREY~1\AppData\Local\Temp\cc2zgKhH.s 			page 66


 3377 0dfd 04       		.uleb128 0x4
 3378 0dfe 08       		.byte	0x8
 3379 0dff FF       		.byte	0xff
 3380 0e00 40       		.byte	0x40
 3381 0e01 24       		.byte	0x24
 3382 0e02 00       		.byte	0
 3383 0e03 19       		.uleb128 0x19
 3384 0e04 44010000 		.4byte	.LVL74
 3385 0e08 D6130000 		.4byte	0x13d6
 3386 0e0c 300E0000 		.4byte	0xe30
 3387 0e10 1A       		.uleb128 0x1a
 3388 0e11 01       		.uleb128 0x1
 3389 0e12 50       		.byte	0x50
 3390 0e13 02       		.uleb128 0x2
 3391 0e14 08       		.byte	0x8
 3392 0e15 5F       		.byte	0x5f
 3393 0e16 1A       		.uleb128 0x1a
 3394 0e17 01       		.uleb128 0x1
 3395 0e18 51       		.byte	0x51
 3396 0e19 02       		.uleb128 0x2
 3397 0e1a 08       		.byte	0x8
 3398 0e1b B9       		.byte	0xb9
 3399 0e1c 1A       		.uleb128 0x1a
 3400 0e1d 01       		.uleb128 0x1
 3401 0e1e 52       		.byte	0x52
 3402 0e1f 02       		.uleb128 0x2
 3403 0e20 08       		.byte	0x8
 3404 0e21 F0       		.byte	0xf0
 3405 0e22 1A       		.uleb128 0x1a
 3406 0e23 01       		.uleb128 0x1
 3407 0e24 53       		.byte	0x53
 3408 0e25 02       		.uleb128 0x2
 3409 0e26 08       		.byte	0x8
 3410 0e27 D7       		.byte	0xd7
 3411 0e28 1A       		.uleb128 0x1a
 3412 0e29 02       		.uleb128 0x2
 3413 0e2a 7D       		.byte	0x7d
 3414 0e2b 00       		.sleb128 0
 3415 0e2c 02       		.uleb128 0x2
 3416 0e2d 74       		.byte	0x74
 3417 0e2e 00       		.sleb128 0
 3418 0e2f 00       		.byte	0
 3419 0e30 19       		.uleb128 0x19
 3420 0e31 58010000 		.4byte	.LVL75
 3421 0e35 04140000 		.4byte	0x1404
 3422 0e39 620E0000 		.4byte	0xe62
 3423 0e3d 1A       		.uleb128 0x1a
 3424 0e3e 01       		.uleb128 0x1
 3425 0e3f 50       		.byte	0x50
 3426 0e40 02       		.uleb128 0x2
 3427 0e41 08       		.byte	0x8
 3428 0e42 64       		.byte	0x64
 3429 0e43 1A       		.uleb128 0x1a
 3430 0e44 01       		.uleb128 0x1
 3431 0e45 51       		.byte	0x51
 3432 0e46 02       		.uleb128 0x2
 3433 0e47 08       		.byte	0x8
ARM GAS  C:\Users\ANDREY~1\AppData\Local\Temp\cc2zgKhH.s 			page 67


 3434 0e48 C3       		.byte	0xc3
 3435 0e49 1A       		.uleb128 0x1a
 3436 0e4a 01       		.uleb128 0x1
 3437 0e4b 52       		.byte	0x52
 3438 0e4c 05       		.uleb128 0x5
 3439 0e4d 03       		.byte	0x3
 3440 0e4e 84000000 		.4byte	.LC13
 3441 0e52 1A       		.uleb128 0x1a
 3442 0e53 01       		.uleb128 0x1
 3443 0e54 53       		.byte	0x53
 3444 0e55 01       		.uleb128 0x1
 3445 0e56 30       		.byte	0x30
 3446 0e57 1A       		.uleb128 0x1a
 3447 0e58 02       		.uleb128 0x2
 3448 0e59 7D       		.byte	0x7d
 3449 0e5a 00       		.sleb128 0
 3450 0e5b 05       		.uleb128 0x5
 3451 0e5c 0C       		.byte	0xc
 3452 0e5d 00FFFF00 		.4byte	0xffff00
 3453 0e61 00       		.byte	0
 3454 0e62 19       		.uleb128 0x19
 3455 0e63 76010000 		.4byte	.LVL79
 3456 0e67 D6130000 		.4byte	0x13d6
 3457 0e6b 8F0E0000 		.4byte	0xe8f
 3458 0e6f 1A       		.uleb128 0x1a
 3459 0e70 01       		.uleb128 0x1
 3460 0e71 50       		.byte	0x50
 3461 0e72 02       		.uleb128 0x2
 3462 0e73 08       		.byte	0x8
 3463 0e74 5F       		.byte	0x5f
 3464 0e75 1A       		.uleb128 0x1a
 3465 0e76 01       		.uleb128 0x1
 3466 0e77 51       		.byte	0x51
 3467 0e78 02       		.uleb128 0x2
 3468 0e79 08       		.byte	0x8
 3469 0e7a B9       		.byte	0xb9
 3470 0e7b 1A       		.uleb128 0x1a
 3471 0e7c 01       		.uleb128 0x1
 3472 0e7d 52       		.byte	0x52
 3473 0e7e 02       		.uleb128 0x2
 3474 0e7f 08       		.byte	0x8
 3475 0e80 F0       		.byte	0xf0
 3476 0e81 1A       		.uleb128 0x1a
 3477 0e82 01       		.uleb128 0x1
 3478 0e83 53       		.byte	0x53
 3479 0e84 02       		.uleb128 0x2
 3480 0e85 08       		.byte	0x8
 3481 0e86 D7       		.byte	0xd7
 3482 0e87 1A       		.uleb128 0x1a
 3483 0e88 02       		.uleb128 0x2
 3484 0e89 7D       		.byte	0x7d
 3485 0e8a 00       		.sleb128 0
 3486 0e8b 02       		.uleb128 0x2
 3487 0e8c 74       		.byte	0x74
 3488 0e8d 00       		.sleb128 0
 3489 0e8e 00       		.byte	0
 3490 0e8f 1B       		.uleb128 0x1b
ARM GAS  C:\Users\ANDREY~1\AppData\Local\Temp\cc2zgKhH.s 			page 68


 3491 0e90 8C010000 		.4byte	.LVL80
 3492 0e94 04140000 		.4byte	0x1404
 3493 0e98 1A       		.uleb128 0x1a
 3494 0e99 01       		.uleb128 0x1
 3495 0e9a 50       		.byte	0x50
 3496 0e9b 02       		.uleb128 0x2
 3497 0e9c 08       		.byte	0x8
 3498 0e9d 64       		.byte	0x64
 3499 0e9e 1A       		.uleb128 0x1a
 3500 0e9f 01       		.uleb128 0x1
 3501 0ea0 51       		.byte	0x51
 3502 0ea1 02       		.uleb128 0x2
 3503 0ea2 08       		.byte	0x8
 3504 0ea3 C3       		.byte	0xc3
 3505 0ea4 1A       		.uleb128 0x1a
 3506 0ea5 01       		.uleb128 0x1
 3507 0ea6 52       		.byte	0x52
 3508 0ea7 05       		.uleb128 0x5
 3509 0ea8 03       		.byte	0x3
 3510 0ea9 90000000 		.4byte	.LC14
 3511 0ead 1A       		.uleb128 0x1a
 3512 0eae 01       		.uleb128 0x1
 3513 0eaf 53       		.byte	0x53
 3514 0eb0 01       		.uleb128 0x1
 3515 0eb1 30       		.byte	0x30
 3516 0eb2 1A       		.uleb128 0x1a
 3517 0eb3 02       		.uleb128 0x2
 3518 0eb4 7D       		.byte	0x7d
 3519 0eb5 00       		.sleb128 0
 3520 0eb6 04       		.uleb128 0x4
 3521 0eb7 08       		.byte	0x8
 3522 0eb8 FF       		.byte	0xff
 3523 0eb9 40       		.byte	0x40
 3524 0eba 24       		.byte	0x24
 3525 0ebb 00       		.byte	0
 3526 0ebc 00       		.byte	0
 3527 0ebd 19       		.uleb128 0x19
 3528 0ebe AA010000 		.4byte	.LVL83
 3529 0ec2 D6130000 		.4byte	0x13d6
 3530 0ec6 EA0E0000 		.4byte	0xeea
 3531 0eca 1A       		.uleb128 0x1a
 3532 0ecb 01       		.uleb128 0x1
 3533 0ecc 50       		.byte	0x50
 3534 0ecd 02       		.uleb128 0x2
 3535 0ece 08       		.byte	0x8
 3536 0ecf 5F       		.byte	0x5f
 3537 0ed0 1A       		.uleb128 0x1a
 3538 0ed1 01       		.uleb128 0x1
 3539 0ed2 51       		.byte	0x51
 3540 0ed3 02       		.uleb128 0x2
 3541 0ed4 08       		.byte	0x8
 3542 0ed5 B9       		.byte	0xb9
 3543 0ed6 1A       		.uleb128 0x1a
 3544 0ed7 01       		.uleb128 0x1
 3545 0ed8 52       		.byte	0x52
 3546 0ed9 02       		.uleb128 0x2
 3547 0eda 08       		.byte	0x8
ARM GAS  C:\Users\ANDREY~1\AppData\Local\Temp\cc2zgKhH.s 			page 69


 3548 0edb F0       		.byte	0xf0
 3549 0edc 1A       		.uleb128 0x1a
 3550 0edd 01       		.uleb128 0x1
 3551 0ede 53       		.byte	0x53
 3552 0edf 02       		.uleb128 0x2
 3553 0ee0 08       		.byte	0x8
 3554 0ee1 D7       		.byte	0xd7
 3555 0ee2 1A       		.uleb128 0x1a
 3556 0ee3 02       		.uleb128 0x2
 3557 0ee4 7D       		.byte	0x7d
 3558 0ee5 00       		.sleb128 0
 3559 0ee6 02       		.uleb128 0x2
 3560 0ee7 75       		.byte	0x75
 3561 0ee8 00       		.sleb128 0
 3562 0ee9 00       		.byte	0
 3563 0eea 19       		.uleb128 0x19
 3564 0eeb CC010000 		.4byte	.LVL84
 3565 0eef 04140000 		.4byte	0x1404
 3566 0ef3 1A0F0000 		.4byte	0xf1a
 3567 0ef7 1A       		.uleb128 0x1a
 3568 0ef8 01       		.uleb128 0x1
 3569 0ef9 50       		.byte	0x50
 3570 0efa 02       		.uleb128 0x2
 3571 0efb 08       		.byte	0x8
 3572 0efc 64       		.byte	0x64
 3573 0efd 1A       		.uleb128 0x1a
 3574 0efe 01       		.uleb128 0x1
 3575 0eff 51       		.byte	0x51
 3576 0f00 02       		.uleb128 0x2
 3577 0f01 08       		.byte	0x8
 3578 0f02 C3       		.byte	0xc3
 3579 0f03 1A       		.uleb128 0x1a
 3580 0f04 01       		.uleb128 0x1
 3581 0f05 52       		.byte	0x52
 3582 0f06 05       		.uleb128 0x5
 3583 0f07 03       		.byte	0x3
 3584 0f08 9C000000 		.4byte	.LC15
 3585 0f0c 1A       		.uleb128 0x1a
 3586 0f0d 01       		.uleb128 0x1
 3587 0f0e 53       		.byte	0x53
 3588 0f0f 01       		.uleb128 0x1
 3589 0f10 30       		.byte	0x30
 3590 0f11 1A       		.uleb128 0x1a
 3591 0f12 02       		.uleb128 0x2
 3592 0f13 7D       		.byte	0x7d
 3593 0f14 00       		.sleb128 0
 3594 0f15 03       		.uleb128 0x3
 3595 0f16 0A       		.byte	0xa
 3596 0f17 00FF     		.2byte	0xff00
 3597 0f19 00       		.byte	0
 3598 0f1a 19       		.uleb128 0x19
 3599 0f1b E0010000 		.4byte	.LVL85
 3600 0f1f 04140000 		.4byte	0x1404
 3601 0f23 4A0F0000 		.4byte	0xf4a
 3602 0f27 1A       		.uleb128 0x1a
 3603 0f28 01       		.uleb128 0x1
 3604 0f29 50       		.byte	0x50
ARM GAS  C:\Users\ANDREY~1\AppData\Local\Temp\cc2zgKhH.s 			page 70


 3605 0f2a 02       		.uleb128 0x2
 3606 0f2b 08       		.byte	0x8
 3607 0f2c 64       		.byte	0x64
 3608 0f2d 1A       		.uleb128 0x1a
 3609 0f2e 01       		.uleb128 0x1
 3610 0f2f 51       		.byte	0x51
 3611 0f30 02       		.uleb128 0x2
 3612 0f31 08       		.byte	0x8
 3613 0f32 C3       		.byte	0xc3
 3614 0f33 1A       		.uleb128 0x1a
 3615 0f34 01       		.uleb128 0x1
 3616 0f35 52       		.byte	0x52
 3617 0f36 05       		.uleb128 0x5
 3618 0f37 03       		.byte	0x3
 3619 0f38 A8000000 		.4byte	.LC16
 3620 0f3c 1A       		.uleb128 0x1a
 3621 0f3d 01       		.uleb128 0x1
 3622 0f3e 53       		.byte	0x53
 3623 0f3f 01       		.uleb128 0x1
 3624 0f40 30       		.byte	0x30
 3625 0f41 1A       		.uleb128 0x1a
 3626 0f42 02       		.uleb128 0x2
 3627 0f43 7D       		.byte	0x7d
 3628 0f44 00       		.sleb128 0
 3629 0f45 03       		.uleb128 0x3
 3630 0f46 0A       		.byte	0xa
 3631 0f47 00FF     		.2byte	0xff00
 3632 0f49 00       		.byte	0
 3633 0f4a 19       		.uleb128 0x19
 3634 0f4b F4010000 		.4byte	.LVL86
 3635 0f4f 04140000 		.4byte	0x1404
 3636 0f53 7A0F0000 		.4byte	0xf7a
 3637 0f57 1A       		.uleb128 0x1a
 3638 0f58 01       		.uleb128 0x1
 3639 0f59 50       		.byte	0x50
 3640 0f5a 02       		.uleb128 0x2
 3641 0f5b 08       		.byte	0x8
 3642 0f5c 64       		.byte	0x64
 3643 0f5d 1A       		.uleb128 0x1a
 3644 0f5e 01       		.uleb128 0x1
 3645 0f5f 51       		.byte	0x51
 3646 0f60 02       		.uleb128 0x2
 3647 0f61 08       		.byte	0x8
 3648 0f62 C3       		.byte	0xc3
 3649 0f63 1A       		.uleb128 0x1a
 3650 0f64 01       		.uleb128 0x1
 3651 0f65 52       		.byte	0x52
 3652 0f66 05       		.uleb128 0x5
 3653 0f67 03       		.byte	0x3
 3654 0f68 B4000000 		.4byte	.LC17
 3655 0f6c 1A       		.uleb128 0x1a
 3656 0f6d 01       		.uleb128 0x1
 3657 0f6e 53       		.byte	0x53
 3658 0f6f 01       		.uleb128 0x1
 3659 0f70 30       		.byte	0x30
 3660 0f71 1A       		.uleb128 0x1a
 3661 0f72 02       		.uleb128 0x2
ARM GAS  C:\Users\ANDREY~1\AppData\Local\Temp\cc2zgKhH.s 			page 71


 3662 0f73 7D       		.byte	0x7d
 3663 0f74 00       		.sleb128 0
 3664 0f75 03       		.uleb128 0x3
 3665 0f76 0A       		.byte	0xa
 3666 0f77 00FF     		.2byte	0xff00
 3667 0f79 00       		.byte	0
 3668 0f7a 1B       		.uleb128 0x1b
 3669 0f7b 08020000 		.4byte	.LVL87
 3670 0f7f 04140000 		.4byte	0x1404
 3671 0f83 1A       		.uleb128 0x1a
 3672 0f84 01       		.uleb128 0x1
 3673 0f85 50       		.byte	0x50
 3674 0f86 02       		.uleb128 0x2
 3675 0f87 08       		.byte	0x8
 3676 0f88 64       		.byte	0x64
 3677 0f89 1A       		.uleb128 0x1a
 3678 0f8a 01       		.uleb128 0x1
 3679 0f8b 51       		.byte	0x51
 3680 0f8c 02       		.uleb128 0x2
 3681 0f8d 08       		.byte	0x8
 3682 0f8e C3       		.byte	0xc3
 3683 0f8f 1A       		.uleb128 0x1a
 3684 0f90 01       		.uleb128 0x1
 3685 0f91 52       		.byte	0x52
 3686 0f92 05       		.uleb128 0x5
 3687 0f93 03       		.byte	0x3
 3688 0f94 C0000000 		.4byte	.LC18
 3689 0f98 1A       		.uleb128 0x1a
 3690 0f99 01       		.uleb128 0x1
 3691 0f9a 53       		.byte	0x53
 3692 0f9b 01       		.uleb128 0x1
 3693 0f9c 30       		.byte	0x30
 3694 0f9d 1A       		.uleb128 0x1a
 3695 0f9e 02       		.uleb128 0x2
 3696 0f9f 7D       		.byte	0x7d
 3697 0fa0 00       		.sleb128 0
 3698 0fa1 03       		.uleb128 0x3
 3699 0fa2 0A       		.byte	0xa
 3700 0fa3 00FF     		.2byte	0xff00
 3701 0fa5 00       		.byte	0
 3702 0fa6 00       		.byte	0
 3703 0fa7 1C       		.uleb128 0x1c
 3704 0fa8 9C020000 		.4byte	.LASF112
 3705 0fac 01       		.byte	0x1
 3706 0fad D6       		.byte	0xd6
 3707 0fae 00000000 		.4byte	.LFB69
 3708 0fb2 DC000000 		.4byte	.LFE69-.LFB69
 3709 0fb6 01       		.uleb128 0x1
 3710 0fb7 9C       		.byte	0x9c
 3711 0fb8 66100000 		.4byte	0x1066
 3712 0fbc 1D       		.uleb128 0x1d
 3713 0fbd 1A030000 		.4byte	.LASF63
 3714 0fc1 01       		.byte	0x1
 3715 0fc2 D6       		.byte	0xd6
 3716 0fc3 FB000000 		.4byte	0xfb
 3717 0fc7 9F020000 		.4byte	.LLST7
 3718 0fcb 1E       		.uleb128 0x1e
ARM GAS  C:\Users\ANDREY~1\AppData\Local\Temp\cc2zgKhH.s 			page 72


 3719 0fcc 9C010000 		.4byte	.LASF106
 3720 0fd0 01       		.byte	0x1
 3721 0fd1 DA       		.byte	0xda
 3722 0fd2 99030000 		.4byte	0x399
 3723 0fd6 E5020000 		.4byte	.LLST8
 3724 0fda 20       		.uleb128 0x20
 3725 0fdb 08000000 		.4byte	.LASF107
 3726 0fdf 01       		.byte	0x1
 3727 0fe0 E9       		.byte	0xe9
 3728 0fe1 66100000 		.4byte	0x1066
 3729 0fe5 02       		.uleb128 0x2
 3730 0fe6 91       		.byte	0x91
 3731 0fe7 68       		.sleb128 -24
 3732 0fe8 19       		.uleb128 0x19
 3733 0fe9 64000000 		.4byte	.LVL94
 3734 0fed D6130000 		.4byte	0x13d6
 3735 0ff1 16100000 		.4byte	0x1016
 3736 0ff5 1A       		.uleb128 0x1a
 3737 0ff6 01       		.uleb128 0x1
 3738 0ff7 50       		.byte	0x50
 3739 0ff8 02       		.uleb128 0x2
 3740 0ff9 08       		.byte	0x8
 3741 0ffa 5F       		.byte	0x5f
 3742 0ffb 1A       		.uleb128 0x1a
 3743 0ffc 01       		.uleb128 0x1
 3744 0ffd 51       		.byte	0x51
 3745 0ffe 02       		.uleb128 0x2
 3746 0fff 08       		.byte	0x8
 3747 1000 E6       		.byte	0xe6
 3748 1001 1A       		.uleb128 0x1a
 3749 1002 01       		.uleb128 0x1
 3750 1003 52       		.byte	0x52
 3751 1004 02       		.uleb128 0x2
 3752 1005 08       		.byte	0x8
 3753 1006 B6       		.byte	0xb6
 3754 1007 1A       		.uleb128 0x1a
 3755 1008 01       		.uleb128 0x1
 3756 1009 53       		.byte	0x53
 3757 100a 03       		.uleb128 0x3
 3758 100b 0A       		.byte	0xa
 3759 100c 0401     		.2byte	0x104
 3760 100e 1A       		.uleb128 0x1a
 3761 100f 02       		.uleb128 0x2
 3762 1010 7D       		.byte	0x7d
 3763 1011 00       		.sleb128 0
 3764 1012 02       		.uleb128 0x2
 3765 1013 75       		.byte	0x75
 3766 1014 00       		.sleb128 0
 3767 1015 00       		.byte	0
 3768 1016 19       		.uleb128 0x19
 3769 1017 72000000 		.4byte	.LVL95
 3770 101b F9130000 		.4byte	0x13f9
 3771 101f 3D100000 		.4byte	0x103d
 3772 1023 1A       		.uleb128 0x1a
 3773 1024 01       		.uleb128 0x1
 3774 1025 50       		.byte	0x50
 3775 1026 02       		.uleb128 0x2
ARM GAS  C:\Users\ANDREY~1\AppData\Local\Temp\cc2zgKhH.s 			page 73


 3776 1027 91       		.byte	0x91
 3777 1028 68       		.sleb128 -24
 3778 1029 1A       		.uleb128 0x1a
 3779 102a 01       		.uleb128 0x1
 3780 102b 51       		.byte	0x51
 3781 102c 05       		.uleb128 0x5
 3782 102d 03       		.byte	0x3
 3783 102e 44000000 		.4byte	.LC7
 3784 1032 1A       		.uleb128 0x1a
 3785 1033 01       		.uleb128 0x1
 3786 1034 52       		.byte	0x52
 3787 1035 06       		.uleb128 0x6
 3788 1036 74       		.byte	0x74
 3789 1037 00       		.sleb128 0
 3790 1038 0A       		.byte	0xa
 3791 1039 FFFF     		.2byte	0xffff
 3792 103b 1A       		.byte	0x1a
 3793 103c 00       		.byte	0
 3794 103d 1B       		.uleb128 0x1b
 3795 103e C4000000 		.4byte	.LVL96
 3796 1042 04140000 		.4byte	0x1404
 3797 1046 1A       		.uleb128 0x1a
 3798 1047 01       		.uleb128 0x1
 3799 1048 50       		.byte	0x50
 3800 1049 02       		.uleb128 0x2
 3801 104a 08       		.byte	0x8
 3802 104b 64       		.byte	0x64
 3803 104c 1A       		.uleb128 0x1a
 3804 104d 01       		.uleb128 0x1
 3805 104e 51       		.byte	0x51
 3806 104f 02       		.uleb128 0x2
 3807 1050 08       		.byte	0x8
 3808 1051 F0       		.byte	0xf0
 3809 1052 1A       		.uleb128 0x1a
 3810 1053 01       		.uleb128 0x1
 3811 1054 52       		.byte	0x52
 3812 1055 02       		.uleb128 0x2
 3813 1056 91       		.byte	0x91
 3814 1057 68       		.sleb128 -24
 3815 1058 1A       		.uleb128 0x1a
 3816 1059 01       		.uleb128 0x1
 3817 105a 53       		.byte	0x53
 3818 105b 01       		.uleb128 0x1
 3819 105c 30       		.byte	0x30
 3820 105d 1A       		.uleb128 0x1a
 3821 105e 02       		.uleb128 0x2
 3822 105f 7D       		.byte	0x7d
 3823 1060 00       		.sleb128 0
 3824 1061 02       		.uleb128 0x2
 3825 1062 75       		.byte	0x75
 3826 1063 00       		.sleb128 0
 3827 1064 00       		.byte	0
 3828 1065 00       		.byte	0
 3829 1066 16       		.uleb128 0x16
 3830 1067 15010000 		.4byte	0x115
 3831 106b 76100000 		.4byte	0x1076
 3832 106f 17       		.uleb128 0x17
ARM GAS  C:\Users\ANDREY~1\AppData\Local\Temp\cc2zgKhH.s 			page 74


 3833 1070 23010000 		.4byte	0x123
 3834 1074 06       		.byte	0x6
 3835 1075 00       		.byte	0
 3836 1076 1C       		.uleb128 0x1c
 3837 1077 F1040000 		.4byte	.LASF113
 3838 107b 01       		.byte	0x1
 3839 107c FC       		.byte	0xfc
 3840 107d 00000000 		.4byte	.LFB70
 3841 1081 88000000 		.4byte	.LFE70-.LFB70
 3842 1085 01       		.uleb128 0x1
 3843 1086 9C       		.byte	0x9c
 3844 1087 C7110000 		.4byte	0x11c7
 3845 108b 1D       		.uleb128 0x1d
 3846 108c 1A030000 		.4byte	.LASF63
 3847 1090 01       		.byte	0x1
 3848 1091 FC       		.byte	0xfc
 3849 1092 EF000000 		.4byte	0xef
 3850 1096 F8020000 		.4byte	.LLST9
 3851 109a 1F       		.uleb128 0x1f
 3852 109b 0A000000 		.4byte	.LBB4
 3853 109f 3A000000 		.4byte	.LBE4-.LBB4
 3854 10a3 32110000 		.4byte	0x1132
 3855 10a7 22       		.uleb128 0x22
 3856 10a8 08000000 		.4byte	.LASF107
 3857 10ac 01       		.byte	0x1
 3858 10ad 0001     		.2byte	0x100
 3859 10af C7110000 		.4byte	0x11c7
 3860 10b3 02       		.uleb128 0x2
 3861 10b4 91       		.byte	0x91
 3862 10b5 68       		.sleb128 -24
 3863 10b6 19       		.uleb128 0x19
 3864 10b7 20000000 		.4byte	.LVL100
 3865 10bb D6130000 		.4byte	0x13d6
 3866 10bf E5100000 		.4byte	0x10e5
 3867 10c3 1A       		.uleb128 0x1a
 3868 10c4 01       		.uleb128 0x1
 3869 10c5 50       		.byte	0x50
 3870 10c6 03       		.uleb128 0x3
 3871 10c7 0A       		.byte	0xa
 3872 10c8 9A01     		.2byte	0x19a
 3873 10ca 1A       		.uleb128 0x1a
 3874 10cb 01       		.uleb128 0x1
 3875 10cc 51       		.byte	0x51
 3876 10cd 02       		.uleb128 0x2
 3877 10ce 08       		.byte	0x8
 3878 10cf B9       		.byte	0xb9
 3879 10d0 1A       		.uleb128 0x1a
 3880 10d1 01       		.uleb128 0x1
 3881 10d2 52       		.byte	0x52
 3882 10d3 03       		.uleb128 0x3
 3883 10d4 0A       		.byte	0xa
 3884 10d5 D601     		.2byte	0x1d6
 3885 10d7 1A       		.uleb128 0x1a
 3886 10d8 01       		.uleb128 0x1
 3887 10d9 53       		.byte	0x53
 3888 10da 02       		.uleb128 0x2
 3889 10db 08       		.byte	0x8
ARM GAS  C:\Users\ANDREY~1\AppData\Local\Temp\cc2zgKhH.s 			page 75


 3890 10dc D7       		.byte	0xd7
 3891 10dd 1A       		.uleb128 0x1a
 3892 10de 02       		.uleb128 0x2
 3893 10df 7D       		.byte	0x7d
 3894 10e0 00       		.sleb128 0
 3895 10e1 02       		.uleb128 0x2
 3896 10e2 75       		.byte	0x75
 3897 10e3 00       		.sleb128 0
 3898 10e4 00       		.byte	0
 3899 10e5 19       		.uleb128 0x19
 3900 10e6 2A000000 		.4byte	.LVL101
 3901 10ea F9130000 		.4byte	0x13f9
 3902 10ee 08110000 		.4byte	0x1108
 3903 10f2 1A       		.uleb128 0x1a
 3904 10f3 01       		.uleb128 0x1
 3905 10f4 50       		.byte	0x50
 3906 10f5 02       		.uleb128 0x2
 3907 10f6 91       		.byte	0x91
 3908 10f7 68       		.sleb128 -24
 3909 10f8 1A       		.uleb128 0x1a
 3910 10f9 01       		.uleb128 0x1
 3911 10fa 51       		.byte	0x51
 3912 10fb 05       		.uleb128 0x5
 3913 10fc 03       		.byte	0x3
 3914 10fd 44000000 		.4byte	.LC7
 3915 1101 1A       		.uleb128 0x1a
 3916 1102 01       		.uleb128 0x1
 3917 1103 52       		.byte	0x52
 3918 1104 02       		.uleb128 0x2
 3919 1105 74       		.byte	0x74
 3920 1106 00       		.sleb128 0
 3921 1107 00       		.byte	0
 3922 1108 1B       		.uleb128 0x1b
 3923 1109 44000000 		.4byte	.LVL102
 3924 110d 04140000 		.4byte	0x1404
 3925 1111 1A       		.uleb128 0x1a
 3926 1112 01       		.uleb128 0x1
 3927 1113 50       		.byte	0x50
 3928 1114 03       		.uleb128 0x3
 3929 1115 0A       		.byte	0xa
 3930 1116 9F01     		.2byte	0x19f
 3931 1118 1A       		.uleb128 0x1a
 3932 1119 01       		.uleb128 0x1
 3933 111a 51       		.byte	0x51
 3934 111b 02       		.uleb128 0x2
 3935 111c 08       		.byte	0x8
 3936 111d C3       		.byte	0xc3
 3937 111e 1A       		.uleb128 0x1a
 3938 111f 01       		.uleb128 0x1
 3939 1120 52       		.byte	0x52
 3940 1121 02       		.uleb128 0x2
 3941 1122 91       		.byte	0x91
 3942 1123 68       		.sleb128 -24
 3943 1124 1A       		.uleb128 0x1a
 3944 1125 01       		.uleb128 0x1
 3945 1126 53       		.byte	0x53
 3946 1127 01       		.uleb128 0x1
ARM GAS  C:\Users\ANDREY~1\AppData\Local\Temp\cc2zgKhH.s 			page 76


 3947 1128 30       		.byte	0x30
 3948 1129 1A       		.uleb128 0x1a
 3949 112a 02       		.uleb128 0x2
 3950 112b 7D       		.byte	0x7d
 3951 112c 00       		.sleb128 0
 3952 112d 02       		.uleb128 0x2
 3953 112e 75       		.byte	0x75
 3954 112f 00       		.sleb128 0
 3955 1130 00       		.byte	0
 3956 1131 00       		.byte	0
 3957 1132 23       		.uleb128 0x23
 3958 1133 46000000 		.4byte	.LBB5
 3959 1137 3A000000 		.4byte	.LBE5-.LBB5
 3960 113b 22       		.uleb128 0x22
 3961 113c 08000000 		.4byte	.LASF107
 3962 1140 01       		.byte	0x1
 3963 1141 0801     		.2byte	0x108
 3964 1143 9E0A0000 		.4byte	0xa9e
 3965 1147 02       		.uleb128 0x2
 3966 1148 91       		.byte	0x91
 3967 1149 68       		.sleb128 -24
 3968 114a 19       		.uleb128 0x19
 3969 114b 5C000000 		.4byte	.LVL105
 3970 114f D6130000 		.4byte	0x13d6
 3971 1153 79110000 		.4byte	0x1179
 3972 1157 1A       		.uleb128 0x1a
 3973 1158 01       		.uleb128 0x1
 3974 1159 50       		.byte	0x50
 3975 115a 03       		.uleb128 0x3
 3976 115b 0A       		.byte	0xa
 3977 115c 9A01     		.2byte	0x19a
 3978 115e 1A       		.uleb128 0x1a
 3979 115f 01       		.uleb128 0x1
 3980 1160 51       		.byte	0x51
 3981 1161 02       		.uleb128 0x2
 3982 1162 08       		.byte	0x8
 3983 1163 B9       		.byte	0xb9
 3984 1164 1A       		.uleb128 0x1a
 3985 1165 01       		.uleb128 0x1
 3986 1166 52       		.byte	0x52
 3987 1167 03       		.uleb128 0x3
 3988 1168 0A       		.byte	0xa
 3989 1169 D601     		.2byte	0x1d6
 3990 116b 1A       		.uleb128 0x1a
 3991 116c 01       		.uleb128 0x1
 3992 116d 53       		.byte	0x53
 3993 116e 02       		.uleb128 0x2
 3994 116f 08       		.byte	0x8
 3995 1170 D7       		.byte	0xd7
 3996 1171 1A       		.uleb128 0x1a
 3997 1172 02       		.uleb128 0x2
 3998 1173 7D       		.byte	0x7d
 3999 1174 00       		.sleb128 0
 4000 1175 02       		.uleb128 0x2
 4001 1176 75       		.byte	0x75
 4002 1177 00       		.sleb128 0
 4003 1178 00       		.byte	0
ARM GAS  C:\Users\ANDREY~1\AppData\Local\Temp\cc2zgKhH.s 			page 77


 4004 1179 19       		.uleb128 0x19
 4005 117a 66000000 		.4byte	.LVL106
 4006 117e F9130000 		.4byte	0x13f9
 4007 1182 9C110000 		.4byte	0x119c
 4008 1186 1A       		.uleb128 0x1a
 4009 1187 01       		.uleb128 0x1
 4010 1188 50       		.byte	0x50
 4011 1189 02       		.uleb128 0x2
 4012 118a 91       		.byte	0x91
 4013 118b 68       		.sleb128 -24
 4014 118c 1A       		.uleb128 0x1a
 4015 118d 01       		.uleb128 0x1
 4016 118e 51       		.byte	0x51
 4017 118f 05       		.uleb128 0x5
 4018 1190 03       		.byte	0x3
 4019 1191 44000000 		.4byte	.LC7
 4020 1195 1A       		.uleb128 0x1a
 4021 1196 01       		.uleb128 0x1
 4022 1197 52       		.byte	0x52
 4023 1198 02       		.uleb128 0x2
 4024 1199 74       		.byte	0x74
 4025 119a 00       		.sleb128 0
 4026 119b 00       		.byte	0
 4027 119c 1B       		.uleb128 0x1b
 4028 119d 80000000 		.4byte	.LVL107
 4029 11a1 04140000 		.4byte	0x1404
 4030 11a5 1A       		.uleb128 0x1a
 4031 11a6 01       		.uleb128 0x1
 4032 11a7 50       		.byte	0x50
 4033 11a8 03       		.uleb128 0x3
 4034 11a9 0A       		.byte	0xa
 4035 11aa A601     		.2byte	0x1a6
 4036 11ac 1A       		.uleb128 0x1a
 4037 11ad 01       		.uleb128 0x1
 4038 11ae 51       		.byte	0x51
 4039 11af 02       		.uleb128 0x2
 4040 11b0 08       		.byte	0x8
 4041 11b1 C3       		.byte	0xc3
 4042 11b2 1A       		.uleb128 0x1a
 4043 11b3 01       		.uleb128 0x1
 4044 11b4 52       		.byte	0x52
 4045 11b5 02       		.uleb128 0x2
 4046 11b6 91       		.byte	0x91
 4047 11b7 68       		.sleb128 -24
 4048 11b8 1A       		.uleb128 0x1a
 4049 11b9 01       		.uleb128 0x1
 4050 11ba 53       		.byte	0x53
 4051 11bb 01       		.uleb128 0x1
 4052 11bc 30       		.byte	0x30
 4053 11bd 1A       		.uleb128 0x1a
 4054 11be 02       		.uleb128 0x2
 4055 11bf 7D       		.byte	0x7d
 4056 11c0 00       		.sleb128 0
 4057 11c1 02       		.uleb128 0x2
 4058 11c2 75       		.byte	0x75
 4059 11c3 00       		.sleb128 0
 4060 11c4 00       		.byte	0
ARM GAS  C:\Users\ANDREY~1\AppData\Local\Temp\cc2zgKhH.s 			page 78


 4061 11c5 00       		.byte	0
 4062 11c6 00       		.byte	0
 4063 11c7 16       		.uleb128 0x16
 4064 11c8 15010000 		.4byte	0x115
 4065 11cc D7110000 		.4byte	0x11d7
 4066 11d0 17       		.uleb128 0x17
 4067 11d1 23010000 		.4byte	0x123
 4068 11d5 04       		.byte	0x4
 4069 11d6 00       		.byte	0
 4070 11d7 24       		.uleb128 0x24
 4071 11d8 95040000 		.4byte	.LASF114
 4072 11dc 01       		.byte	0x1
 4073 11dd 1001     		.2byte	0x110
 4074 11df 00000000 		.4byte	.LFB71
 4075 11e3 8C000000 		.4byte	.LFE71-.LFB71
 4076 11e7 01       		.uleb128 0x1
 4077 11e8 9C       		.byte	0x9c
 4078 11e9 2C130000 		.4byte	0x132c
 4079 11ed 25       		.uleb128 0x25
 4080 11ee 1A030000 		.4byte	.LASF63
 4081 11f2 01       		.byte	0x1
 4082 11f3 1001     		.2byte	0x110
 4083 11f5 EF000000 		.4byte	0xef
 4084 11f9 32030000 		.4byte	.LLST10
 4085 11fd 1F       		.uleb128 0x1f
 4086 11fe 0A000000 		.4byte	.LBB6
 4087 1202 3C000000 		.4byte	.LBE6-.LBB6
 4088 1206 96120000 		.4byte	0x1296
 4089 120a 22       		.uleb128 0x22
 4090 120b 08000000 		.4byte	.LASF107
 4091 120f 01       		.byte	0x1
 4092 1210 1401     		.2byte	0x114
 4093 1212 C7110000 		.4byte	0x11c7
 4094 1216 02       		.uleb128 0x2
 4095 1217 91       		.byte	0x91
 4096 1218 68       		.sleb128 -24
 4097 1219 19       		.uleb128 0x19
 4098 121a 22000000 		.4byte	.LVL110
 4099 121e D6130000 		.4byte	0x13d6
 4100 1222 49120000 		.4byte	0x1249
 4101 1226 1A       		.uleb128 0x1a
 4102 1227 01       		.uleb128 0x1
 4103 1228 50       		.byte	0x50
 4104 1229 03       		.uleb128 0x3
 4105 122a 0A       		.byte	0xa
 4106 122b 9A01     		.2byte	0x19a
 4107 122d 1A       		.uleb128 0x1a
 4108 122e 01       		.uleb128 0x1
 4109 122f 51       		.byte	0x51
 4110 1230 02       		.uleb128 0x2
 4111 1231 08       		.byte	0x8
 4112 1232 E6       		.byte	0xe6
 4113 1233 1A       		.uleb128 0x1a
 4114 1234 01       		.uleb128 0x1
 4115 1235 52       		.byte	0x52
 4116 1236 03       		.uleb128 0x3
 4117 1237 0A       		.byte	0xa
ARM GAS  C:\Users\ANDREY~1\AppData\Local\Temp\cc2zgKhH.s 			page 79


 4118 1238 D601     		.2byte	0x1d6
 4119 123a 1A       		.uleb128 0x1a
 4120 123b 01       		.uleb128 0x1
 4121 123c 53       		.byte	0x53
 4122 123d 03       		.uleb128 0x3
 4123 123e 0A       		.byte	0xa
 4124 123f 0401     		.2byte	0x104
 4125 1241 1A       		.uleb128 0x1a
 4126 1242 02       		.uleb128 0x2
 4127 1243 7D       		.byte	0x7d
 4128 1244 00       		.sleb128 0
 4129 1245 02       		.uleb128 0x2
 4130 1246 75       		.byte	0x75
 4131 1247 00       		.sleb128 0
 4132 1248 00       		.byte	0
 4133 1249 19       		.uleb128 0x19
 4134 124a 2C000000 		.4byte	.LVL111
 4135 124e F9130000 		.4byte	0x13f9
 4136 1252 6C120000 		.4byte	0x126c
 4137 1256 1A       		.uleb128 0x1a
 4138 1257 01       		.uleb128 0x1
 4139 1258 50       		.byte	0x50
 4140 1259 02       		.uleb128 0x2
 4141 125a 91       		.byte	0x91
 4142 125b 68       		.sleb128 -24
 4143 125c 1A       		.uleb128 0x1a
 4144 125d 01       		.uleb128 0x1
 4145 125e 51       		.byte	0x51
 4146 125f 05       		.uleb128 0x5
 4147 1260 03       		.byte	0x3
 4148 1261 44000000 		.4byte	.LC7
 4149 1265 1A       		.uleb128 0x1a
 4150 1266 01       		.uleb128 0x1
 4151 1267 52       		.byte	0x52
 4152 1268 02       		.uleb128 0x2
 4153 1269 74       		.byte	0x74
 4154 126a 00       		.sleb128 0
 4155 126b 00       		.byte	0
 4156 126c 1B       		.uleb128 0x1b
 4157 126d 46000000 		.4byte	.LVL112
 4158 1271 04140000 		.4byte	0x1404
 4159 1275 1A       		.uleb128 0x1a
 4160 1276 01       		.uleb128 0x1
 4161 1277 50       		.byte	0x50
 4162 1278 03       		.uleb128 0x3
 4163 1279 0A       		.byte	0xa
 4164 127a 9F01     		.2byte	0x19f
 4165 127c 1A       		.uleb128 0x1a
 4166 127d 01       		.uleb128 0x1
 4167 127e 51       		.byte	0x51
 4168 127f 02       		.uleb128 0x2
 4169 1280 08       		.byte	0x8
 4170 1281 F0       		.byte	0xf0
 4171 1282 1A       		.uleb128 0x1a
 4172 1283 01       		.uleb128 0x1
 4173 1284 52       		.byte	0x52
 4174 1285 02       		.uleb128 0x2
ARM GAS  C:\Users\ANDREY~1\AppData\Local\Temp\cc2zgKhH.s 			page 80


 4175 1286 91       		.byte	0x91
 4176 1287 68       		.sleb128 -24
 4177 1288 1A       		.uleb128 0x1a
 4178 1289 01       		.uleb128 0x1
 4179 128a 53       		.byte	0x53
 4180 128b 01       		.uleb128 0x1
 4181 128c 30       		.byte	0x30
 4182 128d 1A       		.uleb128 0x1a
 4183 128e 02       		.uleb128 0x2
 4184 128f 7D       		.byte	0x7d
 4185 1290 00       		.sleb128 0
 4186 1291 02       		.uleb128 0x2
 4187 1292 75       		.byte	0x75
 4188 1293 00       		.sleb128 0
 4189 1294 00       		.byte	0
 4190 1295 00       		.byte	0
 4191 1296 23       		.uleb128 0x23
 4192 1297 48000000 		.4byte	.LBB7
 4193 129b 3C000000 		.4byte	.LBE7-.LBB7
 4194 129f 22       		.uleb128 0x22
 4195 12a0 08000000 		.4byte	.LASF107
 4196 12a4 01       		.byte	0x1
 4197 12a5 1C01     		.2byte	0x11c
 4198 12a7 9E0A0000 		.4byte	0xa9e
 4199 12ab 02       		.uleb128 0x2
 4200 12ac 91       		.byte	0x91
 4201 12ad 68       		.sleb128 -24
 4202 12ae 19       		.uleb128 0x19
 4203 12af 60000000 		.4byte	.LVL115
 4204 12b3 D6130000 		.4byte	0x13d6
 4205 12b7 DE120000 		.4byte	0x12de
 4206 12bb 1A       		.uleb128 0x1a
 4207 12bc 01       		.uleb128 0x1
 4208 12bd 50       		.byte	0x50
 4209 12be 03       		.uleb128 0x3
 4210 12bf 0A       		.byte	0xa
 4211 12c0 9A01     		.2byte	0x19a
 4212 12c2 1A       		.uleb128 0x1a
 4213 12c3 01       		.uleb128 0x1
 4214 12c4 51       		.byte	0x51
 4215 12c5 02       		.uleb128 0x2
 4216 12c6 08       		.byte	0x8
 4217 12c7 E6       		.byte	0xe6
 4218 12c8 1A       		.uleb128 0x1a
 4219 12c9 01       		.uleb128 0x1
 4220 12ca 52       		.byte	0x52
 4221 12cb 03       		.uleb128 0x3
 4222 12cc 0A       		.byte	0xa
 4223 12cd D601     		.2byte	0x1d6
 4224 12cf 1A       		.uleb128 0x1a
 4225 12d0 01       		.uleb128 0x1
 4226 12d1 53       		.byte	0x53
 4227 12d2 03       		.uleb128 0x3
 4228 12d3 0A       		.byte	0xa
 4229 12d4 0401     		.2byte	0x104
 4230 12d6 1A       		.uleb128 0x1a
 4231 12d7 02       		.uleb128 0x2
ARM GAS  C:\Users\ANDREY~1\AppData\Local\Temp\cc2zgKhH.s 			page 81


 4232 12d8 7D       		.byte	0x7d
 4233 12d9 00       		.sleb128 0
 4234 12da 02       		.uleb128 0x2
 4235 12db 75       		.byte	0x75
 4236 12dc 00       		.sleb128 0
 4237 12dd 00       		.byte	0
 4238 12de 19       		.uleb128 0x19
 4239 12df 6A000000 		.4byte	.LVL116
 4240 12e3 F9130000 		.4byte	0x13f9
 4241 12e7 01130000 		.4byte	0x1301
 4242 12eb 1A       		.uleb128 0x1a
 4243 12ec 01       		.uleb128 0x1
 4244 12ed 50       		.byte	0x50
 4245 12ee 02       		.uleb128 0x2
 4246 12ef 91       		.byte	0x91
 4247 12f0 68       		.sleb128 -24
 4248 12f1 1A       		.uleb128 0x1a
 4249 12f2 01       		.uleb128 0x1
 4250 12f3 51       		.byte	0x51
 4251 12f4 05       		.uleb128 0x5
 4252 12f5 03       		.byte	0x3
 4253 12f6 44000000 		.4byte	.LC7
 4254 12fa 1A       		.uleb128 0x1a
 4255 12fb 01       		.uleb128 0x1
 4256 12fc 52       		.byte	0x52
 4257 12fd 02       		.uleb128 0x2
 4258 12fe 74       		.byte	0x74
 4259 12ff 00       		.sleb128 0
 4260 1300 00       		.byte	0
 4261 1301 1B       		.uleb128 0x1b
 4262 1302 84000000 		.4byte	.LVL117
 4263 1306 04140000 		.4byte	0x1404
 4264 130a 1A       		.uleb128 0x1a
 4265 130b 01       		.uleb128 0x1
 4266 130c 50       		.byte	0x50
 4267 130d 03       		.uleb128 0x3
 4268 130e 0A       		.byte	0xa
 4269 130f A601     		.2byte	0x1a6
 4270 1311 1A       		.uleb128 0x1a
 4271 1312 01       		.uleb128 0x1
 4272 1313 51       		.byte	0x51
 4273 1314 02       		.uleb128 0x2
 4274 1315 08       		.byte	0x8
 4275 1316 F0       		.byte	0xf0
 4276 1317 1A       		.uleb128 0x1a
 4277 1318 01       		.uleb128 0x1
 4278 1319 52       		.byte	0x52
 4279 131a 02       		.uleb128 0x2
 4280 131b 91       		.byte	0x91
 4281 131c 68       		.sleb128 -24
 4282 131d 1A       		.uleb128 0x1a
 4283 131e 01       		.uleb128 0x1
 4284 131f 53       		.byte	0x53
 4285 1320 01       		.uleb128 0x1
 4286 1321 30       		.byte	0x30
 4287 1322 1A       		.uleb128 0x1a
 4288 1323 02       		.uleb128 0x2
ARM GAS  C:\Users\ANDREY~1\AppData\Local\Temp\cc2zgKhH.s 			page 82


 4289 1324 7D       		.byte	0x7d
 4290 1325 00       		.sleb128 0
 4291 1326 02       		.uleb128 0x2
 4292 1327 75       		.byte	0x75
 4293 1328 00       		.sleb128 0
 4294 1329 00       		.byte	0
 4295 132a 00       		.byte	0
 4296 132b 00       		.byte	0
 4297 132c 26       		.uleb128 0x26
 4298 132d 88040000 		.4byte	.LASF115
 4299 1331 08       		.byte	0x8
 4300 1332 5506     		.2byte	0x655
 4301 1334 38130000 		.4byte	0x1338
 4302 1338 27       		.uleb128 0x27
 4303 1339 D9000000 		.4byte	0xd9
 4304 133d 28       		.uleb128 0x28
 4305 133e 32010000 		.4byte	.LASF116
 4306 1342 07       		.byte	0x7
 4307 1343 51       		.byte	0x51
 4308 1344 EA030000 		.4byte	0x3ea
 4309 1348 28       		.uleb128 0x28
 4310 1349 FE040000 		.4byte	.LASF117
 4311 134d 07       		.byte	0x7
 4312 134e 60       		.byte	0x60
 4313 134f EA030000 		.4byte	0x3ea
 4314 1353 29       		.uleb128 0x29
 4315 1354 2D040000 		.4byte	.LASF118
 4316 1358 09       		.byte	0x9
 4317 1359 33       		.byte	0x33
 4318 135a EA060000 		.4byte	0x6ea
 4319 135e 05       		.uleb128 0x5
 4320 135f 03       		.byte	0x3
 4321 1360 00000000 		.4byte	gui1963
 4322 1364 29       		.uleb128 0x29
 4323 1365 62020000 		.4byte	.LASF119
 4324 1369 0A       		.byte	0xa
 4325 136a 0F       		.byte	0xf
 4326 136b 99030000 		.4byte	0x399
 4327 136f 05       		.uleb128 0x5
 4328 1370 03       		.byte	0x3
 4329 1371 00000000 		.4byte	last_SOC_color
 4330 1375 29       		.uleb128 0x29
 4331 1376 4E030000 		.4byte	.LASF120
 4332 137a 0A       		.byte	0xa
 4333 137b 10       		.byte	0x10
 4334 137c 99030000 		.4byte	0x399
 4335 1380 05       		.uleb128 0x5
 4336 1381 03       		.byte	0x3
 4337 1382 00000000 		.4byte	last_max_pack_temp_color
 4338 1386 29       		.uleb128 0x29
 4339 1387 64040000 		.4byte	.LASF121
 4340 138b 0A       		.byte	0xa
 4341 138c 11       		.byte	0x11
 4342 138d 99030000 		.4byte	0x399
 4343 1391 05       		.uleb128 0x5
 4344 1392 03       		.byte	0x3
 4345 1393 00000000 		.4byte	last_state_color
ARM GAS  C:\Users\ANDREY~1\AppData\Local\Temp\cc2zgKhH.s 			page 83


 4346 1397 29       		.uleb128 0x29
 4347 1398 24050000 		.4byte	.LASF122
 4348 139c 0A       		.byte	0xa
 4349 139d 12       		.byte	0x12
 4350 139e 99030000 		.4byte	0x399
 4351 13a2 05       		.uleb128 0x5
 4352 13a3 03       		.byte	0x3
 4353 13a4 00000000 		.4byte	last_glv_v_color
 4354 13a8 29       		.uleb128 0x29
 4355 13a9 7A050000 		.4byte	.LASF123
 4356 13ad 0A       		.byte	0xa
 4357 13ae 13       		.byte	0x13
 4358 13af 99030000 		.4byte	0x399
 4359 13b3 05       		.uleb128 0x5
 4360 13b4 03       		.byte	0x3
 4361 13b5 00000000 		.4byte	last_mc_temp_color
 4362 13b9 29       		.uleb128 0x29
 4363 13ba A7020000 		.4byte	.LASF124
 4364 13be 0A       		.byte	0xa
 4365 13bf 14       		.byte	0x14
 4366 13c0 99030000 		.4byte	0x399
 4367 13c4 05       		.uleb128 0x5
 4368 13c5 03       		.byte	0x3
 4369 13c6 00000000 		.4byte	last_motor_temp_color
 4370 13ca 2A       		.uleb128 0x2a
 4371 13cb 54020000 		.4byte	.LASF125
 4372 13cf 54020000 		.4byte	.LASF125
 4373 13d3 07       		.byte	0x7
 4374 13d4 EC02     		.2byte	0x2ec
 4375 13d6 2A       		.uleb128 0x2a
 4376 13d7 BE000000 		.4byte	.LASF126
 4377 13db BE000000 		.4byte	.LASF126
 4378 13df 07       		.byte	0x7
 4379 13e0 ED02     		.2byte	0x2ed
 4380 13e2 2B       		.uleb128 0x2b
 4381 13e3 00000000 		.4byte	.LASF127
 4382 13e7 00000000 		.4byte	.LASF127
 4383 13eb 0B       		.byte	0xb
 4384 13ec 77       		.byte	0x77
 4385 13ed 2A       		.uleb128 0x2a
 4386 13ee C3030000 		.4byte	.LASF128
 4387 13f2 C3030000 		.4byte	.LASF128
 4388 13f6 07       		.byte	0x7
 4389 13f7 F702     		.2byte	0x2f7
 4390 13f9 2B       		.uleb128 0x2b
 4391 13fa 99030000 		.4byte	.LASF129
 4392 13fe 99030000 		.4byte	.LASF129
 4393 1402 0C       		.byte	0xc
 4394 1403 E7       		.byte	0xe7
 4395 1404 2A       		.uleb128 0x2a
 4396 1405 30020000 		.4byte	.LASF130
 4397 1409 30020000 		.4byte	.LASF130
 4398 140d 07       		.byte	0x7
 4399 140e F802     		.2byte	0x2f8
 4400 1410 2A       		.uleb128 0x2a
 4401 1411 F4050000 		.4byte	.LASF131
 4402 1415 F4050000 		.4byte	.LASF131
ARM GAS  C:\Users\ANDREY~1\AppData\Local\Temp\cc2zgKhH.s 			page 84


 4403 1419 07       		.byte	0x7
 4404 141a EB02     		.2byte	0x2eb
 4405 141c 00       		.byte	0
 4406              		.section	.debug_abbrev,"",%progbits
 4407              	.Ldebug_abbrev0:
 4408 0000 01       		.uleb128 0x1
 4409 0001 11       		.uleb128 0x11
 4410 0002 01       		.byte	0x1
 4411 0003 25       		.uleb128 0x25
 4412 0004 0E       		.uleb128 0xe
 4413 0005 13       		.uleb128 0x13
 4414 0006 0B       		.uleb128 0xb
 4415 0007 03       		.uleb128 0x3
 4416 0008 0E       		.uleb128 0xe
 4417 0009 1B       		.uleb128 0x1b
 4418 000a 0E       		.uleb128 0xe
 4419 000b 55       		.uleb128 0x55
 4420 000c 17       		.uleb128 0x17
 4421 000d 11       		.uleb128 0x11
 4422 000e 01       		.uleb128 0x1
 4423 000f 10       		.uleb128 0x10
 4424 0010 17       		.uleb128 0x17
 4425 0011 00       		.byte	0
 4426 0012 00       		.byte	0
 4427 0013 02       		.uleb128 0x2
 4428 0014 16       		.uleb128 0x16
 4429 0015 00       		.byte	0
 4430 0016 03       		.uleb128 0x3
 4431 0017 0E       		.uleb128 0xe
 4432 0018 3A       		.uleb128 0x3a
 4433 0019 0B       		.uleb128 0xb
 4434 001a 3B       		.uleb128 0x3b
 4435 001b 0B       		.uleb128 0xb
 4436 001c 49       		.uleb128 0x49
 4437 001d 13       		.uleb128 0x13
 4438 001e 00       		.byte	0
 4439 001f 00       		.byte	0
 4440 0020 03       		.uleb128 0x3
 4441 0021 24       		.uleb128 0x24
 4442 0022 00       		.byte	0
 4443 0023 0B       		.uleb128 0xb
 4444 0024 0B       		.uleb128 0xb
 4445 0025 3E       		.uleb128 0x3e
 4446 0026 0B       		.uleb128 0xb
 4447 0027 03       		.uleb128 0x3
 4448 0028 0E       		.uleb128 0xe
 4449 0029 00       		.byte	0
 4450 002a 00       		.byte	0
 4451 002b 04       		.uleb128 0x4
 4452 002c 24       		.uleb128 0x24
 4453 002d 00       		.byte	0
 4454 002e 0B       		.uleb128 0xb
 4455 002f 0B       		.uleb128 0xb
 4456 0030 3E       		.uleb128 0x3e
 4457 0031 0B       		.uleb128 0xb
 4458 0032 03       		.uleb128 0x3
 4459 0033 08       		.uleb128 0x8
ARM GAS  C:\Users\ANDREY~1\AppData\Local\Temp\cc2zgKhH.s 			page 85


 4460 0034 00       		.byte	0
 4461 0035 00       		.byte	0
 4462 0036 05       		.uleb128 0x5
 4463 0037 16       		.uleb128 0x16
 4464 0038 00       		.byte	0
 4465 0039 03       		.uleb128 0x3
 4466 003a 0E       		.uleb128 0xe
 4467 003b 3A       		.uleb128 0x3a
 4468 003c 0B       		.uleb128 0xb
 4469 003d 3B       		.uleb128 0x3b
 4470 003e 05       		.uleb128 0x5
 4471 003f 49       		.uleb128 0x49
 4472 0040 13       		.uleb128 0x13
 4473 0041 00       		.byte	0
 4474 0042 00       		.byte	0
 4475 0043 06       		.uleb128 0x6
 4476 0044 0F       		.uleb128 0xf
 4477 0045 00       		.byte	0
 4478 0046 0B       		.uleb128 0xb
 4479 0047 0B       		.uleb128 0xb
 4480 0048 00       		.byte	0
 4481 0049 00       		.byte	0
 4482 004a 07       		.uleb128 0x7
 4483 004b 0F       		.uleb128 0xf
 4484 004c 00       		.byte	0
 4485 004d 0B       		.uleb128 0xb
 4486 004e 0B       		.uleb128 0xb
 4487 004f 49       		.uleb128 0x49
 4488 0050 13       		.uleb128 0x13
 4489 0051 00       		.byte	0
 4490 0052 00       		.byte	0
 4491 0053 08       		.uleb128 0x8
 4492 0054 04       		.uleb128 0x4
 4493 0055 01       		.byte	0x1
 4494 0056 0B       		.uleb128 0xb
 4495 0057 0B       		.uleb128 0xb
 4496 0058 49       		.uleb128 0x49
 4497 0059 13       		.uleb128 0x13
 4498 005a 3A       		.uleb128 0x3a
 4499 005b 0B       		.uleb128 0xb
 4500 005c 3B       		.uleb128 0x3b
 4501 005d 0B       		.uleb128 0xb
 4502 005e 01       		.uleb128 0x1
 4503 005f 13       		.uleb128 0x13
 4504 0060 00       		.byte	0
 4505 0061 00       		.byte	0
 4506 0062 09       		.uleb128 0x9
 4507 0063 28       		.uleb128 0x28
 4508 0064 00       		.byte	0
 4509 0065 03       		.uleb128 0x3
 4510 0066 08       		.uleb128 0x8
 4511 0067 1C       		.uleb128 0x1c
 4512 0068 0B       		.uleb128 0xb
 4513 0069 00       		.byte	0
 4514 006a 00       		.byte	0
 4515 006b 0A       		.uleb128 0xa
 4516 006c 28       		.uleb128 0x28
ARM GAS  C:\Users\ANDREY~1\AppData\Local\Temp\cc2zgKhH.s 			page 86


 4517 006d 00       		.byte	0
 4518 006e 03       		.uleb128 0x3
 4519 006f 0E       		.uleb128 0xe
 4520 0070 1C       		.uleb128 0x1c
 4521 0071 0B       		.uleb128 0xb
 4522 0072 00       		.byte	0
 4523 0073 00       		.byte	0
 4524 0074 0B       		.uleb128 0xb
 4525 0075 13       		.uleb128 0x13
 4526 0076 01       		.byte	0x1
 4527 0077 0B       		.uleb128 0xb
 4528 0078 0B       		.uleb128 0xb
 4529 0079 3A       		.uleb128 0x3a
 4530 007a 0B       		.uleb128 0xb
 4531 007b 3B       		.uleb128 0x3b
 4532 007c 0B       		.uleb128 0xb
 4533 007d 01       		.uleb128 0x1
 4534 007e 13       		.uleb128 0x13
 4535 007f 00       		.byte	0
 4536 0080 00       		.byte	0
 4537 0081 0C       		.uleb128 0xc
 4538 0082 0D       		.uleb128 0xd
 4539 0083 00       		.byte	0
 4540 0084 03       		.uleb128 0x3
 4541 0085 08       		.uleb128 0x8
 4542 0086 3A       		.uleb128 0x3a
 4543 0087 0B       		.uleb128 0xb
 4544 0088 3B       		.uleb128 0x3b
 4545 0089 0B       		.uleb128 0xb
 4546 008a 49       		.uleb128 0x49
 4547 008b 13       		.uleb128 0x13
 4548 008c 38       		.uleb128 0x38
 4549 008d 0B       		.uleb128 0xb
 4550 008e 00       		.byte	0
 4551 008f 00       		.byte	0
 4552 0090 0D       		.uleb128 0xd
 4553 0091 0D       		.uleb128 0xd
 4554 0092 00       		.byte	0
 4555 0093 03       		.uleb128 0x3
 4556 0094 0E       		.uleb128 0xe
 4557 0095 3A       		.uleb128 0x3a
 4558 0096 0B       		.uleb128 0xb
 4559 0097 3B       		.uleb128 0x3b
 4560 0098 0B       		.uleb128 0xb
 4561 0099 49       		.uleb128 0x49
 4562 009a 13       		.uleb128 0x13
 4563 009b 38       		.uleb128 0x38
 4564 009c 0B       		.uleb128 0xb
 4565 009d 00       		.byte	0
 4566 009e 00       		.byte	0
 4567 009f 0E       		.uleb128 0xe
 4568 00a0 13       		.uleb128 0x13
 4569 00a1 01       		.byte	0x1
 4570 00a2 03       		.uleb128 0x3
 4571 00a3 0E       		.uleb128 0xe
 4572 00a4 0B       		.uleb128 0xb
 4573 00a5 0B       		.uleb128 0xb
ARM GAS  C:\Users\ANDREY~1\AppData\Local\Temp\cc2zgKhH.s 			page 87


 4574 00a6 3A       		.uleb128 0x3a
 4575 00a7 0B       		.uleb128 0xb
 4576 00a8 3B       		.uleb128 0x3b
 4577 00a9 0B       		.uleb128 0xb
 4578 00aa 01       		.uleb128 0x1
 4579 00ab 13       		.uleb128 0x13
 4580 00ac 00       		.byte	0
 4581 00ad 00       		.byte	0
 4582 00ae 0F       		.uleb128 0xf
 4583 00af 0D       		.uleb128 0xd
 4584 00b0 00       		.byte	0
 4585 00b1 03       		.uleb128 0x3
 4586 00b2 0E       		.uleb128 0xe
 4587 00b3 3A       		.uleb128 0x3a
 4588 00b4 0B       		.uleb128 0xb
 4589 00b5 3B       		.uleb128 0x3b
 4590 00b6 05       		.uleb128 0x5
 4591 00b7 49       		.uleb128 0x49
 4592 00b8 13       		.uleb128 0x13
 4593 00b9 38       		.uleb128 0x38
 4594 00ba 0B       		.uleb128 0xb
 4595 00bb 00       		.byte	0
 4596 00bc 00       		.byte	0
 4597 00bd 10       		.uleb128 0x10
 4598 00be 13       		.uleb128 0x13
 4599 00bf 01       		.byte	0x1
 4600 00c0 03       		.uleb128 0x3
 4601 00c1 0E       		.uleb128 0xe
 4602 00c2 0B       		.uleb128 0xb
 4603 00c3 0B       		.uleb128 0xb
 4604 00c4 3A       		.uleb128 0x3a
 4605 00c5 0B       		.uleb128 0xb
 4606 00c6 3B       		.uleb128 0x3b
 4607 00c7 05       		.uleb128 0x5
 4608 00c8 01       		.uleb128 0x1
 4609 00c9 13       		.uleb128 0x13
 4610 00ca 00       		.byte	0
 4611 00cb 00       		.byte	0
 4612 00cc 11       		.uleb128 0x11
 4613 00cd 0D       		.uleb128 0xd
 4614 00ce 00       		.byte	0
 4615 00cf 03       		.uleb128 0x3
 4616 00d0 08       		.uleb128 0x8
 4617 00d1 3A       		.uleb128 0x3a
 4618 00d2 0B       		.uleb128 0xb
 4619 00d3 3B       		.uleb128 0x3b
 4620 00d4 05       		.uleb128 0x5
 4621 00d5 49       		.uleb128 0x49
 4622 00d6 13       		.uleb128 0x13
 4623 00d7 38       		.uleb128 0x38
 4624 00d8 0B       		.uleb128 0xb
 4625 00d9 00       		.byte	0
 4626 00da 00       		.byte	0
 4627 00db 12       		.uleb128 0x12
 4628 00dc 26       		.uleb128 0x26
 4629 00dd 00       		.byte	0
 4630 00de 49       		.uleb128 0x49
ARM GAS  C:\Users\ANDREY~1\AppData\Local\Temp\cc2zgKhH.s 			page 88


 4631 00df 13       		.uleb128 0x13
 4632 00e0 00       		.byte	0
 4633 00e1 00       		.byte	0
 4634 00e2 13       		.uleb128 0x13
 4635 00e3 15       		.uleb128 0x15
 4636 00e4 01       		.byte	0x1
 4637 00e5 27       		.uleb128 0x27
 4638 00e6 19       		.uleb128 0x19
 4639 00e7 01       		.uleb128 0x1
 4640 00e8 13       		.uleb128 0x13
 4641 00e9 00       		.byte	0
 4642 00ea 00       		.byte	0
 4643 00eb 14       		.uleb128 0x14
 4644 00ec 05       		.uleb128 0x5
 4645 00ed 00       		.byte	0
 4646 00ee 49       		.uleb128 0x49
 4647 00ef 13       		.uleb128 0x13
 4648 00f0 00       		.byte	0
 4649 00f1 00       		.byte	0
 4650 00f2 15       		.uleb128 0x15
 4651 00f3 13       		.uleb128 0x13
 4652 00f4 01       		.byte	0x1
 4653 00f5 0B       		.uleb128 0xb
 4654 00f6 0B       		.uleb128 0xb
 4655 00f7 3A       		.uleb128 0x3a
 4656 00f8 0B       		.uleb128 0xb
 4657 00f9 3B       		.uleb128 0x3b
 4658 00fa 05       		.uleb128 0x5
 4659 00fb 01       		.uleb128 0x1
 4660 00fc 13       		.uleb128 0x13
 4661 00fd 00       		.byte	0
 4662 00fe 00       		.byte	0
 4663 00ff 16       		.uleb128 0x16
 4664 0100 01       		.uleb128 0x1
 4665 0101 01       		.byte	0x1
 4666 0102 49       		.uleb128 0x49
 4667 0103 13       		.uleb128 0x13
 4668 0104 01       		.uleb128 0x1
 4669 0105 13       		.uleb128 0x13
 4670 0106 00       		.byte	0
 4671 0107 00       		.byte	0
 4672 0108 17       		.uleb128 0x17
 4673 0109 21       		.uleb128 0x21
 4674 010a 00       		.byte	0
 4675 010b 49       		.uleb128 0x49
 4676 010c 13       		.uleb128 0x13
 4677 010d 2F       		.uleb128 0x2f
 4678 010e 0B       		.uleb128 0xb
 4679 010f 00       		.byte	0
 4680 0110 00       		.byte	0
 4681 0111 18       		.uleb128 0x18
 4682 0112 2E       		.uleb128 0x2e
 4683 0113 01       		.byte	0x1
 4684 0114 3F       		.uleb128 0x3f
 4685 0115 19       		.uleb128 0x19
 4686 0116 03       		.uleb128 0x3
 4687 0117 0E       		.uleb128 0xe
ARM GAS  C:\Users\ANDREY~1\AppData\Local\Temp\cc2zgKhH.s 			page 89


 4688 0118 3A       		.uleb128 0x3a
 4689 0119 0B       		.uleb128 0xb
 4690 011a 3B       		.uleb128 0x3b
 4691 011b 0B       		.uleb128 0xb
 4692 011c 11       		.uleb128 0x11
 4693 011d 01       		.uleb128 0x1
 4694 011e 12       		.uleb128 0x12
 4695 011f 06       		.uleb128 0x6
 4696 0120 40       		.uleb128 0x40
 4697 0121 18       		.uleb128 0x18
 4698 0122 9742     		.uleb128 0x2117
 4699 0124 19       		.uleb128 0x19
 4700 0125 01       		.uleb128 0x1
 4701 0126 13       		.uleb128 0x13
 4702 0127 00       		.byte	0
 4703 0128 00       		.byte	0
 4704 0129 19       		.uleb128 0x19
 4705 012a 898201   		.uleb128 0x4109
 4706 012d 01       		.byte	0x1
 4707 012e 11       		.uleb128 0x11
 4708 012f 01       		.uleb128 0x1
 4709 0130 31       		.uleb128 0x31
 4710 0131 13       		.uleb128 0x13
 4711 0132 01       		.uleb128 0x1
 4712 0133 13       		.uleb128 0x13
 4713 0134 00       		.byte	0
 4714 0135 00       		.byte	0
 4715 0136 1A       		.uleb128 0x1a
 4716 0137 8A8201   		.uleb128 0x410a
 4717 013a 00       		.byte	0
 4718 013b 02       		.uleb128 0x2
 4719 013c 18       		.uleb128 0x18
 4720 013d 9142     		.uleb128 0x2111
 4721 013f 18       		.uleb128 0x18
 4722 0140 00       		.byte	0
 4723 0141 00       		.byte	0
 4724 0142 1B       		.uleb128 0x1b
 4725 0143 898201   		.uleb128 0x4109
 4726 0146 01       		.byte	0x1
 4727 0147 11       		.uleb128 0x11
 4728 0148 01       		.uleb128 0x1
 4729 0149 31       		.uleb128 0x31
 4730 014a 13       		.uleb128 0x13
 4731 014b 00       		.byte	0
 4732 014c 00       		.byte	0
 4733 014d 1C       		.uleb128 0x1c
 4734 014e 2E       		.uleb128 0x2e
 4735 014f 01       		.byte	0x1
 4736 0150 3F       		.uleb128 0x3f
 4737 0151 19       		.uleb128 0x19
 4738 0152 03       		.uleb128 0x3
 4739 0153 0E       		.uleb128 0xe
 4740 0154 3A       		.uleb128 0x3a
 4741 0155 0B       		.uleb128 0xb
 4742 0156 3B       		.uleb128 0x3b
 4743 0157 0B       		.uleb128 0xb
 4744 0158 27       		.uleb128 0x27
ARM GAS  C:\Users\ANDREY~1\AppData\Local\Temp\cc2zgKhH.s 			page 90


 4745 0159 19       		.uleb128 0x19
 4746 015a 11       		.uleb128 0x11
 4747 015b 01       		.uleb128 0x1
 4748 015c 12       		.uleb128 0x12
 4749 015d 06       		.uleb128 0x6
 4750 015e 40       		.uleb128 0x40
 4751 015f 18       		.uleb128 0x18
 4752 0160 9742     		.uleb128 0x2117
 4753 0162 19       		.uleb128 0x19
 4754 0163 01       		.uleb128 0x1
 4755 0164 13       		.uleb128 0x13
 4756 0165 00       		.byte	0
 4757 0166 00       		.byte	0
 4758 0167 1D       		.uleb128 0x1d
 4759 0168 05       		.uleb128 0x5
 4760 0169 00       		.byte	0
 4761 016a 03       		.uleb128 0x3
 4762 016b 0E       		.uleb128 0xe
 4763 016c 3A       		.uleb128 0x3a
 4764 016d 0B       		.uleb128 0xb
 4765 016e 3B       		.uleb128 0x3b
 4766 016f 0B       		.uleb128 0xb
 4767 0170 49       		.uleb128 0x49
 4768 0171 13       		.uleb128 0x13
 4769 0172 02       		.uleb128 0x2
 4770 0173 17       		.uleb128 0x17
 4771 0174 00       		.byte	0
 4772 0175 00       		.byte	0
 4773 0176 1E       		.uleb128 0x1e
 4774 0177 34       		.uleb128 0x34
 4775 0178 00       		.byte	0
 4776 0179 03       		.uleb128 0x3
 4777 017a 0E       		.uleb128 0xe
 4778 017b 3A       		.uleb128 0x3a
 4779 017c 0B       		.uleb128 0xb
 4780 017d 3B       		.uleb128 0x3b
 4781 017e 0B       		.uleb128 0xb
 4782 017f 49       		.uleb128 0x49
 4783 0180 13       		.uleb128 0x13
 4784 0181 02       		.uleb128 0x2
 4785 0182 17       		.uleb128 0x17
 4786 0183 00       		.byte	0
 4787 0184 00       		.byte	0
 4788 0185 1F       		.uleb128 0x1f
 4789 0186 0B       		.uleb128 0xb
 4790 0187 01       		.byte	0x1
 4791 0188 11       		.uleb128 0x11
 4792 0189 01       		.uleb128 0x1
 4793 018a 12       		.uleb128 0x12
 4794 018b 06       		.uleb128 0x6
 4795 018c 01       		.uleb128 0x1
 4796 018d 13       		.uleb128 0x13
 4797 018e 00       		.byte	0
 4798 018f 00       		.byte	0
 4799 0190 20       		.uleb128 0x20
 4800 0191 34       		.uleb128 0x34
 4801 0192 00       		.byte	0
ARM GAS  C:\Users\ANDREY~1\AppData\Local\Temp\cc2zgKhH.s 			page 91


 4802 0193 03       		.uleb128 0x3
 4803 0194 0E       		.uleb128 0xe
 4804 0195 3A       		.uleb128 0x3a
 4805 0196 0B       		.uleb128 0xb
 4806 0197 3B       		.uleb128 0x3b
 4807 0198 0B       		.uleb128 0xb
 4808 0199 49       		.uleb128 0x49
 4809 019a 13       		.uleb128 0x13
 4810 019b 02       		.uleb128 0x2
 4811 019c 18       		.uleb128 0x18
 4812 019d 00       		.byte	0
 4813 019e 00       		.byte	0
 4814 019f 21       		.uleb128 0x21
 4815 01a0 898201   		.uleb128 0x4109
 4816 01a3 00       		.byte	0
 4817 01a4 11       		.uleb128 0x11
 4818 01a5 01       		.uleb128 0x1
 4819 01a6 31       		.uleb128 0x31
 4820 01a7 13       		.uleb128 0x13
 4821 01a8 00       		.byte	0
 4822 01a9 00       		.byte	0
 4823 01aa 22       		.uleb128 0x22
 4824 01ab 34       		.uleb128 0x34
 4825 01ac 00       		.byte	0
 4826 01ad 03       		.uleb128 0x3
 4827 01ae 0E       		.uleb128 0xe
 4828 01af 3A       		.uleb128 0x3a
 4829 01b0 0B       		.uleb128 0xb
 4830 01b1 3B       		.uleb128 0x3b
 4831 01b2 05       		.uleb128 0x5
 4832 01b3 49       		.uleb128 0x49
 4833 01b4 13       		.uleb128 0x13
 4834 01b5 02       		.uleb128 0x2
 4835 01b6 18       		.uleb128 0x18
 4836 01b7 00       		.byte	0
 4837 01b8 00       		.byte	0
 4838 01b9 23       		.uleb128 0x23
 4839 01ba 0B       		.uleb128 0xb
 4840 01bb 01       		.byte	0x1
 4841 01bc 11       		.uleb128 0x11
 4842 01bd 01       		.uleb128 0x1
 4843 01be 12       		.uleb128 0x12
 4844 01bf 06       		.uleb128 0x6
 4845 01c0 00       		.byte	0
 4846 01c1 00       		.byte	0
 4847 01c2 24       		.uleb128 0x24
 4848 01c3 2E       		.uleb128 0x2e
 4849 01c4 01       		.byte	0x1
 4850 01c5 3F       		.uleb128 0x3f
 4851 01c6 19       		.uleb128 0x19
 4852 01c7 03       		.uleb128 0x3
 4853 01c8 0E       		.uleb128 0xe
 4854 01c9 3A       		.uleb128 0x3a
 4855 01ca 0B       		.uleb128 0xb
 4856 01cb 3B       		.uleb128 0x3b
 4857 01cc 05       		.uleb128 0x5
 4858 01cd 27       		.uleb128 0x27
ARM GAS  C:\Users\ANDREY~1\AppData\Local\Temp\cc2zgKhH.s 			page 92


 4859 01ce 19       		.uleb128 0x19
 4860 01cf 11       		.uleb128 0x11
 4861 01d0 01       		.uleb128 0x1
 4862 01d1 12       		.uleb128 0x12
 4863 01d2 06       		.uleb128 0x6
 4864 01d3 40       		.uleb128 0x40
 4865 01d4 18       		.uleb128 0x18
 4866 01d5 9742     		.uleb128 0x2117
 4867 01d7 19       		.uleb128 0x19
 4868 01d8 01       		.uleb128 0x1
 4869 01d9 13       		.uleb128 0x13
 4870 01da 00       		.byte	0
 4871 01db 00       		.byte	0
 4872 01dc 25       		.uleb128 0x25
 4873 01dd 05       		.uleb128 0x5
 4874 01de 00       		.byte	0
 4875 01df 03       		.uleb128 0x3
 4876 01e0 0E       		.uleb128 0xe
 4877 01e1 3A       		.uleb128 0x3a
 4878 01e2 0B       		.uleb128 0xb
 4879 01e3 3B       		.uleb128 0x3b
 4880 01e4 05       		.uleb128 0x5
 4881 01e5 49       		.uleb128 0x49
 4882 01e6 13       		.uleb128 0x13
 4883 01e7 02       		.uleb128 0x2
 4884 01e8 17       		.uleb128 0x17
 4885 01e9 00       		.byte	0
 4886 01ea 00       		.byte	0
 4887 01eb 26       		.uleb128 0x26
 4888 01ec 34       		.uleb128 0x34
 4889 01ed 00       		.byte	0
 4890 01ee 03       		.uleb128 0x3
 4891 01ef 0E       		.uleb128 0xe
 4892 01f0 3A       		.uleb128 0x3a
 4893 01f1 0B       		.uleb128 0xb
 4894 01f2 3B       		.uleb128 0x3b
 4895 01f3 05       		.uleb128 0x5
 4896 01f4 49       		.uleb128 0x49
 4897 01f5 13       		.uleb128 0x13
 4898 01f6 3F       		.uleb128 0x3f
 4899 01f7 19       		.uleb128 0x19
 4900 01f8 3C       		.uleb128 0x3c
 4901 01f9 19       		.uleb128 0x19
 4902 01fa 00       		.byte	0
 4903 01fb 00       		.byte	0
 4904 01fc 27       		.uleb128 0x27
 4905 01fd 35       		.uleb128 0x35
 4906 01fe 00       		.byte	0
 4907 01ff 49       		.uleb128 0x49
 4908 0200 13       		.uleb128 0x13
 4909 0201 00       		.byte	0
 4910 0202 00       		.byte	0
 4911 0203 28       		.uleb128 0x28
 4912 0204 34       		.uleb128 0x34
 4913 0205 00       		.byte	0
 4914 0206 03       		.uleb128 0x3
 4915 0207 0E       		.uleb128 0xe
ARM GAS  C:\Users\ANDREY~1\AppData\Local\Temp\cc2zgKhH.s 			page 93


 4916 0208 3A       		.uleb128 0x3a
 4917 0209 0B       		.uleb128 0xb
 4918 020a 3B       		.uleb128 0x3b
 4919 020b 0B       		.uleb128 0xb
 4920 020c 49       		.uleb128 0x49
 4921 020d 13       		.uleb128 0x13
 4922 020e 3F       		.uleb128 0x3f
 4923 020f 19       		.uleb128 0x19
 4924 0210 3C       		.uleb128 0x3c
 4925 0211 19       		.uleb128 0x19
 4926 0212 00       		.byte	0
 4927 0213 00       		.byte	0
 4928 0214 29       		.uleb128 0x29
 4929 0215 34       		.uleb128 0x34
 4930 0216 00       		.byte	0
 4931 0217 03       		.uleb128 0x3
 4932 0218 0E       		.uleb128 0xe
 4933 0219 3A       		.uleb128 0x3a
 4934 021a 0B       		.uleb128 0xb
 4935 021b 3B       		.uleb128 0x3b
 4936 021c 0B       		.uleb128 0xb
 4937 021d 49       		.uleb128 0x49
 4938 021e 13       		.uleb128 0x13
 4939 021f 3F       		.uleb128 0x3f
 4940 0220 19       		.uleb128 0x19
 4941 0221 02       		.uleb128 0x2
 4942 0222 18       		.uleb128 0x18
 4943 0223 00       		.byte	0
 4944 0224 00       		.byte	0
 4945 0225 2A       		.uleb128 0x2a
 4946 0226 2E       		.uleb128 0x2e
 4947 0227 00       		.byte	0
 4948 0228 3F       		.uleb128 0x3f
 4949 0229 19       		.uleb128 0x19
 4950 022a 3C       		.uleb128 0x3c
 4951 022b 19       		.uleb128 0x19
 4952 022c 6E       		.uleb128 0x6e
 4953 022d 0E       		.uleb128 0xe
 4954 022e 03       		.uleb128 0x3
 4955 022f 0E       		.uleb128 0xe
 4956 0230 3A       		.uleb128 0x3a
 4957 0231 0B       		.uleb128 0xb
 4958 0232 3B       		.uleb128 0x3b
 4959 0233 05       		.uleb128 0x5
 4960 0234 00       		.byte	0
 4961 0235 00       		.byte	0
 4962 0236 2B       		.uleb128 0x2b
 4963 0237 2E       		.uleb128 0x2e
 4964 0238 00       		.byte	0
 4965 0239 3F       		.uleb128 0x3f
 4966 023a 19       		.uleb128 0x19
 4967 023b 3C       		.uleb128 0x3c
 4968 023c 19       		.uleb128 0x19
 4969 023d 6E       		.uleb128 0x6e
 4970 023e 0E       		.uleb128 0xe
 4971 023f 03       		.uleb128 0x3
 4972 0240 0E       		.uleb128 0xe
ARM GAS  C:\Users\ANDREY~1\AppData\Local\Temp\cc2zgKhH.s 			page 94


 4973 0241 3A       		.uleb128 0x3a
 4974 0242 0B       		.uleb128 0xb
 4975 0243 3B       		.uleb128 0x3b
 4976 0244 0B       		.uleb128 0xb
 4977 0245 00       		.byte	0
 4978 0246 00       		.byte	0
 4979 0247 00       		.byte	0
 4980              		.section	.debug_loc,"",%progbits
 4981              	.Ldebug_loc0:
 4982              	.LLST0:
 4983 0000 00000000 		.4byte	.LVL13
 4984 0004 08000000 		.4byte	.LVL14
 4985 0008 0100     		.2byte	0x1
 4986 000a 50       		.byte	0x50
 4987 000b 08000000 		.4byte	.LVL14
 4988 000f 08010000 		.4byte	.LFE66
 4989 0013 0400     		.2byte	0x4
 4990 0015 F3       		.byte	0xf3
 4991 0016 01       		.uleb128 0x1
 4992 0017 50       		.byte	0x50
 4993 0018 9F       		.byte	0x9f
 4994 0019 00000000 		.4byte	0
 4995 001d 00000000 		.4byte	0
 4996              	.LLST1:
 4997 0021 10000000 		.4byte	.LVL16
 4998 0025 44000000 		.4byte	.LVL19
 4999 0029 0400     		.2byte	0x4
 5000 002b 0A       		.byte	0xa
 5001 002c 00FF     		.2byte	0xff00
 5002 002e 9F       		.byte	0x9f
 5003 002f 70000000 		.4byte	.LVL21
 5004 0033 A6000000 		.4byte	.LVL24
 5005 0037 0100     		.2byte	0x1
 5006 0039 54       		.byte	0x54
 5007 003a B2000000 		.4byte	.LVL25
 5008 003e E0000000 		.4byte	.LVL28
 5009 0042 0500     		.2byte	0x5
 5010 0044 08       		.byte	0x8
 5011 0045 FF       		.byte	0xff
 5012 0046 40       		.byte	0x40
 5013 0047 24       		.byte	0x24
 5014 0048 9F       		.byte	0x9f
 5015 0049 00000000 		.4byte	0
 5016 004d 00000000 		.4byte	0
 5017              	.LLST2:
 5018 0051 00000000 		.4byte	.LVL30
 5019 0055 22000000 		.4byte	.LVL32
 5020 0059 0100     		.2byte	0x1
 5021 005b 50       		.byte	0x50
 5022 005c 22000000 		.4byte	.LVL32
 5023 0060 3E000000 		.4byte	.LVL35
 5024 0064 0400     		.2byte	0x4
 5025 0066 F3       		.byte	0xf3
 5026 0067 01       		.uleb128 0x1
 5027 0068 50       		.byte	0x50
 5028 0069 9F       		.byte	0x9f
 5029 006a 3E000000 		.4byte	.LVL35
ARM GAS  C:\Users\ANDREY~1\AppData\Local\Temp\cc2zgKhH.s 			page 95


 5030 006e 4A000000 		.4byte	.LVL36
 5031 0072 0100     		.2byte	0x1
 5032 0074 50       		.byte	0x50
 5033 0075 4A000000 		.4byte	.LVL36
 5034 0079 B4000000 		.4byte	.LFE67
 5035 007d 0400     		.2byte	0x4
 5036 007f F3       		.byte	0xf3
 5037 0080 01       		.uleb128 0x1
 5038 0081 50       		.byte	0x50
 5039 0082 9F       		.byte	0x9f
 5040 0083 00000000 		.4byte	0
 5041 0087 00000000 		.4byte	0
 5042              	.LLST3:
 5043 008b 12000000 		.4byte	.LVL31
 5044 008f 3E000000 		.4byte	.LVL35
 5045 0093 0500     		.2byte	0x5
 5046 0095 08       		.byte	0x8
 5047 0096 FF       		.byte	0xff
 5048 0097 40       		.byte	0x40
 5049 0098 24       		.byte	0x24
 5050 0099 9F       		.byte	0x9f
 5051 009a 4A000000 		.4byte	.LVL36
 5052 009e 9C000000 		.4byte	.LVL42
 5053 00a2 0100     		.2byte	0x1
 5054 00a4 54       		.byte	0x54
 5055 00a5 00000000 		.4byte	0
 5056 00a9 00000000 		.4byte	0
 5057              	.LLST4:
 5058 00ad 00000000 		.4byte	.LVL43
 5059 00b1 3E000000 		.4byte	.LVL48
 5060 00b5 0100     		.2byte	0x1
 5061 00b7 50       		.byte	0x50
 5062 00b8 3E000000 		.4byte	.LVL48
 5063 00bc 5A000000 		.4byte	.LVL51
 5064 00c0 0400     		.2byte	0x4
 5065 00c2 F3       		.byte	0xf3
 5066 00c3 01       		.uleb128 0x1
 5067 00c4 50       		.byte	0x50
 5068 00c5 9F       		.byte	0x9f
 5069 00c6 5A000000 		.4byte	.LVL51
 5070 00ca 72000000 		.4byte	.LVL53
 5071 00ce 0100     		.2byte	0x1
 5072 00d0 50       		.byte	0x50
 5073 00d1 72000000 		.4byte	.LVL53
 5074 00d5 8E000000 		.4byte	.LVL56
 5075 00d9 0400     		.2byte	0x4
 5076 00db F3       		.byte	0xf3
 5077 00dc 01       		.uleb128 0x1
 5078 00dd 50       		.byte	0x50
 5079 00de 9F       		.byte	0x9f
 5080 00df 8E000000 		.4byte	.LVL56
 5081 00e3 A6000000 		.4byte	.LVL58
 5082 00e7 0100     		.2byte	0x1
 5083 00e9 50       		.byte	0x50
 5084 00ea A6000000 		.4byte	.LVL58
 5085 00ee C2000000 		.4byte	.LVL61
 5086 00f2 0400     		.2byte	0x4
ARM GAS  C:\Users\ANDREY~1\AppData\Local\Temp\cc2zgKhH.s 			page 96


 5087 00f4 F3       		.byte	0xf3
 5088 00f5 01       		.uleb128 0x1
 5089 00f6 50       		.byte	0x50
 5090 00f7 9F       		.byte	0x9f
 5091 00f8 C2000000 		.4byte	.LVL61
 5092 00fc DA000000 		.4byte	.LVL63
 5093 0100 0100     		.2byte	0x1
 5094 0102 50       		.byte	0x50
 5095 0103 DA000000 		.4byte	.LVL63
 5096 0107 F6000000 		.4byte	.LVL66
 5097 010b 0400     		.2byte	0x4
 5098 010d F3       		.byte	0xf3
 5099 010e 01       		.uleb128 0x1
 5100 010f 50       		.byte	0x50
 5101 0110 9F       		.byte	0x9f
 5102 0111 F6000000 		.4byte	.LVL66
 5103 0115 0E010000 		.4byte	.LVL68
 5104 0119 0100     		.2byte	0x1
 5105 011b 50       		.byte	0x50
 5106 011c 0E010000 		.4byte	.LVL68
 5107 0120 2A010000 		.4byte	.LVL71
 5108 0124 0400     		.2byte	0x4
 5109 0126 F3       		.byte	0xf3
 5110 0127 01       		.uleb128 0x1
 5111 0128 50       		.byte	0x50
 5112 0129 9F       		.byte	0x9f
 5113 012a 2A010000 		.4byte	.LVL71
 5114 012e 40010000 		.4byte	.LVL73
 5115 0132 0100     		.2byte	0x1
 5116 0134 50       		.byte	0x50
 5117 0135 40010000 		.4byte	.LVL73
 5118 0139 5A010000 		.4byte	.LVL76
 5119 013d 0400     		.2byte	0x4
 5120 013f F3       		.byte	0xf3
 5121 0140 01       		.uleb128 0x1
 5122 0141 50       		.byte	0x50
 5123 0142 9F       		.byte	0x9f
 5124 0143 5A010000 		.4byte	.LVL76
 5125 0147 72010000 		.4byte	.LVL78
 5126 014b 0100     		.2byte	0x1
 5127 014d 50       		.byte	0x50
 5128 014e 72010000 		.4byte	.LVL78
 5129 0152 8E010000 		.4byte	.LVL81
 5130 0156 0400     		.2byte	0x4
 5131 0158 F3       		.byte	0xf3
 5132 0159 01       		.uleb128 0x1
 5133 015a 50       		.byte	0x50
 5134 015b 9F       		.byte	0x9f
 5135 015c 8E010000 		.4byte	.LVL81
 5136 0160 A6010000 		.4byte	.LVL82
 5137 0164 0100     		.2byte	0x1
 5138 0166 50       		.byte	0x50
 5139 0167 A6010000 		.4byte	.LVL82
 5140 016b 40020000 		.4byte	.LFE68
 5141 016f 0400     		.2byte	0x4
 5142 0171 F3       		.byte	0xf3
 5143 0172 01       		.uleb128 0x1
ARM GAS  C:\Users\ANDREY~1\AppData\Local\Temp\cc2zgKhH.s 			page 97


 5144 0173 50       		.byte	0x50
 5145 0174 9F       		.byte	0x9f
 5146 0175 00000000 		.4byte	0
 5147 0179 00000000 		.4byte	0
 5148              	.LLST5:
 5149 017d 26000000 		.4byte	.LVL46
 5150 0181 2A010000 		.4byte	.LVL71
 5151 0185 0500     		.2byte	0x5
 5152 0187 08       		.byte	0x8
 5153 0188 FF       		.byte	0xff
 5154 0189 40       		.byte	0x40
 5155 018a 24       		.byte	0x24
 5156 018b 9F       		.byte	0x9f
 5157 018c 2A010000 		.4byte	.LVL71
 5158 0190 5A010000 		.4byte	.LVL76
 5159 0194 0600     		.2byte	0x6
 5160 0196 0C       		.byte	0xc
 5161 0197 00FFFF00 		.4byte	0xffff00
 5162 019b 9F       		.byte	0x9f
 5163 019c 5A010000 		.4byte	.LVL76
 5164 01a0 8E010000 		.4byte	.LVL81
 5165 01a4 0500     		.2byte	0x5
 5166 01a6 08       		.byte	0x8
 5167 01a7 FF       		.byte	0xff
 5168 01a8 40       		.byte	0x40
 5169 01a9 24       		.byte	0x24
 5170 01aa 9F       		.byte	0x9f
 5171 01ab 8E010000 		.4byte	.LVL81
 5172 01af 08020000 		.4byte	.LVL87
 5173 01b3 0400     		.2byte	0x4
 5174 01b5 0A       		.byte	0xa
 5175 01b6 00FF     		.2byte	0xff00
 5176 01b8 9F       		.byte	0x9f
 5177 01b9 00000000 		.4byte	0
 5178 01bd 00000000 		.4byte	0
 5179              	.LLST6:
 5180 01c1 12000000 		.4byte	.LVL44
 5181 01c5 14000000 		.4byte	.LVL45
 5182 01c9 0100     		.2byte	0x1
 5183 01cb 54       		.byte	0x54
 5184 01cc 14000000 		.4byte	.LVL45
 5185 01d0 34000000 		.4byte	.LVL47
 5186 01d4 0300     		.2byte	0x3
 5187 01d6 74       		.byte	0x74
 5188 01d7 01       		.sleb128 1
 5189 01d8 9F       		.byte	0x9f
 5190 01d9 34000000 		.4byte	.LVL47
 5191 01dd 3E000000 		.4byte	.LVL48
 5192 01e1 0600     		.2byte	0x6
 5193 01e3 70       		.byte	0x70
 5194 01e4 00       		.sleb128 0
 5195 01e5 08       		.byte	0x8
 5196 01e6 7F       		.byte	0x7f
 5197 01e7 1A       		.byte	0x1a
 5198 01e8 9F       		.byte	0x9f
 5199 01e9 5A000000 		.4byte	.LVL51
 5200 01ed 68000000 		.4byte	.LVL52
ARM GAS  C:\Users\ANDREY~1\AppData\Local\Temp\cc2zgKhH.s 			page 98


 5201 01f1 0300     		.2byte	0x3
 5202 01f3 74       		.byte	0x74
 5203 01f4 01       		.sleb128 1
 5204 01f5 9F       		.byte	0x9f
 5205 01f6 68000000 		.4byte	.LVL52
 5206 01fa 72000000 		.4byte	.LVL53
 5207 01fe 0600     		.2byte	0x6
 5208 0200 70       		.byte	0x70
 5209 0201 00       		.sleb128 0
 5210 0202 08       		.byte	0x8
 5211 0203 7F       		.byte	0x7f
 5212 0204 1A       		.byte	0x1a
 5213 0205 9F       		.byte	0x9f
 5214 0206 8E000000 		.4byte	.LVL56
 5215 020a 9C000000 		.4byte	.LVL57
 5216 020e 0300     		.2byte	0x3
 5217 0210 74       		.byte	0x74
 5218 0211 01       		.sleb128 1
 5219 0212 9F       		.byte	0x9f
 5220 0213 9C000000 		.4byte	.LVL57
 5221 0217 A6000000 		.4byte	.LVL58
 5222 021b 0600     		.2byte	0x6
 5223 021d 70       		.byte	0x70
 5224 021e 00       		.sleb128 0
 5225 021f 08       		.byte	0x8
 5226 0220 7F       		.byte	0x7f
 5227 0221 1A       		.byte	0x1a
 5228 0222 9F       		.byte	0x9f
 5229 0223 C2000000 		.4byte	.LVL61
 5230 0227 D0000000 		.4byte	.LVL62
 5231 022b 0300     		.2byte	0x3
 5232 022d 74       		.byte	0x74
 5233 022e 01       		.sleb128 1
 5234 022f 9F       		.byte	0x9f
 5235 0230 D0000000 		.4byte	.LVL62
 5236 0234 DA000000 		.4byte	.LVL63
 5237 0238 0600     		.2byte	0x6
 5238 023a 70       		.byte	0x70
 5239 023b 00       		.sleb128 0
 5240 023c 08       		.byte	0x8
 5241 023d 7F       		.byte	0x7f
 5242 023e 1A       		.byte	0x1a
 5243 023f 9F       		.byte	0x9f
 5244 0240 F6000000 		.4byte	.LVL66
 5245 0244 04010000 		.4byte	.LVL67
 5246 0248 0300     		.2byte	0x3
 5247 024a 74       		.byte	0x74
 5248 024b 01       		.sleb128 1
 5249 024c 9F       		.byte	0x9f
 5250 024d 04010000 		.4byte	.LVL67
 5251 0251 0E010000 		.4byte	.LVL68
 5252 0255 0600     		.2byte	0x6
 5253 0257 70       		.byte	0x70
 5254 0258 00       		.sleb128 0
 5255 0259 08       		.byte	0x8
 5256 025a 7F       		.byte	0x7f
 5257 025b 1A       		.byte	0x1a
ARM GAS  C:\Users\ANDREY~1\AppData\Local\Temp\cc2zgKhH.s 			page 99


 5258 025c 9F       		.byte	0x9f
 5259 025d 2A010000 		.4byte	.LVL71
 5260 0261 36010000 		.4byte	.LVL72
 5261 0265 0300     		.2byte	0x3
 5262 0267 74       		.byte	0x74
 5263 0268 01       		.sleb128 1
 5264 0269 9F       		.byte	0x9f
 5265 026a 36010000 		.4byte	.LVL72
 5266 026e 40010000 		.4byte	.LVL73
 5267 0272 0600     		.2byte	0x6
 5268 0274 70       		.byte	0x70
 5269 0275 00       		.sleb128 0
 5270 0276 08       		.byte	0x8
 5271 0277 7F       		.byte	0x7f
 5272 0278 1A       		.byte	0x1a
 5273 0279 9F       		.byte	0x9f
 5274 027a 5A010000 		.4byte	.LVL76
 5275 027e 68010000 		.4byte	.LVL77
 5276 0282 0300     		.2byte	0x3
 5277 0284 74       		.byte	0x74
 5278 0285 01       		.sleb128 1
 5279 0286 9F       		.byte	0x9f
 5280 0287 68010000 		.4byte	.LVL77
 5281 028b 72010000 		.4byte	.LVL78
 5282 028f 0600     		.2byte	0x6
 5283 0291 70       		.byte	0x70
 5284 0292 00       		.sleb128 0
 5285 0293 08       		.byte	0x8
 5286 0294 7F       		.byte	0x7f
 5287 0295 1A       		.byte	0x1a
 5288 0296 9F       		.byte	0x9f
 5289 0297 00000000 		.4byte	0
 5290 029b 00000000 		.4byte	0
 5291              	.LLST7:
 5292 029f 00000000 		.4byte	.LVL88
 5293 02a3 08000000 		.4byte	.LVL89
 5294 02a7 0100     		.2byte	0x1
 5295 02a9 50       		.byte	0x50
 5296 02aa 08000000 		.4byte	.LVL89
 5297 02ae 0C000000 		.4byte	.LVL90
 5298 02b2 0400     		.2byte	0x4
 5299 02b4 F3       		.byte	0xf3
 5300 02b5 01       		.uleb128 0x1
 5301 02b6 50       		.byte	0x50
 5302 02b7 9F       		.byte	0x9f
 5303 02b8 0C000000 		.4byte	.LVL90
 5304 02bc 18000000 		.4byte	.LVL91
 5305 02c0 0100     		.2byte	0x1
 5306 02c2 52       		.byte	0x52
 5307 02c3 18000000 		.4byte	.LVL91
 5308 02c7 22000000 		.4byte	.LVL92
 5309 02cb 0500     		.2byte	0x5
 5310 02cd 70       		.byte	0x70
 5311 02ce 00       		.sleb128 0
 5312 02cf 32       		.byte	0x32
 5313 02d0 24       		.byte	0x24
 5314 02d1 9F       		.byte	0x9f
ARM GAS  C:\Users\ANDREY~1\AppData\Local\Temp\cc2zgKhH.s 			page 100


 5315 02d2 22000000 		.4byte	.LVL92
 5316 02d6 C8000000 		.4byte	.LVL97
 5317 02da 0100     		.2byte	0x1
 5318 02dc 56       		.byte	0x56
 5319 02dd 00000000 		.4byte	0
 5320 02e1 00000000 		.4byte	0
 5321              	.LLST8:
 5322 02e5 4C000000 		.4byte	.LVL93
 5323 02e9 C8000000 		.4byte	.LVL97
 5324 02ed 0100     		.2byte	0x1
 5325 02ef 55       		.byte	0x55
 5326 02f0 00000000 		.4byte	0
 5327 02f4 00000000 		.4byte	0
 5328              	.LLST9:
 5329 02f8 00000000 		.4byte	.LVL98
 5330 02fc 1C000000 		.4byte	.LVL99
 5331 0300 0100     		.2byte	0x1
 5332 0302 50       		.byte	0x50
 5333 0303 1C000000 		.4byte	.LVL99
 5334 0307 46000000 		.4byte	.LVL103
 5335 030b 0400     		.2byte	0x4
 5336 030d F3       		.byte	0xf3
 5337 030e 01       		.uleb128 0x1
 5338 030f 50       		.byte	0x50
 5339 0310 9F       		.byte	0x9f
 5340 0311 46000000 		.4byte	.LVL103
 5341 0315 58000000 		.4byte	.LVL104
 5342 0319 0100     		.2byte	0x1
 5343 031b 50       		.byte	0x50
 5344 031c 58000000 		.4byte	.LVL104
 5345 0320 88000000 		.4byte	.LFE70
 5346 0324 0400     		.2byte	0x4
 5347 0326 F3       		.byte	0xf3
 5348 0327 01       		.uleb128 0x1
 5349 0328 50       		.byte	0x50
 5350 0329 9F       		.byte	0x9f
 5351 032a 00000000 		.4byte	0
 5352 032e 00000000 		.4byte	0
 5353              	.LLST10:
 5354 0332 00000000 		.4byte	.LVL108
 5355 0336 1E000000 		.4byte	.LVL109
 5356 033a 0100     		.2byte	0x1
 5357 033c 50       		.byte	0x50
 5358 033d 1E000000 		.4byte	.LVL109
 5359 0341 48000000 		.4byte	.LVL113
 5360 0345 0400     		.2byte	0x4
 5361 0347 F3       		.byte	0xf3
 5362 0348 01       		.uleb128 0x1
 5363 0349 50       		.byte	0x50
 5364 034a 9F       		.byte	0x9f
 5365 034b 48000000 		.4byte	.LVL113
 5366 034f 5C000000 		.4byte	.LVL114
 5367 0353 0100     		.2byte	0x1
 5368 0355 50       		.byte	0x50
 5369 0356 5C000000 		.4byte	.LVL114
 5370 035a 8C000000 		.4byte	.LFE71
 5371 035e 0400     		.2byte	0x4
ARM GAS  C:\Users\ANDREY~1\AppData\Local\Temp\cc2zgKhH.s 			page 101


 5372 0360 F3       		.byte	0xf3
 5373 0361 01       		.uleb128 0x1
 5374 0362 50       		.byte	0x50
 5375 0363 9F       		.byte	0x9f
 5376 0364 00000000 		.4byte	0
 5377 0368 00000000 		.4byte	0
 5378              		.section	.debug_aranges,"",%progbits
 5379 0000 54000000 		.4byte	0x54
 5380 0004 0200     		.2byte	0x2
 5381 0006 00000000 		.4byte	.Ldebug_info0
 5382 000a 04       		.byte	0x4
 5383 000b 00       		.byte	0
 5384 000c 0000     		.2byte	0
 5385 000e 0000     		.2byte	0
 5386 0010 00000000 		.4byte	.LFB64
 5387 0014 74000000 		.4byte	.LFE64-.LFB64
 5388 0018 00000000 		.4byte	.LFB65
 5389 001c 64000000 		.4byte	.LFE65-.LFB65
 5390 0020 00000000 		.4byte	.LFB66
 5391 0024 08010000 		.4byte	.LFE66-.LFB66
 5392 0028 00000000 		.4byte	.LFB67
 5393 002c B4000000 		.4byte	.LFE67-.LFB67
 5394 0030 00000000 		.4byte	.LFB68
 5395 0034 40020000 		.4byte	.LFE68-.LFB68
 5396 0038 00000000 		.4byte	.LFB69
 5397 003c DC000000 		.4byte	.LFE69-.LFB69
 5398 0040 00000000 		.4byte	.LFB70
 5399 0044 88000000 		.4byte	.LFE70-.LFB70
 5400 0048 00000000 		.4byte	.LFB71
 5401 004c 8C000000 		.4byte	.LFE71-.LFB71
 5402 0050 00000000 		.4byte	0
 5403 0054 00000000 		.4byte	0
 5404              		.section	.debug_ranges,"",%progbits
 5405              	.Ldebug_ranges0:
 5406 0000 00000000 		.4byte	.LFB64
 5407 0004 74000000 		.4byte	.LFE64
 5408 0008 00000000 		.4byte	.LFB65
 5409 000c 64000000 		.4byte	.LFE65
 5410 0010 00000000 		.4byte	.LFB66
 5411 0014 08010000 		.4byte	.LFE66
 5412 0018 00000000 		.4byte	.LFB67
 5413 001c B4000000 		.4byte	.LFE67
 5414 0020 00000000 		.4byte	.LFB68
 5415 0024 40020000 		.4byte	.LFE68
 5416 0028 00000000 		.4byte	.LFB69
 5417 002c DC000000 		.4byte	.LFE69
 5418 0030 00000000 		.4byte	.LFB70
 5419 0034 88000000 		.4byte	.LFE70
 5420 0038 00000000 		.4byte	.LFB71
 5421 003c 8C000000 		.4byte	.LFE71
 5422 0040 00000000 		.4byte	0
 5423 0044 00000000 		.4byte	0
 5424              		.section	.debug_line,"",%progbits
 5425              	.Ldebug_line0:
 5426 0000 40030000 		.section	.debug_str,"MS",%progbits,1
 5426      02001D02 
 5426      00000201 
ARM GAS  C:\Users\ANDREY~1\AppData\Local\Temp\cc2zgKhH.s 			page 102


 5426      FB0E0D00 
 5426      01010101 
 5427              	.LASF127:
 5428 0000 43794465 		.ascii	"CyDelay\000"
 5428      6C617900 
 5429              	.LASF107:
 5430 0008 64617461 		.ascii	"data_s\000"
 5430      5F7300
 5431              	.LASF46:
 5432 000f 464F4E54 		.ascii	"FONT_TYPE_8BPP\000"
 5432      5F545950 
 5432      455F3842 
 5432      505000
 5433              	.LASF102:
 5434 001e 6465736B 		.ascii	"desktop_color\000"
 5434      746F705F 
 5434      636F6C6F 
 5434      7200
 5435              	.LASF57:
 5436 002c 746F7563 		.ascii	"touch_state\000"
 5436      685F7374 
 5436      61746500 
 5437              	.LASF71:
 5438 0038 55475F43 		.ascii	"UG_COLOR\000"
 5438      4F4C4F52 
 5438      00
 5439              	.LASF42:
 5440 0041 55475F55 		.ascii	"UG_U16\000"
 5440      313600
 5441              	.LASF14:
 5442 0048 756E7369 		.ascii	"unsigned int\000"
 5442      676E6564 
 5442      20696E74 
 5442      00
 5443              	.LASF101:
 5444 0055 63686172 		.ascii	"char_v_space\000"
 5444      5F765F73 
 5444      70616365 
 5444      00
 5445              	.LASF32:
 5446 0062 4E4F4E45 		.ascii	"NONE\000"
 5446      00
 5447              	.LASF8:
 5448 0067 5F5F696E 		.ascii	"__int32_t\000"
 5448      7433325F 
 5448      7400
 5449              	.LASF99:
 5450 0071 636F6E73 		.ascii	"console\000"
 5450      6F6C6500 
 5451              	.LASF66:
 5452 0079 535F5749 		.ascii	"S_WINDOW\000"
 5452      4E444F57 
 5452      00
 5453              	.LASF37:
 5454 0082 53454E53 		.ascii	"SENSOR_DISCREPANCY\000"
 5454      4F525F44 
 5454      49534352 
ARM GAS  C:\Users\ANDREY~1\AppData\Local\Temp\cc2zgKhH.s 			page 103


 5454      4550414E 
 5454      435900
 5455              	.LASF58:
 5456 0095 75706461 		.ascii	"update\000"
 5456      746500
 5457              	.LASF94:
 5458 009c 795F6469 		.ascii	"y_dim\000"
 5458      6D00
 5459              	.LASF47:
 5460 00a2 464F4E54 		.ascii	"FONT_TYPE\000"
 5460      5F545950 
 5460      4500
 5461              	.LASF38:
 5462 00ac 4252414B 		.ascii	"BRAKE_IMPLAUSIBLE\000"
 5462      455F494D 
 5462      504C4155 
 5462      5349424C 
 5462      4500
 5463              	.LASF126:
 5464 00be 55475F46 		.ascii	"UG_FillFrame\000"
 5464      696C6C46 
 5464      72616D65 
 5464      00
 5465              	.LASF68:
 5466 00cb 6F626A6C 		.ascii	"objlst\000"
 5466      737400
 5467              	.LASF96:
 5468 00d2 6E657874 		.ascii	"next_window\000"
 5468      5F77696E 
 5468      646F7700 
 5469              	.LASF70:
 5470 00de 7469746C 		.ascii	"title\000"
 5470      6500
 5471              	.LASF20:
 5472 00e4 75696E74 		.ascii	"uint32_t\000"
 5472      33325F74 
 5472      00
 5473              	.LASF15:
 5474 00ed 696E7438 		.ascii	"int8_t\000"
 5474      5F7400
 5475              	.LASF44:
 5476 00f4 55475F55 		.ascii	"UG_U32\000"
 5476      333200
 5477              	.LASF88:
 5478 00fb 785F656E 		.ascii	"x_end\000"
 5478      6400
 5479              	.LASF23:
 5480 0101 666C6F61 		.ascii	"float\000"
 5480      7400
 5481              	.LASF62:
 5482 0107 6576656E 		.ascii	"event\000"
 5482      7400
 5483              	.LASF98:
 5484 010d 6C617374 		.ascii	"last_window\000"
 5484      5F77696E 
 5484      646F7700 
 5485              	.LASF91:
ARM GAS  C:\Users\ANDREY~1\AppData\Local\Temp\cc2zgKhH.s 			page 104


 5486 0119 6261636B 		.ascii	"back_color\000"
 5486      5F636F6C 
 5486      6F7200
 5487              	.LASF30:
 5488 0124 44524956 		.ascii	"DRIVE\000"
 5488      4500
 5489              	.LASF17:
 5490 012a 696E7431 		.ascii	"int16_t\000"
 5490      365F7400 
 5491              	.LASF116:
 5492 0132 464F4E54 		.ascii	"FONT_12X16\000"
 5492      5F313258 
 5492      313600
 5493              	.LASF13:
 5494 013d 6C6F6E67 		.ascii	"long long unsigned int\000"
 5494      206C6F6E 
 5494      6720756E 
 5494      7369676E 
 5494      65642069 
 5495              	.LASF104:
 5496 0154 63616C69 		.ascii	"calibrateScreen\000"
 5496      62726174 
 5496      65536372 
 5496      65656E00 
 5497              	.LASF6:
 5498 0164 5F5F7569 		.ascii	"__uint16_t\000"
 5498      6E743136 
 5498      5F7400
 5499              	.LASF97:
 5500 016f 61637469 		.ascii	"active_window\000"
 5500      76655F77 
 5500      696E646F 
 5500      7700
 5501              	.LASF67:
 5502 017d 6F626A63 		.ascii	"objcnt\000"
 5502      6E7400
 5503              	.LASF43:
 5504 0184 55475F53 		.ascii	"UG_S16\000"
 5504      313600
 5505              	.LASF90:
 5506 018b 666F7265 		.ascii	"fore_color\000"
 5506      5F636F6C 
 5506      6F7200
 5507              	.LASF85:
 5508 0196 795F706F 		.ascii	"y_pos\000"
 5508      7300
 5509              	.LASF106:
 5510 019c 636F6C6F 		.ascii	"color\000"
 5510      7200
 5511              	.LASF132:
 5512 01a2 474E5520 		.ascii	"GNU C11 5.4.1 20160609 (release) [ARM/embedded-5-br"
 5512      43313120 
 5512      352E342E 
 5512      31203230 
 5512      31363036 
 5513 01d5 616E6368 		.ascii	"anch revision 237715] -mcpu=cortex-m3 -mthumb -g -O"
 5513      20726576 
ARM GAS  C:\Users\ANDREY~1\AppData\Local\Temp\cc2zgKhH.s 			page 105


 5513      6973696F 
 5513      6E203233 
 5513      37373135 
 5514 0208 67202D66 		.ascii	"g -ffunction-sections -ffat-lto-objects\000"
 5514      66756E63 
 5514      74696F6E 
 5514      2D736563 
 5514      74696F6E 
 5515              	.LASF130:
 5516 0230 55475F50 		.ascii	"UG_PutColorString\000"
 5516      7574436F 
 5516      6C6F7253 
 5516      7472696E 
 5516      6700
 5517              	.LASF35:
 5518 0242 4252414B 		.ascii	"BRAKE_NOT_PRESSED\000"
 5518      455F4E4F 
 5518      545F5052 
 5518      45535345 
 5518      4400
 5519              	.LASF125:
 5520 0254 55475F46 		.ascii	"UG_FillScreen\000"
 5520      696C6C53 
 5520      63726565 
 5520      6E00
 5521              	.LASF119:
 5522 0262 6C617374 		.ascii	"last_SOC_color\000"
 5522      5F534F43 
 5522      5F636F6C 
 5522      6F7200
 5523              	.LASF49:
 5524 0271 63686172 		.ascii	"char_width\000"
 5524      5F776964 
 5524      746800
 5525              	.LASF36:
 5526 027c 48565F44 		.ascii	"HV_DISABLED_WHILE_DRIVING\000"
 5526      49534142 
 5526      4C45445F 
 5526      5748494C 
 5526      455F4452 
 5527              	.LASF39:
 5528 0296 4553544F 		.ascii	"ESTOP\000"
 5528      5000
 5529              	.LASF112:
 5530 029c 64697370 		.ascii	"disp_glv_v\000"
 5530      5F676C76 
 5530      5F7600
 5531              	.LASF124:
 5532 02a7 6C617374 		.ascii	"last_motor_temp_color\000"
 5532      5F6D6F74 
 5532      6F725F74 
 5532      656D705F 
 5532      636F6C6F 
 5533              	.LASF29:
 5534 02bd 48565F45 		.ascii	"HV_ENABLED\000"
 5534      4E41424C 
 5534      454400
ARM GAS  C:\Users\ANDREY~1\AppData\Local\Temp\cc2zgKhH.s 			page 106


 5535              	.LASF87:
 5536 02c8 795F7374 		.ascii	"y_start\000"
 5536      61727400 
 5537              	.LASF78:
 5538 02d0 765F7370 		.ascii	"v_space\000"
 5538      61636500 
 5539              	.LASF25:
 5540 02d8 63686172 		.ascii	"char\000"
 5540      00
 5541              	.LASF34:
 5542 02dd 434F4E53 		.ascii	"CONSERVATIVE_TIMER_MAXED\000"
 5542      45525641 
 5542      54495645 
 5542      5F54494D 
 5542      45525F4D 
 5543              	.LASF48:
 5544 02f6 666F6E74 		.ascii	"font_type\000"
 5544      5F747970 
 5544      6500
 5545              	.LASF72:
 5546 0300 55475F41 		.ascii	"UG_AREA\000"
 5546      52454100 
 5547              	.LASF74:
 5548 0308 55475F4D 		.ascii	"UG_MESSAGE\000"
 5548      45535341 
 5548      474500
 5549              	.LASF22:
 5550 0313 75696E74 		.ascii	"uint16\000"
 5550      313600
 5551              	.LASF63:
 5552 031a 64617461 		.ascii	"data\000"
 5552      00
 5553              	.LASF16:
 5554 031f 75696E74 		.ascii	"uint8_t\000"
 5554      385F7400 
 5555              	.LASF95:
 5556 0327 746F7563 		.ascii	"touch\000"
 5556      6800
 5557              	.LASF82:
 5558 032d 64726976 		.ascii	"driver\000"
 5558      657200
 5559              	.LASF41:
 5560 0334 55475F53 		.ascii	"UG_S8\000"
 5560      3800
 5561              	.LASF93:
 5562 033a 785F6469 		.ascii	"x_dim\000"
 5562      6D00
 5563              	.LASF12:
 5564 0340 6C6F6E67 		.ascii	"long long int\000"
 5564      206C6F6E 
 5564      6720696E 
 5564      7400
 5565              	.LASF120:
 5566 034e 6C617374 		.ascii	"last_max_pack_temp_color\000"
 5566      5F6D6178 
 5566      5F706163 
 5566      6B5F7465 
ARM GAS  C:\Users\ANDREY~1\AppData\Local\Temp\cc2zgKhH.s 			page 107


 5566      6D705F63 
 5567              	.LASF4:
 5568 0367 5F5F696E 		.ascii	"__int16_t\000"
 5568      7431365F 
 5568      7400
 5569              	.LASF55:
 5570 0371 55475F4F 		.ascii	"UG_OBJECT\000"
 5570      424A4543 
 5570      5400
 5571              	.LASF92:
 5572 037b 70736574 		.ascii	"pset\000"
 5572      00
 5573              	.LASF73:
 5574 0380 7375625F 		.ascii	"sub_id\000"
 5574      696400
 5575              	.LASF80:
 5576 0387 68656967 		.ascii	"height\000"
 5576      687400
 5577              	.LASF51:
 5578 038e 73746172 		.ascii	"start_char\000"
 5578      745F6368 
 5578      617200
 5579              	.LASF129:
 5580 0399 73707269 		.ascii	"sprintf\000"
 5580      6E746600 
 5581              	.LASF28:
 5582 03a1 50524543 		.ascii	"PRECHARGING\000"
 5582      48415247 
 5582      494E4700 
 5583              	.LASF40:
 5584 03ad 55475F55 		.ascii	"UG_U8\000"
 5584      3800
 5585              	.LASF0:
 5586 03b3 5F5F696E 		.ascii	"__int8_t\000"
 5586      74385F74 
 5586      00
 5587              	.LASF53:
 5588 03bc 77696474 		.ascii	"widths\000"
 5588      687300
 5589              	.LASF128:
 5590 03c3 55475F50 		.ascii	"UG_PutString\000"
 5590      75745374 
 5590      72696E67 
 5590      00
 5591              	.LASF26:
 5592 03d0 6C6F6E67 		.ascii	"long double\000"
 5592      20646F75 
 5592      626C6500 
 5593              	.LASF134:
 5594 03dc 5A3A5C44 		.ascii	"Z:\\Documents\\UCD\\FRUCD\\Dashboard-Firmware-FE9-F"
 5594      6F63756D 
 5594      656E7473 
 5594      5C554344 
 5594      5C465255 
 5595 040b 45372D42 		.ascii	"E7-Board\\Dashboard.cydsn\000"
 5595      6F617264 
 5595      5C446173 
ARM GAS  C:\Users\ANDREY~1\AppData\Local\Temp\cc2zgKhH.s 			page 108


 5595      68626F61 
 5595      72642E63 
 5596              	.LASF18:
 5597 0424 75696E74 		.ascii	"uint16_t\000"
 5597      31365F74 
 5597      00
 5598              	.LASF118:
 5599 042d 67756931 		.ascii	"gui1963\000"
 5599      39363300 
 5600              	.LASF81:
 5601 0435 55475F54 		.ascii	"UG_TITLE\000"
 5601      49544C45 
 5601      00
 5602              	.LASF83:
 5603 043e 55475F44 		.ascii	"UG_DRIVER\000"
 5603      52495645 
 5603      5200
 5604              	.LASF84:
 5605 0448 785F706F 		.ascii	"x_pos\000"
 5605      7300
 5606              	.LASF50:
 5607 044e 63686172 		.ascii	"char_height\000"
 5607      5F686569 
 5607      67687400 
 5608              	.LASF5:
 5609 045a 73686F72 		.ascii	"short int\000"
 5609      7420696E 
 5609      7400
 5610              	.LASF121:
 5611 0464 6C617374 		.ascii	"last_state_color\000"
 5611      5F737461 
 5611      74655F63 
 5611      6F6C6F72 
 5611      00
 5612              	.LASF9:
 5613 0475 6C6F6E67 		.ascii	"long int\000"
 5613      20696E74 
 5613      00
 5614              	.LASF64:
 5615 047e 55475F57 		.ascii	"UG_WINDOW\000"
 5615      494E444F 
 5615      5700
 5616              	.LASF115:
 5617 0488 49544D5F 		.ascii	"ITM_RxBuffer\000"
 5617      52784275 
 5617      66666572 
 5617      00
 5618              	.LASF114:
 5619 0495 64697370 		.ascii	"disp_motor_temp\000"
 5619      5F6D6F74 
 5619      6F725F74 
 5619      656D7000 
 5620              	.LASF52:
 5621 04a5 656E645F 		.ascii	"end_char\000"
 5621      63686172 
 5621      00
 5622              	.LASF54:
ARM GAS  C:\Users\ANDREY~1\AppData\Local\Temp\cc2zgKhH.s 			page 109


 5623 04ae 55475F46 		.ascii	"UG_FONT\000"
 5623      4F4E5400 
 5624              	.LASF1:
 5625 04b6 5F5F7569 		.ascii	"__uint8_t\000"
 5625      6E74385F 
 5625      7400
 5626              	.LASF76:
 5627 04c0 666F6E74 		.ascii	"font\000"
 5627      00
 5628              	.LASF27:
 5629 04c5 73697A65 		.ascii	"sizetype\000"
 5629      74797065 
 5629      00
 5630              	.LASF105:
 5631 04ce 696E6974 		.ascii	"initDashTemplate\000"
 5631      44617368 
 5631      54656D70 
 5631      6C617465 
 5631      00
 5632              	.LASF11:
 5633 04df 6C6F6E67 		.ascii	"long unsigned int\000"
 5633      20756E73 
 5633      69676E65 
 5633      6420696E 
 5633      7400
 5634              	.LASF113:
 5635 04f1 64697370 		.ascii	"disp_mc_temp\000"
 5635      5F6D635F 
 5635      74656D70 
 5635      00
 5636              	.LASF117:
 5637 04fe 464F4E54 		.ascii	"FONT_32X53\000"
 5637      5F333258 
 5637      353300
 5638              	.LASF19:
 5639 0509 696E7433 		.ascii	"int32_t\000"
 5639      325F7400 
 5640              	.LASF109:
 5641 0511 64697370 		.ascii	"disp_max_pack_temp\000"
 5641      5F6D6178 
 5641      5F706163 
 5641      6B5F7465 
 5641      6D7000
 5642              	.LASF122:
 5643 0524 6C617374 		.ascii	"last_glv_v_color\000"
 5643      5F676C76 
 5643      5F765F63 
 5643      6F6C6F72 
 5643      00
 5644              	.LASF61:
 5645 0535 74797065 		.ascii	"type\000"
 5645      00
 5646              	.LASF3:
 5647 053a 756E7369 		.ascii	"unsigned char\000"
 5647      676E6564 
 5647      20636861 
 5647      7200
ARM GAS  C:\Users\ANDREY~1\AppData\Local\Temp\cc2zgKhH.s 			page 110


 5648              	.LASF10:
 5649 0548 5F5F7569 		.ascii	"__uint32_t\000"
 5649      6E743332 
 5649      5F7400
 5650              	.LASF77:
 5651 0553 685F7370 		.ascii	"h_space\000"
 5651      61636500 
 5652              	.LASF110:
 5653 055b 64697370 		.ascii	"disp_state\000"
 5653      5F737461 
 5653      746500
 5654              	.LASF86:
 5655 0566 785F7374 		.ascii	"x_start\000"
 5655      61727400 
 5656              	.LASF31:
 5657 056e 4641554C 		.ascii	"FAULT\000"
 5657      5400
 5658              	.LASF89:
 5659 0574 795F656E 		.ascii	"y_end\000"
 5659      6400
 5660              	.LASF123:
 5661 057a 6C617374 		.ascii	"last_mc_temp_color\000"
 5661      5F6D635F 
 5661      74656D70 
 5661      5F636F6C 
 5661      6F7200
 5662              	.LASF69:
 5663 058d 7374796C 		.ascii	"style\000"
 5663      6500
 5664              	.LASF56:
 5665 0593 73746174 		.ascii	"state\000"
 5665      6500
 5666              	.LASF108:
 5667 0599 64697370 		.ascii	"disp_SOC\000"
 5667      5F534F43 
 5667      00
 5668              	.LASF103:
 5669 05a2 55475F47 		.ascii	"UG_GUI\000"
 5669      554900
 5670              	.LASF60:
 5671 05a9 615F7265 		.ascii	"a_rel\000"
 5671      6C00
 5672              	.LASF75:
 5673 05af 55475F54 		.ascii	"UG_TOUCH\000"
 5673      4F554348 
 5673      00
 5674              	.LASF2:
 5675 05b8 7369676E 		.ascii	"signed char\000"
 5675      65642063 
 5675      68617200 
 5676              	.LASF7:
 5677 05c4 73686F72 		.ascii	"short unsigned int\000"
 5677      7420756E 
 5677      7369676E 
 5677      65642069 
 5677      6E7400
 5678              	.LASF133:
ARM GAS  C:\Users\ANDREY~1\AppData\Local\Temp\cc2zgKhH.s 			page 111


 5679 05d7 66727563 		.ascii	"frucd_display.c\000"
 5679      645F6469 
 5679      73706C61 
 5679      792E6300 
 5680              	.LASF21:
 5681 05e7 75696E74 		.ascii	"uint8\000"
 5681      3800
 5682              	.LASF24:
 5683 05ed 646F7562 		.ascii	"double\000"
 5683      6C6500
 5684              	.LASF131:
 5685 05f4 55475F46 		.ascii	"UG_FontSelect\000"
 5685      6F6E7453 
 5685      656C6563 
 5685      7400
 5686              	.LASF33:
 5687 0602 44524956 		.ascii	"DRIVE_REQUEST_FROM_LV\000"
 5687      455F5245 
 5687      51554553 
 5687      545F4652 
 5687      4F4D5F4C 
 5688              	.LASF65:
 5689 0618 535F4F42 		.ascii	"S_OBJECT\000"
 5689      4A454354 
 5689      00
 5690              	.LASF79:
 5691 0621 616C6967 		.ascii	"align\000"
 5691      6E00
 5692              	.LASF59:
 5693 0627 615F6162 		.ascii	"a_abs\000"
 5693      7300
 5694              	.LASF111:
 5695 062d 6661756C 		.ascii	"fault\000"
 5695      7400
 5696              	.LASF45:
 5697 0633 464F4E54 		.ascii	"FONT_TYPE_1BPP\000"
 5697      5F545950 
 5697      455F3142 
 5697      505000
 5698              	.LASF100:
 5699 0642 63686172 		.ascii	"char_h_space\000"
 5699      5F685F73 
 5699      70616365 
 5699      00
 5700              		.ident	"GCC: (GNU Tools for ARM Embedded Processors) 5.4.1 20160609 (release) [ARM/embedded-5-bran
