ARM GAS  C:\Users\leoja\AppData\Local\Temp\ccVHTcit.s 			page 1


   1              		.syntax unified
   2              		.cpu cortex-m3
   3              		.fpu softvfp
   4              		.eabi_attribute 20, 1
   5              		.eabi_attribute 21, 1
   6              		.eabi_attribute 23, 3
   7              		.eabi_attribute 24, 1
   8              		.eabi_attribute 25, 1
   9              		.eabi_attribute 26, 1
  10              		.eabi_attribute 30, 1
  11              		.eabi_attribute 34, 1
  12              		.eabi_attribute 18, 4
  13              		.thumb
  14              		.syntax unified
  15              		.file	"frucd_display.c"
  16              		.text
  17              	.Ltext0:
  18              		.cfi_sections	.debug_frame
  19              		.section	.text.calibrateScreen,"ax",%progbits
  20              		.align	2
  21              		.global	calibrateScreen
  22              		.thumb
  23              		.thumb_func
  24              		.type	calibrateScreen, %function
  25              	calibrateScreen:
  26              	.LFB64:
  27              		.file 1 "frucd_display.c"
   1:frucd_display.c **** /* ========================================
   2:frucd_display.c ****  *
   3:frucd_display.c ****  * APIs for updating FRUCD Dashboard display
   4:frucd_display.c ****  *
   5:frucd_display.c ****  * ========================================
   6:frucd_display.c **** */
   7:frucd_display.c **** #include "frucd_display.h"
   8:frucd_display.c **** 
   9:frucd_display.c **** // Just a test function that displays elements at the supposed corners of the screen
  10:frucd_display.c **** void calibrateScreen() {
  28              		.loc 1 10 0
  29              		.cfi_startproc
  30              		@ args = 0, pretend = 0, frame = 0
  31              		@ frame_needed = 0, uses_anonymous_args = 0
  32 0000 00B5     		push	{lr}
  33              		.cfi_def_cfa_offset 4
  34              		.cfi_offset 14, -4
  35 0002 83B0     		sub	sp, sp, #12
  36              		.cfi_def_cfa_offset 16
  11:frucd_display.c ****     UG_FillScreen(C_WHITE);
  37              		.loc 1 11 0
  38 0004 6FF07F40 		mvn	r0, #-16777216
  39 0008 FFF7FEFF 		bl	UG_FillScreen
  40              	.LVL0:
  12:frucd_display.c ****     //libTFT_FillRectangle(0, 0, 10, 10, RED);
  13:frucd_display.c ****     UG_FillFrame(0, 0, 10, 10, C_RED);
  41              		.loc 1 13 0
  42 000c 4FF47F03 		mov	r3, #16711680
  43 0010 0093     		str	r3, [sp]
  44 0012 0A23     		movs	r3, #10
ARM GAS  C:\Users\leoja\AppData\Local\Temp\ccVHTcit.s 			page 2


  45 0014 1A46     		mov	r2, r3
  46 0016 0021     		movs	r1, #0
  47 0018 0846     		mov	r0, r1
  48 001a FFF7FEFF 		bl	UG_FillFrame
  49              	.LVL1:
  14:frucd_display.c ****     //libTFT_FillRectangle(0, 262, 10, 10, BLUE);
  15:frucd_display.c ****     UG_FillFrame(0, 262, 10, 272, C_BLUE);
  50              		.loc 1 15 0
  51 001e FF23     		movs	r3, #255
  52 0020 0093     		str	r3, [sp]
  53 0022 4FF48873 		mov	r3, #272
  54 0026 0A22     		movs	r2, #10
  55 0028 4FF48371 		mov	r1, #262
  56 002c 0020     		movs	r0, #0
  57 002e FFF7FEFF 		bl	UG_FillFrame
  58              	.LVL2:
  16:frucd_display.c ****     //libTFT_FillRectangle(470, 0, 10, 10, GREEN);
  17:frucd_display.c ****     UG_FillFrame(470, 0, 480, 10, C_GREEN);
  59              		.loc 1 17 0
  60 0032 4FF47F43 		mov	r3, #65280
  61 0036 0093     		str	r3, [sp]
  62 0038 0A23     		movs	r3, #10
  63 003a 4FF4F072 		mov	r2, #480
  64 003e 0021     		movs	r1, #0
  65 0040 4FF4EB70 		mov	r0, #470
  66 0044 FFF7FEFF 		bl	UG_FillFrame
  67              	.LVL3:
  18:frucd_display.c ****     //libTFT_FillRectangle(470, 262, 10, 10, YELLOW);
  19:frucd_display.c ****     UG_FillFrame(470, 262, 480, 272, C_YELLOW);
  68              		.loc 1 19 0
  69 0048 094B     		ldr	r3, .L3
  70 004a 0093     		str	r3, [sp]
  71 004c 4FF48873 		mov	r3, #272
  72 0050 4FF4F072 		mov	r2, #480
  73 0054 4FF48371 		mov	r1, #262
  74 0058 4FF4EB70 		mov	r0, #470
  75 005c FFF7FEFF 		bl	UG_FillFrame
  76              	.LVL4:
  20:frucd_display.c ****     CyDelay(300);
  77              		.loc 1 20 0
  78 0060 4FF49670 		mov	r0, #300
  79 0064 FFF7FEFF 		bl	CyDelay
  80              	.LVL5:
  21:frucd_display.c **** }
  81              		.loc 1 21 0
  82 0068 03B0     		add	sp, sp, #12
  83              		.cfi_def_cfa_offset 4
  84              		@ sp needed
  85 006a 5DF804FB 		ldr	pc, [sp], #4
  86              	.L4:
  87 006e 00BF     		.align	2
  88              	.L3:
  89 0070 00FFFF00 		.word	16776960
  90              		.cfi_endproc
  91              	.LFE64:
  92              		.size	calibrateScreen, .-calibrateScreen
  93              		.section	.text.initDashTemplate,"ax",%progbits
ARM GAS  C:\Users\leoja\AppData\Local\Temp\ccVHTcit.s 			page 3


  94              		.align	2
  95              		.global	initDashTemplate
  96              		.thumb
  97              		.thumb_func
  98              		.type	initDashTemplate, %function
  99              	initDashTemplate:
 100              	.LFB65:
  22:frucd_display.c **** 
  23:frucd_display.c **** // Initializes dashboard layout/labels
  24:frucd_display.c **** void initDashTemplate() {
 101              		.loc 1 24 0
 102              		.cfi_startproc
 103              		@ args = 0, pretend = 0, frame = 0
 104              		@ frame_needed = 0, uses_anonymous_args = 0
 105 0000 08B5     		push	{r3, lr}
 106              		.cfi_def_cfa_offset 8
 107              		.cfi_offset 3, -8
 108              		.cfi_offset 14, -4
  25:frucd_display.c ****     UG_FillScreen(C_BLACK);
 109              		.loc 1 25 0
 110 0002 0020     		movs	r0, #0
 111 0004 FFF7FEFF 		bl	UG_FillScreen
 112              	.LVL6:
  26:frucd_display.c ****     UG_PutString(68, 10, "PACK SOC");
 113              		.loc 1 26 0
 114 0008 104A     		ldr	r2, .L7
 115 000a 0A21     		movs	r1, #10
 116 000c 4420     		movs	r0, #68
 117 000e FFF7FEFF 		bl	UG_PutString
 118              	.LVL7:
  27:frucd_display.c ****     UG_PutString(297, 10, "MAX PACK T");
 119              		.loc 1 27 0
 120 0012 0F4A     		ldr	r2, .L7+4
 121 0014 0A21     		movs	r1, #10
 122 0016 40F22910 		movw	r0, #297
 123 001a FFF7FEFF 		bl	UG_PutString
 124              	.LVL8:
  28:frucd_display.c ****     UG_PutString(10, 195, "STATE:");
 125              		.loc 1 28 0
 126 001e 0D4A     		ldr	r2, .L7+8
 127 0020 C321     		movs	r1, #195
 128 0022 0A20     		movs	r0, #10
 129 0024 FFF7FEFF 		bl	UG_PutString
 130              	.LVL9:
  29:frucd_display.c ****     UG_PutString(10, 240, "GLV V:");
 131              		.loc 1 29 0
 132 0028 0B4A     		ldr	r2, .L7+12
 133 002a F021     		movs	r1, #240
 134 002c 0A20     		movs	r0, #10
 135 002e FFF7FEFF 		bl	UG_PutString
 136              	.LVL10:
  30:frucd_display.c ****     UG_PutString(339, 195, "MC T:");
 137              		.loc 1 30 0
 138 0032 0A4A     		ldr	r2, .L7+16
 139 0034 C321     		movs	r1, #195
 140 0036 40F25310 		movw	r0, #339
 141 003a FFF7FEFF 		bl	UG_PutString
ARM GAS  C:\Users\leoja\AppData\Local\Temp\ccVHTcit.s 			page 4


 142              	.LVL11:
  31:frucd_display.c ****     UG_PutString(300, 240, "MOTOR T:");
 143              		.loc 1 31 0
 144 003e 084A     		ldr	r2, .L7+20
 145 0040 F021     		movs	r1, #240
 146 0042 4FF49670 		mov	r0, #300
 147 0046 FFF7FEFF 		bl	UG_PutString
 148              	.LVL12:
 149 004a 08BD     		pop	{r3, pc}
 150              	.L8:
 151              		.align	2
 152              	.L7:
 153 004c 00000000 		.word	.LC0
 154 0050 0C000000 		.word	.LC1
 155 0054 18000000 		.word	.LC2
 156 0058 20000000 		.word	.LC3
 157 005c 28000000 		.word	.LC4
 158 0060 30000000 		.word	.LC5
 159              		.cfi_endproc
 160              	.LFE65:
 161              		.size	initDashTemplate, .-initDashTemplate
 162              		.section	.text.disp_SOC,"ax",%progbits
 163              		.align	2
 164              		.global	disp_SOC
 165              		.thumb
 166              		.thumb_func
 167              		.type	disp_SOC, %function
 168              	disp_SOC:
 169              	.LFB66:
  32:frucd_display.c **** }
  33:frucd_display.c **** 
  34:frucd_display.c **** /*
  35:frucd_display.c ****  * BEGIN: functions to show data on dash
  36:frucd_display.c ****  * - handle variety of digit counts
  37:frucd_display.c ****  * - color decision logic is in here
  38:frucd_display.c ****  */
  39:frucd_display.c **** void disp_SOC(uint8_t data) {
 170              		.loc 1 39 0
 171              		.cfi_startproc
 172              		@ args = 0, pretend = 0, frame = 8
 173              		@ frame_needed = 0, uses_anonymous_args = 0
 174              	.LVL13:
 175 0000 30B5     		push	{r4, r5, lr}
 176              		.cfi_def_cfa_offset 12
 177              		.cfi_offset 4, -12
 178              		.cfi_offset 5, -8
 179              		.cfi_offset 14, -4
 180 0002 85B0     		sub	sp, sp, #20
 181              		.cfi_def_cfa_offset 32
 182 0004 0446     		mov	r4, r0
  40:frucd_display.c ****     UG_FontSelect(&FONT_32X53);
 183              		.loc 1 40 0
 184 0006 3948     		ldr	r0, .L21
 185              	.LVL14:
 186 0008 FFF7FEFF 		bl	UG_FontSelect
 187              	.LVL15:
  41:frucd_display.c ****     UG_COLOR color;
ARM GAS  C:\Users\leoja\AppData\Local\Temp\ccVHTcit.s 			page 5


  42:frucd_display.c ****     if (data == 100) {
 188              		.loc 1 42 0
 189 000c 642C     		cmp	r4, #100
 190 000e 19D1     		bne	.L10
 191              	.LVL16:
  43:frucd_display.c ****         // handle 100% case
  44:frucd_display.c ****         color = C_GREEN;
  45:frucd_display.c ****         if (color != last_SOC_color) {
 192              		.loc 1 45 0
 193 0010 374B     		ldr	r3, .L21+4
 194 0012 1B68     		ldr	r3, [r3]
 195 0014 B3F57F4F 		cmp	r3, #65280
 196 0018 0AD0     		beq	.L11
  46:frucd_display.c ****             // only draw rectangle if color changed
  47:frucd_display.c ****             UG_FillFrame(30, 35, 210, 170, color);
 197              		.loc 1 47 0
 198 001a 4FF47F44 		mov	r4, #65280
 199 001e 0094     		str	r4, [sp]
 200 0020 AA23     		movs	r3, #170
 201 0022 D222     		movs	r2, #210
 202 0024 2321     		movs	r1, #35
 203 0026 1E20     		movs	r0, #30
 204 0028 FFF7FEFF 		bl	UG_FillFrame
 205              	.LVL17:
  48:frucd_display.c ****             last_SOC_color = color;
 206              		.loc 1 48 0
 207 002c 304B     		ldr	r3, .L21+4
 208 002e 1C60     		str	r4, [r3]
 209              	.L11:
  49:frucd_display.c ****         }
  50:frucd_display.c ****         UG_PutColorString(55, 80, "100%", C_BLACK, C_GREEN);
 210              		.loc 1 50 0
 211 0030 4FF47F43 		mov	r3, #65280
 212 0034 0093     		str	r3, [sp]
 213 0036 0023     		movs	r3, #0
 214 0038 2E4A     		ldr	r2, .L21+8
 215 003a 5021     		movs	r1, #80
 216 003c 3720     		movs	r0, #55
 217 003e FFF7FEFF 		bl	UG_PutColorString
 218              	.LVL18:
 219 0042 4DE0     		b	.L12
 220              	.LVL19:
 221              	.L10:
 222              	.LBB2:
  51:frucd_display.c ****     } else {
  52:frucd_display.c ****         // handle other cases
  53:frucd_display.c ****         char data_s[4];
  54:frucd_display.c ****         sprintf(data_s, "%d", data);
 223              		.loc 1 54 0
 224 0044 2246     		mov	r2, r4
 225 0046 2C49     		ldr	r1, .L21+12
 226 0048 03A8     		add	r0, sp, #12
 227 004a FFF7FEFF 		bl	sprintf
 228              	.LVL20:
  55:frucd_display.c ****         if (data >= 10) {
 229              		.loc 1 55 0
 230 004e 092C     		cmp	r4, #9
ARM GAS  C:\Users\leoja\AppData\Local\Temp\ccVHTcit.s 			page 6


 231 0050 29D9     		bls	.L13
  56:frucd_display.c ****             // handle 2 digit cases
  57:frucd_display.c ****             // choose color
  58:frucd_display.c ****             if (data > 75) {
 232              		.loc 1 58 0
 233 0052 4B2C     		cmp	r4, #75
 234 0054 05D8     		bhi	.L17
  59:frucd_display.c ****                 color = C_GREEN;
  60:frucd_display.c ****             } else if (data > 50) {
 235              		.loc 1 60 0
 236 0056 322C     		cmp	r4, #50
 237 0058 06D8     		bhi	.L18
  61:frucd_display.c ****                 color = C_YELLOW;
  62:frucd_display.c ****             } else if (data > 25) {
 238              		.loc 1 62 0
 239 005a 192C     		cmp	r4, #25
 240 005c 06D9     		bls	.L19
  63:frucd_display.c ****                 color = C_ORANGE;
 241              		.loc 1 63 0
 242 005e 274C     		ldr	r4, .L21+16
 243 0060 06E0     		b	.L14
 244              	.L17:
  59:frucd_display.c ****                 color = C_GREEN;
 245              		.loc 1 59 0
 246 0062 4FF47F44 		mov	r4, #65280
 247 0066 03E0     		b	.L14
 248              	.L18:
  61:frucd_display.c ****                 color = C_YELLOW;
 249              		.loc 1 61 0
 250 0068 254C     		ldr	r4, .L21+20
 251 006a 01E0     		b	.L14
 252              	.L19:
  64:frucd_display.c ****             } else {
  65:frucd_display.c ****                 color = C_RED;
 253              		.loc 1 65 0
 254 006c 4FF47F04 		mov	r4, #16711680
 255              	.L14:
 256              	.LVL21:
  66:frucd_display.c ****             }
  67:frucd_display.c ****             data_s[2] = '%';
 257              		.loc 1 67 0
 258 0070 2523     		movs	r3, #37
 259 0072 8DF80E30 		strb	r3, [sp, #14]
  68:frucd_display.c ****             data_s[3] = '\0';
 260              		.loc 1 68 0
 261 0076 0023     		movs	r3, #0
 262 0078 8DF80F30 		strb	r3, [sp, #15]
  69:frucd_display.c ****             if (color != last_SOC_color) {
 263              		.loc 1 69 0
 264 007c 1C4B     		ldr	r3, .L21+4
 265 007e 1B68     		ldr	r3, [r3]
 266 0080 9C42     		cmp	r4, r3
 267 0082 08D0     		beq	.L15
  70:frucd_display.c ****                 // only draw rectangle if color changed
  71:frucd_display.c ****                 UG_FillFrame(30, 35, 210, 170, color);
 268              		.loc 1 71 0
 269 0084 0094     		str	r4, [sp]
ARM GAS  C:\Users\leoja\AppData\Local\Temp\ccVHTcit.s 			page 7


 270 0086 AA23     		movs	r3, #170
 271 0088 D222     		movs	r2, #210
 272 008a 2321     		movs	r1, #35
 273 008c 1E20     		movs	r0, #30
 274 008e FFF7FEFF 		bl	UG_FillFrame
 275              	.LVL22:
  72:frucd_display.c ****                 last_SOC_color = color;
 276              		.loc 1 72 0
 277 0092 174B     		ldr	r3, .L21+4
 278 0094 1C60     		str	r4, [r3]
 279              	.L15:
  73:frucd_display.c ****             }
  74:frucd_display.c ****             UG_PutColorString(70, 80, data_s, C_BLACK, color);
 280              		.loc 1 74 0
 281 0096 0094     		str	r4, [sp]
 282 0098 0023     		movs	r3, #0
 283 009a 03AA     		add	r2, sp, #12
 284 009c 5021     		movs	r1, #80
 285 009e 4620     		movs	r0, #70
 286 00a0 FFF7FEFF 		bl	UG_PutColorString
 287              	.LVL23:
 288 00a4 1CE0     		b	.L12
 289              	.LVL24:
 290              	.L13:
  75:frucd_display.c ****         } else {
  76:frucd_display.c ****             // handle 1 digit cases
  77:frucd_display.c ****             data_s[1] = '%';
 291              		.loc 1 77 0
 292 00a6 2523     		movs	r3, #37
 293 00a8 8DF80D30 		strb	r3, [sp, #13]
  78:frucd_display.c ****             data_s[2] = '\0';
 294              		.loc 1 78 0
 295 00ac 0024     		movs	r4, #0
 296 00ae 8DF80E40 		strb	r4, [sp, #14]
 297              	.LVL25:
  79:frucd_display.c ****             color = C_RED;
  80:frucd_display.c ****             UG_FillFrame(30, 35, 210, 170, C_BLACK);
 298              		.loc 1 80 0
 299 00b2 0094     		str	r4, [sp]
 300 00b4 AA23     		movs	r3, #170
 301 00b6 D222     		movs	r2, #210
 302 00b8 2321     		movs	r1, #35
 303 00ba 1E20     		movs	r0, #30
 304 00bc FFF7FEFF 		bl	UG_FillFrame
 305              	.LVL26:
  81:frucd_display.c ****             UG_FillFrame(30, 35, 210, 170, color);
 306              		.loc 1 81 0
 307 00c0 4FF47F05 		mov	r5, #16711680
 308 00c4 0095     		str	r5, [sp]
 309 00c6 AA23     		movs	r3, #170
 310 00c8 D222     		movs	r2, #210
 311 00ca 2321     		movs	r1, #35
 312 00cc 1E20     		movs	r0, #30
 313 00ce FFF7FEFF 		bl	UG_FillFrame
 314              	.LVL27:
  82:frucd_display.c ****             UG_PutColorString(90, 80, data_s, C_BLACK, color);
 315              		.loc 1 82 0
ARM GAS  C:\Users\leoja\AppData\Local\Temp\ccVHTcit.s 			page 8


 316 00d2 0095     		str	r5, [sp]
 317 00d4 2346     		mov	r3, r4
 318 00d6 03AA     		add	r2, sp, #12
 319 00d8 5021     		movs	r1, #80
 320 00da 5A20     		movs	r0, #90
 321 00dc FFF7FEFF 		bl	UG_PutColorString
 322              	.LVL28:
 323              	.L12:
 324              	.LBE2:
  83:frucd_display.c ****         }   
  84:frucd_display.c ****     }
  85:frucd_display.c ****     UG_FontSelect(&FONT_12X16);
 325              		.loc 1 85 0
 326 00e0 0848     		ldr	r0, .L21+24
 327 00e2 FFF7FEFF 		bl	UG_FontSelect
 328              	.LVL29:
  86:frucd_display.c **** }
 329              		.loc 1 86 0
 330 00e6 05B0     		add	sp, sp, #20
 331              		.cfi_def_cfa_offset 12
 332              		@ sp needed
 333 00e8 30BD     		pop	{r4, r5, pc}
 334              	.L22:
 335 00ea 00BF     		.align	2
 336              	.L21:
 337 00ec 00000000 		.word	FONT_32X53
 338 00f0 00000000 		.word	last_SOC_color
 339 00f4 3C000000 		.word	.LC6
 340 00f8 44000000 		.word	.LC7
 341 00fc 00A5FF00 		.word	16753920
 342 0100 00FFFF00 		.word	16776960
 343 0104 00000000 		.word	FONT_12X16
 344              		.cfi_endproc
 345              	.LFE66:
 346              		.size	disp_SOC, .-disp_SOC
 347              		.section	.text.disp_max_pack_temp,"ax",%progbits
 348              		.align	2
 349              		.global	disp_max_pack_temp
 350              		.thumb
 351              		.thumb_func
 352              		.type	disp_max_pack_temp, %function
 353              	disp_max_pack_temp:
 354              	.LFB67:
  87:frucd_display.c **** 
  88:frucd_display.c **** void disp_max_pack_temp(uint8_t data) {
 355              		.loc 1 88 0
 356              		.cfi_startproc
 357              		@ args = 0, pretend = 0, frame = 8
 358              		@ frame_needed = 0, uses_anonymous_args = 0
 359              	.LVL30:
 360 0000 30B5     		push	{r4, r5, lr}
 361              		.cfi_def_cfa_offset 12
 362              		.cfi_offset 4, -12
 363              		.cfi_offset 5, -8
 364              		.cfi_offset 14, -4
 365 0002 85B0     		sub	sp, sp, #20
 366              		.cfi_def_cfa_offset 32
ARM GAS  C:\Users\leoja\AppData\Local\Temp\ccVHTcit.s 			page 9


 367 0004 0546     		mov	r5, r0
  89:frucd_display.c ****     // choose color
  90:frucd_display.c ****     UG_COLOR color;
  91:frucd_display.c ****     if (data < 45) {
 368              		.loc 1 91 0
 369 0006 2C28     		cmp	r0, #44
 370 0008 19D9     		bls	.L26
  92:frucd_display.c ****         color = C_GREEN;
  93:frucd_display.c ****     } else if (data < 50) {
 371              		.loc 1 93 0
 372 000a 3128     		cmp	r0, #49
 373 000c 1AD9     		bls	.L27
  94:frucd_display.c ****         color = C_YELLOW;
  95:frucd_display.c ****     } else if (data < 55) {
 374              		.loc 1 95 0
 375 000e 3628     		cmp	r0, #54
 376 0010 1AD9     		bls	.L28
 377              	.LVL31:
  96:frucd_display.c ****         color = C_ORANGE;
  97:frucd_display.c ****     } else {
  98:frucd_display.c ****         color = C_RED;
  99:frucd_display.c ****         UG_FillFrame(270, 35, 450, 170, C_BLACK);
 378              		.loc 1 99 0
 379 0012 0023     		movs	r3, #0
 380 0014 0093     		str	r3, [sp]
 381 0016 AA23     		movs	r3, #170
 382 0018 4FF4E172 		mov	r2, #450
 383 001c 2321     		movs	r1, #35
 384 001e 4FF48770 		mov	r0, #270
 385              	.LVL32:
 386 0022 FFF7FEFF 		bl	UG_FillFrame
 387              	.LVL33:
 100:frucd_display.c ****         UG_FillFrame(270, 35, 450, 170, color);
 388              		.loc 1 100 0
 389 0026 4FF47F04 		mov	r4, #16711680
 390 002a 0094     		str	r4, [sp]
 391 002c AA23     		movs	r3, #170
 392 002e 4FF4E172 		mov	r2, #450
 393 0032 2321     		movs	r1, #35
 394 0034 4FF48770 		mov	r0, #270
 395 0038 FFF7FEFF 		bl	UG_FillFrame
 396              	.LVL34:
 397 003c 05E0     		b	.L24
 398              	.LVL35:
 399              	.L26:
  92:frucd_display.c ****     } else if (data < 50) {
 400              		.loc 1 92 0
 401 003e 4FF47F44 		mov	r4, #65280
 402 0042 02E0     		b	.L24
 403              	.L27:
  94:frucd_display.c ****     } else if (data < 55) {
 404              		.loc 1 94 0
 405 0044 154C     		ldr	r4, .L30
 406 0046 00E0     		b	.L24
 407              	.L28:
  96:frucd_display.c ****     } else {
 408              		.loc 1 96 0
ARM GAS  C:\Users\leoja\AppData\Local\Temp\ccVHTcit.s 			page 10


 409 0048 154C     		ldr	r4, .L30+4
 410              	.LVL36:
 411              	.L24:
 101:frucd_display.c ****     }
 102:frucd_display.c ****     
 103:frucd_display.c ****     if (color != last_max_pack_temp_color) {
 412              		.loc 1 103 0
 413 004a 164B     		ldr	r3, .L30+8
 414 004c 1B68     		ldr	r3, [r3]
 415 004e 9C42     		cmp	r4, r3
 416 0050 0AD0     		beq	.L25
 104:frucd_display.c ****         // only draw rectangle if color changed
 105:frucd_display.c ****         UG_FillFrame(270, 35, 450, 170, color);
 417              		.loc 1 105 0
 418 0052 0094     		str	r4, [sp]
 419 0054 AA23     		movs	r3, #170
 420 0056 4FF4E172 		mov	r2, #450
 421 005a 2321     		movs	r1, #35
 422 005c 4FF48770 		mov	r0, #270
 423 0060 FFF7FEFF 		bl	UG_FillFrame
 424              	.LVL37:
 106:frucd_display.c ****         last_max_pack_temp_color = color;
 425              		.loc 1 106 0
 426 0064 0F4B     		ldr	r3, .L30+8
 427 0066 1C60     		str	r4, [r3]
 428              	.L25:
 107:frucd_display.c ****     }
 108:frucd_display.c ****     UG_FontSelect(&FONT_32X53);
 429              		.loc 1 108 0
 430 0068 0F48     		ldr	r0, .L30+12
 431 006a FFF7FEFF 		bl	UG_FontSelect
 432              	.LVL38:
 109:frucd_display.c ****     char data_s[4];
 110:frucd_display.c ****     sprintf(data_s, "%d", data);
 433              		.loc 1 110 0
 434 006e 2A46     		mov	r2, r5
 435 0070 0E49     		ldr	r1, .L30+16
 436 0072 03A8     		add	r0, sp, #12
 437 0074 FFF7FEFF 		bl	sprintf
 438              	.LVL39:
 111:frucd_display.c ****     data_s[2] = 'C';
 439              		.loc 1 111 0
 440 0078 4323     		movs	r3, #67
 441 007a 8DF80E30 		strb	r3, [sp, #14]
 112:frucd_display.c ****     data_s[3] = '\0';
 442              		.loc 1 112 0
 443 007e 0023     		movs	r3, #0
 444 0080 8DF80F30 		strb	r3, [sp, #15]
 113:frucd_display.c ****     UG_PutColorString(310, 80, data_s, C_BLACK, color);
 445              		.loc 1 113 0
 446 0084 0094     		str	r4, [sp]
 447 0086 03AA     		add	r2, sp, #12
 448 0088 5021     		movs	r1, #80
 449 008a 4FF49B70 		mov	r0, #310
 450 008e FFF7FEFF 		bl	UG_PutColorString
 451              	.LVL40:
 114:frucd_display.c ****     UG_FontSelect(&FONT_12X16);
ARM GAS  C:\Users\leoja\AppData\Local\Temp\ccVHTcit.s 			page 11


 452              		.loc 1 114 0
 453 0092 0748     		ldr	r0, .L30+20
 454 0094 FFF7FEFF 		bl	UG_FontSelect
 455              	.LVL41:
 115:frucd_display.c **** }
 456              		.loc 1 115 0
 457 0098 05B0     		add	sp, sp, #20
 458              		.cfi_def_cfa_offset 12
 459              		@ sp needed
 460 009a 30BD     		pop	{r4, r5, pc}
 461              	.LVL42:
 462              	.L31:
 463              		.align	2
 464              	.L30:
 465 009c 00FFFF00 		.word	16776960
 466 00a0 00A5FF00 		.word	16753920
 467 00a4 00000000 		.word	last_max_pack_temp_color
 468 00a8 00000000 		.word	FONT_32X53
 469 00ac 44000000 		.word	.LC7
 470 00b0 00000000 		.word	FONT_12X16
 471              		.cfi_endproc
 472              	.LFE67:
 473              		.size	disp_max_pack_temp, .-disp_max_pack_temp
 474              		.section	.text.state_rect,"ax",%progbits
 475              		.align	2
 476              		.global	state_rect
 477              		.thumb
 478              		.thumb_func
 479              		.type	state_rect, %function
 480              	state_rect:
 481              	.LFB69:
 116:frucd_display.c **** 
 117:frucd_display.c **** void disp_state(uint8_t state, BMS_STATUS bms_status) { // TODO
 118:frucd_display.c ****     UG_COLOR color;
 119:frucd_display.c ****     
 120:frucd_display.c ****     switch(bms_status){        //BMS faults more important than VCU faults
 121:frucd_display.c ****         case PACK_TEMP_OVER: 
 122:frucd_display.c ****         case PACK_TEMP_UNDER:
 123:frucd_display.c ****             color = C_RED;
 124:frucd_display.c ****             state_rect(color);
 125:frucd_display.c ****             UG_PutColorString(100, 195, "BMS TEMP", C_BLACK, color);
 126:frucd_display.c ****             break;
 127:frucd_display.c ****         case LOW_SOC: 
 128:frucd_display.c ****             color = C_RED;
 129:frucd_display.c ****             state_rect(color);
 130:frucd_display.c ****             UG_PutColorString(100, 195, "LOW SOC", C_BLACK, color);
 131:frucd_display.c ****             break;
 132:frucd_display.c ****         case IMBALANCE:
 133:frucd_display.c ****             color = C_RED;
 134:frucd_display.c ****             state_rect(color);
 135:frucd_display.c ****             UG_PutColorString(100, 195, "IMBALANCE", C_BLACK, color);
 136:frucd_display.c ****             break;
 137:frucd_display.c ****         case SPI_FAULT:
 138:frucd_display.c ****             color = C_RED;
 139:frucd_display.c ****             state_rect(color);
 140:frucd_display.c ****             UG_PutColorString(100, 195, "SPI FAULT", C_BLACK, color);
 141:frucd_display.c ****             break;
ARM GAS  C:\Users\leoja\AppData\Local\Temp\ccVHTcit.s 			page 12


 142:frucd_display.c ****         case CELL_VOLT_OVER:
 143:frucd_display.c ****             color = C_RED;
 144:frucd_display.c ****             state_rect(color);
 145:frucd_display.c ****             UG_PutColorString(100, 195, "OVERVOLT", C_BLACK, color);
 146:frucd_display.c ****             break;
 147:frucd_display.c ****         case CELL_VOLT_UNDER:
 148:frucd_display.c ****             color = C_RED;
 149:frucd_display.c ****             state_rect(color);
 150:frucd_display.c ****             UG_PutColorString(100, 195, "UNDERVOLT", C_BLACK, color);
 151:frucd_display.c ****             break;
 152:frucd_display.c ****         default:
 153:frucd_display.c ****             // check fault bit
 154:frucd_display.c ****             if (state & 0x80) {
 155:frucd_display.c ****                 // *************** FAULTS ***************
 156:frucd_display.c ****                 uint8 fault = state & 0x7f; // mask off fault bit
 157:frucd_display.c ****                 switch(fault) {
 158:frucd_display.c ****                     case NONE: // STARTUP (effectively)
 159:frucd_display.c ****                         // not obtainable via CAN
 160:frucd_display.c ****                         // would only show when hardcoded on startup
 161:frucd_display.c ****                         color = C_YELLOW;
 162:frucd_display.c ****                         state_rect(color);
 163:frucd_display.c ****                         UG_PutColorString(100, 195, " STARTUP  ", C_BLACK, color);
 164:frucd_display.c ****                         break;
 165:frucd_display.c ****                     case DRIVE_REQUEST_FROM_LV:
 166:frucd_display.c ****                         color = C_RED;
 167:frucd_display.c ****                         state_rect(color);
 168:frucd_display.c ****                         UG_PutColorString(100, 195, "DRV FRM LV", C_BLACK, color);
 169:frucd_display.c ****                         break;
 170:frucd_display.c ****                     case CONSERVATIVE_TIMER_MAXED:
 171:frucd_display.c ****                         color = C_RED;
 172:frucd_display.c ****                         state_rect(color);
 173:frucd_display.c ****                         UG_PutColorString(100, 195, "PRE TM OUT", C_BLACK, color);
 174:frucd_display.c ****                         break;
 175:frucd_display.c ****                     case BRAKE_NOT_PRESSED:
 176:frucd_display.c ****                         color = C_RED;
 177:frucd_display.c ****                         state_rect(color);
 178:frucd_display.c ****                         UG_PutColorString(100, 195, "BR NOT PRS", C_BLACK, color);
 179:frucd_display.c ****                         break;
 180:frucd_display.c ****                     case HV_DISABLED_WHILE_DRIVING:
 181:frucd_display.c ****                         color = C_RED;
 182:frucd_display.c ****                         state_rect(color);
 183:frucd_display.c ****                         UG_PutColorString(100, 195, "HV OFF DRV", C_BLACK, color);
 184:frucd_display.c ****                         break;
 185:frucd_display.c ****                     case SENSOR_DISCREPANCY:
 186:frucd_display.c ****                         color = C_RED;
 187:frucd_display.c ****                         state_rect(color);
 188:frucd_display.c ****                         UG_PutColorString(100, 195, "SNSR DSCRP", C_BLACK, color);
 189:frucd_display.c ****                         break;
 190:frucd_display.c ****                     case BRAKE_IMPLAUSIBLE:
 191:frucd_display.c ****                         color = C_YELLOW;
 192:frucd_display.c ****                         state_rect(color);
 193:frucd_display.c ****                         UG_PutColorString(100, 195, "BSPD TRIPD", C_BLACK, color); //whitespace to 
 194:frucd_display.c ****                         break;
 195:frucd_display.c ****                     case SHUTDOWN_CIRCUIT_OPEN:
 196:frucd_display.c ****                         color = C_RED;
 197:frucd_display.c ****                         state_rect(color);
 198:frucd_display.c ****                         UG_PutColorString(100, 195, "SHTDWN OPN", C_BLACK, color); //whitespace to 
ARM GAS  C:\Users\leoja\AppData\Local\Temp\ccVHTcit.s 			page 13


 199:frucd_display.c ****                         break;
 200:frucd_display.c ****                     case UNCALIBRATED:
 201:frucd_display.c ****                         color = C_RED;
 202:frucd_display.c ****                         state_rect(color);
 203:frucd_display.c ****                         UG_PutColorString(100, 195, "UNCALIBRATED", C_BLACK, color); //whitespace t
 204:frucd_display.c ****                         break;
 205:frucd_display.c ****                 }
 206:frucd_display.c ****                 
 207:frucd_display.c ****             } else {
 208:frucd_display.c ****                 // *************** NO FAULTS ***************
 209:frucd_display.c ****                 color = C_GREEN;
 210:frucd_display.c ****                 state_rect(color);
 211:frucd_display.c ****                 switch(state) {
 212:frucd_display.c ****                     case LV:
 213:frucd_display.c ****                         UG_PutColorString(100, 195, "    LV    ", C_BLACK, color);
 214:frucd_display.c ****                         break;
 215:frucd_display.c ****                     case PRECHARGING:
 216:frucd_display.c ****                         UG_PutColorString(100, 195, "PRECHARGE ", C_BLACK, color);
 217:frucd_display.c ****                         break;
 218:frucd_display.c ****                     case HV_ENABLED:
 219:frucd_display.c ****                         UG_PutColorString(100, 195, "HV ENABLED", C_BLACK, color);
 220:frucd_display.c ****                         break;
 221:frucd_display.c ****                     case DRIVE:
 222:frucd_display.c ****                         UG_PutColorString(100, 195, "  DRIVE   ", C_BLACK, color);
 223:frucd_display.c ****                         break;
 224:frucd_display.c ****                 }
 225:frucd_display.c ****             }
 226:frucd_display.c ****             break; 
 227:frucd_display.c ****     }
 228:frucd_display.c **** }
 229:frucd_display.c **** 
 230:frucd_display.c **** void state_rect(UG_COLOR color){
 482              		.loc 1 230 0
 483              		.cfi_startproc
 484              		@ args = 0, pretend = 0, frame = 0
 485              		@ frame_needed = 0, uses_anonymous_args = 0
 486              	.LVL43:
 231:frucd_display.c ****     if (color != last_state_color) {
 487              		.loc 1 231 0
 488 0000 094B     		ldr	r3, .L36
 489 0002 1B68     		ldr	r3, [r3]
 490 0004 8342     		cmp	r3, r0
 491 0006 0DD0     		beq	.L35
 230:frucd_display.c ****     if (color != last_state_color) {
 492              		.loc 1 230 0
 493 0008 10B5     		push	{r4, lr}
 494              		.cfi_def_cfa_offset 8
 495              		.cfi_offset 4, -8
 496              		.cfi_offset 14, -4
 497 000a 82B0     		sub	sp, sp, #8
 498              		.cfi_def_cfa_offset 16
 499 000c 0446     		mov	r4, r0
 232:frucd_display.c ****         // only draw rectangle if color changed
 233:frucd_display.c ****         UG_FillFrame(95, 185, 240, 215, color);
 500              		.loc 1 233 0
 501 000e 0090     		str	r0, [sp]
 502 0010 D723     		movs	r3, #215
ARM GAS  C:\Users\leoja\AppData\Local\Temp\ccVHTcit.s 			page 14


 503 0012 F022     		movs	r2, #240
 504 0014 B921     		movs	r1, #185
 505 0016 5F20     		movs	r0, #95
 506              	.LVL44:
 507 0018 FFF7FEFF 		bl	UG_FillFrame
 508              	.LVL45:
 234:frucd_display.c ****         last_state_color = color;
 509              		.loc 1 234 0
 510 001c 024B     		ldr	r3, .L36
 511 001e 1C60     		str	r4, [r3]
 235:frucd_display.c ****     }
 236:frucd_display.c **** }
 512              		.loc 1 236 0
 513 0020 02B0     		add	sp, sp, #8
 514              		.cfi_def_cfa_offset 8
 515              		@ sp needed
 516 0022 10BD     		pop	{r4, pc}
 517              	.LVL46:
 518              	.L35:
 519              		.cfi_def_cfa_offset 0
 520              		.cfi_restore 4
 521              		.cfi_restore 14
 522 0024 7047     		bx	lr
 523              	.L37:
 524 0026 00BF     		.align	2
 525              	.L36:
 526 0028 00000000 		.word	last_state_color
 527              		.cfi_endproc
 528              	.LFE69:
 529              		.size	state_rect, .-state_rect
 530              		.section	.text.disp_state,"ax",%progbits
 531              		.align	2
 532              		.global	disp_state
 533              		.thumb
 534              		.thumb_func
 535              		.type	disp_state, %function
 536              	disp_state:
 537              	.LFB68:
 117:frucd_display.c ****     UG_COLOR color;
 538              		.loc 1 117 0
 539              		.cfi_startproc
 540              		@ args = 0, pretend = 0, frame = 0
 541              		@ frame_needed = 0, uses_anonymous_args = 0
 542              	.LVL47:
 543 0000 10B5     		push	{r4, lr}
 544              		.cfi_def_cfa_offset 8
 545              		.cfi_offset 4, -8
 546              		.cfi_offset 14, -4
 547 0002 82B0     		sub	sp, sp, #8
 548              		.cfi_def_cfa_offset 16
 120:frucd_display.c ****         case PACK_TEMP_OVER: 
 549              		.loc 1 120 0
 550 0004 4029     		cmp	r1, #64
 551 0006 2ED0     		beq	.L40
 552 0008 0446     		mov	r4, r0
 553 000a 06D8     		bhi	.L41
 554 000c 0829     		cmp	r1, #8
ARM GAS  C:\Users\leoja\AppData\Local\Temp\ccVHTcit.s 			page 15


 555 000e 0ED0     		beq	.L42
 556 0010 1029     		cmp	r1, #16
 557 0012 1AD0     		beq	.L43
 558 0014 0229     		cmp	r1, #2
 559 0016 5ED1     		bne	.L39
 560 0018 09E0     		b	.L42
 561              	.L41:
 562 001a B1F5006F 		cmp	r1, #2048
 563 001e 3ED0     		beq	.L44
 564 0020 B1F5805F 		cmp	r1, #4096
 565 0024 49D0     		beq	.L45
 566 0026 B1F5806F 		cmp	r1, #1024
 567 002a 54D1     		bne	.L39
 568 002c 29E0     		b	.L46
 569              	.L42:
 570              	.LVL48:
 124:frucd_display.c ****             UG_PutColorString(100, 195, "BMS TEMP", C_BLACK, color);
 571              		.loc 1 124 0
 572 002e 4FF47F00 		mov	r0, #16711680
 573              	.LVL49:
 574 0032 FFF7FEFF 		bl	state_rect
 575              	.LVL50:
 125:frucd_display.c ****             break;
 576              		.loc 1 125 0
 577 0036 4FF47F03 		mov	r3, #16711680
 578 003a 0093     		str	r3, [sp]
 579 003c 0023     		movs	r3, #0
 580 003e 844A     		ldr	r2, .L65
 581 0040 C321     		movs	r1, #195
 582 0042 6420     		movs	r0, #100
 583 0044 FFF7FEFF 		bl	UG_PutColorString
 584              	.LVL51:
 126:frucd_display.c ****         case LOW_SOC: 
 585              		.loc 1 126 0
 586 0048 00E1     		b	.L38
 587              	.LVL52:
 588              	.L43:
 129:frucd_display.c ****             UG_PutColorString(100, 195, "LOW SOC", C_BLACK, color);
 589              		.loc 1 129 0
 590 004a 4FF47F00 		mov	r0, #16711680
 591              	.LVL53:
 592 004e FFF7FEFF 		bl	state_rect
 593              	.LVL54:
 130:frucd_display.c ****             break;
 594              		.loc 1 130 0
 595 0052 4FF47F03 		mov	r3, #16711680
 596 0056 0093     		str	r3, [sp]
 597 0058 0023     		movs	r3, #0
 598 005a 7E4A     		ldr	r2, .L65+4
 599 005c C321     		movs	r1, #195
 600 005e 6420     		movs	r0, #100
 601 0060 FFF7FEFF 		bl	UG_PutColorString
 602              	.LVL55:
 131:frucd_display.c ****         case IMBALANCE:
 603              		.loc 1 131 0
 604 0064 F2E0     		b	.L38
 605              	.LVL56:
ARM GAS  C:\Users\leoja\AppData\Local\Temp\ccVHTcit.s 			page 16


 606              	.L40:
 134:frucd_display.c ****             UG_PutColorString(100, 195, "IMBALANCE", C_BLACK, color);
 607              		.loc 1 134 0
 608 0066 4FF47F00 		mov	r0, #16711680
 609              	.LVL57:
 610 006a FFF7FEFF 		bl	state_rect
 611              	.LVL58:
 135:frucd_display.c ****             break;
 612              		.loc 1 135 0
 613 006e 4FF47F03 		mov	r3, #16711680
 614 0072 0093     		str	r3, [sp]
 615 0074 0023     		movs	r3, #0
 616 0076 784A     		ldr	r2, .L65+8
 617 0078 C321     		movs	r1, #195
 618 007a 6420     		movs	r0, #100
 619 007c FFF7FEFF 		bl	UG_PutColorString
 620              	.LVL59:
 136:frucd_display.c ****         case SPI_FAULT:
 621              		.loc 1 136 0
 622 0080 E4E0     		b	.L38
 623              	.LVL60:
 624              	.L46:
 139:frucd_display.c ****             UG_PutColorString(100, 195, "SPI FAULT", C_BLACK, color);
 625              		.loc 1 139 0
 626 0082 4FF47F00 		mov	r0, #16711680
 627              	.LVL61:
 628 0086 FFF7FEFF 		bl	state_rect
 629              	.LVL62:
 140:frucd_display.c ****             break;
 630              		.loc 1 140 0
 631 008a 4FF47F03 		mov	r3, #16711680
 632 008e 0093     		str	r3, [sp]
 633 0090 0023     		movs	r3, #0
 634 0092 724A     		ldr	r2, .L65+12
 635 0094 C321     		movs	r1, #195
 636 0096 6420     		movs	r0, #100
 637 0098 FFF7FEFF 		bl	UG_PutColorString
 638              	.LVL63:
 141:frucd_display.c ****         case CELL_VOLT_OVER:
 639              		.loc 1 141 0
 640 009c D6E0     		b	.L38
 641              	.LVL64:
 642              	.L44:
 144:frucd_display.c ****             UG_PutColorString(100, 195, "OVERVOLT", C_BLACK, color);
 643              		.loc 1 144 0
 644 009e 4FF47F00 		mov	r0, #16711680
 645              	.LVL65:
 646 00a2 FFF7FEFF 		bl	state_rect
 647              	.LVL66:
 145:frucd_display.c ****             break;
 648              		.loc 1 145 0
 649 00a6 4FF47F03 		mov	r3, #16711680
 650 00aa 0093     		str	r3, [sp]
 651 00ac 0023     		movs	r3, #0
 652 00ae 6C4A     		ldr	r2, .L65+16
 653 00b0 C321     		movs	r1, #195
 654 00b2 6420     		movs	r0, #100
ARM GAS  C:\Users\leoja\AppData\Local\Temp\ccVHTcit.s 			page 17


 655 00b4 FFF7FEFF 		bl	UG_PutColorString
 656              	.LVL67:
 146:frucd_display.c ****         case CELL_VOLT_UNDER:
 657              		.loc 1 146 0
 658 00b8 C8E0     		b	.L38
 659              	.LVL68:
 660              	.L45:
 149:frucd_display.c ****             UG_PutColorString(100, 195, "UNDERVOLT", C_BLACK, color);
 661              		.loc 1 149 0
 662 00ba 4FF47F00 		mov	r0, #16711680
 663              	.LVL69:
 664 00be FFF7FEFF 		bl	state_rect
 665              	.LVL70:
 150:frucd_display.c ****             break;
 666              		.loc 1 150 0
 667 00c2 4FF47F03 		mov	r3, #16711680
 668 00c6 0093     		str	r3, [sp]
 669 00c8 0023     		movs	r3, #0
 670 00ca 664A     		ldr	r2, .L65+20
 671 00cc C321     		movs	r1, #195
 672 00ce 6420     		movs	r0, #100
 673 00d0 FFF7FEFF 		bl	UG_PutColorString
 674              	.LVL71:
 151:frucd_display.c ****         default:
 675              		.loc 1 151 0
 676 00d4 BAE0     		b	.L38
 677              	.LVL72:
 678              	.L39:
 154:frucd_display.c ****                 // *************** FAULTS ***************
 679              		.loc 1 154 0
 680 00d6 14F0800F 		tst	r4, #128
 681 00da 00F08680 		beq	.L48
 682              	.LBB3:
 156:frucd_display.c ****                 switch(fault) {
 683              		.loc 1 156 0
 684 00de 04F07F04 		and	r4, r4, #127
 685              	.LVL73:
 157:frucd_display.c ****                     case NONE: // STARTUP (effectively)
 686              		.loc 1 157 0
 687 00e2 082C     		cmp	r4, #8
 688 00e4 00F2B280 		bhi	.L38
 689 00e8 DFE804F0 		tbb	[pc, r4]
 690              	.L50:
 691 00ec 05       		.byte	(.L49-.L50)/2
 692 00ed 11       		.byte	(.L51-.L50)/2
 693 00ee 1F       		.byte	(.L52-.L50)/2
 694 00ef 2D       		.byte	(.L53-.L50)/2
 695 00f0 3B       		.byte	(.L54-.L50)/2
 696 00f1 49       		.byte	(.L55-.L50)/2
 697 00f2 57       		.byte	(.L56-.L50)/2
 698 00f3 63       		.byte	(.L57-.L50)/2
 699 00f4 71       		.byte	(.L58-.L50)/2
 700 00f5 00       		.p2align 1
 701              	.L49:
 702              	.LVL74:
 162:frucd_display.c ****                         UG_PutColorString(100, 195, " STARTUP  ", C_BLACK, color);
 703              		.loc 1 162 0
ARM GAS  C:\Users\leoja\AppData\Local\Temp\ccVHTcit.s 			page 18


 704 00f6 5C4C     		ldr	r4, .L65+24
 705              	.LVL75:
 706 00f8 2046     		mov	r0, r4
 707              	.LVL76:
 708 00fa FFF7FEFF 		bl	state_rect
 709              	.LVL77:
 163:frucd_display.c ****                         break;
 710              		.loc 1 163 0
 711 00fe 0094     		str	r4, [sp]
 712 0100 0023     		movs	r3, #0
 713 0102 5A4A     		ldr	r2, .L65+28
 714 0104 C321     		movs	r1, #195
 715 0106 6420     		movs	r0, #100
 716 0108 FFF7FEFF 		bl	UG_PutColorString
 717              	.LVL78:
 164:frucd_display.c ****                     case DRIVE_REQUEST_FROM_LV:
 718              		.loc 1 164 0
 719 010c 9EE0     		b	.L38
 720              	.LVL79:
 721              	.L51:
 167:frucd_display.c ****                         UG_PutColorString(100, 195, "DRV FRM LV", C_BLACK, color);
 722              		.loc 1 167 0
 723 010e 4FF47F00 		mov	r0, #16711680
 724              	.LVL80:
 725 0112 FFF7FEFF 		bl	state_rect
 726              	.LVL81:
 168:frucd_display.c ****                         break;
 727              		.loc 1 168 0
 728 0116 4FF47F03 		mov	r3, #16711680
 729 011a 0093     		str	r3, [sp]
 730 011c 0023     		movs	r3, #0
 731 011e 544A     		ldr	r2, .L65+32
 732 0120 C321     		movs	r1, #195
 733 0122 6420     		movs	r0, #100
 734 0124 FFF7FEFF 		bl	UG_PutColorString
 735              	.LVL82:
 169:frucd_display.c ****                     case CONSERVATIVE_TIMER_MAXED:
 736              		.loc 1 169 0
 737 0128 90E0     		b	.L38
 738              	.LVL83:
 739              	.L52:
 172:frucd_display.c ****                         UG_PutColorString(100, 195, "PRE TM OUT", C_BLACK, color);
 740              		.loc 1 172 0
 741 012a 4FF47F00 		mov	r0, #16711680
 742              	.LVL84:
 743 012e FFF7FEFF 		bl	state_rect
 744              	.LVL85:
 173:frucd_display.c ****                         break;
 745              		.loc 1 173 0
 746 0132 4FF47F03 		mov	r3, #16711680
 747 0136 0093     		str	r3, [sp]
 748 0138 0023     		movs	r3, #0
 749 013a 4E4A     		ldr	r2, .L65+36
 750 013c C321     		movs	r1, #195
 751 013e 6420     		movs	r0, #100
 752 0140 FFF7FEFF 		bl	UG_PutColorString
 753              	.LVL86:
ARM GAS  C:\Users\leoja\AppData\Local\Temp\ccVHTcit.s 			page 19


 174:frucd_display.c ****                     case BRAKE_NOT_PRESSED:
 754              		.loc 1 174 0
 755 0144 82E0     		b	.L38
 756              	.LVL87:
 757              	.L53:
 177:frucd_display.c ****                         UG_PutColorString(100, 195, "BR NOT PRS", C_BLACK, color);
 758              		.loc 1 177 0
 759 0146 4FF47F00 		mov	r0, #16711680
 760              	.LVL88:
 761 014a FFF7FEFF 		bl	state_rect
 762              	.LVL89:
 178:frucd_display.c ****                         break;
 763              		.loc 1 178 0
 764 014e 4FF47F03 		mov	r3, #16711680
 765 0152 0093     		str	r3, [sp]
 766 0154 0023     		movs	r3, #0
 767 0156 484A     		ldr	r2, .L65+40
 768 0158 C321     		movs	r1, #195
 769 015a 6420     		movs	r0, #100
 770 015c FFF7FEFF 		bl	UG_PutColorString
 771              	.LVL90:
 179:frucd_display.c ****                     case HV_DISABLED_WHILE_DRIVING:
 772              		.loc 1 179 0
 773 0160 74E0     		b	.L38
 774              	.LVL91:
 775              	.L54:
 182:frucd_display.c ****                         UG_PutColorString(100, 195, "HV OFF DRV", C_BLACK, color);
 776              		.loc 1 182 0
 777 0162 4FF47F00 		mov	r0, #16711680
 778              	.LVL92:
 779 0166 FFF7FEFF 		bl	state_rect
 780              	.LVL93:
 183:frucd_display.c ****                         break;
 781              		.loc 1 183 0
 782 016a 4FF47F03 		mov	r3, #16711680
 783 016e 0093     		str	r3, [sp]
 784 0170 0023     		movs	r3, #0
 785 0172 424A     		ldr	r2, .L65+44
 786 0174 C321     		movs	r1, #195
 787 0176 6420     		movs	r0, #100
 788 0178 FFF7FEFF 		bl	UG_PutColorString
 789              	.LVL94:
 184:frucd_display.c ****                     case SENSOR_DISCREPANCY:
 790              		.loc 1 184 0
 791 017c 66E0     		b	.L38
 792              	.LVL95:
 793              	.L55:
 187:frucd_display.c ****                         UG_PutColorString(100, 195, "SNSR DSCRP", C_BLACK, color);
 794              		.loc 1 187 0
 795 017e 4FF47F00 		mov	r0, #16711680
 796              	.LVL96:
 797 0182 FFF7FEFF 		bl	state_rect
 798              	.LVL97:
 188:frucd_display.c ****                         break;
 799              		.loc 1 188 0
 800 0186 4FF47F03 		mov	r3, #16711680
 801 018a 0093     		str	r3, [sp]
ARM GAS  C:\Users\leoja\AppData\Local\Temp\ccVHTcit.s 			page 20


 802 018c 0023     		movs	r3, #0
 803 018e 3C4A     		ldr	r2, .L65+48
 804 0190 C321     		movs	r1, #195
 805 0192 6420     		movs	r0, #100
 806 0194 FFF7FEFF 		bl	UG_PutColorString
 807              	.LVL98:
 189:frucd_display.c ****                     case BRAKE_IMPLAUSIBLE:
 808              		.loc 1 189 0
 809 0198 58E0     		b	.L38
 810              	.LVL99:
 811              	.L56:
 192:frucd_display.c ****                         UG_PutColorString(100, 195, "BSPD TRIPD", C_BLACK, color); //whitespace to 
 812              		.loc 1 192 0
 813 019a 334C     		ldr	r4, .L65+24
 814              	.LVL100:
 815 019c 2046     		mov	r0, r4
 816              	.LVL101:
 817 019e FFF7FEFF 		bl	state_rect
 818              	.LVL102:
 193:frucd_display.c ****                         break;
 819              		.loc 1 193 0
 820 01a2 0094     		str	r4, [sp]
 821 01a4 0023     		movs	r3, #0
 822 01a6 374A     		ldr	r2, .L65+52
 823 01a8 C321     		movs	r1, #195
 824 01aa 6420     		movs	r0, #100
 825 01ac FFF7FEFF 		bl	UG_PutColorString
 826              	.LVL103:
 194:frucd_display.c ****                     case SHUTDOWN_CIRCUIT_OPEN:
 827              		.loc 1 194 0
 828 01b0 4CE0     		b	.L38
 829              	.LVL104:
 830              	.L57:
 197:frucd_display.c ****                         UG_PutColorString(100, 195, "SHTDWN OPN", C_BLACK, color); //whitespace to 
 831              		.loc 1 197 0
 832 01b2 4FF47F00 		mov	r0, #16711680
 833              	.LVL105:
 834 01b6 FFF7FEFF 		bl	state_rect
 835              	.LVL106:
 198:frucd_display.c ****                         break;
 836              		.loc 1 198 0
 837 01ba 4FF47F03 		mov	r3, #16711680
 838 01be 0093     		str	r3, [sp]
 839 01c0 0023     		movs	r3, #0
 840 01c2 314A     		ldr	r2, .L65+56
 841 01c4 C321     		movs	r1, #195
 842 01c6 6420     		movs	r0, #100
 843 01c8 FFF7FEFF 		bl	UG_PutColorString
 844              	.LVL107:
 199:frucd_display.c ****                     case UNCALIBRATED:
 845              		.loc 1 199 0
 846 01cc 3EE0     		b	.L38
 847              	.LVL108:
 848              	.L58:
 202:frucd_display.c ****                         UG_PutColorString(100, 195, "UNCALIBRATED", C_BLACK, color); //whitespace t
 849              		.loc 1 202 0
 850 01ce 4FF47F00 		mov	r0, #16711680
ARM GAS  C:\Users\leoja\AppData\Local\Temp\ccVHTcit.s 			page 21


 851              	.LVL109:
 852 01d2 FFF7FEFF 		bl	state_rect
 853              	.LVL110:
 203:frucd_display.c ****                         break;
 854              		.loc 1 203 0
 855 01d6 4FF47F03 		mov	r3, #16711680
 856 01da 0093     		str	r3, [sp]
 857 01dc 0023     		movs	r3, #0
 858 01de 2B4A     		ldr	r2, .L65+60
 859 01e0 C321     		movs	r1, #195
 860 01e2 6420     		movs	r0, #100
 861 01e4 FFF7FEFF 		bl	UG_PutColorString
 862              	.LVL111:
 204:frucd_display.c ****                 }
 863              		.loc 1 204 0
 864 01e8 30E0     		b	.L38
 865              	.LVL112:
 866              	.L48:
 867              	.LBE3:
 210:frucd_display.c ****                 switch(state) {
 868              		.loc 1 210 0
 869 01ea 4FF47F40 		mov	r0, #65280
 870              	.LVL113:
 871 01ee FFF7FEFF 		bl	state_rect
 872              	.LVL114:
 211:frucd_display.c ****                     case LV:
 873              		.loc 1 211 0
 874 01f2 032C     		cmp	r4, #3
 875 01f4 2AD8     		bhi	.L38
 876 01f6 DFE804F0 		tbb	[pc, r4]
 877              	.L60:
 878 01fa 02       		.byte	(.L59-.L60)/2
 879 01fb 0C       		.byte	(.L61-.L60)/2
 880 01fc 16       		.byte	(.L62-.L60)/2
 881 01fd 20       		.byte	(.L63-.L60)/2
 882              		.p2align 1
 883              	.L59:
 213:frucd_display.c ****                         break;
 884              		.loc 1 213 0
 885 01fe 4FF47F43 		mov	r3, #65280
 886 0202 0093     		str	r3, [sp]
 887 0204 0023     		movs	r3, #0
 888 0206 224A     		ldr	r2, .L65+64
 889 0208 C321     		movs	r1, #195
 890 020a 6420     		movs	r0, #100
 891 020c FFF7FEFF 		bl	UG_PutColorString
 892              	.LVL115:
 214:frucd_display.c ****                     case PRECHARGING:
 893              		.loc 1 214 0
 894 0210 1CE0     		b	.L38
 895              	.L61:
 216:frucd_display.c ****                         break;
 896              		.loc 1 216 0
 897 0212 4FF47F43 		mov	r3, #65280
 898 0216 0093     		str	r3, [sp]
 899 0218 0023     		movs	r3, #0
 900 021a 1E4A     		ldr	r2, .L65+68
ARM GAS  C:\Users\leoja\AppData\Local\Temp\ccVHTcit.s 			page 22


 901 021c C321     		movs	r1, #195
 902 021e 6420     		movs	r0, #100
 903 0220 FFF7FEFF 		bl	UG_PutColorString
 904              	.LVL116:
 217:frucd_display.c ****                     case HV_ENABLED:
 905              		.loc 1 217 0
 906 0224 12E0     		b	.L38
 907              	.L62:
 219:frucd_display.c ****                         break;
 908              		.loc 1 219 0
 909 0226 4FF47F43 		mov	r3, #65280
 910 022a 0093     		str	r3, [sp]
 911 022c 0023     		movs	r3, #0
 912 022e 1A4A     		ldr	r2, .L65+72
 913 0230 C321     		movs	r1, #195
 914 0232 6420     		movs	r0, #100
 915 0234 FFF7FEFF 		bl	UG_PutColorString
 916              	.LVL117:
 220:frucd_display.c ****                     case DRIVE:
 917              		.loc 1 220 0
 918 0238 08E0     		b	.L38
 919              	.L63:
 222:frucd_display.c ****                         break;
 920              		.loc 1 222 0
 921 023a 4FF47F43 		mov	r3, #65280
 922 023e 0093     		str	r3, [sp]
 923 0240 0023     		movs	r3, #0
 924 0242 164A     		ldr	r2, .L65+76
 925 0244 C321     		movs	r1, #195
 926 0246 6420     		movs	r0, #100
 927 0248 FFF7FEFF 		bl	UG_PutColorString
 928              	.LVL118:
 929              	.L38:
 228:frucd_display.c **** 
 930              		.loc 1 228 0
 931 024c 02B0     		add	sp, sp, #8
 932              		.cfi_def_cfa_offset 8
 933              		@ sp needed
 934 024e 10BD     		pop	{r4, pc}
 935              	.L66:
 936              		.align	2
 937              	.L65:
 938 0250 48000000 		.word	.LC8
 939 0254 54000000 		.word	.LC9
 940 0258 5C000000 		.word	.LC10
 941 025c 68000000 		.word	.LC11
 942 0260 74000000 		.word	.LC12
 943 0264 80000000 		.word	.LC13
 944 0268 00FFFF00 		.word	16776960
 945 026c 8C000000 		.word	.LC14
 946 0270 98000000 		.word	.LC15
 947 0274 A4000000 		.word	.LC16
 948 0278 B0000000 		.word	.LC17
 949 027c BC000000 		.word	.LC18
 950 0280 C8000000 		.word	.LC19
 951 0284 D4000000 		.word	.LC20
 952 0288 E0000000 		.word	.LC21
ARM GAS  C:\Users\leoja\AppData\Local\Temp\ccVHTcit.s 			page 23


 953 028c EC000000 		.word	.LC22
 954 0290 FC000000 		.word	.LC23
 955 0294 08010000 		.word	.LC24
 956 0298 14010000 		.word	.LC25
 957 029c 20010000 		.word	.LC26
 958              		.cfi_endproc
 959              	.LFE68:
 960              		.size	disp_state, .-disp_state
 961              		.section	.text.disp_glv_v,"ax",%progbits
 962              		.align	2
 963              		.global	disp_glv_v
 964              		.thumb
 965              		.thumb_func
 966              		.type	disp_glv_v, %function
 967              	disp_glv_v:
 968              	.LFB70:
 237:frucd_display.c **** 
 238:frucd_display.c **** void disp_glv_v(uint32_t data) {
 969              		.loc 1 238 0
 970              		.cfi_startproc
 971              		@ args = 0, pretend = 0, frame = 8
 972              		@ frame_needed = 0, uses_anonymous_args = 0
 973              	.LVL119:
 974 0000 30B5     		push	{r4, r5, lr}
 975              		.cfi_def_cfa_offset 12
 976              		.cfi_offset 4, -12
 977              		.cfi_offset 5, -8
 978              		.cfi_offset 14, -4
 979 0002 85B0     		sub	sp, sp, #20
 980              		.cfi_def_cfa_offset 32
 239:frucd_display.c ****     // translate from voltage divider measurement to true voltage
 240:frucd_display.c ****     // y = 0.4295x + 18.254
 241:frucd_display.c ****     data *= 859;
 981              		.loc 1 241 0
 982 0004 40F25B34 		movw	r4, #859
 983 0008 04FB00F0 		mul	r0, r4, r0
 984              	.LVL120:
 242:frucd_display.c ****     data /= 2000; // 0.4295
 985              		.loc 1 242 0
 986 000c 2B4C     		ldr	r4, .L75
 987 000e A4FB0034 		umull	r3, r4, r4, r0
 988 0012 E409     		lsrs	r4, r4, #7
 989              	.LVL121:
 243:frucd_display.c ****     data += 18;
 990              		.loc 1 243 0
 991 0014 1234     		adds	r4, r4, #18
 992              	.LVL122:
 244:frucd_display.c ****     UG_COLOR color;
 245:frucd_display.c ****     if (data > 1150) {
 993              		.loc 1 245 0
 994 0016 40F27E43 		movw	r3, #1150
 995 001a 9C42     		cmp	r4, r3
 996 001c 09D8     		bhi	.L71
 246:frucd_display.c ****         color = C_GREEN;
 247:frucd_display.c ****     } else if (data > 1100) {
 997              		.loc 1 247 0
 998 001e 40F24C43 		movw	r3, #1100
ARM GAS  C:\Users\leoja\AppData\Local\Temp\ccVHTcit.s 			page 24


 999 0022 9C42     		cmp	r4, r3
 1000 0024 08D8     		bhi	.L72
 248:frucd_display.c ****         color = C_YELLOW;
 249:frucd_display.c ****     } else if (data > 1050) {
 1001              		.loc 1 249 0
 1002 0026 40F21A43 		movw	r3, #1050
 1003 002a 9C42     		cmp	r4, r3
 1004 002c 06D9     		bls	.L73
 250:frucd_display.c ****         color = C_ORANGE;
 1005              		.loc 1 250 0
 1006 002e 244D     		ldr	r5, .L75+4
 1007 0030 06E0     		b	.L68
 1008              	.L71:
 246:frucd_display.c ****         color = C_GREEN;
 1009              		.loc 1 246 0
 1010 0032 4FF47F45 		mov	r5, #65280
 1011 0036 03E0     		b	.L68
 1012              	.L72:
 248:frucd_display.c ****         color = C_YELLOW;
 1013              		.loc 1 248 0
 1014 0038 224D     		ldr	r5, .L75+8
 1015 003a 01E0     		b	.L68
 1016              	.L73:
 251:frucd_display.c ****     } else {
 252:frucd_display.c ****         color = C_RED;
 1017              		.loc 1 252 0
 1018 003c 4FF47F05 		mov	r5, #16711680
 1019              	.L68:
 1020              	.LVL123:
 253:frucd_display.c ****     }
 254:frucd_display.c ****     if (color != last_glv_v_color) {
 1021              		.loc 1 254 0
 1022 0040 214B     		ldr	r3, .L75+12
 1023 0042 1B68     		ldr	r3, [r3]
 1024 0044 9D42     		cmp	r5, r3
 1025 0046 09D0     		beq	.L69
 255:frucd_display.c ****         // only draw rectangle if color changed
 256:frucd_display.c ****         UG_FillFrame(95, 230, 182, 260, color);
 1026              		.loc 1 256 0
 1027 0048 0095     		str	r5, [sp]
 1028 004a 4FF48273 		mov	r3, #260
 1029 004e B622     		movs	r2, #182
 1030 0050 E621     		movs	r1, #230
 1031 0052 5F20     		movs	r0, #95
 1032 0054 FFF7FEFF 		bl	UG_FillFrame
 1033              	.LVL124:
 257:frucd_display.c ****         last_glv_v_color = color;
 1034              		.loc 1 257 0
 1035 0058 1B4B     		ldr	r3, .L75+12
 1036 005a 1D60     		str	r5, [r3]
 1037              	.L69:
 258:frucd_display.c ****     }
 259:frucd_display.c ****     char data_s[7];
 260:frucd_display.c ****     sprintf(data_s, "%d", data);
 1038              		.loc 1 260 0
 1039 005c 2246     		mov	r2, r4
 1040 005e 1B49     		ldr	r1, .L75+16
ARM GAS  C:\Users\leoja\AppData\Local\Temp\ccVHTcit.s 			page 25


 1041 0060 02A8     		add	r0, sp, #8
 1042 0062 FFF7FEFF 		bl	sprintf
 1043              	.LVL125:
 261:frucd_display.c ****     // handle 3 digit cases; 2 and 1 are practically impossible
 262:frucd_display.c ****     if (data < 1000) {
 1044              		.loc 1 262 0
 1045 0066 B4F57A7F 		cmp	r4, #1000
 1046 006a 0ED2     		bcs	.L70
 263:frucd_display.c ****         data_s[3] = data_s[2];
 1047              		.loc 1 263 0
 1048 006c 9DF80A30 		ldrb	r3, [sp, #10]	@ zero_extendqisi2
 1049 0070 8DF80B30 		strb	r3, [sp, #11]
 264:frucd_display.c ****         data_s[2] = data_s[1];
 1050              		.loc 1 264 0
 1051 0074 9DF80930 		ldrb	r3, [sp, #9]	@ zero_extendqisi2
 1052 0078 8DF80A30 		strb	r3, [sp, #10]
 265:frucd_display.c ****         data_s[1] = data_s[0];  
 1053              		.loc 1 265 0
 1054 007c 9DF80830 		ldrb	r3, [sp, #8]	@ zero_extendqisi2
 1055 0080 8DF80930 		strb	r3, [sp, #9]
 266:frucd_display.c ****         data_s[0] = ' ';
 1056              		.loc 1 266 0
 1057 0084 2023     		movs	r3, #32
 1058 0086 8DF80830 		strb	r3, [sp, #8]
 1059              	.L70:
 267:frucd_display.c ****     }
 268:frucd_display.c ****     // shift over fractional part
 269:frucd_display.c ****     data_s[4] = data_s[3];
 1060              		.loc 1 269 0
 1061 008a 9DF80B30 		ldrb	r3, [sp, #11]	@ zero_extendqisi2
 1062 008e 8DF80C30 		strb	r3, [sp, #12]
 270:frucd_display.c ****     data_s[3] = data_s[2];
 1063              		.loc 1 270 0
 1064 0092 9DF80A30 		ldrb	r3, [sp, #10]	@ zero_extendqisi2
 1065 0096 8DF80B30 		strb	r3, [sp, #11]
 271:frucd_display.c ****     // add syntax
 272:frucd_display.c ****     data_s[2] = '.';
 1066              		.loc 1 272 0
 1067 009a 2E23     		movs	r3, #46
 1068 009c 8DF80A30 		strb	r3, [sp, #10]
 273:frucd_display.c ****     data_s[5] = 'V';
 1069              		.loc 1 273 0
 1070 00a0 5623     		movs	r3, #86
 1071 00a2 8DF80D30 		strb	r3, [sp, #13]
 274:frucd_display.c ****     data_s[6] = '\0';
 1072              		.loc 1 274 0
 1073 00a6 0023     		movs	r3, #0
 1074 00a8 8DF80E30 		strb	r3, [sp, #14]
 275:frucd_display.c ****     UG_PutColorString(100, 240, data_s, C_BLACK, color);
 1075              		.loc 1 275 0
 1076 00ac 0095     		str	r5, [sp]
 1077 00ae 02AA     		add	r2, sp, #8
 1078 00b0 F021     		movs	r1, #240
 1079 00b2 6420     		movs	r0, #100
 1080 00b4 FFF7FEFF 		bl	UG_PutColorString
 1081              	.LVL126:
 276:frucd_display.c **** }
ARM GAS  C:\Users\leoja\AppData\Local\Temp\ccVHTcit.s 			page 26


 1082              		.loc 1 276 0
 1083 00b8 05B0     		add	sp, sp, #20
 1084              		.cfi_def_cfa_offset 12
 1085              		@ sp needed
 1086 00ba 30BD     		pop	{r4, r5, pc}
 1087              	.LVL127:
 1088              	.L76:
 1089              		.align	2
 1090              	.L75:
 1091 00bc D34D6210 		.word	274877907
 1092 00c0 00A5FF00 		.word	16753920
 1093 00c4 00FFFF00 		.word	16776960
 1094 00c8 00000000 		.word	last_glv_v_color
 1095 00cc 44000000 		.word	.LC7
 1096              		.cfi_endproc
 1097              	.LFE70:
 1098              		.size	disp_glv_v, .-disp_glv_v
 1099              		.section	.text.disp_mc_temp,"ax",%progbits
 1100              		.align	2
 1101              		.global	disp_mc_temp
 1102              		.thumb
 1103              		.thumb_func
 1104              		.type	disp_mc_temp, %function
 1105              	disp_mc_temp:
 1106              	.LFB71:
 277:frucd_display.c **** 
 278:frucd_display.c **** void disp_mc_temp(uint16_t data) {
 1107              		.loc 1 278 0
 1108              		.cfi_startproc
 1109              		@ args = 0, pretend = 0, frame = 8
 1110              		@ frame_needed = 0, uses_anonymous_args = 0
 1111              	.LVL128:
 1112 0000 30B5     		push	{r4, r5, lr}
 1113              		.cfi_def_cfa_offset 12
 1114              		.cfi_offset 4, -12
 1115              		.cfi_offset 5, -8
 1116              		.cfi_offset 14, -4
 1117 0002 85B0     		sub	sp, sp, #20
 1118              		.cfi_def_cfa_offset 32
 1119 0004 0446     		mov	r4, r0
 279:frucd_display.c ****     if (data >= 100) {
 1120              		.loc 1 279 0
 1121 0006 6328     		cmp	r0, #99
 1122 0008 1DD9     		bls	.L78
 1123              	.LBB4:
 280:frucd_display.c ****         // handle 3 digit cases
 281:frucd_display.c ****         UG_FillFrame(410, 185, 470, 215, C_GREEN);
 1124              		.loc 1 281 0
 1125 000a 4FF47F45 		mov	r5, #65280
 1126 000e 0095     		str	r5, [sp]
 1127 0010 D723     		movs	r3, #215
 1128 0012 4FF4EB72 		mov	r2, #470
 1129 0016 B921     		movs	r1, #185
 1130 0018 4FF4CD70 		mov	r0, #410
 1131              	.LVL129:
 1132 001c FFF7FEFF 		bl	UG_FillFrame
 1133              	.LVL130:
ARM GAS  C:\Users\leoja\AppData\Local\Temp\ccVHTcit.s 			page 27


 282:frucd_display.c ****         char data_s[5];
 283:frucd_display.c ****         sprintf(data_s, "%d", data);
 1134              		.loc 1 283 0
 1135 0020 2246     		mov	r2, r4
 1136 0022 1849     		ldr	r1, .L81
 1137 0024 02A8     		add	r0, sp, #8
 1138 0026 FFF7FEFF 		bl	sprintf
 1139              	.LVL131:
 284:frucd_display.c ****         data_s[3] = 'C';
 1140              		.loc 1 284 0
 1141 002a 4323     		movs	r3, #67
 1142 002c 8DF80B30 		strb	r3, [sp, #11]
 285:frucd_display.c ****         data_s[4] = '\0';
 1143              		.loc 1 285 0
 1144 0030 0023     		movs	r3, #0
 1145 0032 8DF80C30 		strb	r3, [sp, #12]
 286:frucd_display.c ****         UG_PutColorString(415, 195, data_s, C_BLACK, C_GREEN);
 1146              		.loc 1 286 0
 1147 0036 0095     		str	r5, [sp]
 1148 0038 02AA     		add	r2, sp, #8
 1149 003a C321     		movs	r1, #195
 1150 003c 40F29F10 		movw	r0, #415
 1151 0040 FFF7FEFF 		bl	UG_PutColorString
 1152              	.LVL132:
 1153              	.LBE4:
 1154 0044 1CE0     		b	.L77
 1155              	.LVL133:
 1156              	.L78:
 1157              	.LBB5:
 287:frucd_display.c ****     } else {
 288:frucd_display.c ****         // handle 2 digit cases
 289:frucd_display.c ****         UG_FillFrame(410, 185, 470, 215, C_GREEN);
 1158              		.loc 1 289 0
 1159 0046 4FF47F45 		mov	r5, #65280
 1160 004a 0095     		str	r5, [sp]
 1161 004c D723     		movs	r3, #215
 1162 004e 4FF4EB72 		mov	r2, #470
 1163 0052 B921     		movs	r1, #185
 1164 0054 4FF4CD70 		mov	r0, #410
 1165              	.LVL134:
 1166 0058 FFF7FEFF 		bl	UG_FillFrame
 1167              	.LVL135:
 290:frucd_display.c ****         char data_s[4];
 291:frucd_display.c ****         sprintf(data_s, "%d", data);
 1168              		.loc 1 291 0
 1169 005c 2246     		mov	r2, r4
 1170 005e 0949     		ldr	r1, .L81
 1171 0060 02A8     		add	r0, sp, #8
 1172 0062 FFF7FEFF 		bl	sprintf
 1173              	.LVL136:
 292:frucd_display.c ****         data_s[2] = 'C';
 1174              		.loc 1 292 0
 1175 0066 4323     		movs	r3, #67
 1176 0068 8DF80A30 		strb	r3, [sp, #10]
 293:frucd_display.c ****         data_s[3] = '\0';
 1177              		.loc 1 293 0
 1178 006c 0023     		movs	r3, #0
ARM GAS  C:\Users\leoja\AppData\Local\Temp\ccVHTcit.s 			page 28


 1179 006e 8DF80B30 		strb	r3, [sp, #11]
 294:frucd_display.c ****         UG_PutColorString(422, 195, data_s, C_BLACK, C_GREEN);
 1180              		.loc 1 294 0
 1181 0072 0095     		str	r5, [sp]
 1182 0074 02AA     		add	r2, sp, #8
 1183 0076 C321     		movs	r1, #195
 1184 0078 4FF4D370 		mov	r0, #422
 1185 007c FFF7FEFF 		bl	UG_PutColorString
 1186              	.LVL137:
 1187              	.L77:
 1188              	.LBE5:
 295:frucd_display.c ****     }
 296:frucd_display.c **** }
 1189              		.loc 1 296 0
 1190 0080 05B0     		add	sp, sp, #20
 1191              		.cfi_def_cfa_offset 12
 1192              		@ sp needed
 1193 0082 30BD     		pop	{r4, r5, pc}
 1194              	.L82:
 1195              		.align	2
 1196              	.L81:
 1197 0084 44000000 		.word	.LC7
 1198              		.cfi_endproc
 1199              	.LFE71:
 1200              		.size	disp_mc_temp, .-disp_mc_temp
 1201              		.section	.text.disp_motor_temp,"ax",%progbits
 1202              		.align	2
 1203              		.global	disp_motor_temp
 1204              		.thumb
 1205              		.thumb_func
 1206              		.type	disp_motor_temp, %function
 1207              	disp_motor_temp:
 1208              	.LFB72:
 297:frucd_display.c **** 
 298:frucd_display.c **** void disp_motor_temp(uint16_t data) {
 1209              		.loc 1 298 0
 1210              		.cfi_startproc
 1211              		@ args = 0, pretend = 0, frame = 8
 1212              		@ frame_needed = 0, uses_anonymous_args = 0
 1213              	.LVL138:
 1214 0000 30B5     		push	{r4, r5, lr}
 1215              		.cfi_def_cfa_offset 12
 1216              		.cfi_offset 4, -12
 1217              		.cfi_offset 5, -8
 1218              		.cfi_offset 14, -4
 1219 0002 85B0     		sub	sp, sp, #20
 1220              		.cfi_def_cfa_offset 32
 1221 0004 0446     		mov	r4, r0
 299:frucd_display.c ****     if (data >= 100) {
 1222              		.loc 1 299 0
 1223 0006 6328     		cmp	r0, #99
 1224 0008 1ED9     		bls	.L84
 1225              	.LBB6:
 300:frucd_display.c ****         // handle 3 digit cases
 301:frucd_display.c ****         UG_FillFrame(410, 230, 470, 260, C_GREEN);
 1226              		.loc 1 301 0
 1227 000a 4FF47F45 		mov	r5, #65280
ARM GAS  C:\Users\leoja\AppData\Local\Temp\ccVHTcit.s 			page 29


 1228 000e 0095     		str	r5, [sp]
 1229 0010 4FF48273 		mov	r3, #260
 1230 0014 4FF4EB72 		mov	r2, #470
 1231 0018 E621     		movs	r1, #230
 1232 001a 4FF4CD70 		mov	r0, #410
 1233              	.LVL139:
 1234 001e FFF7FEFF 		bl	UG_FillFrame
 1235              	.LVL140:
 302:frucd_display.c ****         char data_s[5];
 303:frucd_display.c ****         sprintf(data_s, "%d", data);
 1236              		.loc 1 303 0
 1237 0022 2246     		mov	r2, r4
 1238 0024 1849     		ldr	r1, .L87
 1239 0026 02A8     		add	r0, sp, #8
 1240 0028 FFF7FEFF 		bl	sprintf
 1241              	.LVL141:
 304:frucd_display.c ****         data_s[3] = 'C';
 1242              		.loc 1 304 0
 1243 002c 4323     		movs	r3, #67
 1244 002e 8DF80B30 		strb	r3, [sp, #11]
 305:frucd_display.c ****         data_s[4] = '\0';
 1245              		.loc 1 305 0
 1246 0032 0023     		movs	r3, #0
 1247 0034 8DF80C30 		strb	r3, [sp, #12]
 306:frucd_display.c ****         UG_PutColorString(415, 240, data_s, C_BLACK, C_GREEN);
 1248              		.loc 1 306 0
 1249 0038 0095     		str	r5, [sp]
 1250 003a 02AA     		add	r2, sp, #8
 1251 003c F021     		movs	r1, #240
 1252 003e 40F29F10 		movw	r0, #415
 1253 0042 FFF7FEFF 		bl	UG_PutColorString
 1254              	.LVL142:
 1255              	.LBE6:
 1256 0046 1DE0     		b	.L83
 1257              	.LVL143:
 1258              	.L84:
 1259              	.LBB7:
 307:frucd_display.c ****     } else {
 308:frucd_display.c ****         // handle 2 digit cases
 309:frucd_display.c ****         UG_FillFrame(410, 230, 470, 260, C_GREEN);
 1260              		.loc 1 309 0
 1261 0048 4FF47F45 		mov	r5, #65280
 1262 004c 0095     		str	r5, [sp]
 1263 004e 4FF48273 		mov	r3, #260
 1264 0052 4FF4EB72 		mov	r2, #470
 1265 0056 E621     		movs	r1, #230
 1266 0058 4FF4CD70 		mov	r0, #410
 1267              	.LVL144:
 1268 005c FFF7FEFF 		bl	UG_FillFrame
 1269              	.LVL145:
 310:frucd_display.c ****         char data_s[4];
 311:frucd_display.c ****         sprintf(data_s, "%d", data);
 1270              		.loc 1 311 0
 1271 0060 2246     		mov	r2, r4
 1272 0062 0949     		ldr	r1, .L87
 1273 0064 02A8     		add	r0, sp, #8
 1274 0066 FFF7FEFF 		bl	sprintf
ARM GAS  C:\Users\leoja\AppData\Local\Temp\ccVHTcit.s 			page 30


 1275              	.LVL146:
 312:frucd_display.c ****         data_s[2] = 'C';
 1276              		.loc 1 312 0
 1277 006a 4323     		movs	r3, #67
 1278 006c 8DF80A30 		strb	r3, [sp, #10]
 313:frucd_display.c ****         data_s[3] = '\0';
 1279              		.loc 1 313 0
 1280 0070 0023     		movs	r3, #0
 1281 0072 8DF80B30 		strb	r3, [sp, #11]
 314:frucd_display.c ****         UG_PutColorString(422, 240, data_s, C_BLACK, C_GREEN);
 1282              		.loc 1 314 0
 1283 0076 0095     		str	r5, [sp]
 1284 0078 02AA     		add	r2, sp, #8
 1285 007a F021     		movs	r1, #240
 1286 007c 4FF4D370 		mov	r0, #422
 1287 0080 FFF7FEFF 		bl	UG_PutColorString
 1288              	.LVL147:
 1289              	.L83:
 1290              	.LBE7:
 315:frucd_display.c ****     }
 316:frucd_display.c **** }
 1291              		.loc 1 316 0
 1292 0084 05B0     		add	sp, sp, #20
 1293              		.cfi_def_cfa_offset 12
 1294              		@ sp needed
 1295 0086 30BD     		pop	{r4, r5, pc}
 1296              	.L88:
 1297              		.align	2
 1298              	.L87:
 1299 0088 44000000 		.word	.LC7
 1300              		.cfi_endproc
 1301              	.LFE72:
 1302              		.size	disp_motor_temp, .-disp_motor_temp
 1303              		.comm	last_motor_temp_color,4,4
 1304              		.comm	last_mc_temp_color,4,4
 1305              		.comm	last_glv_v_color,4,4
 1306              		.comm	last_state_color,4,4
 1307              		.comm	last_max_pack_temp_color,4,4
 1308              		.comm	last_SOC_color,4,4
 1309              		.comm	gui1963,120,4
 1310              		.section	.rodata.str1.4,"aMS",%progbits,1
 1311              		.align	2
 1312              	.LC0:
 1313 0000 5041434B 		.ascii	"PACK SOC\000"
 1313      20534F43 
 1313      00
 1314 0009 000000   		.space	3
 1315              	.LC1:
 1316 000c 4D415820 		.ascii	"MAX PACK T\000"
 1316      5041434B 
 1316      205400
 1317 0017 00       		.space	1
 1318              	.LC2:
 1319 0018 53544154 		.ascii	"STATE:\000"
 1319      453A00
 1320 001f 00       		.space	1
 1321              	.LC3:
ARM GAS  C:\Users\leoja\AppData\Local\Temp\ccVHTcit.s 			page 31


 1322 0020 474C5620 		.ascii	"GLV V:\000"
 1322      563A00
 1323 0027 00       		.space	1
 1324              	.LC4:
 1325 0028 4D432054 		.ascii	"MC T:\000"
 1325      3A00
 1326 002e 0000     		.space	2
 1327              	.LC5:
 1328 0030 4D4F544F 		.ascii	"MOTOR T:\000"
 1328      5220543A 
 1328      00
 1329 0039 000000   		.space	3
 1330              	.LC6:
 1331 003c 31303025 		.ascii	"100%\000"
 1331      00
 1332 0041 000000   		.space	3
 1333              	.LC7:
 1334 0044 256400   		.ascii	"%d\000"
 1335 0047 00       		.space	1
 1336              	.LC8:
 1337 0048 424D5320 		.ascii	"BMS TEMP\000"
 1337      54454D50 
 1337      00
 1338 0051 000000   		.space	3
 1339              	.LC9:
 1340 0054 4C4F5720 		.ascii	"LOW SOC\000"
 1340      534F4300 
 1341              	.LC10:
 1342 005c 494D4241 		.ascii	"IMBALANCE\000"
 1342      4C414E43 
 1342      4500
 1343 0066 0000     		.space	2
 1344              	.LC11:
 1345 0068 53504920 		.ascii	"SPI FAULT\000"
 1345      4641554C 
 1345      5400
 1346 0072 0000     		.space	2
 1347              	.LC12:
 1348 0074 4F564552 		.ascii	"OVERVOLT\000"
 1348      564F4C54 
 1348      00
 1349 007d 000000   		.space	3
 1350              	.LC13:
 1351 0080 554E4445 		.ascii	"UNDERVOLT\000"
 1351      52564F4C 
 1351      5400
 1352 008a 0000     		.space	2
 1353              	.LC14:
 1354 008c 20535441 		.ascii	" STARTUP  \000"
 1354      52545550 
 1354      202000
 1355 0097 00       		.space	1
 1356              	.LC15:
 1357 0098 44525620 		.ascii	"DRV FRM LV\000"
 1357      46524D20 
 1357      4C5600
 1358 00a3 00       		.space	1
ARM GAS  C:\Users\leoja\AppData\Local\Temp\ccVHTcit.s 			page 32


 1359              	.LC16:
 1360 00a4 50524520 		.ascii	"PRE TM OUT\000"
 1360      544D204F 
 1360      555400
 1361 00af 00       		.space	1
 1362              	.LC17:
 1363 00b0 4252204E 		.ascii	"BR NOT PRS\000"
 1363      4F542050 
 1363      525300
 1364 00bb 00       		.space	1
 1365              	.LC18:
 1366 00bc 4856204F 		.ascii	"HV OFF DRV\000"
 1366      46462044 
 1366      525600
 1367 00c7 00       		.space	1
 1368              	.LC19:
 1369 00c8 534E5352 		.ascii	"SNSR DSCRP\000"
 1369      20445343 
 1369      525000
 1370 00d3 00       		.space	1
 1371              	.LC20:
 1372 00d4 42535044 		.ascii	"BSPD TRIPD\000"
 1372      20545249 
 1372      504400
 1373 00df 00       		.space	1
 1374              	.LC21:
 1375 00e0 53485444 		.ascii	"SHTDWN OPN\000"
 1375      574E204F 
 1375      504E00
 1376 00eb 00       		.space	1
 1377              	.LC22:
 1378 00ec 554E4341 		.ascii	"UNCALIBRATED\000"
 1378      4C494252 
 1378      41544544 
 1378      00
 1379 00f9 000000   		.space	3
 1380              	.LC23:
 1381 00fc 20202020 		.ascii	"    LV    \000"
 1381      4C562020 
 1381      202000
 1382 0107 00       		.space	1
 1383              	.LC24:
 1384 0108 50524543 		.ascii	"PRECHARGE \000"
 1384      48415247 
 1384      452000
 1385 0113 00       		.space	1
 1386              	.LC25:
 1387 0114 48562045 		.ascii	"HV ENABLED\000"
 1387      4E41424C 
 1387      454400
 1388 011f 00       		.space	1
 1389              	.LC26:
 1390 0120 20204452 		.ascii	"  DRIVE   \000"
 1390      49564520 
 1390      202000
 1391              		.text
 1392              	.Letext0:
ARM GAS  C:\Users\leoja\AppData\Local\Temp\ccVHTcit.s 			page 33


 1393              		.file 2 "c:\\program files (x86)\\cypress\\psoc creator\\4.4\\psoc creator\\import\\gnu\\arm\\5.4.
 1394              		.file 3 "c:\\program files (x86)\\cypress\\psoc creator\\4.4\\psoc creator\\import\\gnu\\arm\\5.4.
 1395              		.file 4 "Generated_Source\\PSoC5/cytypes.h"
 1396              		.file 5 "data.h"
 1397              		.file 6 "ugui_config.h"
 1398              		.file 7 "ugui.h"
 1399              		.file 8 "Generated_Source\\PSoC5/core_cm3.h"
 1400              		.file 9 "ugui_SSD1963.h"
 1401              		.file 10 "frucd_display.h"
 1402              		.file 11 "Generated_Source\\PSoC5/CyLib.h"
 1403              		.file 12 "c:\\program files (x86)\\cypress\\psoc creator\\4.4\\psoc creator\\import\\gnu\\arm\\5.4
 1404              		.section	.debug_info,"",%progbits
 1405              	.Ldebug_info0:
 1406 0000 72160000 		.4byte	0x1672
 1407 0004 0400     		.2byte	0x4
 1408 0006 00000000 		.4byte	.Ldebug_abbrev0
 1409 000a 04       		.byte	0x4
 1410 000b 01       		.uleb128 0x1
 1411 000c F7010000 		.4byte	.LASF153
 1412 0010 0C       		.byte	0xc
 1413 0011 E7060000 		.4byte	.LASF154
 1414 0015 28050000 		.4byte	.LASF155
 1415 0019 00000000 		.4byte	.Ldebug_ranges0+0
 1416 001d 00000000 		.4byte	0
 1417 0021 00000000 		.4byte	.Ldebug_line0
 1418 0025 02       		.uleb128 0x2
 1419 0026 08       		.byte	0x8
 1420 0027 07       		.byte	0x7
 1421 0028 82010000 		.4byte	.LASF0
 1422 002c 02       		.uleb128 0x2
 1423 002d 04       		.byte	0x4
 1424 002e 07       		.byte	0x7
 1425 002f 52000000 		.4byte	.LASF1
 1426 0033 03       		.uleb128 0x3
 1427 0034 85040000 		.4byte	.LASF3
 1428 0038 02       		.byte	0x2
 1429 0039 1B       		.byte	0x1b
 1430 003a 3E000000 		.4byte	0x3e
 1431 003e 02       		.uleb128 0x2
 1432 003f 01       		.byte	0x1
 1433 0040 06       		.byte	0x6
 1434 0041 C8060000 		.4byte	.LASF2
 1435 0045 03       		.uleb128 0x3
 1436 0046 C1050000 		.4byte	.LASF4
 1437 004a 02       		.byte	0x2
 1438 004b 1D       		.byte	0x1d
 1439 004c 50000000 		.4byte	0x50
 1440 0050 02       		.uleb128 0x2
 1441 0051 01       		.byte	0x1
 1442 0052 08       		.byte	0x8
 1443 0053 4A060000 		.4byte	.LASF5
 1444 0057 03       		.uleb128 0x3
 1445 0058 21040000 		.4byte	.LASF6
 1446 005c 02       		.byte	0x2
 1447 005d 29       		.byte	0x29
 1448 005e 62000000 		.4byte	0x62
 1449 0062 02       		.uleb128 0x2
ARM GAS  C:\Users\leoja\AppData\Local\Temp\ccVHTcit.s 			page 34


 1450 0063 02       		.byte	0x2
 1451 0064 05       		.byte	0x5
 1452 0065 04050000 		.4byte	.LASF7
 1453 0069 03       		.uleb128 0x3
 1454 006a A9010000 		.4byte	.LASF8
 1455 006e 02       		.byte	0x2
 1456 006f 2B       		.byte	0x2b
 1457 0070 74000000 		.4byte	0x74
 1458 0074 02       		.uleb128 0x2
 1459 0075 02       		.byte	0x2
 1460 0076 07       		.byte	0x7
 1461 0077 D4060000 		.4byte	.LASF9
 1462 007b 03       		.uleb128 0x3
 1463 007c 71000000 		.4byte	.LASF10
 1464 0080 02       		.byte	0x2
 1465 0081 3F       		.byte	0x3f
 1466 0082 86000000 		.4byte	0x86
 1467 0086 02       		.uleb128 0x2
 1468 0087 04       		.byte	0x4
 1469 0088 05       		.byte	0x5
 1470 0089 1F050000 		.4byte	.LASF11
 1471 008d 03       		.uleb128 0x3
 1472 008e 58060000 		.4byte	.LASF12
 1473 0092 02       		.byte	0x2
 1474 0093 41       		.byte	0x41
 1475 0094 98000000 		.4byte	0x98
 1476 0098 02       		.uleb128 0x2
 1477 0099 04       		.byte	0x4
 1478 009a 07       		.byte	0x7
 1479 009b EA050000 		.4byte	.LASF13
 1480 009f 02       		.uleb128 0x2
 1481 00a0 08       		.byte	0x8
 1482 00a1 05       		.byte	0x5
 1483 00a2 FA030000 		.4byte	.LASF14
 1484 00a6 04       		.uleb128 0x4
 1485 00a7 04       		.byte	0x4
 1486 00a8 05       		.byte	0x5
 1487 00a9 696E7400 		.ascii	"int\000"
 1488 00ad 03       		.uleb128 0x3
 1489 00ae 32010000 		.4byte	.LASF15
 1490 00b2 03       		.byte	0x3
 1491 00b3 14       		.byte	0x14
 1492 00b4 33000000 		.4byte	0x33
 1493 00b8 03       		.uleb128 0x3
 1494 00b9 B5030000 		.4byte	.LASF16
 1495 00bd 03       		.byte	0x3
 1496 00be 18       		.byte	0x18
 1497 00bf 45000000 		.4byte	0x45
 1498 00c3 03       		.uleb128 0x3
 1499 00c4 6F010000 		.4byte	.LASF17
 1500 00c8 03       		.byte	0x3
 1501 00c9 20       		.byte	0x20
 1502 00ca 57000000 		.4byte	0x57
 1503 00ce 03       		.uleb128 0x3
 1504 00cf B6040000 		.4byte	.LASF18
 1505 00d3 03       		.byte	0x3
 1506 00d4 24       		.byte	0x24
ARM GAS  C:\Users\leoja\AppData\Local\Temp\ccVHTcit.s 			page 35


 1507 00d5 69000000 		.4byte	0x69
 1508 00d9 03       		.uleb128 0x3
 1509 00da 19060000 		.4byte	.LASF19
 1510 00de 03       		.byte	0x3
 1511 00df 2C       		.byte	0x2c
 1512 00e0 7B000000 		.4byte	0x7b
 1513 00e4 03       		.uleb128 0x3
 1514 00e5 29010000 		.4byte	.LASF20
 1515 00e9 03       		.byte	0x3
 1516 00ea 30       		.byte	0x30
 1517 00eb 8D000000 		.4byte	0x8d
 1518 00ef 05       		.uleb128 0x5
 1519 00f0 06070000 		.4byte	.LASF21
 1520 00f4 04       		.byte	0x4
 1521 00f5 3801     		.2byte	0x138
 1522 00f7 50000000 		.4byte	0x50
 1523 00fb 02       		.uleb128 0x2
 1524 00fc 04       		.byte	0x4
 1525 00fd 04       		.byte	0x4
 1526 00fe 46010000 		.4byte	.LASF22
 1527 0102 02       		.uleb128 0x2
 1528 0103 08       		.byte	0x8
 1529 0104 04       		.byte	0x4
 1530 0105 0C070000 		.4byte	.LASF23
 1531 0109 02       		.uleb128 0x2
 1532 010a 01       		.byte	0x1
 1533 010b 08       		.byte	0x8
 1534 010c 5B030000 		.4byte	.LASF24
 1535 0110 02       		.uleb128 0x2
 1536 0111 08       		.byte	0x8
 1537 0112 04       		.byte	0x4
 1538 0113 A2040000 		.4byte	.LASF25
 1539 0117 02       		.uleb128 0x2
 1540 0118 04       		.byte	0x4
 1541 0119 07       		.byte	0x7
 1542 011a D0050000 		.4byte	.LASF26
 1543 011e 06       		.uleb128 0x6
 1544 011f 04       		.byte	0x4
 1545 0120 07       		.uleb128 0x7
 1546 0121 04       		.byte	0x4
 1547 0122 09010000 		.4byte	0x109
 1548 0126 07       		.uleb128 0x7
 1549 0127 04       		.byte	0x4
 1550 0128 50000000 		.4byte	0x50
 1551 012c 08       		.uleb128 0x8
 1552 012d 01       		.byte	0x1
 1553 012e 50000000 		.4byte	0x50
 1554 0132 05       		.byte	0x5
 1555 0133 09       		.byte	0x9
 1556 0134 56010000 		.4byte	0x156
 1557 0138 09       		.uleb128 0x9
 1558 0139 4C5600   		.ascii	"LV\000"
 1559 013c 00       		.byte	0
 1560 013d 0A       		.uleb128 0xa
 1561 013e 69040000 		.4byte	.LASF27
 1562 0142 01       		.byte	0x1
 1563 0143 0A       		.uleb128 0xa
ARM GAS  C:\Users\leoja\AppData\Local\Temp\ccVHTcit.s 			page 36


 1564 0144 38030000 		.4byte	.LASF28
 1565 0148 02       		.byte	0x2
 1566 0149 0A       		.uleb128 0xa
 1567 014a 69010000 		.4byte	.LASF29
 1568 014e 03       		.byte	0x3
 1569 014f 0A       		.uleb128 0xa
 1570 0150 7E060000 		.4byte	.LASF30
 1571 0154 80       		.byte	0x80
 1572 0155 00       		.byte	0
 1573 0156 08       		.uleb128 0x8
 1574 0157 01       		.byte	0x1
 1575 0158 50000000 		.4byte	0x50
 1576 015c 05       		.byte	0x5
 1577 015d 11       		.byte	0x11
 1578 015e 99010000 		.4byte	0x199
 1579 0162 0A       		.uleb128 0xa
 1580 0163 6C000000 		.4byte	.LASF31
 1581 0167 00       		.byte	0
 1582 0168 0A       		.uleb128 0xa
 1583 0169 21070000 		.4byte	.LASF32
 1584 016d 01       		.byte	0x1
 1585 016e 0A       		.uleb128 0xa
 1586 016f 60030000 		.4byte	.LASF33
 1587 0173 02       		.byte	0x2
 1588 0174 0A       		.uleb128 0xa
 1589 0175 97020000 		.4byte	.LASF34
 1590 0179 03       		.byte	0x3
 1591 017a 0A       		.uleb128 0xa
 1592 017b D1020000 		.4byte	.LASF35
 1593 017f 04       		.byte	0x4
 1594 0180 0A       		.uleb128 0xa
 1595 0181 9D000000 		.4byte	.LASF36
 1596 0185 05       		.byte	0x5
 1597 0186 0A       		.uleb128 0xa
 1598 0187 E4000000 		.4byte	.LASF37
 1599 018b 06       		.byte	0x6
 1600 018c 0A       		.uleb128 0xa
 1601 018d 22030000 		.4byte	.LASF38
 1602 0191 07       		.byte	0x7
 1603 0192 0A       		.uleb128 0xa
 1604 0193 CC000000 		.4byte	.LASF39
 1605 0197 08       		.byte	0x8
 1606 0198 00       		.byte	0
 1607 0199 08       		.uleb128 0x8
 1608 019a 02       		.byte	0x2
 1609 019b 74000000 		.4byte	0x74
 1610 019f 05       		.byte	0x5
 1611 01a0 1D       		.byte	0x1d
 1612 01a1 1B020000 		.4byte	0x21b
 1613 01a5 0A       		.uleb128 0xa
 1614 01a6 D5030000 		.4byte	.LASF40
 1615 01aa 00       		.byte	0
 1616 01ab 0A       		.uleb128 0xa
 1617 01ac CA030000 		.4byte	.LASF41
 1618 01b0 01       		.byte	0x1
 1619 01b1 0A       		.uleb128 0xa
 1620 01b2 F7060000 		.4byte	.LASF42
ARM GAS  C:\Users\leoja\AppData\Local\Temp\ccVHTcit.s 			page 37


 1621 01b6 02       		.byte	0x2
 1622 01b7 0A       		.uleb128 0xa
 1623 01b8 01030000 		.4byte	.LASF43
 1624 01bc 04       		.byte	0x4
 1625 01bd 0A       		.uleb128 0xa
 1626 01be 09060000 		.4byte	.LASF44
 1627 01c2 08       		.byte	0x8
 1628 01c3 0A       		.uleb128 0xa
 1629 01c4 43030000 		.4byte	.LASF45
 1630 01c8 10       		.byte	0x10
 1631 01c9 0A       		.uleb128 0xa
 1632 01ca EB040000 		.4byte	.LASF46
 1633 01ce 20       		.byte	0x20
 1634 01cf 0A       		.uleb128 0xa
 1635 01d0 3A040000 		.4byte	.LASF47
 1636 01d4 40       		.byte	0x40
 1637 01d5 0A       		.uleb128 0xa
 1638 01d6 4B040000 		.4byte	.LASF48
 1639 01da 80       		.byte	0x80
 1640 01db 0B       		.uleb128 0xb
 1641 01dc DB010000 		.4byte	.LASF49
 1642 01e0 0001     		.2byte	0x100
 1643 01e2 0B       		.uleb128 0xb
 1644 01e3 EA030000 		.4byte	.LASF50
 1645 01e7 0002     		.2byte	0x200
 1646 01e9 0B       		.uleb128 0xb
 1647 01ea 75040000 		.4byte	.LASF51
 1648 01ee 0004     		.2byte	0x400
 1649 01f0 0B       		.uleb128 0xb
 1650 01f1 41000000 		.4byte	.LASF52
 1651 01f5 0004     		.2byte	0x400
 1652 01f7 0B       		.uleb128 0xb
 1653 01f8 B0000000 		.4byte	.LASF53
 1654 01fc 0008     		.2byte	0x800
 1655 01fe 0B       		.uleb128 0xb
 1656 01ff A0030000 		.4byte	.LASF54
 1657 0203 0010     		.2byte	0x1000
 1658 0205 0B       		.uleb128 0xb
 1659 0206 16010000 		.4byte	.LASF55
 1660 020a 0020     		.2byte	0x2000
 1661 020c 0B       		.uleb128 0xb
 1662 020d B4050000 		.4byte	.LASF56
 1663 0211 0040     		.2byte	0x4000
 1664 0213 0B       		.uleb128 0xb
 1665 0214 83000000 		.4byte	.LASF57
 1666 0218 0080     		.2byte	0x8000
 1667 021a 00       		.byte	0
 1668 021b 03       		.uleb128 0x3
 1669 021c C7040000 		.4byte	.LASF58
 1670 0220 05       		.byte	0x5
 1671 0221 30       		.byte	0x30
 1672 0222 99010000 		.4byte	0x199
 1673 0226 03       		.uleb128 0x3
 1674 0227 7F040000 		.4byte	.LASF59
 1675 022b 06       		.byte	0x6
 1676 022c 26       		.byte	0x26
 1677 022d B8000000 		.4byte	0xb8
ARM GAS  C:\Users\leoja\AppData\Local\Temp\ccVHTcit.s 			page 38


 1678 0231 03       		.uleb128 0x3
 1679 0232 DE030000 		.4byte	.LASF60
 1680 0236 06       		.byte	0x6
 1681 0237 27       		.byte	0x27
 1682 0238 AD000000 		.4byte	0xad
 1683 023c 03       		.uleb128 0x3
 1684 023d 4B000000 		.4byte	.LASF61
 1685 0241 06       		.byte	0x6
 1686 0242 28       		.byte	0x28
 1687 0243 CE000000 		.4byte	0xce
 1688 0247 03       		.uleb128 0x3
 1689 0248 C9010000 		.4byte	.LASF62
 1690 024c 06       		.byte	0x6
 1691 024d 29       		.byte	0x29
 1692 024e C3000000 		.4byte	0xc3
 1693 0252 03       		.uleb128 0x3
 1694 0253 39010000 		.4byte	.LASF63
 1695 0257 06       		.byte	0x6
 1696 0258 2A       		.byte	0x2a
 1697 0259 E4000000 		.4byte	0xe4
 1698 025d 08       		.uleb128 0x8
 1699 025e 01       		.byte	0x1
 1700 025f 50000000 		.4byte	0x50
 1701 0263 07       		.byte	0x7
 1702 0264 1F       		.byte	0x1f
 1703 0265 76020000 		.4byte	0x276
 1704 0269 0A       		.uleb128 0xa
 1705 026a 52070000 		.4byte	.LASF64
 1706 026e 00       		.byte	0
 1707 026f 0A       		.uleb128 0xa
 1708 0270 0F000000 		.4byte	.LASF65
 1709 0274 01       		.byte	0x1
 1710 0275 00       		.byte	0
 1711 0276 03       		.uleb128 0x3
 1712 0277 83030000 		.4byte	.LASF66
 1713 027b 07       		.byte	0x7
 1714 027c 22       		.byte	0x22
 1715 027d 5D020000 		.4byte	0x25d
 1716 0281 0C       		.uleb128 0xc
 1717 0282 14       		.byte	0x14
 1718 0283 07       		.byte	0x7
 1719 0284 24       		.byte	0x24
 1720 0285 DC020000 		.4byte	0x2dc
 1721 0289 0D       		.uleb128 0xd
 1722 028a 7000     		.ascii	"p\000"
 1723 028c 07       		.byte	0x7
 1724 028d 26       		.byte	0x26
 1725 028e 26010000 		.4byte	0x126
 1726 0292 00       		.byte	0
 1727 0293 0E       		.uleb128 0xe
 1728 0294 79030000 		.4byte	.LASF67
 1729 0298 07       		.byte	0x7
 1730 0299 27       		.byte	0x27
 1731 029a 76020000 		.4byte	0x276
 1732 029e 04       		.byte	0x4
 1733 029f 0E       		.uleb128 0xe
 1734 02a0 C6020000 		.4byte	.LASF68
ARM GAS  C:\Users\leoja\AppData\Local\Temp\ccVHTcit.s 			page 39


 1735 02a4 07       		.byte	0x7
 1736 02a5 28       		.byte	0x28
 1737 02a6 47020000 		.4byte	0x247
 1738 02aa 06       		.byte	0x6
 1739 02ab 0E       		.uleb128 0xe
 1740 02ac F8040000 		.4byte	.LASF69
 1741 02b0 07       		.byte	0x7
 1742 02b1 29       		.byte	0x29
 1743 02b2 47020000 		.4byte	0x247
 1744 02b6 08       		.byte	0x8
 1745 02b7 0E       		.uleb128 0xe
 1746 02b8 5E040000 		.4byte	.LASF70
 1747 02bc 07       		.byte	0x7
 1748 02bd 2A       		.byte	0x2a
 1749 02be 3C020000 		.4byte	0x23c
 1750 02c2 0A       		.byte	0xa
 1751 02c3 0E       		.uleb128 0xe
 1752 02c4 A0050000 		.4byte	.LASF71
 1753 02c8 07       		.byte	0x7
 1754 02c9 2B       		.byte	0x2b
 1755 02ca 3C020000 		.4byte	0x23c
 1756 02ce 0C       		.byte	0xc
 1757 02cf 0E       		.uleb128 0xe
 1758 02d0 8E040000 		.4byte	.LASF72
 1759 02d4 07       		.byte	0x7
 1760 02d5 2C       		.byte	0x2c
 1761 02d6 DC020000 		.4byte	0x2dc
 1762 02da 10       		.byte	0x10
 1763 02db 00       		.byte	0
 1764 02dc 07       		.uleb128 0x7
 1765 02dd 04       		.byte	0x4
 1766 02de 26020000 		.4byte	0x226
 1767 02e2 03       		.uleb128 0x3
 1768 02e3 B9050000 		.4byte	.LASF73
 1769 02e7 07       		.byte	0x7
 1770 02e8 2D       		.byte	0x2d
 1771 02e9 81020000 		.4byte	0x281
 1772 02ed 03       		.uleb128 0x3
 1773 02ee 2B040000 		.4byte	.LASF74
 1774 02f2 07       		.byte	0x7
 1775 02f3 66       		.byte	0x66
 1776 02f4 F8020000 		.4byte	0x2f8
 1777 02f8 0F       		.uleb128 0xf
 1778 02f9 37070000 		.4byte	.LASF84
 1779 02fd 20       		.byte	0x20
 1780 02fe 07       		.byte	0x7
 1781 02ff F7       		.byte	0xf7
 1782 0300 72030000 		.4byte	0x372
 1783 0304 0E       		.uleb128 0xe
 1784 0305 A3060000 		.4byte	.LASF75
 1785 0309 07       		.byte	0x7
 1786 030a F9       		.byte	0xf9
 1787 030b 26020000 		.4byte	0x226
 1788 030f 00       		.byte	0
 1789 0310 0E       		.uleb128 0xe
 1790 0311 2C000000 		.4byte	.LASF76
 1791 0315 07       		.byte	0x7
ARM GAS  C:\Users\leoja\AppData\Local\Temp\ccVHTcit.s 			page 40


 1792 0316 FA       		.byte	0xfa
 1793 0317 26020000 		.4byte	0x226
 1794 031b 01       		.byte	0x1
 1795 031c 0E       		.uleb128 0xe
 1796 031d BF000000 		.4byte	.LASF77
 1797 0321 07       		.byte	0x7
 1798 0322 FB       		.byte	0xfb
 1799 0323 17050000 		.4byte	0x517
 1800 0327 04       		.byte	0x4
 1801 0328 0E       		.uleb128 0xe
 1802 0329 46070000 		.4byte	.LASF78
 1803 032d 07       		.byte	0x7
 1804 032e FC       		.byte	0xfc
 1805 032f 60040000 		.4byte	0x460
 1806 0333 08       		.byte	0x8
 1807 0334 0E       		.uleb128 0xe
 1808 0335 B9060000 		.4byte	.LASF79
 1809 0339 07       		.byte	0x7
 1810 033a FD       		.byte	0xfd
 1811 033b 60040000 		.4byte	0x460
 1812 033f 10       		.byte	0x10
 1813 0340 0E       		.uleb128 0xe
 1814 0341 45060000 		.4byte	.LASF80
 1815 0345 07       		.byte	0x7
 1816 0346 FE       		.byte	0xfe
 1817 0347 26020000 		.4byte	0x226
 1818 034b 18       		.byte	0x18
 1819 034c 0D       		.uleb128 0xd
 1820 034d 696400   		.ascii	"id\000"
 1821 0350 07       		.byte	0x7
 1822 0351 FF       		.byte	0xff
 1823 0352 26020000 		.4byte	0x226
 1824 0356 19       		.byte	0x19
 1825 0357 10       		.uleb128 0x10
 1826 0358 4C010000 		.4byte	.LASF81
 1827 035c 07       		.byte	0x7
 1828 035d 0001     		.2byte	0x100
 1829 035f 26020000 		.4byte	0x226
 1830 0363 1A       		.byte	0x1a
 1831 0364 10       		.uleb128 0x10
 1832 0365 B0030000 		.4byte	.LASF82
 1833 0369 07       		.byte	0x7
 1834 036a 0101     		.2byte	0x101
 1835 036c 1E010000 		.4byte	0x11e
 1836 0370 1C       		.byte	0x1c
 1837 0371 00       		.byte	0
 1838 0372 03       		.uleb128 0x3
 1839 0373 79050000 		.4byte	.LASF83
 1840 0377 07       		.byte	0x7
 1841 0378 67       		.byte	0x67
 1842 0379 7D030000 		.4byte	0x37d
 1843 037d 11       		.uleb128 0x11
 1844 037e 94000000 		.4byte	.LASF85
 1845 0382 44       		.byte	0x44
 1846 0383 07       		.byte	0x7
 1847 0384 4101     		.2byte	0x141
 1848 0386 20040000 		.4byte	0x420
ARM GAS  C:\Users\leoja\AppData\Local\Temp\ccVHTcit.s 			page 41


 1849 038a 10       		.uleb128 0x10
 1850 038b C2010000 		.4byte	.LASF86
 1851 038f 07       		.byte	0x7
 1852 0390 4301     		.2byte	0x143
 1853 0392 26020000 		.4byte	0x226
 1854 0396 00       		.byte	0
 1855 0397 10       		.uleb128 0x10
 1856 0398 03010000 		.4byte	.LASF87
 1857 039c 07       		.byte	0x7
 1858 039d 4401     		.2byte	0x144
 1859 039f 11050000 		.4byte	0x511
 1860 03a3 04       		.byte	0x4
 1861 03a4 10       		.uleb128 0x10
 1862 03a5 A3060000 		.4byte	.LASF75
 1863 03a9 07       		.byte	0x7
 1864 03aa 4501     		.2byte	0x145
 1865 03ac 26020000 		.4byte	0x226
 1866 03b0 08       		.byte	0x8
 1867 03b1 12       		.uleb128 0x12
 1868 03b2 666300   		.ascii	"fc\000"
 1869 03b5 07       		.byte	0x7
 1870 03b6 4601     		.2byte	0x146
 1871 03b8 20040000 		.4byte	0x420
 1872 03bc 0C       		.byte	0xc
 1873 03bd 12       		.uleb128 0x12
 1874 03be 626300   		.ascii	"bc\000"
 1875 03c1 07       		.byte	0x7
 1876 03c2 4701     		.2byte	0x147
 1877 03c4 20040000 		.4byte	0x420
 1878 03c8 10       		.byte	0x10
 1879 03c9 12       		.uleb128 0x12
 1880 03ca 787300   		.ascii	"xs\000"
 1881 03cd 07       		.byte	0x7
 1882 03ce 4801     		.2byte	0x148
 1883 03d0 47020000 		.4byte	0x247
 1884 03d4 14       		.byte	0x14
 1885 03d5 12       		.uleb128 0x12
 1886 03d6 797300   		.ascii	"ys\000"
 1887 03d9 07       		.byte	0x7
 1888 03da 4901     		.2byte	0x149
 1889 03dc 47020000 		.4byte	0x247
 1890 03e0 16       		.byte	0x16
 1891 03e1 12       		.uleb128 0x12
 1892 03e2 786500   		.ascii	"xe\000"
 1893 03e5 07       		.byte	0x7
 1894 03e6 4A01     		.2byte	0x14a
 1895 03e8 47020000 		.4byte	0x247
 1896 03ec 18       		.byte	0x18
 1897 03ed 12       		.uleb128 0x12
 1898 03ee 796500   		.ascii	"ye\000"
 1899 03f1 07       		.byte	0x7
 1900 03f2 4B01     		.2byte	0x14b
 1901 03f4 47020000 		.4byte	0x247
 1902 03f8 1A       		.byte	0x1a
 1903 03f9 10       		.uleb128 0x10
 1904 03fa 9D060000 		.4byte	.LASF88
 1905 03fe 07       		.byte	0x7
ARM GAS  C:\Users\leoja\AppData\Local\Temp\ccVHTcit.s 			page 42


 1906 03ff 4C01     		.2byte	0x14c
 1907 0401 26020000 		.4byte	0x226
 1908 0405 1C       		.byte	0x1c
 1909 0406 10       		.uleb128 0x10
 1910 0407 23010000 		.4byte	.LASF89
 1911 040b 07       		.byte	0x7
 1912 040c 4D01     		.2byte	0x14d
 1913 040e A7050000 		.4byte	0x5a7
 1914 0412 20       		.byte	0x20
 1915 0413 12       		.uleb128 0x12
 1916 0414 636200   		.ascii	"cb\000"
 1917 0417 07       		.byte	0x7
 1918 0418 4E01     		.2byte	0x14e
 1919 041a C4050000 		.4byte	0x5c4
 1920 041e 40       		.byte	0x40
 1921 041f 00       		.byte	0
 1922 0420 03       		.uleb128 0x3
 1923 0421 38000000 		.4byte	.LASF90
 1924 0425 07       		.byte	0x7
 1925 0426 6A       		.byte	0x6a
 1926 0427 52020000 		.4byte	0x252
 1927 042b 0C       		.uleb128 0xc
 1928 042c 08       		.byte	0x8
 1929 042d 07       		.byte	0x7
 1930 042e A7       		.byte	0xa7
 1931 042f 60040000 		.4byte	0x460
 1932 0433 0D       		.uleb128 0xd
 1933 0434 787300   		.ascii	"xs\000"
 1934 0437 07       		.byte	0x7
 1935 0438 A9       		.byte	0xa9
 1936 0439 47020000 		.4byte	0x247
 1937 043d 00       		.byte	0
 1938 043e 0D       		.uleb128 0xd
 1939 043f 797300   		.ascii	"ys\000"
 1940 0442 07       		.byte	0x7
 1941 0443 AA       		.byte	0xaa
 1942 0444 47020000 		.4byte	0x247
 1943 0448 02       		.byte	0x2
 1944 0449 0D       		.uleb128 0xd
 1945 044a 786500   		.ascii	"xe\000"
 1946 044d 07       		.byte	0x7
 1947 044e AB       		.byte	0xab
 1948 044f 47020000 		.4byte	0x247
 1949 0453 04       		.byte	0x4
 1950 0454 0D       		.uleb128 0xd
 1951 0455 796500   		.ascii	"ye\000"
 1952 0458 07       		.byte	0x7
 1953 0459 AC       		.byte	0xac
 1954 045a 47020000 		.4byte	0x247
 1955 045e 06       		.byte	0x6
 1956 045f 00       		.byte	0
 1957 0460 03       		.uleb128 0x3
 1958 0461 8D030000 		.4byte	.LASF91
 1959 0465 07       		.byte	0x7
 1960 0466 AD       		.byte	0xad
 1961 0467 2B040000 		.4byte	0x42b
 1962 046b 07       		.uleb128 0x7
ARM GAS  C:\Users\leoja\AppData\Local\Temp\ccVHTcit.s 			page 43


 1963 046c 04       		.byte	0x4
 1964 046d 71040000 		.4byte	0x471
 1965 0471 13       		.uleb128 0x13
 1966 0472 E2020000 		.4byte	0x2e2
 1967 0476 0C       		.uleb128 0xc
 1968 0477 08       		.byte	0x8
 1969 0478 07       		.byte	0x7
 1970 0479 D6       		.byte	0xd6
 1971 047a BA040000 		.4byte	0x4ba
 1972 047e 0E       		.uleb128 0xe
 1973 047f 45060000 		.4byte	.LASF80
 1974 0483 07       		.byte	0x7
 1975 0484 D8       		.byte	0xd8
 1976 0485 26020000 		.4byte	0x226
 1977 0489 00       		.byte	0
 1978 048a 0D       		.uleb128 0xd
 1979 048b 696400   		.ascii	"id\000"
 1980 048e 07       		.byte	0x7
 1981 048f D9       		.byte	0xd9
 1982 0490 26020000 		.4byte	0x226
 1983 0494 01       		.byte	0x1
 1984 0495 0E       		.uleb128 0xe
 1985 0496 44040000 		.4byte	.LASF92
 1986 049a 07       		.byte	0x7
 1987 049b DA       		.byte	0xda
 1988 049c 26020000 		.4byte	0x226
 1989 04a0 02       		.byte	0x2
 1990 04a1 0E       		.uleb128 0xe
 1991 04a2 4C010000 		.4byte	.LASF81
 1992 04a6 07       		.byte	0x7
 1993 04a7 DB       		.byte	0xdb
 1994 04a8 26020000 		.4byte	0x226
 1995 04ac 03       		.byte	0x3
 1996 04ad 0D       		.uleb128 0xd
 1997 04ae 73726300 		.ascii	"src\000"
 1998 04b2 07       		.byte	0x7
 1999 04b3 DC       		.byte	0xdc
 2000 04b4 1E010000 		.4byte	0x11e
 2001 04b8 04       		.byte	0x4
 2002 04b9 00       		.byte	0
 2003 04ba 03       		.uleb128 0x3
 2004 04bb 95030000 		.4byte	.LASF93
 2005 04bf 07       		.byte	0x7
 2006 04c0 DD       		.byte	0xdd
 2007 04c1 76040000 		.4byte	0x476
 2008 04c5 0C       		.uleb128 0xc
 2009 04c6 06       		.byte	0x6
 2010 04c7 07       		.byte	0x7
 2011 04c8 E8       		.byte	0xe8
 2012 04c9 F0040000 		.4byte	0x4f0
 2013 04cd 0E       		.uleb128 0xe
 2014 04ce A3060000 		.4byte	.LASF75
 2015 04d2 07       		.byte	0x7
 2016 04d3 EA       		.byte	0xea
 2017 04d4 26020000 		.4byte	0x226
 2018 04d8 00       		.byte	0
 2019 04d9 0D       		.uleb128 0xd
ARM GAS  C:\Users\leoja\AppData\Local\Temp\ccVHTcit.s 			page 44


 2020 04da 787000   		.ascii	"xp\000"
 2021 04dd 07       		.byte	0x7
 2022 04de EB       		.byte	0xeb
 2023 04df 47020000 		.4byte	0x247
 2024 04e3 02       		.byte	0x2
 2025 04e4 0D       		.uleb128 0xd
 2026 04e5 797000   		.ascii	"yp\000"
 2027 04e8 07       		.byte	0x7
 2028 04e9 EC       		.byte	0xec
 2029 04ea 47020000 		.4byte	0x247
 2030 04ee 04       		.byte	0x4
 2031 04ef 00       		.byte	0
 2032 04f0 03       		.uleb128 0x3
 2033 04f1 BF060000 		.4byte	.LASF94
 2034 04f5 07       		.byte	0x7
 2035 04f6 ED       		.byte	0xed
 2036 04f7 C5040000 		.4byte	0x4c5
 2037 04fb 14       		.uleb128 0x14
 2038 04fc 0B050000 		.4byte	0x50b
 2039 0500 15       		.uleb128 0x15
 2040 0501 0B050000 		.4byte	0x50b
 2041 0505 15       		.uleb128 0x15
 2042 0506 11050000 		.4byte	0x511
 2043 050a 00       		.byte	0
 2044 050b 07       		.uleb128 0x7
 2045 050c 04       		.byte	0x4
 2046 050d 72030000 		.4byte	0x372
 2047 0511 07       		.uleb128 0x7
 2048 0512 04       		.byte	0x4
 2049 0513 ED020000 		.4byte	0x2ed
 2050 0517 07       		.uleb128 0x7
 2051 0518 04       		.byte	0x4
 2052 0519 FB040000 		.4byte	0x4fb
 2053 051d 16       		.uleb128 0x16
 2054 051e 20       		.byte	0x20
 2055 051f 07       		.byte	0x7
 2056 0520 3201     		.2byte	0x132
 2057 0522 A7050000 		.4byte	0x5a7
 2058 0526 12       		.uleb128 0x12
 2059 0527 73747200 		.ascii	"str\000"
 2060 052b 07       		.byte	0x7
 2061 052c 3401     		.2byte	0x134
 2062 052e 20010000 		.4byte	0x120
 2063 0532 00       		.byte	0
 2064 0533 10       		.uleb128 0x10
 2065 0534 CB050000 		.4byte	.LASF95
 2066 0538 07       		.byte	0x7
 2067 0539 3501     		.2byte	0x135
 2068 053b 6B040000 		.4byte	0x46b
 2069 053f 04       		.byte	0x4
 2070 0540 10       		.uleb128 0x10
 2071 0541 63060000 		.4byte	.LASF96
 2072 0545 07       		.byte	0x7
 2073 0546 3601     		.2byte	0x136
 2074 0548 31020000 		.4byte	0x231
 2075 054c 08       		.byte	0x8
 2076 054d 10       		.uleb128 0x10
ARM GAS  C:\Users\leoja\AppData\Local\Temp\ccVHTcit.s 			page 45


 2077 054e 53030000 		.4byte	.LASF97
 2078 0552 07       		.byte	0x7
 2079 0553 3701     		.2byte	0x137
 2080 0555 31020000 		.4byte	0x231
 2081 0559 09       		.byte	0x9
 2082 055a 10       		.uleb128 0x10
 2083 055b 40070000 		.4byte	.LASF98
 2084 055f 07       		.byte	0x7
 2085 0560 3801     		.2byte	0x138
 2086 0562 26020000 		.4byte	0x226
 2087 0566 0A       		.byte	0xa
 2088 0567 12       		.uleb128 0x12
 2089 0568 666300   		.ascii	"fc\000"
 2090 056b 07       		.byte	0x7
 2091 056c 3901     		.2byte	0x139
 2092 056e 20040000 		.4byte	0x420
 2093 0572 0C       		.byte	0xc
 2094 0573 12       		.uleb128 0x12
 2095 0574 626300   		.ascii	"bc\000"
 2096 0577 07       		.byte	0x7
 2097 0578 3A01     		.2byte	0x13a
 2098 057a 20040000 		.4byte	0x420
 2099 057e 10       		.byte	0x10
 2100 057f 12       		.uleb128 0x12
 2101 0580 69666300 		.ascii	"ifc\000"
 2102 0584 07       		.byte	0x7
 2103 0585 3B01     		.2byte	0x13b
 2104 0587 20040000 		.4byte	0x420
 2105 058b 14       		.byte	0x14
 2106 058c 12       		.uleb128 0x12
 2107 058d 69626300 		.ascii	"ibc\000"
 2108 0591 07       		.byte	0x7
 2109 0592 3C01     		.2byte	0x13c
 2110 0594 20040000 		.4byte	0x420
 2111 0598 18       		.byte	0x18
 2112 0599 10       		.uleb128 0x10
 2113 059a 57040000 		.4byte	.LASF99
 2114 059e 07       		.byte	0x7
 2115 059f 3D01     		.2byte	0x13d
 2116 05a1 26020000 		.4byte	0x226
 2117 05a5 1C       		.byte	0x1c
 2118 05a6 00       		.byte	0
 2119 05a7 05       		.uleb128 0x5
 2120 05a8 D2040000 		.4byte	.LASF100
 2121 05ac 07       		.byte	0x7
 2122 05ad 3E01     		.2byte	0x13e
 2123 05af 1D050000 		.4byte	0x51d
 2124 05b3 14       		.uleb128 0x14
 2125 05b4 BE050000 		.4byte	0x5be
 2126 05b8 15       		.uleb128 0x15
 2127 05b9 BE050000 		.4byte	0x5be
 2128 05bd 00       		.byte	0
 2129 05be 07       		.uleb128 0x7
 2130 05bf 04       		.byte	0x4
 2131 05c0 BA040000 		.4byte	0x4ba
 2132 05c4 07       		.uleb128 0x7
 2133 05c5 04       		.byte	0x4
ARM GAS  C:\Users\leoja\AppData\Local\Temp\ccVHTcit.s 			page 46


 2134 05c6 B3050000 		.4byte	0x5b3
 2135 05ca 16       		.uleb128 0x16
 2136 05cb 08       		.byte	0x8
 2137 05cc 07       		.byte	0x7
 2138 05cd 2002     		.2byte	0x220
 2139 05cf EE050000 		.4byte	0x5ee
 2140 05d3 10       		.uleb128 0x10
 2141 05d4 C3030000 		.4byte	.LASF101
 2142 05d8 07       		.byte	0x7
 2143 05d9 2202     		.2byte	0x222
 2144 05db 1E010000 		.4byte	0x11e
 2145 05df 00       		.byte	0
 2146 05e0 10       		.uleb128 0x10
 2147 05e1 A3060000 		.4byte	.LASF75
 2148 05e5 07       		.byte	0x7
 2149 05e6 2302     		.2byte	0x223
 2150 05e8 26020000 		.4byte	0x226
 2151 05ec 04       		.byte	0x4
 2152 05ed 00       		.byte	0
 2153 05ee 05       		.uleb128 0x5
 2154 05ef DB040000 		.4byte	.LASF102
 2155 05f3 07       		.byte	0x7
 2156 05f4 2402     		.2byte	0x224
 2157 05f6 CA050000 		.4byte	0x5ca
 2158 05fa 16       		.uleb128 0x16
 2159 05fb 14       		.byte	0x14
 2160 05fc 07       		.byte	0x7
 2161 05fd 3C02     		.2byte	0x23c
 2162 05ff 6C060000 		.4byte	0x66c
 2163 0603 10       		.uleb128 0x10
 2164 0604 E5040000 		.4byte	.LASF103
 2165 0608 07       		.byte	0x7
 2166 0609 3E02     		.2byte	0x23e
 2167 060b 47020000 		.4byte	0x247
 2168 060f 00       		.byte	0
 2169 0610 10       		.uleb128 0x10
 2170 0611 EB010000 		.4byte	.LASF104
 2171 0615 07       		.byte	0x7
 2172 0616 3F02     		.2byte	0x23f
 2173 0618 47020000 		.4byte	0x247
 2174 061c 02       		.byte	0x2
 2175 061d 10       		.uleb128 0x10
 2176 061e 76060000 		.4byte	.LASF105
 2177 0622 07       		.byte	0x7
 2178 0623 4002     		.2byte	0x240
 2179 0625 47020000 		.4byte	0x247
 2180 0629 04       		.byte	0x4
 2181 062a 10       		.uleb128 0x10
 2182 062b 4B030000 		.4byte	.LASF106
 2183 062f 07       		.byte	0x7
 2184 0630 4102     		.2byte	0x241
 2185 0632 47020000 		.4byte	0x247
 2186 0636 06       		.byte	0x6
 2187 0637 10       		.uleb128 0x10
 2188 0638 40010000 		.4byte	.LASF107
 2189 063c 07       		.byte	0x7
 2190 063d 4202     		.2byte	0x242
ARM GAS  C:\Users\leoja\AppData\Local\Temp\ccVHTcit.s 			page 47


 2191 063f 47020000 		.4byte	0x247
 2192 0643 08       		.byte	0x8
 2193 0644 10       		.uleb128 0x10
 2194 0645 84060000 		.4byte	.LASF108
 2195 0649 07       		.byte	0x7
 2196 064a 4302     		.2byte	0x243
 2197 064c 47020000 		.4byte	0x247
 2198 0650 0A       		.byte	0xa
 2199 0651 10       		.uleb128 0x10
 2200 0652 D0010000 		.4byte	.LASF109
 2201 0656 07       		.byte	0x7
 2202 0657 4402     		.2byte	0x244
 2203 0659 20040000 		.4byte	0x420
 2204 065d 0C       		.byte	0xc
 2205 065e 10       		.uleb128 0x10
 2206 065f 5E010000 		.4byte	.LASF110
 2207 0663 07       		.byte	0x7
 2208 0664 4502     		.2byte	0x245
 2209 0666 20040000 		.4byte	0x420
 2210 066a 10       		.byte	0x10
 2211 066b 00       		.byte	0
 2212 066c 16       		.uleb128 0x16
 2213 066d 78       		.byte	0x78
 2214 066e 07       		.byte	0x7
 2215 066f 3302     		.2byte	0x233
 2216 0671 46070000 		.4byte	0x746
 2217 0675 10       		.uleb128 0x10
 2218 0676 35040000 		.4byte	.LASF111
 2219 067a 07       		.byte	0x7
 2220 067b 3502     		.2byte	0x235
 2221 067d 5B070000 		.4byte	0x75b
 2222 0681 00       		.byte	0
 2223 0682 10       		.uleb128 0x10
 2224 0683 E4030000 		.4byte	.LASF112
 2225 0687 07       		.byte	0x7
 2226 0688 3602     		.2byte	0x236
 2227 068a 47020000 		.4byte	0x247
 2228 068e 04       		.byte	0x4
 2229 068f 10       		.uleb128 0x10
 2230 0690 C6000000 		.4byte	.LASF113
 2231 0694 07       		.byte	0x7
 2232 0695 3702     		.2byte	0x237
 2233 0697 47020000 		.4byte	0x247
 2234 069b 06       		.byte	0x6
 2235 069c 10       		.uleb128 0x10
 2236 069d BD030000 		.4byte	.LASF114
 2237 06a1 07       		.byte	0x7
 2238 06a2 3802     		.2byte	0x238
 2239 06a4 F0040000 		.4byte	0x4f0
 2240 06a8 08       		.byte	0x8
 2241 06a9 10       		.uleb128 0x10
 2242 06aa 0A010000 		.4byte	.LASF115
 2243 06ae 07       		.byte	0x7
 2244 06af 3902     		.2byte	0x239
 2245 06b1 0B050000 		.4byte	0x50b
 2246 06b5 10       		.byte	0x10
 2247 06b6 10       		.uleb128 0x10
ARM GAS  C:\Users\leoja\AppData\Local\Temp\ccVHTcit.s 			page 48


 2248 06b7 B4010000 		.4byte	.LASF116
 2249 06bb 07       		.byte	0x7
 2250 06bc 3A02     		.2byte	0x23a
 2251 06be 0B050000 		.4byte	0x50b
 2252 06c2 14       		.byte	0x14
 2253 06c3 10       		.uleb128 0x10
 2254 06c4 52010000 		.4byte	.LASF117
 2255 06c8 07       		.byte	0x7
 2256 06c9 3B02     		.2byte	0x23b
 2257 06cb 0B050000 		.4byte	0x50b
 2258 06cf 18       		.byte	0x18
 2259 06d0 10       		.uleb128 0x10
 2260 06d1 7B000000 		.4byte	.LASF118
 2261 06d5 07       		.byte	0x7
 2262 06d6 4602     		.2byte	0x246
 2263 06d8 FA050000 		.4byte	0x5fa
 2264 06dc 1C       		.byte	0x1c
 2265 06dd 10       		.uleb128 0x10
 2266 06de CB050000 		.4byte	.LASF95
 2267 06e2 07       		.byte	0x7
 2268 06e3 4702     		.2byte	0x247
 2269 06e5 E2020000 		.4byte	0x2e2
 2270 06e9 30       		.byte	0x30
 2271 06ea 10       		.uleb128 0x10
 2272 06eb 61070000 		.4byte	.LASF119
 2273 06ef 07       		.byte	0x7
 2274 06f0 4802     		.2byte	0x248
 2275 06f2 31020000 		.4byte	0x231
 2276 06f6 44       		.byte	0x44
 2277 06f7 10       		.uleb128 0x10
 2278 06f8 5F000000 		.4byte	.LASF120
 2279 06fc 07       		.byte	0x7
 2280 06fd 4902     		.2byte	0x249
 2281 06ff 31020000 		.4byte	0x231
 2282 0703 45       		.byte	0x45
 2283 0704 10       		.uleb128 0x10
 2284 0705 D0010000 		.4byte	.LASF109
 2285 0709 07       		.byte	0x7
 2286 070a 4A02     		.2byte	0x24a
 2287 070c 20040000 		.4byte	0x420
 2288 0710 48       		.byte	0x48
 2289 0711 10       		.uleb128 0x10
 2290 0712 5E010000 		.4byte	.LASF110
 2291 0716 07       		.byte	0x7
 2292 0717 4B02     		.2byte	0x24b
 2293 0719 20040000 		.4byte	0x420
 2294 071d 4C       		.byte	0x4c
 2295 071e 10       		.uleb128 0x10
 2296 071f 1E000000 		.4byte	.LASF121
 2297 0723 07       		.byte	0x7
 2298 0724 4C02     		.2byte	0x24c
 2299 0726 20040000 		.4byte	0x420
 2300 072a 50       		.byte	0x50
 2301 072b 10       		.uleb128 0x10
 2302 072c A3060000 		.4byte	.LASF75
 2303 0730 07       		.byte	0x7
 2304 0731 4D02     		.2byte	0x24d
ARM GAS  C:\Users\leoja\AppData\Local\Temp\ccVHTcit.s 			page 49


 2305 0733 26020000 		.4byte	0x226
 2306 0737 54       		.byte	0x54
 2307 0738 10       		.uleb128 0x10
 2308 0739 C3030000 		.4byte	.LASF101
 2309 073d 07       		.byte	0x7
 2310 073e 4E02     		.2byte	0x24e
 2311 0740 61070000 		.4byte	0x761
 2312 0744 58       		.byte	0x58
 2313 0745 00       		.byte	0
 2314 0746 14       		.uleb128 0x14
 2315 0747 5B070000 		.4byte	0x75b
 2316 074b 15       		.uleb128 0x15
 2317 074c 47020000 		.4byte	0x247
 2318 0750 15       		.uleb128 0x15
 2319 0751 47020000 		.4byte	0x247
 2320 0755 15       		.uleb128 0x15
 2321 0756 20040000 		.4byte	0x420
 2322 075a 00       		.byte	0
 2323 075b 07       		.uleb128 0x7
 2324 075c 04       		.byte	0x4
 2325 075d 46070000 		.4byte	0x746
 2326 0761 17       		.uleb128 0x17
 2327 0762 EE050000 		.4byte	0x5ee
 2328 0766 71070000 		.4byte	0x771
 2329 076a 18       		.uleb128 0x18
 2330 076b 17010000 		.4byte	0x117
 2331 076f 03       		.byte	0x3
 2332 0770 00       		.byte	0
 2333 0771 05       		.uleb128 0x5
 2334 0772 B2060000 		.4byte	.LASF122
 2335 0776 07       		.byte	0x7
 2336 0777 4F02     		.2byte	0x24f
 2337 0779 6C060000 		.4byte	0x66c
 2338 077d 19       		.uleb128 0x19
 2339 077e 99010000 		.4byte	.LASF123
 2340 0782 01       		.byte	0x1
 2341 0783 0A       		.byte	0xa
 2342 0784 00000000 		.4byte	.LFB64
 2343 0788 74000000 		.4byte	.LFE64-.LFB64
 2344 078c 01       		.uleb128 0x1
 2345 078d 9C       		.byte	0x9c
 2346 078e 75080000 		.4byte	0x875
 2347 0792 1A       		.uleb128 0x1a
 2348 0793 0C000000 		.4byte	.LVL0
 2349 0797 23160000 		.4byte	0x1623
 2350 079b A9070000 		.4byte	0x7a9
 2351 079f 1B       		.uleb128 0x1b
 2352 07a0 01       		.uleb128 0x1
 2353 07a1 50       		.byte	0x50
 2354 07a2 05       		.uleb128 0x5
 2355 07a3 0C       		.byte	0xc
 2356 07a4 FFFFFF00 		.4byte	0xffffff
 2357 07a8 00       		.byte	0
 2358 07a9 1A       		.uleb128 0x1a
 2359 07aa 1E000000 		.4byte	.LVL1
 2360 07ae 2F160000 		.4byte	0x162f
 2361 07b2 D4070000 		.4byte	0x7d4
ARM GAS  C:\Users\leoja\AppData\Local\Temp\ccVHTcit.s 			page 50


 2362 07b6 1B       		.uleb128 0x1b
 2363 07b7 01       		.uleb128 0x1
 2364 07b8 50       		.byte	0x50
 2365 07b9 01       		.uleb128 0x1
 2366 07ba 30       		.byte	0x30
 2367 07bb 1B       		.uleb128 0x1b
 2368 07bc 01       		.uleb128 0x1
 2369 07bd 51       		.byte	0x51
 2370 07be 01       		.uleb128 0x1
 2371 07bf 30       		.byte	0x30
 2372 07c0 1B       		.uleb128 0x1b
 2373 07c1 01       		.uleb128 0x1
 2374 07c2 52       		.byte	0x52
 2375 07c3 01       		.uleb128 0x1
 2376 07c4 3A       		.byte	0x3a
 2377 07c5 1B       		.uleb128 0x1b
 2378 07c6 01       		.uleb128 0x1
 2379 07c7 53       		.byte	0x53
 2380 07c8 01       		.uleb128 0x1
 2381 07c9 3A       		.byte	0x3a
 2382 07ca 1B       		.uleb128 0x1b
 2383 07cb 02       		.uleb128 0x2
 2384 07cc 7D       		.byte	0x7d
 2385 07cd 00       		.sleb128 0
 2386 07ce 04       		.uleb128 0x4
 2387 07cf 08       		.byte	0x8
 2388 07d0 FF       		.byte	0xff
 2389 07d1 40       		.byte	0x40
 2390 07d2 24       		.byte	0x24
 2391 07d3 00       		.byte	0
 2392 07d4 1A       		.uleb128 0x1a
 2393 07d5 32000000 		.4byte	.LVL2
 2394 07d9 2F160000 		.4byte	0x162f
 2395 07dd 01080000 		.4byte	0x801
 2396 07e1 1B       		.uleb128 0x1b
 2397 07e2 01       		.uleb128 0x1
 2398 07e3 50       		.byte	0x50
 2399 07e4 01       		.uleb128 0x1
 2400 07e5 30       		.byte	0x30
 2401 07e6 1B       		.uleb128 0x1b
 2402 07e7 01       		.uleb128 0x1
 2403 07e8 51       		.byte	0x51
 2404 07e9 03       		.uleb128 0x3
 2405 07ea 0A       		.byte	0xa
 2406 07eb 0601     		.2byte	0x106
 2407 07ed 1B       		.uleb128 0x1b
 2408 07ee 01       		.uleb128 0x1
 2409 07ef 52       		.byte	0x52
 2410 07f0 01       		.uleb128 0x1
 2411 07f1 3A       		.byte	0x3a
 2412 07f2 1B       		.uleb128 0x1b
 2413 07f3 01       		.uleb128 0x1
 2414 07f4 53       		.byte	0x53
 2415 07f5 03       		.uleb128 0x3
 2416 07f6 0A       		.byte	0xa
 2417 07f7 1001     		.2byte	0x110
 2418 07f9 1B       		.uleb128 0x1b
ARM GAS  C:\Users\leoja\AppData\Local\Temp\ccVHTcit.s 			page 51


 2419 07fa 02       		.uleb128 0x2
 2420 07fb 7D       		.byte	0x7d
 2421 07fc 00       		.sleb128 0
 2422 07fd 02       		.uleb128 0x2
 2423 07fe 08       		.byte	0x8
 2424 07ff FF       		.byte	0xff
 2425 0800 00       		.byte	0
 2426 0801 1A       		.uleb128 0x1a
 2427 0802 48000000 		.4byte	.LVL3
 2428 0806 2F160000 		.4byte	0x162f
 2429 080a 2F080000 		.4byte	0x82f
 2430 080e 1B       		.uleb128 0x1b
 2431 080f 01       		.uleb128 0x1
 2432 0810 50       		.byte	0x50
 2433 0811 03       		.uleb128 0x3
 2434 0812 0A       		.byte	0xa
 2435 0813 D601     		.2byte	0x1d6
 2436 0815 1B       		.uleb128 0x1b
 2437 0816 01       		.uleb128 0x1
 2438 0817 51       		.byte	0x51
 2439 0818 01       		.uleb128 0x1
 2440 0819 30       		.byte	0x30
 2441 081a 1B       		.uleb128 0x1b
 2442 081b 01       		.uleb128 0x1
 2443 081c 52       		.byte	0x52
 2444 081d 03       		.uleb128 0x3
 2445 081e 0A       		.byte	0xa
 2446 081f E001     		.2byte	0x1e0
 2447 0821 1B       		.uleb128 0x1b
 2448 0822 01       		.uleb128 0x1
 2449 0823 53       		.byte	0x53
 2450 0824 01       		.uleb128 0x1
 2451 0825 3A       		.byte	0x3a
 2452 0826 1B       		.uleb128 0x1b
 2453 0827 02       		.uleb128 0x2
 2454 0828 7D       		.byte	0x7d
 2455 0829 00       		.sleb128 0
 2456 082a 03       		.uleb128 0x3
 2457 082b 0A       		.byte	0xa
 2458 082c 00FF     		.2byte	0xff00
 2459 082e 00       		.byte	0
 2460 082f 1A       		.uleb128 0x1a
 2461 0830 60000000 		.4byte	.LVL4
 2462 0834 2F160000 		.4byte	0x162f
 2463 0838 63080000 		.4byte	0x863
 2464 083c 1B       		.uleb128 0x1b
 2465 083d 01       		.uleb128 0x1
 2466 083e 50       		.byte	0x50
 2467 083f 03       		.uleb128 0x3
 2468 0840 0A       		.byte	0xa
 2469 0841 D601     		.2byte	0x1d6
 2470 0843 1B       		.uleb128 0x1b
 2471 0844 01       		.uleb128 0x1
 2472 0845 51       		.byte	0x51
 2473 0846 03       		.uleb128 0x3
 2474 0847 0A       		.byte	0xa
 2475 0848 0601     		.2byte	0x106
ARM GAS  C:\Users\leoja\AppData\Local\Temp\ccVHTcit.s 			page 52


 2476 084a 1B       		.uleb128 0x1b
 2477 084b 01       		.uleb128 0x1
 2478 084c 52       		.byte	0x52
 2479 084d 03       		.uleb128 0x3
 2480 084e 0A       		.byte	0xa
 2481 084f E001     		.2byte	0x1e0
 2482 0851 1B       		.uleb128 0x1b
 2483 0852 01       		.uleb128 0x1
 2484 0853 53       		.byte	0x53
 2485 0854 03       		.uleb128 0x3
 2486 0855 0A       		.byte	0xa
 2487 0856 1001     		.2byte	0x110
 2488 0858 1B       		.uleb128 0x1b
 2489 0859 02       		.uleb128 0x2
 2490 085a 7D       		.byte	0x7d
 2491 085b 00       		.sleb128 0
 2492 085c 05       		.uleb128 0x5
 2493 085d 0C       		.byte	0xc
 2494 085e 00FFFF00 		.4byte	0xffff00
 2495 0862 00       		.byte	0
 2496 0863 1C       		.uleb128 0x1c
 2497 0864 68000000 		.4byte	.LVL5
 2498 0868 3B160000 		.4byte	0x163b
 2499 086c 1B       		.uleb128 0x1b
 2500 086d 01       		.uleb128 0x1
 2501 086e 50       		.byte	0x50
 2502 086f 03       		.uleb128 0x3
 2503 0870 0A       		.byte	0xa
 2504 0871 2C01     		.2byte	0x12c
 2505 0873 00       		.byte	0
 2506 0874 00       		.byte	0
 2507 0875 19       		.uleb128 0x19
 2508 0876 D9050000 		.4byte	.LASF124
 2509 087a 01       		.byte	0x1
 2510 087b 18       		.byte	0x18
 2511 087c 00000000 		.4byte	.LFB65
 2512 0880 64000000 		.4byte	.LFE65-.LFB65
 2513 0884 01       		.uleb128 0x1
 2514 0885 9C       		.byte	0x9c
 2515 0886 6B090000 		.4byte	0x96b
 2516 088a 1A       		.uleb128 0x1a
 2517 088b 08000000 		.4byte	.LVL6
 2518 088f 23160000 		.4byte	0x1623
 2519 0893 9D080000 		.4byte	0x89d
 2520 0897 1B       		.uleb128 0x1b
 2521 0898 01       		.uleb128 0x1
 2522 0899 50       		.byte	0x50
 2523 089a 01       		.uleb128 0x1
 2524 089b 30       		.byte	0x30
 2525 089c 00       		.byte	0
 2526 089d 1A       		.uleb128 0x1a
 2527 089e 12000000 		.4byte	.LVL7
 2528 08a2 46160000 		.4byte	0x1646
 2529 08a6 BF080000 		.4byte	0x8bf
 2530 08aa 1B       		.uleb128 0x1b
 2531 08ab 01       		.uleb128 0x1
 2532 08ac 50       		.byte	0x50
ARM GAS  C:\Users\leoja\AppData\Local\Temp\ccVHTcit.s 			page 53


 2533 08ad 02       		.uleb128 0x2
 2534 08ae 08       		.byte	0x8
 2535 08af 44       		.byte	0x44
 2536 08b0 1B       		.uleb128 0x1b
 2537 08b1 01       		.uleb128 0x1
 2538 08b2 51       		.byte	0x51
 2539 08b3 01       		.uleb128 0x1
 2540 08b4 3A       		.byte	0x3a
 2541 08b5 1B       		.uleb128 0x1b
 2542 08b6 01       		.uleb128 0x1
 2543 08b7 52       		.byte	0x52
 2544 08b8 05       		.uleb128 0x5
 2545 08b9 03       		.byte	0x3
 2546 08ba 00000000 		.4byte	.LC0
 2547 08be 00       		.byte	0
 2548 08bf 1A       		.uleb128 0x1a
 2549 08c0 1E000000 		.4byte	.LVL8
 2550 08c4 46160000 		.4byte	0x1646
 2551 08c8 E2080000 		.4byte	0x8e2
 2552 08cc 1B       		.uleb128 0x1b
 2553 08cd 01       		.uleb128 0x1
 2554 08ce 50       		.byte	0x50
 2555 08cf 03       		.uleb128 0x3
 2556 08d0 0A       		.byte	0xa
 2557 08d1 2901     		.2byte	0x129
 2558 08d3 1B       		.uleb128 0x1b
 2559 08d4 01       		.uleb128 0x1
 2560 08d5 51       		.byte	0x51
 2561 08d6 01       		.uleb128 0x1
 2562 08d7 3A       		.byte	0x3a
 2563 08d8 1B       		.uleb128 0x1b
 2564 08d9 01       		.uleb128 0x1
 2565 08da 52       		.byte	0x52
 2566 08db 05       		.uleb128 0x5
 2567 08dc 03       		.byte	0x3
 2568 08dd 0C000000 		.4byte	.LC1
 2569 08e1 00       		.byte	0
 2570 08e2 1A       		.uleb128 0x1a
 2571 08e3 28000000 		.4byte	.LVL9
 2572 08e7 46160000 		.4byte	0x1646
 2573 08eb 04090000 		.4byte	0x904
 2574 08ef 1B       		.uleb128 0x1b
 2575 08f0 01       		.uleb128 0x1
 2576 08f1 50       		.byte	0x50
 2577 08f2 01       		.uleb128 0x1
 2578 08f3 3A       		.byte	0x3a
 2579 08f4 1B       		.uleb128 0x1b
 2580 08f5 01       		.uleb128 0x1
 2581 08f6 51       		.byte	0x51
 2582 08f7 02       		.uleb128 0x2
 2583 08f8 08       		.byte	0x8
 2584 08f9 C3       		.byte	0xc3
 2585 08fa 1B       		.uleb128 0x1b
 2586 08fb 01       		.uleb128 0x1
 2587 08fc 52       		.byte	0x52
 2588 08fd 05       		.uleb128 0x5
 2589 08fe 03       		.byte	0x3
ARM GAS  C:\Users\leoja\AppData\Local\Temp\ccVHTcit.s 			page 54


 2590 08ff 18000000 		.4byte	.LC2
 2591 0903 00       		.byte	0
 2592 0904 1A       		.uleb128 0x1a
 2593 0905 32000000 		.4byte	.LVL10
 2594 0909 46160000 		.4byte	0x1646
 2595 090d 26090000 		.4byte	0x926
 2596 0911 1B       		.uleb128 0x1b
 2597 0912 01       		.uleb128 0x1
 2598 0913 50       		.byte	0x50
 2599 0914 01       		.uleb128 0x1
 2600 0915 3A       		.byte	0x3a
 2601 0916 1B       		.uleb128 0x1b
 2602 0917 01       		.uleb128 0x1
 2603 0918 51       		.byte	0x51
 2604 0919 02       		.uleb128 0x2
 2605 091a 08       		.byte	0x8
 2606 091b F0       		.byte	0xf0
 2607 091c 1B       		.uleb128 0x1b
 2608 091d 01       		.uleb128 0x1
 2609 091e 52       		.byte	0x52
 2610 091f 05       		.uleb128 0x5
 2611 0920 03       		.byte	0x3
 2612 0921 20000000 		.4byte	.LC3
 2613 0925 00       		.byte	0
 2614 0926 1A       		.uleb128 0x1a
 2615 0927 3E000000 		.4byte	.LVL11
 2616 092b 46160000 		.4byte	0x1646
 2617 092f 4A090000 		.4byte	0x94a
 2618 0933 1B       		.uleb128 0x1b
 2619 0934 01       		.uleb128 0x1
 2620 0935 50       		.byte	0x50
 2621 0936 03       		.uleb128 0x3
 2622 0937 0A       		.byte	0xa
 2623 0938 5301     		.2byte	0x153
 2624 093a 1B       		.uleb128 0x1b
 2625 093b 01       		.uleb128 0x1
 2626 093c 51       		.byte	0x51
 2627 093d 02       		.uleb128 0x2
 2628 093e 08       		.byte	0x8
 2629 093f C3       		.byte	0xc3
 2630 0940 1B       		.uleb128 0x1b
 2631 0941 01       		.uleb128 0x1
 2632 0942 52       		.byte	0x52
 2633 0943 05       		.uleb128 0x5
 2634 0944 03       		.byte	0x3
 2635 0945 28000000 		.4byte	.LC4
 2636 0949 00       		.byte	0
 2637 094a 1C       		.uleb128 0x1c
 2638 094b 4A000000 		.4byte	.LVL12
 2639 094f 46160000 		.4byte	0x1646
 2640 0953 1B       		.uleb128 0x1b
 2641 0954 01       		.uleb128 0x1
 2642 0955 50       		.byte	0x50
 2643 0956 03       		.uleb128 0x3
 2644 0957 0A       		.byte	0xa
 2645 0958 2C01     		.2byte	0x12c
 2646 095a 1B       		.uleb128 0x1b
ARM GAS  C:\Users\leoja\AppData\Local\Temp\ccVHTcit.s 			page 55


 2647 095b 01       		.uleb128 0x1
 2648 095c 51       		.byte	0x51
 2649 095d 02       		.uleb128 0x2
 2650 095e 08       		.byte	0x8
 2651 095f F0       		.byte	0xf0
 2652 0960 1B       		.uleb128 0x1b
 2653 0961 01       		.uleb128 0x1
 2654 0962 52       		.byte	0x52
 2655 0963 05       		.uleb128 0x5
 2656 0964 03       		.byte	0x3
 2657 0965 30000000 		.4byte	.LC5
 2658 0969 00       		.byte	0
 2659 096a 00       		.byte	0
 2660 096b 1D       		.uleb128 0x1d
 2661 096c A9060000 		.4byte	.LASF127
 2662 0970 01       		.byte	0x1
 2663 0971 27       		.byte	0x27
 2664 0972 00000000 		.4byte	.LFB66
 2665 0976 08010000 		.4byte	.LFE66-.LFB66
 2666 097a 01       		.uleb128 0x1
 2667 097b 9C       		.byte	0x9c
 2668 097c 250B0000 		.4byte	0xb25
 2669 0980 1E       		.uleb128 0x1e
 2670 0981 B0030000 		.4byte	.LASF82
 2671 0985 01       		.byte	0x1
 2672 0986 27       		.byte	0x27
 2673 0987 B8000000 		.4byte	0xb8
 2674 098b 00000000 		.4byte	.LLST0
 2675 098f 1F       		.uleb128 0x1f
 2676 0990 F1010000 		.4byte	.LASF125
 2677 0994 01       		.byte	0x1
 2678 0995 29       		.byte	0x29
 2679 0996 20040000 		.4byte	0x420
 2680 099a 21000000 		.4byte	.LLST1
 2681 099e 20       		.uleb128 0x20
 2682 099f 44000000 		.4byte	.LBB2
 2683 09a3 9C000000 		.4byte	.LBE2-.LBB2
 2684 09a7 B60A0000 		.4byte	0xab6
 2685 09ab 21       		.uleb128 0x21
 2686 09ac 08000000 		.4byte	.LASF126
 2687 09b0 01       		.byte	0x1
 2688 09b1 35       		.byte	0x35
 2689 09b2 250B0000 		.4byte	0xb25
 2690 09b6 02       		.uleb128 0x2
 2691 09b7 91       		.byte	0x91
 2692 09b8 6C       		.sleb128 -20
 2693 09b9 1A       		.uleb128 0x1a
 2694 09ba 4E000000 		.4byte	.LVL20
 2695 09be 52160000 		.4byte	0x1652
 2696 09c2 DC090000 		.4byte	0x9dc
 2697 09c6 1B       		.uleb128 0x1b
 2698 09c7 01       		.uleb128 0x1
 2699 09c8 50       		.byte	0x50
 2700 09c9 02       		.uleb128 0x2
 2701 09ca 91       		.byte	0x91
 2702 09cb 6C       		.sleb128 -20
 2703 09cc 1B       		.uleb128 0x1b
ARM GAS  C:\Users\leoja\AppData\Local\Temp\ccVHTcit.s 			page 56


 2704 09cd 01       		.uleb128 0x1
 2705 09ce 51       		.byte	0x51
 2706 09cf 05       		.uleb128 0x5
 2707 09d0 03       		.byte	0x3
 2708 09d1 44000000 		.4byte	.LC7
 2709 09d5 1B       		.uleb128 0x1b
 2710 09d6 01       		.uleb128 0x1
 2711 09d7 52       		.byte	0x52
 2712 09d8 02       		.uleb128 0x2
 2713 09d9 74       		.byte	0x74
 2714 09da 00       		.sleb128 0
 2715 09db 00       		.byte	0
 2716 09dc 1A       		.uleb128 0x1a
 2717 09dd 92000000 		.4byte	.LVL22
 2718 09e1 2F160000 		.4byte	0x162f
 2719 09e5 080A0000 		.4byte	0xa08
 2720 09e9 1B       		.uleb128 0x1b
 2721 09ea 01       		.uleb128 0x1
 2722 09eb 50       		.byte	0x50
 2723 09ec 01       		.uleb128 0x1
 2724 09ed 4E       		.byte	0x4e
 2725 09ee 1B       		.uleb128 0x1b
 2726 09ef 01       		.uleb128 0x1
 2727 09f0 51       		.byte	0x51
 2728 09f1 02       		.uleb128 0x2
 2729 09f2 08       		.byte	0x8
 2730 09f3 23       		.byte	0x23
 2731 09f4 1B       		.uleb128 0x1b
 2732 09f5 01       		.uleb128 0x1
 2733 09f6 52       		.byte	0x52
 2734 09f7 02       		.uleb128 0x2
 2735 09f8 08       		.byte	0x8
 2736 09f9 D2       		.byte	0xd2
 2737 09fa 1B       		.uleb128 0x1b
 2738 09fb 01       		.uleb128 0x1
 2739 09fc 53       		.byte	0x53
 2740 09fd 02       		.uleb128 0x2
 2741 09fe 08       		.byte	0x8
 2742 09ff AA       		.byte	0xaa
 2743 0a00 1B       		.uleb128 0x1b
 2744 0a01 02       		.uleb128 0x2
 2745 0a02 7D       		.byte	0x7d
 2746 0a03 00       		.sleb128 0
 2747 0a04 02       		.uleb128 0x2
 2748 0a05 74       		.byte	0x74
 2749 0a06 00       		.sleb128 0
 2750 0a07 00       		.byte	0
 2751 0a08 1A       		.uleb128 0x1a
 2752 0a09 A4000000 		.4byte	.LVL23
 2753 0a0d 5D160000 		.4byte	0x165d
 2754 0a11 340A0000 		.4byte	0xa34
 2755 0a15 1B       		.uleb128 0x1b
 2756 0a16 01       		.uleb128 0x1
 2757 0a17 50       		.byte	0x50
 2758 0a18 02       		.uleb128 0x2
 2759 0a19 08       		.byte	0x8
 2760 0a1a 46       		.byte	0x46
ARM GAS  C:\Users\leoja\AppData\Local\Temp\ccVHTcit.s 			page 57


 2761 0a1b 1B       		.uleb128 0x1b
 2762 0a1c 01       		.uleb128 0x1
 2763 0a1d 51       		.byte	0x51
 2764 0a1e 02       		.uleb128 0x2
 2765 0a1f 08       		.byte	0x8
 2766 0a20 50       		.byte	0x50
 2767 0a21 1B       		.uleb128 0x1b
 2768 0a22 01       		.uleb128 0x1
 2769 0a23 52       		.byte	0x52
 2770 0a24 02       		.uleb128 0x2
 2771 0a25 91       		.byte	0x91
 2772 0a26 6C       		.sleb128 -20
 2773 0a27 1B       		.uleb128 0x1b
 2774 0a28 01       		.uleb128 0x1
 2775 0a29 53       		.byte	0x53
 2776 0a2a 01       		.uleb128 0x1
 2777 0a2b 30       		.byte	0x30
 2778 0a2c 1B       		.uleb128 0x1b
 2779 0a2d 02       		.uleb128 0x2
 2780 0a2e 7D       		.byte	0x7d
 2781 0a2f 00       		.sleb128 0
 2782 0a30 02       		.uleb128 0x2
 2783 0a31 74       		.byte	0x74
 2784 0a32 00       		.sleb128 0
 2785 0a33 00       		.byte	0
 2786 0a34 1A       		.uleb128 0x1a
 2787 0a35 C0000000 		.4byte	.LVL26
 2788 0a39 2F160000 		.4byte	0x162f
 2789 0a3d 600A0000 		.4byte	0xa60
 2790 0a41 1B       		.uleb128 0x1b
 2791 0a42 01       		.uleb128 0x1
 2792 0a43 50       		.byte	0x50
 2793 0a44 01       		.uleb128 0x1
 2794 0a45 4E       		.byte	0x4e
 2795 0a46 1B       		.uleb128 0x1b
 2796 0a47 01       		.uleb128 0x1
 2797 0a48 51       		.byte	0x51
 2798 0a49 02       		.uleb128 0x2
 2799 0a4a 08       		.byte	0x8
 2800 0a4b 23       		.byte	0x23
 2801 0a4c 1B       		.uleb128 0x1b
 2802 0a4d 01       		.uleb128 0x1
 2803 0a4e 52       		.byte	0x52
 2804 0a4f 02       		.uleb128 0x2
 2805 0a50 08       		.byte	0x8
 2806 0a51 D2       		.byte	0xd2
 2807 0a52 1B       		.uleb128 0x1b
 2808 0a53 01       		.uleb128 0x1
 2809 0a54 53       		.byte	0x53
 2810 0a55 02       		.uleb128 0x2
 2811 0a56 08       		.byte	0x8
 2812 0a57 AA       		.byte	0xaa
 2813 0a58 1B       		.uleb128 0x1b
 2814 0a59 02       		.uleb128 0x2
 2815 0a5a 7D       		.byte	0x7d
 2816 0a5b 00       		.sleb128 0
 2817 0a5c 02       		.uleb128 0x2
ARM GAS  C:\Users\leoja\AppData\Local\Temp\ccVHTcit.s 			page 58


 2818 0a5d 74       		.byte	0x74
 2819 0a5e 00       		.sleb128 0
 2820 0a5f 00       		.byte	0
 2821 0a60 1A       		.uleb128 0x1a
 2822 0a61 D2000000 		.4byte	.LVL27
 2823 0a65 2F160000 		.4byte	0x162f
 2824 0a69 8C0A0000 		.4byte	0xa8c
 2825 0a6d 1B       		.uleb128 0x1b
 2826 0a6e 01       		.uleb128 0x1
 2827 0a6f 50       		.byte	0x50
 2828 0a70 01       		.uleb128 0x1
 2829 0a71 4E       		.byte	0x4e
 2830 0a72 1B       		.uleb128 0x1b
 2831 0a73 01       		.uleb128 0x1
 2832 0a74 51       		.byte	0x51
 2833 0a75 02       		.uleb128 0x2
 2834 0a76 08       		.byte	0x8
 2835 0a77 23       		.byte	0x23
 2836 0a78 1B       		.uleb128 0x1b
 2837 0a79 01       		.uleb128 0x1
 2838 0a7a 52       		.byte	0x52
 2839 0a7b 02       		.uleb128 0x2
 2840 0a7c 08       		.byte	0x8
 2841 0a7d D2       		.byte	0xd2
 2842 0a7e 1B       		.uleb128 0x1b
 2843 0a7f 01       		.uleb128 0x1
 2844 0a80 53       		.byte	0x53
 2845 0a81 02       		.uleb128 0x2
 2846 0a82 08       		.byte	0x8
 2847 0a83 AA       		.byte	0xaa
 2848 0a84 1B       		.uleb128 0x1b
 2849 0a85 02       		.uleb128 0x2
 2850 0a86 7D       		.byte	0x7d
 2851 0a87 00       		.sleb128 0
 2852 0a88 02       		.uleb128 0x2
 2853 0a89 75       		.byte	0x75
 2854 0a8a 00       		.sleb128 0
 2855 0a8b 00       		.byte	0
 2856 0a8c 1C       		.uleb128 0x1c
 2857 0a8d E0000000 		.4byte	.LVL28
 2858 0a91 5D160000 		.4byte	0x165d
 2859 0a95 1B       		.uleb128 0x1b
 2860 0a96 01       		.uleb128 0x1
 2861 0a97 50       		.byte	0x50
 2862 0a98 02       		.uleb128 0x2
 2863 0a99 08       		.byte	0x8
 2864 0a9a 5A       		.byte	0x5a
 2865 0a9b 1B       		.uleb128 0x1b
 2866 0a9c 01       		.uleb128 0x1
 2867 0a9d 51       		.byte	0x51
 2868 0a9e 02       		.uleb128 0x2
 2869 0a9f 08       		.byte	0x8
 2870 0aa0 50       		.byte	0x50
 2871 0aa1 1B       		.uleb128 0x1b
 2872 0aa2 01       		.uleb128 0x1
 2873 0aa3 52       		.byte	0x52
 2874 0aa4 02       		.uleb128 0x2
ARM GAS  C:\Users\leoja\AppData\Local\Temp\ccVHTcit.s 			page 59


 2875 0aa5 91       		.byte	0x91
 2876 0aa6 6C       		.sleb128 -20
 2877 0aa7 1B       		.uleb128 0x1b
 2878 0aa8 01       		.uleb128 0x1
 2879 0aa9 53       		.byte	0x53
 2880 0aaa 02       		.uleb128 0x2
 2881 0aab 74       		.byte	0x74
 2882 0aac 00       		.sleb128 0
 2883 0aad 1B       		.uleb128 0x1b
 2884 0aae 02       		.uleb128 0x2
 2885 0aaf 7D       		.byte	0x7d
 2886 0ab0 00       		.sleb128 0
 2887 0ab1 02       		.uleb128 0x2
 2888 0ab2 75       		.byte	0x75
 2889 0ab3 00       		.sleb128 0
 2890 0ab4 00       		.byte	0
 2891 0ab5 00       		.byte	0
 2892 0ab6 22       		.uleb128 0x22
 2893 0ab7 0C000000 		.4byte	.LVL15
 2894 0abb 69160000 		.4byte	0x1669
 2895 0abf 1A       		.uleb128 0x1a
 2896 0ac0 2C000000 		.4byte	.LVL17
 2897 0ac4 2F160000 		.4byte	0x162f
 2898 0ac8 EB0A0000 		.4byte	0xaeb
 2899 0acc 1B       		.uleb128 0x1b
 2900 0acd 01       		.uleb128 0x1
 2901 0ace 50       		.byte	0x50
 2902 0acf 01       		.uleb128 0x1
 2903 0ad0 4E       		.byte	0x4e
 2904 0ad1 1B       		.uleb128 0x1b
 2905 0ad2 01       		.uleb128 0x1
 2906 0ad3 51       		.byte	0x51
 2907 0ad4 02       		.uleb128 0x2
 2908 0ad5 08       		.byte	0x8
 2909 0ad6 23       		.byte	0x23
 2910 0ad7 1B       		.uleb128 0x1b
 2911 0ad8 01       		.uleb128 0x1
 2912 0ad9 52       		.byte	0x52
 2913 0ada 02       		.uleb128 0x2
 2914 0adb 08       		.byte	0x8
 2915 0adc D2       		.byte	0xd2
 2916 0add 1B       		.uleb128 0x1b
 2917 0ade 01       		.uleb128 0x1
 2918 0adf 53       		.byte	0x53
 2919 0ae0 02       		.uleb128 0x2
 2920 0ae1 08       		.byte	0x8
 2921 0ae2 AA       		.byte	0xaa
 2922 0ae3 1B       		.uleb128 0x1b
 2923 0ae4 02       		.uleb128 0x2
 2924 0ae5 7D       		.byte	0x7d
 2925 0ae6 00       		.sleb128 0
 2926 0ae7 02       		.uleb128 0x2
 2927 0ae8 74       		.byte	0x74
 2928 0ae9 00       		.sleb128 0
 2929 0aea 00       		.byte	0
 2930 0aeb 1A       		.uleb128 0x1a
 2931 0aec 42000000 		.4byte	.LVL18
ARM GAS  C:\Users\leoja\AppData\Local\Temp\ccVHTcit.s 			page 60


 2932 0af0 5D160000 		.4byte	0x165d
 2933 0af4 1B0B0000 		.4byte	0xb1b
 2934 0af8 1B       		.uleb128 0x1b
 2935 0af9 01       		.uleb128 0x1
 2936 0afa 50       		.byte	0x50
 2937 0afb 02       		.uleb128 0x2
 2938 0afc 08       		.byte	0x8
 2939 0afd 37       		.byte	0x37
 2940 0afe 1B       		.uleb128 0x1b
 2941 0aff 01       		.uleb128 0x1
 2942 0b00 51       		.byte	0x51
 2943 0b01 02       		.uleb128 0x2
 2944 0b02 08       		.byte	0x8
 2945 0b03 50       		.byte	0x50
 2946 0b04 1B       		.uleb128 0x1b
 2947 0b05 01       		.uleb128 0x1
 2948 0b06 52       		.byte	0x52
 2949 0b07 05       		.uleb128 0x5
 2950 0b08 03       		.byte	0x3
 2951 0b09 3C000000 		.4byte	.LC6
 2952 0b0d 1B       		.uleb128 0x1b
 2953 0b0e 01       		.uleb128 0x1
 2954 0b0f 53       		.byte	0x53
 2955 0b10 01       		.uleb128 0x1
 2956 0b11 30       		.byte	0x30
 2957 0b12 1B       		.uleb128 0x1b
 2958 0b13 02       		.uleb128 0x2
 2959 0b14 7D       		.byte	0x7d
 2960 0b15 00       		.sleb128 0
 2961 0b16 03       		.uleb128 0x3
 2962 0b17 0A       		.byte	0xa
 2963 0b18 00FF     		.2byte	0xff00
 2964 0b1a 00       		.byte	0
 2965 0b1b 22       		.uleb128 0x22
 2966 0b1c E6000000 		.4byte	.LVL29
 2967 0b20 69160000 		.4byte	0x1669
 2968 0b24 00       		.byte	0
 2969 0b25 17       		.uleb128 0x17
 2970 0b26 09010000 		.4byte	0x109
 2971 0b2a 350B0000 		.4byte	0xb35
 2972 0b2e 18       		.uleb128 0x18
 2973 0b2f 17010000 		.4byte	0x117
 2974 0b33 03       		.byte	0x3
 2975 0b34 00       		.byte	0
 2976 0b35 1D       		.uleb128 0x1d
 2977 0b36 21060000 		.4byte	.LASF128
 2978 0b3a 01       		.byte	0x1
 2979 0b3b 58       		.byte	0x58
 2980 0b3c 00000000 		.4byte	.LFB67
 2981 0b40 B4000000 		.4byte	.LFE67-.LFB67
 2982 0b44 01       		.uleb128 0x1
 2983 0b45 9C       		.byte	0x9c
 2984 0b46 650C0000 		.4byte	0xc65
 2985 0b4a 1E       		.uleb128 0x1e
 2986 0b4b B0030000 		.4byte	.LASF82
 2987 0b4f 01       		.byte	0x1
 2988 0b50 58       		.byte	0x58
ARM GAS  C:\Users\leoja\AppData\Local\Temp\ccVHTcit.s 			page 61


 2989 0b51 B8000000 		.4byte	0xb8
 2990 0b55 51000000 		.4byte	.LLST2
 2991 0b59 1F       		.uleb128 0x1f
 2992 0b5a F1010000 		.4byte	.LASF125
 2993 0b5e 01       		.byte	0x1
 2994 0b5f 5A       		.byte	0x5a
 2995 0b60 20040000 		.4byte	0x420
 2996 0b64 8B000000 		.4byte	.LLST3
 2997 0b68 21       		.uleb128 0x21
 2998 0b69 08000000 		.4byte	.LASF126
 2999 0b6d 01       		.byte	0x1
 3000 0b6e 6D       		.byte	0x6d
 3001 0b6f 250B0000 		.4byte	0xb25
 3002 0b73 02       		.uleb128 0x2
 3003 0b74 91       		.byte	0x91
 3004 0b75 6C       		.sleb128 -20
 3005 0b76 1A       		.uleb128 0x1a
 3006 0b77 26000000 		.4byte	.LVL33
 3007 0b7b 2F160000 		.4byte	0x162f
 3008 0b7f A40B0000 		.4byte	0xba4
 3009 0b83 1B       		.uleb128 0x1b
 3010 0b84 01       		.uleb128 0x1
 3011 0b85 50       		.byte	0x50
 3012 0b86 03       		.uleb128 0x3
 3013 0b87 0A       		.byte	0xa
 3014 0b88 0E01     		.2byte	0x10e
 3015 0b8a 1B       		.uleb128 0x1b
 3016 0b8b 01       		.uleb128 0x1
 3017 0b8c 51       		.byte	0x51
 3018 0b8d 02       		.uleb128 0x2
 3019 0b8e 08       		.byte	0x8
 3020 0b8f 23       		.byte	0x23
 3021 0b90 1B       		.uleb128 0x1b
 3022 0b91 01       		.uleb128 0x1
 3023 0b92 52       		.byte	0x52
 3024 0b93 03       		.uleb128 0x3
 3025 0b94 0A       		.byte	0xa
 3026 0b95 C201     		.2byte	0x1c2
 3027 0b97 1B       		.uleb128 0x1b
 3028 0b98 01       		.uleb128 0x1
 3029 0b99 53       		.byte	0x53
 3030 0b9a 02       		.uleb128 0x2
 3031 0b9b 08       		.byte	0x8
 3032 0b9c AA       		.byte	0xaa
 3033 0b9d 1B       		.uleb128 0x1b
 3034 0b9e 02       		.uleb128 0x2
 3035 0b9f 7D       		.byte	0x7d
 3036 0ba0 00       		.sleb128 0
 3037 0ba1 01       		.uleb128 0x1
 3038 0ba2 30       		.byte	0x30
 3039 0ba3 00       		.byte	0
 3040 0ba4 1A       		.uleb128 0x1a
 3041 0ba5 3C000000 		.4byte	.LVL34
 3042 0ba9 2F160000 		.4byte	0x162f
 3043 0bad D30B0000 		.4byte	0xbd3
 3044 0bb1 1B       		.uleb128 0x1b
 3045 0bb2 01       		.uleb128 0x1
ARM GAS  C:\Users\leoja\AppData\Local\Temp\ccVHTcit.s 			page 62


 3046 0bb3 50       		.byte	0x50
 3047 0bb4 03       		.uleb128 0x3
 3048 0bb5 0A       		.byte	0xa
 3049 0bb6 0E01     		.2byte	0x10e
 3050 0bb8 1B       		.uleb128 0x1b
 3051 0bb9 01       		.uleb128 0x1
 3052 0bba 51       		.byte	0x51
 3053 0bbb 02       		.uleb128 0x2
 3054 0bbc 08       		.byte	0x8
 3055 0bbd 23       		.byte	0x23
 3056 0bbe 1B       		.uleb128 0x1b
 3057 0bbf 01       		.uleb128 0x1
 3058 0bc0 52       		.byte	0x52
 3059 0bc1 03       		.uleb128 0x3
 3060 0bc2 0A       		.byte	0xa
 3061 0bc3 C201     		.2byte	0x1c2
 3062 0bc5 1B       		.uleb128 0x1b
 3063 0bc6 01       		.uleb128 0x1
 3064 0bc7 53       		.byte	0x53
 3065 0bc8 02       		.uleb128 0x2
 3066 0bc9 08       		.byte	0x8
 3067 0bca AA       		.byte	0xaa
 3068 0bcb 1B       		.uleb128 0x1b
 3069 0bcc 02       		.uleb128 0x2
 3070 0bcd 7D       		.byte	0x7d
 3071 0bce 00       		.sleb128 0
 3072 0bcf 02       		.uleb128 0x2
 3073 0bd0 74       		.byte	0x74
 3074 0bd1 00       		.sleb128 0
 3075 0bd2 00       		.byte	0
 3076 0bd3 1A       		.uleb128 0x1a
 3077 0bd4 64000000 		.4byte	.LVL37
 3078 0bd8 2F160000 		.4byte	0x162f
 3079 0bdc 020C0000 		.4byte	0xc02
 3080 0be0 1B       		.uleb128 0x1b
 3081 0be1 01       		.uleb128 0x1
 3082 0be2 50       		.byte	0x50
 3083 0be3 03       		.uleb128 0x3
 3084 0be4 0A       		.byte	0xa
 3085 0be5 0E01     		.2byte	0x10e
 3086 0be7 1B       		.uleb128 0x1b
 3087 0be8 01       		.uleb128 0x1
 3088 0be9 51       		.byte	0x51
 3089 0bea 02       		.uleb128 0x2
 3090 0beb 08       		.byte	0x8
 3091 0bec 23       		.byte	0x23
 3092 0bed 1B       		.uleb128 0x1b
 3093 0bee 01       		.uleb128 0x1
 3094 0bef 52       		.byte	0x52
 3095 0bf0 03       		.uleb128 0x3
 3096 0bf1 0A       		.byte	0xa
 3097 0bf2 C201     		.2byte	0x1c2
 3098 0bf4 1B       		.uleb128 0x1b
 3099 0bf5 01       		.uleb128 0x1
 3100 0bf6 53       		.byte	0x53
 3101 0bf7 02       		.uleb128 0x2
 3102 0bf8 08       		.byte	0x8
ARM GAS  C:\Users\leoja\AppData\Local\Temp\ccVHTcit.s 			page 63


 3103 0bf9 AA       		.byte	0xaa
 3104 0bfa 1B       		.uleb128 0x1b
 3105 0bfb 02       		.uleb128 0x2
 3106 0bfc 7D       		.byte	0x7d
 3107 0bfd 00       		.sleb128 0
 3108 0bfe 02       		.uleb128 0x2
 3109 0bff 74       		.byte	0x74
 3110 0c00 00       		.sleb128 0
 3111 0c01 00       		.byte	0
 3112 0c02 22       		.uleb128 0x22
 3113 0c03 6E000000 		.4byte	.LVL38
 3114 0c07 69160000 		.4byte	0x1669
 3115 0c0b 1A       		.uleb128 0x1a
 3116 0c0c 78000000 		.4byte	.LVL39
 3117 0c10 52160000 		.4byte	0x1652
 3118 0c14 2E0C0000 		.4byte	0xc2e
 3119 0c18 1B       		.uleb128 0x1b
 3120 0c19 01       		.uleb128 0x1
 3121 0c1a 50       		.byte	0x50
 3122 0c1b 02       		.uleb128 0x2
 3123 0c1c 91       		.byte	0x91
 3124 0c1d 6C       		.sleb128 -20
 3125 0c1e 1B       		.uleb128 0x1b
 3126 0c1f 01       		.uleb128 0x1
 3127 0c20 51       		.byte	0x51
 3128 0c21 05       		.uleb128 0x5
 3129 0c22 03       		.byte	0x3
 3130 0c23 44000000 		.4byte	.LC7
 3131 0c27 1B       		.uleb128 0x1b
 3132 0c28 01       		.uleb128 0x1
 3133 0c29 52       		.byte	0x52
 3134 0c2a 02       		.uleb128 0x2
 3135 0c2b 75       		.byte	0x75
 3136 0c2c 00       		.sleb128 0
 3137 0c2d 00       		.byte	0
 3138 0c2e 1A       		.uleb128 0x1a
 3139 0c2f 92000000 		.4byte	.LVL40
 3140 0c33 5D160000 		.4byte	0x165d
 3141 0c37 5B0C0000 		.4byte	0xc5b
 3142 0c3b 1B       		.uleb128 0x1b
 3143 0c3c 01       		.uleb128 0x1
 3144 0c3d 50       		.byte	0x50
 3145 0c3e 03       		.uleb128 0x3
 3146 0c3f 0A       		.byte	0xa
 3147 0c40 3601     		.2byte	0x136
 3148 0c42 1B       		.uleb128 0x1b
 3149 0c43 01       		.uleb128 0x1
 3150 0c44 51       		.byte	0x51
 3151 0c45 02       		.uleb128 0x2
 3152 0c46 08       		.byte	0x8
 3153 0c47 50       		.byte	0x50
 3154 0c48 1B       		.uleb128 0x1b
 3155 0c49 01       		.uleb128 0x1
 3156 0c4a 52       		.byte	0x52
 3157 0c4b 02       		.uleb128 0x2
 3158 0c4c 91       		.byte	0x91
 3159 0c4d 6C       		.sleb128 -20
ARM GAS  C:\Users\leoja\AppData\Local\Temp\ccVHTcit.s 			page 64


 3160 0c4e 1B       		.uleb128 0x1b
 3161 0c4f 01       		.uleb128 0x1
 3162 0c50 53       		.byte	0x53
 3163 0c51 01       		.uleb128 0x1
 3164 0c52 30       		.byte	0x30
 3165 0c53 1B       		.uleb128 0x1b
 3166 0c54 02       		.uleb128 0x2
 3167 0c55 7D       		.byte	0x7d
 3168 0c56 00       		.sleb128 0
 3169 0c57 02       		.uleb128 0x2
 3170 0c58 74       		.byte	0x74
 3171 0c59 00       		.sleb128 0
 3172 0c5a 00       		.byte	0
 3173 0c5b 22       		.uleb128 0x22
 3174 0c5c 98000000 		.4byte	.LVL41
 3175 0c60 69160000 		.4byte	0x1669
 3176 0c64 00       		.byte	0
 3177 0c65 1D       		.uleb128 0x1d
 3178 0c66 D9000000 		.4byte	.LASF129
 3179 0c6a 01       		.byte	0x1
 3180 0c6b E6       		.byte	0xe6
 3181 0c6c 00000000 		.4byte	.LFB69
 3182 0c70 2C000000 		.4byte	.LFE69-.LFB69
 3183 0c74 01       		.uleb128 0x1
 3184 0c75 9C       		.byte	0x9c
 3185 0c76 B30C0000 		.4byte	0xcb3
 3186 0c7a 1E       		.uleb128 0x1e
 3187 0c7b F1010000 		.4byte	.LASF125
 3188 0c7f 01       		.byte	0x1
 3189 0c80 E6       		.byte	0xe6
 3190 0c81 20040000 		.4byte	0x420
 3191 0c85 AD000000 		.4byte	.LLST4
 3192 0c89 1C       		.uleb128 0x1c
 3193 0c8a 1C000000 		.4byte	.LVL45
 3194 0c8e 2F160000 		.4byte	0x162f
 3195 0c92 1B       		.uleb128 0x1b
 3196 0c93 01       		.uleb128 0x1
 3197 0c94 50       		.byte	0x50
 3198 0c95 02       		.uleb128 0x2
 3199 0c96 08       		.byte	0x8
 3200 0c97 5F       		.byte	0x5f
 3201 0c98 1B       		.uleb128 0x1b
 3202 0c99 01       		.uleb128 0x1
 3203 0c9a 51       		.byte	0x51
 3204 0c9b 02       		.uleb128 0x2
 3205 0c9c 08       		.byte	0x8
 3206 0c9d B9       		.byte	0xb9
 3207 0c9e 1B       		.uleb128 0x1b
 3208 0c9f 01       		.uleb128 0x1
 3209 0ca0 52       		.byte	0x52
 3210 0ca1 02       		.uleb128 0x2
 3211 0ca2 08       		.byte	0x8
 3212 0ca3 F0       		.byte	0xf0
 3213 0ca4 1B       		.uleb128 0x1b
 3214 0ca5 01       		.uleb128 0x1
 3215 0ca6 53       		.byte	0x53
 3216 0ca7 02       		.uleb128 0x2
ARM GAS  C:\Users\leoja\AppData\Local\Temp\ccVHTcit.s 			page 65


 3217 0ca8 08       		.byte	0x8
 3218 0ca9 D7       		.byte	0xd7
 3219 0caa 1B       		.uleb128 0x1b
 3220 0cab 02       		.uleb128 0x2
 3221 0cac 7D       		.byte	0x7d
 3222 0cad 00       		.sleb128 0
 3223 0cae 02       		.uleb128 0x2
 3224 0caf 74       		.byte	0x74
 3225 0cb0 00       		.sleb128 0
 3226 0cb1 00       		.byte	0
 3227 0cb2 00       		.byte	0
 3228 0cb3 1D       		.uleb128 0x1d
 3229 0cb4 6B060000 		.4byte	.LASF130
 3230 0cb8 01       		.byte	0x1
 3231 0cb9 75       		.byte	0x75
 3232 0cba 00000000 		.4byte	.LFB68
 3233 0cbe A0020000 		.4byte	.LFE68-.LFB68
 3234 0cc2 01       		.uleb128 0x1
 3235 0cc3 9C       		.byte	0x9c
 3236 0cc4 01120000 		.4byte	0x1201
 3237 0cc8 1E       		.uleb128 0x1e
 3238 0cc9 A3060000 		.4byte	.LASF75
 3239 0ccd 01       		.byte	0x1
 3240 0cce 75       		.byte	0x75
 3241 0ccf B8000000 		.4byte	0xb8
 3242 0cd3 D6000000 		.4byte	.LLST5
 3243 0cd7 1E       		.uleb128 0x1e
 3244 0cd8 F6020000 		.4byte	.LASF131
 3245 0cdc 01       		.byte	0x1
 3246 0cdd 75       		.byte	0x75
 3247 0cde 1B020000 		.4byte	0x21b
 3248 0ce2 6E020000 		.4byte	.LLST6
 3249 0ce6 1F       		.uleb128 0x1f
 3250 0ce7 F1010000 		.4byte	.LASF125
 3251 0ceb 01       		.byte	0x1
 3252 0cec 76       		.byte	0x76
 3253 0ced 20040000 		.4byte	0x420
 3254 0cf1 06040000 		.4byte	.LLST7
 3255 0cf5 20       		.uleb128 0x20
 3256 0cf6 DE000000 		.4byte	.LBB3
 3257 0cfa 0C010000 		.4byte	.LBE3-.LBB3
 3258 0cfe 850F0000 		.4byte	0xf85
 3259 0d02 1F       		.uleb128 0x1f
 3260 0d03 4C070000 		.4byte	.LASF132
 3261 0d07 01       		.byte	0x1
 3262 0d08 9C       		.byte	0x9c
 3263 0d09 EF000000 		.4byte	0xef
 3264 0d0d 69040000 		.4byte	.LLST8
 3265 0d11 1A       		.uleb128 0x1a
 3266 0d12 FE000000 		.4byte	.LVL77
 3267 0d16 650C0000 		.4byte	0xc65
 3268 0d1a 250D0000 		.4byte	0xd25
 3269 0d1e 1B       		.uleb128 0x1b
 3270 0d1f 01       		.uleb128 0x1
 3271 0d20 50       		.byte	0x50
 3272 0d21 02       		.uleb128 0x2
 3273 0d22 74       		.byte	0x74
ARM GAS  C:\Users\leoja\AppData\Local\Temp\ccVHTcit.s 			page 66


 3274 0d23 00       		.sleb128 0
 3275 0d24 00       		.byte	0
 3276 0d25 1A       		.uleb128 0x1a
 3277 0d26 0C010000 		.4byte	.LVL78
 3278 0d2a 5D160000 		.4byte	0x165d
 3279 0d2e 540D0000 		.4byte	0xd54
 3280 0d32 1B       		.uleb128 0x1b
 3281 0d33 01       		.uleb128 0x1
 3282 0d34 50       		.byte	0x50
 3283 0d35 02       		.uleb128 0x2
 3284 0d36 08       		.byte	0x8
 3285 0d37 64       		.byte	0x64
 3286 0d38 1B       		.uleb128 0x1b
 3287 0d39 01       		.uleb128 0x1
 3288 0d3a 51       		.byte	0x51
 3289 0d3b 02       		.uleb128 0x2
 3290 0d3c 08       		.byte	0x8
 3291 0d3d C3       		.byte	0xc3
 3292 0d3e 1B       		.uleb128 0x1b
 3293 0d3f 01       		.uleb128 0x1
 3294 0d40 52       		.byte	0x52
 3295 0d41 05       		.uleb128 0x5
 3296 0d42 03       		.byte	0x3
 3297 0d43 8C000000 		.4byte	.LC14
 3298 0d47 1B       		.uleb128 0x1b
 3299 0d48 01       		.uleb128 0x1
 3300 0d49 53       		.byte	0x53
 3301 0d4a 01       		.uleb128 0x1
 3302 0d4b 30       		.byte	0x30
 3303 0d4c 1B       		.uleb128 0x1b
 3304 0d4d 02       		.uleb128 0x2
 3305 0d4e 7D       		.byte	0x7d
 3306 0d4f 00       		.sleb128 0
 3307 0d50 02       		.uleb128 0x2
 3308 0d51 74       		.byte	0x74
 3309 0d52 00       		.sleb128 0
 3310 0d53 00       		.byte	0
 3311 0d54 1A       		.uleb128 0x1a
 3312 0d55 16010000 		.4byte	.LVL81
 3313 0d59 650C0000 		.4byte	0xc65
 3314 0d5d 6A0D0000 		.4byte	0xd6a
 3315 0d61 1B       		.uleb128 0x1b
 3316 0d62 01       		.uleb128 0x1
 3317 0d63 50       		.byte	0x50
 3318 0d64 04       		.uleb128 0x4
 3319 0d65 08       		.byte	0x8
 3320 0d66 FF       		.byte	0xff
 3321 0d67 40       		.byte	0x40
 3322 0d68 24       		.byte	0x24
 3323 0d69 00       		.byte	0
 3324 0d6a 1A       		.uleb128 0x1a
 3325 0d6b 28010000 		.4byte	.LVL82
 3326 0d6f 5D160000 		.4byte	0x165d
 3327 0d73 9B0D0000 		.4byte	0xd9b
 3328 0d77 1B       		.uleb128 0x1b
 3329 0d78 01       		.uleb128 0x1
 3330 0d79 50       		.byte	0x50
ARM GAS  C:\Users\leoja\AppData\Local\Temp\ccVHTcit.s 			page 67


 3331 0d7a 02       		.uleb128 0x2
 3332 0d7b 08       		.byte	0x8
 3333 0d7c 64       		.byte	0x64
 3334 0d7d 1B       		.uleb128 0x1b
 3335 0d7e 01       		.uleb128 0x1
 3336 0d7f 51       		.byte	0x51
 3337 0d80 02       		.uleb128 0x2
 3338 0d81 08       		.byte	0x8
 3339 0d82 C3       		.byte	0xc3
 3340 0d83 1B       		.uleb128 0x1b
 3341 0d84 01       		.uleb128 0x1
 3342 0d85 52       		.byte	0x52
 3343 0d86 05       		.uleb128 0x5
 3344 0d87 03       		.byte	0x3
 3345 0d88 98000000 		.4byte	.LC15
 3346 0d8c 1B       		.uleb128 0x1b
 3347 0d8d 01       		.uleb128 0x1
 3348 0d8e 53       		.byte	0x53
 3349 0d8f 01       		.uleb128 0x1
 3350 0d90 30       		.byte	0x30
 3351 0d91 1B       		.uleb128 0x1b
 3352 0d92 02       		.uleb128 0x2
 3353 0d93 7D       		.byte	0x7d
 3354 0d94 00       		.sleb128 0
 3355 0d95 04       		.uleb128 0x4
 3356 0d96 08       		.byte	0x8
 3357 0d97 FF       		.byte	0xff
 3358 0d98 40       		.byte	0x40
 3359 0d99 24       		.byte	0x24
 3360 0d9a 00       		.byte	0
 3361 0d9b 1A       		.uleb128 0x1a
 3362 0d9c 32010000 		.4byte	.LVL85
 3363 0da0 650C0000 		.4byte	0xc65
 3364 0da4 B10D0000 		.4byte	0xdb1
 3365 0da8 1B       		.uleb128 0x1b
 3366 0da9 01       		.uleb128 0x1
 3367 0daa 50       		.byte	0x50
 3368 0dab 04       		.uleb128 0x4
 3369 0dac 08       		.byte	0x8
 3370 0dad FF       		.byte	0xff
 3371 0dae 40       		.byte	0x40
 3372 0daf 24       		.byte	0x24
 3373 0db0 00       		.byte	0
 3374 0db1 1A       		.uleb128 0x1a
 3375 0db2 44010000 		.4byte	.LVL86
 3376 0db6 5D160000 		.4byte	0x165d
 3377 0dba E20D0000 		.4byte	0xde2
 3378 0dbe 1B       		.uleb128 0x1b
 3379 0dbf 01       		.uleb128 0x1
 3380 0dc0 50       		.byte	0x50
 3381 0dc1 02       		.uleb128 0x2
 3382 0dc2 08       		.byte	0x8
 3383 0dc3 64       		.byte	0x64
 3384 0dc4 1B       		.uleb128 0x1b
 3385 0dc5 01       		.uleb128 0x1
 3386 0dc6 51       		.byte	0x51
 3387 0dc7 02       		.uleb128 0x2
ARM GAS  C:\Users\leoja\AppData\Local\Temp\ccVHTcit.s 			page 68


 3388 0dc8 08       		.byte	0x8
 3389 0dc9 C3       		.byte	0xc3
 3390 0dca 1B       		.uleb128 0x1b
 3391 0dcb 01       		.uleb128 0x1
 3392 0dcc 52       		.byte	0x52
 3393 0dcd 05       		.uleb128 0x5
 3394 0dce 03       		.byte	0x3
 3395 0dcf A4000000 		.4byte	.LC16
 3396 0dd3 1B       		.uleb128 0x1b
 3397 0dd4 01       		.uleb128 0x1
 3398 0dd5 53       		.byte	0x53
 3399 0dd6 01       		.uleb128 0x1
 3400 0dd7 30       		.byte	0x30
 3401 0dd8 1B       		.uleb128 0x1b
 3402 0dd9 02       		.uleb128 0x2
 3403 0dda 7D       		.byte	0x7d
 3404 0ddb 00       		.sleb128 0
 3405 0ddc 04       		.uleb128 0x4
 3406 0ddd 08       		.byte	0x8
 3407 0dde FF       		.byte	0xff
 3408 0ddf 40       		.byte	0x40
 3409 0de0 24       		.byte	0x24
 3410 0de1 00       		.byte	0
 3411 0de2 1A       		.uleb128 0x1a
 3412 0de3 4E010000 		.4byte	.LVL89
 3413 0de7 650C0000 		.4byte	0xc65
 3414 0deb F80D0000 		.4byte	0xdf8
 3415 0def 1B       		.uleb128 0x1b
 3416 0df0 01       		.uleb128 0x1
 3417 0df1 50       		.byte	0x50
 3418 0df2 04       		.uleb128 0x4
 3419 0df3 08       		.byte	0x8
 3420 0df4 FF       		.byte	0xff
 3421 0df5 40       		.byte	0x40
 3422 0df6 24       		.byte	0x24
 3423 0df7 00       		.byte	0
 3424 0df8 1A       		.uleb128 0x1a
 3425 0df9 60010000 		.4byte	.LVL90
 3426 0dfd 5D160000 		.4byte	0x165d
 3427 0e01 290E0000 		.4byte	0xe29
 3428 0e05 1B       		.uleb128 0x1b
 3429 0e06 01       		.uleb128 0x1
 3430 0e07 50       		.byte	0x50
 3431 0e08 02       		.uleb128 0x2
 3432 0e09 08       		.byte	0x8
 3433 0e0a 64       		.byte	0x64
 3434 0e0b 1B       		.uleb128 0x1b
 3435 0e0c 01       		.uleb128 0x1
 3436 0e0d 51       		.byte	0x51
 3437 0e0e 02       		.uleb128 0x2
 3438 0e0f 08       		.byte	0x8
 3439 0e10 C3       		.byte	0xc3
 3440 0e11 1B       		.uleb128 0x1b
 3441 0e12 01       		.uleb128 0x1
 3442 0e13 52       		.byte	0x52
 3443 0e14 05       		.uleb128 0x5
 3444 0e15 03       		.byte	0x3
ARM GAS  C:\Users\leoja\AppData\Local\Temp\ccVHTcit.s 			page 69


 3445 0e16 B0000000 		.4byte	.LC17
 3446 0e1a 1B       		.uleb128 0x1b
 3447 0e1b 01       		.uleb128 0x1
 3448 0e1c 53       		.byte	0x53
 3449 0e1d 01       		.uleb128 0x1
 3450 0e1e 30       		.byte	0x30
 3451 0e1f 1B       		.uleb128 0x1b
 3452 0e20 02       		.uleb128 0x2
 3453 0e21 7D       		.byte	0x7d
 3454 0e22 00       		.sleb128 0
 3455 0e23 04       		.uleb128 0x4
 3456 0e24 08       		.byte	0x8
 3457 0e25 FF       		.byte	0xff
 3458 0e26 40       		.byte	0x40
 3459 0e27 24       		.byte	0x24
 3460 0e28 00       		.byte	0
 3461 0e29 1A       		.uleb128 0x1a
 3462 0e2a 6A010000 		.4byte	.LVL93
 3463 0e2e 650C0000 		.4byte	0xc65
 3464 0e32 3F0E0000 		.4byte	0xe3f
 3465 0e36 1B       		.uleb128 0x1b
 3466 0e37 01       		.uleb128 0x1
 3467 0e38 50       		.byte	0x50
 3468 0e39 04       		.uleb128 0x4
 3469 0e3a 08       		.byte	0x8
 3470 0e3b FF       		.byte	0xff
 3471 0e3c 40       		.byte	0x40
 3472 0e3d 24       		.byte	0x24
 3473 0e3e 00       		.byte	0
 3474 0e3f 1A       		.uleb128 0x1a
 3475 0e40 7C010000 		.4byte	.LVL94
 3476 0e44 5D160000 		.4byte	0x165d
 3477 0e48 700E0000 		.4byte	0xe70
 3478 0e4c 1B       		.uleb128 0x1b
 3479 0e4d 01       		.uleb128 0x1
 3480 0e4e 50       		.byte	0x50
 3481 0e4f 02       		.uleb128 0x2
 3482 0e50 08       		.byte	0x8
 3483 0e51 64       		.byte	0x64
 3484 0e52 1B       		.uleb128 0x1b
 3485 0e53 01       		.uleb128 0x1
 3486 0e54 51       		.byte	0x51
 3487 0e55 02       		.uleb128 0x2
 3488 0e56 08       		.byte	0x8
 3489 0e57 C3       		.byte	0xc3
 3490 0e58 1B       		.uleb128 0x1b
 3491 0e59 01       		.uleb128 0x1
 3492 0e5a 52       		.byte	0x52
 3493 0e5b 05       		.uleb128 0x5
 3494 0e5c 03       		.byte	0x3
 3495 0e5d BC000000 		.4byte	.LC18
 3496 0e61 1B       		.uleb128 0x1b
 3497 0e62 01       		.uleb128 0x1
 3498 0e63 53       		.byte	0x53
 3499 0e64 01       		.uleb128 0x1
 3500 0e65 30       		.byte	0x30
 3501 0e66 1B       		.uleb128 0x1b
ARM GAS  C:\Users\leoja\AppData\Local\Temp\ccVHTcit.s 			page 70


 3502 0e67 02       		.uleb128 0x2
 3503 0e68 7D       		.byte	0x7d
 3504 0e69 00       		.sleb128 0
 3505 0e6a 04       		.uleb128 0x4
 3506 0e6b 08       		.byte	0x8
 3507 0e6c FF       		.byte	0xff
 3508 0e6d 40       		.byte	0x40
 3509 0e6e 24       		.byte	0x24
 3510 0e6f 00       		.byte	0
 3511 0e70 1A       		.uleb128 0x1a
 3512 0e71 86010000 		.4byte	.LVL97
 3513 0e75 650C0000 		.4byte	0xc65
 3514 0e79 860E0000 		.4byte	0xe86
 3515 0e7d 1B       		.uleb128 0x1b
 3516 0e7e 01       		.uleb128 0x1
 3517 0e7f 50       		.byte	0x50
 3518 0e80 04       		.uleb128 0x4
 3519 0e81 08       		.byte	0x8
 3520 0e82 FF       		.byte	0xff
 3521 0e83 40       		.byte	0x40
 3522 0e84 24       		.byte	0x24
 3523 0e85 00       		.byte	0
 3524 0e86 1A       		.uleb128 0x1a
 3525 0e87 98010000 		.4byte	.LVL98
 3526 0e8b 5D160000 		.4byte	0x165d
 3527 0e8f B70E0000 		.4byte	0xeb7
 3528 0e93 1B       		.uleb128 0x1b
 3529 0e94 01       		.uleb128 0x1
 3530 0e95 50       		.byte	0x50
 3531 0e96 02       		.uleb128 0x2
 3532 0e97 08       		.byte	0x8
 3533 0e98 64       		.byte	0x64
 3534 0e99 1B       		.uleb128 0x1b
 3535 0e9a 01       		.uleb128 0x1
 3536 0e9b 51       		.byte	0x51
 3537 0e9c 02       		.uleb128 0x2
 3538 0e9d 08       		.byte	0x8
 3539 0e9e C3       		.byte	0xc3
 3540 0e9f 1B       		.uleb128 0x1b
 3541 0ea0 01       		.uleb128 0x1
 3542 0ea1 52       		.byte	0x52
 3543 0ea2 05       		.uleb128 0x5
 3544 0ea3 03       		.byte	0x3
 3545 0ea4 C8000000 		.4byte	.LC19
 3546 0ea8 1B       		.uleb128 0x1b
 3547 0ea9 01       		.uleb128 0x1
 3548 0eaa 53       		.byte	0x53
 3549 0eab 01       		.uleb128 0x1
 3550 0eac 30       		.byte	0x30
 3551 0ead 1B       		.uleb128 0x1b
 3552 0eae 02       		.uleb128 0x2
 3553 0eaf 7D       		.byte	0x7d
 3554 0eb0 00       		.sleb128 0
 3555 0eb1 04       		.uleb128 0x4
 3556 0eb2 08       		.byte	0x8
 3557 0eb3 FF       		.byte	0xff
 3558 0eb4 40       		.byte	0x40
ARM GAS  C:\Users\leoja\AppData\Local\Temp\ccVHTcit.s 			page 71


 3559 0eb5 24       		.byte	0x24
 3560 0eb6 00       		.byte	0
 3561 0eb7 1A       		.uleb128 0x1a
 3562 0eb8 A2010000 		.4byte	.LVL102
 3563 0ebc 650C0000 		.4byte	0xc65
 3564 0ec0 CB0E0000 		.4byte	0xecb
 3565 0ec4 1B       		.uleb128 0x1b
 3566 0ec5 01       		.uleb128 0x1
 3567 0ec6 50       		.byte	0x50
 3568 0ec7 02       		.uleb128 0x2
 3569 0ec8 74       		.byte	0x74
 3570 0ec9 00       		.sleb128 0
 3571 0eca 00       		.byte	0
 3572 0ecb 1A       		.uleb128 0x1a
 3573 0ecc B0010000 		.4byte	.LVL103
 3574 0ed0 5D160000 		.4byte	0x165d
 3575 0ed4 FA0E0000 		.4byte	0xefa
 3576 0ed8 1B       		.uleb128 0x1b
 3577 0ed9 01       		.uleb128 0x1
 3578 0eda 50       		.byte	0x50
 3579 0edb 02       		.uleb128 0x2
 3580 0edc 08       		.byte	0x8
 3581 0edd 64       		.byte	0x64
 3582 0ede 1B       		.uleb128 0x1b
 3583 0edf 01       		.uleb128 0x1
 3584 0ee0 51       		.byte	0x51
 3585 0ee1 02       		.uleb128 0x2
 3586 0ee2 08       		.byte	0x8
 3587 0ee3 C3       		.byte	0xc3
 3588 0ee4 1B       		.uleb128 0x1b
 3589 0ee5 01       		.uleb128 0x1
 3590 0ee6 52       		.byte	0x52
 3591 0ee7 05       		.uleb128 0x5
 3592 0ee8 03       		.byte	0x3
 3593 0ee9 D4000000 		.4byte	.LC20
 3594 0eed 1B       		.uleb128 0x1b
 3595 0eee 01       		.uleb128 0x1
 3596 0eef 53       		.byte	0x53
 3597 0ef0 01       		.uleb128 0x1
 3598 0ef1 30       		.byte	0x30
 3599 0ef2 1B       		.uleb128 0x1b
 3600 0ef3 02       		.uleb128 0x2
 3601 0ef4 7D       		.byte	0x7d
 3602 0ef5 00       		.sleb128 0
 3603 0ef6 02       		.uleb128 0x2
 3604 0ef7 74       		.byte	0x74
 3605 0ef8 00       		.sleb128 0
 3606 0ef9 00       		.byte	0
 3607 0efa 1A       		.uleb128 0x1a
 3608 0efb BA010000 		.4byte	.LVL106
 3609 0eff 650C0000 		.4byte	0xc65
 3610 0f03 100F0000 		.4byte	0xf10
 3611 0f07 1B       		.uleb128 0x1b
 3612 0f08 01       		.uleb128 0x1
 3613 0f09 50       		.byte	0x50
 3614 0f0a 04       		.uleb128 0x4
 3615 0f0b 08       		.byte	0x8
ARM GAS  C:\Users\leoja\AppData\Local\Temp\ccVHTcit.s 			page 72


 3616 0f0c FF       		.byte	0xff
 3617 0f0d 40       		.byte	0x40
 3618 0f0e 24       		.byte	0x24
 3619 0f0f 00       		.byte	0
 3620 0f10 1A       		.uleb128 0x1a
 3621 0f11 CC010000 		.4byte	.LVL107
 3622 0f15 5D160000 		.4byte	0x165d
 3623 0f19 410F0000 		.4byte	0xf41
 3624 0f1d 1B       		.uleb128 0x1b
 3625 0f1e 01       		.uleb128 0x1
 3626 0f1f 50       		.byte	0x50
 3627 0f20 02       		.uleb128 0x2
 3628 0f21 08       		.byte	0x8
 3629 0f22 64       		.byte	0x64
 3630 0f23 1B       		.uleb128 0x1b
 3631 0f24 01       		.uleb128 0x1
 3632 0f25 51       		.byte	0x51
 3633 0f26 02       		.uleb128 0x2
 3634 0f27 08       		.byte	0x8
 3635 0f28 C3       		.byte	0xc3
 3636 0f29 1B       		.uleb128 0x1b
 3637 0f2a 01       		.uleb128 0x1
 3638 0f2b 52       		.byte	0x52
 3639 0f2c 05       		.uleb128 0x5
 3640 0f2d 03       		.byte	0x3
 3641 0f2e E0000000 		.4byte	.LC21
 3642 0f32 1B       		.uleb128 0x1b
 3643 0f33 01       		.uleb128 0x1
 3644 0f34 53       		.byte	0x53
 3645 0f35 01       		.uleb128 0x1
 3646 0f36 30       		.byte	0x30
 3647 0f37 1B       		.uleb128 0x1b
 3648 0f38 02       		.uleb128 0x2
 3649 0f39 7D       		.byte	0x7d
 3650 0f3a 00       		.sleb128 0
 3651 0f3b 04       		.uleb128 0x4
 3652 0f3c 08       		.byte	0x8
 3653 0f3d FF       		.byte	0xff
 3654 0f3e 40       		.byte	0x40
 3655 0f3f 24       		.byte	0x24
 3656 0f40 00       		.byte	0
 3657 0f41 1A       		.uleb128 0x1a
 3658 0f42 D6010000 		.4byte	.LVL110
 3659 0f46 650C0000 		.4byte	0xc65
 3660 0f4a 570F0000 		.4byte	0xf57
 3661 0f4e 1B       		.uleb128 0x1b
 3662 0f4f 01       		.uleb128 0x1
 3663 0f50 50       		.byte	0x50
 3664 0f51 04       		.uleb128 0x4
 3665 0f52 08       		.byte	0x8
 3666 0f53 FF       		.byte	0xff
 3667 0f54 40       		.byte	0x40
 3668 0f55 24       		.byte	0x24
 3669 0f56 00       		.byte	0
 3670 0f57 1C       		.uleb128 0x1c
 3671 0f58 E8010000 		.4byte	.LVL111
 3672 0f5c 5D160000 		.4byte	0x165d
ARM GAS  C:\Users\leoja\AppData\Local\Temp\ccVHTcit.s 			page 73


 3673 0f60 1B       		.uleb128 0x1b
 3674 0f61 01       		.uleb128 0x1
 3675 0f62 50       		.byte	0x50
 3676 0f63 02       		.uleb128 0x2
 3677 0f64 08       		.byte	0x8
 3678 0f65 64       		.byte	0x64
 3679 0f66 1B       		.uleb128 0x1b
 3680 0f67 01       		.uleb128 0x1
 3681 0f68 51       		.byte	0x51
 3682 0f69 02       		.uleb128 0x2
 3683 0f6a 08       		.byte	0x8
 3684 0f6b C3       		.byte	0xc3
 3685 0f6c 1B       		.uleb128 0x1b
 3686 0f6d 01       		.uleb128 0x1
 3687 0f6e 52       		.byte	0x52
 3688 0f6f 05       		.uleb128 0x5
 3689 0f70 03       		.byte	0x3
 3690 0f71 EC000000 		.4byte	.LC22
 3691 0f75 1B       		.uleb128 0x1b
 3692 0f76 01       		.uleb128 0x1
 3693 0f77 53       		.byte	0x53
 3694 0f78 01       		.uleb128 0x1
 3695 0f79 30       		.byte	0x30
 3696 0f7a 1B       		.uleb128 0x1b
 3697 0f7b 02       		.uleb128 0x2
 3698 0f7c 7D       		.byte	0x7d
 3699 0f7d 00       		.sleb128 0
 3700 0f7e 04       		.uleb128 0x4
 3701 0f7f 08       		.byte	0x8
 3702 0f80 FF       		.byte	0xff
 3703 0f81 40       		.byte	0x40
 3704 0f82 24       		.byte	0x24
 3705 0f83 00       		.byte	0
 3706 0f84 00       		.byte	0
 3707 0f85 1A       		.uleb128 0x1a
 3708 0f86 36000000 		.4byte	.LVL50
 3709 0f8a 650C0000 		.4byte	0xc65
 3710 0f8e 9B0F0000 		.4byte	0xf9b
 3711 0f92 1B       		.uleb128 0x1b
 3712 0f93 01       		.uleb128 0x1
 3713 0f94 50       		.byte	0x50
 3714 0f95 04       		.uleb128 0x4
 3715 0f96 08       		.byte	0x8
 3716 0f97 FF       		.byte	0xff
 3717 0f98 40       		.byte	0x40
 3718 0f99 24       		.byte	0x24
 3719 0f9a 00       		.byte	0
 3720 0f9b 1A       		.uleb128 0x1a
 3721 0f9c 48000000 		.4byte	.LVL51
 3722 0fa0 5D160000 		.4byte	0x165d
 3723 0fa4 CC0F0000 		.4byte	0xfcc
 3724 0fa8 1B       		.uleb128 0x1b
 3725 0fa9 01       		.uleb128 0x1
 3726 0faa 50       		.byte	0x50
 3727 0fab 02       		.uleb128 0x2
 3728 0fac 08       		.byte	0x8
 3729 0fad 64       		.byte	0x64
ARM GAS  C:\Users\leoja\AppData\Local\Temp\ccVHTcit.s 			page 74


 3730 0fae 1B       		.uleb128 0x1b
 3731 0faf 01       		.uleb128 0x1
 3732 0fb0 51       		.byte	0x51
 3733 0fb1 02       		.uleb128 0x2
 3734 0fb2 08       		.byte	0x8
 3735 0fb3 C3       		.byte	0xc3
 3736 0fb4 1B       		.uleb128 0x1b
 3737 0fb5 01       		.uleb128 0x1
 3738 0fb6 52       		.byte	0x52
 3739 0fb7 05       		.uleb128 0x5
 3740 0fb8 03       		.byte	0x3
 3741 0fb9 48000000 		.4byte	.LC8
 3742 0fbd 1B       		.uleb128 0x1b
 3743 0fbe 01       		.uleb128 0x1
 3744 0fbf 53       		.byte	0x53
 3745 0fc0 01       		.uleb128 0x1
 3746 0fc1 30       		.byte	0x30
 3747 0fc2 1B       		.uleb128 0x1b
 3748 0fc3 02       		.uleb128 0x2
 3749 0fc4 7D       		.byte	0x7d
 3750 0fc5 00       		.sleb128 0
 3751 0fc6 04       		.uleb128 0x4
 3752 0fc7 08       		.byte	0x8
 3753 0fc8 FF       		.byte	0xff
 3754 0fc9 40       		.byte	0x40
 3755 0fca 24       		.byte	0x24
 3756 0fcb 00       		.byte	0
 3757 0fcc 1A       		.uleb128 0x1a
 3758 0fcd 52000000 		.4byte	.LVL54
 3759 0fd1 650C0000 		.4byte	0xc65
 3760 0fd5 E20F0000 		.4byte	0xfe2
 3761 0fd9 1B       		.uleb128 0x1b
 3762 0fda 01       		.uleb128 0x1
 3763 0fdb 50       		.byte	0x50
 3764 0fdc 04       		.uleb128 0x4
 3765 0fdd 08       		.byte	0x8
 3766 0fde FF       		.byte	0xff
 3767 0fdf 40       		.byte	0x40
 3768 0fe0 24       		.byte	0x24
 3769 0fe1 00       		.byte	0
 3770 0fe2 1A       		.uleb128 0x1a
 3771 0fe3 64000000 		.4byte	.LVL55
 3772 0fe7 5D160000 		.4byte	0x165d
 3773 0feb 13100000 		.4byte	0x1013
 3774 0fef 1B       		.uleb128 0x1b
 3775 0ff0 01       		.uleb128 0x1
 3776 0ff1 50       		.byte	0x50
 3777 0ff2 02       		.uleb128 0x2
 3778 0ff3 08       		.byte	0x8
 3779 0ff4 64       		.byte	0x64
 3780 0ff5 1B       		.uleb128 0x1b
 3781 0ff6 01       		.uleb128 0x1
 3782 0ff7 51       		.byte	0x51
 3783 0ff8 02       		.uleb128 0x2
 3784 0ff9 08       		.byte	0x8
 3785 0ffa C3       		.byte	0xc3
 3786 0ffb 1B       		.uleb128 0x1b
ARM GAS  C:\Users\leoja\AppData\Local\Temp\ccVHTcit.s 			page 75


 3787 0ffc 01       		.uleb128 0x1
 3788 0ffd 52       		.byte	0x52
 3789 0ffe 05       		.uleb128 0x5
 3790 0fff 03       		.byte	0x3
 3791 1000 54000000 		.4byte	.LC9
 3792 1004 1B       		.uleb128 0x1b
 3793 1005 01       		.uleb128 0x1
 3794 1006 53       		.byte	0x53
 3795 1007 01       		.uleb128 0x1
 3796 1008 30       		.byte	0x30
 3797 1009 1B       		.uleb128 0x1b
 3798 100a 02       		.uleb128 0x2
 3799 100b 7D       		.byte	0x7d
 3800 100c 00       		.sleb128 0
 3801 100d 04       		.uleb128 0x4
 3802 100e 08       		.byte	0x8
 3803 100f FF       		.byte	0xff
 3804 1010 40       		.byte	0x40
 3805 1011 24       		.byte	0x24
 3806 1012 00       		.byte	0
 3807 1013 1A       		.uleb128 0x1a
 3808 1014 6E000000 		.4byte	.LVL58
 3809 1018 650C0000 		.4byte	0xc65
 3810 101c 29100000 		.4byte	0x1029
 3811 1020 1B       		.uleb128 0x1b
 3812 1021 01       		.uleb128 0x1
 3813 1022 50       		.byte	0x50
 3814 1023 04       		.uleb128 0x4
 3815 1024 08       		.byte	0x8
 3816 1025 FF       		.byte	0xff
 3817 1026 40       		.byte	0x40
 3818 1027 24       		.byte	0x24
 3819 1028 00       		.byte	0
 3820 1029 1A       		.uleb128 0x1a
 3821 102a 80000000 		.4byte	.LVL59
 3822 102e 5D160000 		.4byte	0x165d
 3823 1032 5A100000 		.4byte	0x105a
 3824 1036 1B       		.uleb128 0x1b
 3825 1037 01       		.uleb128 0x1
 3826 1038 50       		.byte	0x50
 3827 1039 02       		.uleb128 0x2
 3828 103a 08       		.byte	0x8
 3829 103b 64       		.byte	0x64
 3830 103c 1B       		.uleb128 0x1b
 3831 103d 01       		.uleb128 0x1
 3832 103e 51       		.byte	0x51
 3833 103f 02       		.uleb128 0x2
 3834 1040 08       		.byte	0x8
 3835 1041 C3       		.byte	0xc3
 3836 1042 1B       		.uleb128 0x1b
 3837 1043 01       		.uleb128 0x1
 3838 1044 52       		.byte	0x52
 3839 1045 05       		.uleb128 0x5
 3840 1046 03       		.byte	0x3
 3841 1047 5C000000 		.4byte	.LC10
 3842 104b 1B       		.uleb128 0x1b
 3843 104c 01       		.uleb128 0x1
ARM GAS  C:\Users\leoja\AppData\Local\Temp\ccVHTcit.s 			page 76


 3844 104d 53       		.byte	0x53
 3845 104e 01       		.uleb128 0x1
 3846 104f 30       		.byte	0x30
 3847 1050 1B       		.uleb128 0x1b
 3848 1051 02       		.uleb128 0x2
 3849 1052 7D       		.byte	0x7d
 3850 1053 00       		.sleb128 0
 3851 1054 04       		.uleb128 0x4
 3852 1055 08       		.byte	0x8
 3853 1056 FF       		.byte	0xff
 3854 1057 40       		.byte	0x40
 3855 1058 24       		.byte	0x24
 3856 1059 00       		.byte	0
 3857 105a 1A       		.uleb128 0x1a
 3858 105b 8A000000 		.4byte	.LVL62
 3859 105f 650C0000 		.4byte	0xc65
 3860 1063 70100000 		.4byte	0x1070
 3861 1067 1B       		.uleb128 0x1b
 3862 1068 01       		.uleb128 0x1
 3863 1069 50       		.byte	0x50
 3864 106a 04       		.uleb128 0x4
 3865 106b 08       		.byte	0x8
 3866 106c FF       		.byte	0xff
 3867 106d 40       		.byte	0x40
 3868 106e 24       		.byte	0x24
 3869 106f 00       		.byte	0
 3870 1070 1A       		.uleb128 0x1a
 3871 1071 9C000000 		.4byte	.LVL63
 3872 1075 5D160000 		.4byte	0x165d
 3873 1079 A1100000 		.4byte	0x10a1
 3874 107d 1B       		.uleb128 0x1b
 3875 107e 01       		.uleb128 0x1
 3876 107f 50       		.byte	0x50
 3877 1080 02       		.uleb128 0x2
 3878 1081 08       		.byte	0x8
 3879 1082 64       		.byte	0x64
 3880 1083 1B       		.uleb128 0x1b
 3881 1084 01       		.uleb128 0x1
 3882 1085 51       		.byte	0x51
 3883 1086 02       		.uleb128 0x2
 3884 1087 08       		.byte	0x8
 3885 1088 C3       		.byte	0xc3
 3886 1089 1B       		.uleb128 0x1b
 3887 108a 01       		.uleb128 0x1
 3888 108b 52       		.byte	0x52
 3889 108c 05       		.uleb128 0x5
 3890 108d 03       		.byte	0x3
 3891 108e 68000000 		.4byte	.LC11
 3892 1092 1B       		.uleb128 0x1b
 3893 1093 01       		.uleb128 0x1
 3894 1094 53       		.byte	0x53
 3895 1095 01       		.uleb128 0x1
 3896 1096 30       		.byte	0x30
 3897 1097 1B       		.uleb128 0x1b
 3898 1098 02       		.uleb128 0x2
 3899 1099 7D       		.byte	0x7d
 3900 109a 00       		.sleb128 0
ARM GAS  C:\Users\leoja\AppData\Local\Temp\ccVHTcit.s 			page 77


 3901 109b 04       		.uleb128 0x4
 3902 109c 08       		.byte	0x8
 3903 109d FF       		.byte	0xff
 3904 109e 40       		.byte	0x40
 3905 109f 24       		.byte	0x24
 3906 10a0 00       		.byte	0
 3907 10a1 1A       		.uleb128 0x1a
 3908 10a2 A6000000 		.4byte	.LVL66
 3909 10a6 650C0000 		.4byte	0xc65
 3910 10aa B7100000 		.4byte	0x10b7
 3911 10ae 1B       		.uleb128 0x1b
 3912 10af 01       		.uleb128 0x1
 3913 10b0 50       		.byte	0x50
 3914 10b1 04       		.uleb128 0x4
 3915 10b2 08       		.byte	0x8
 3916 10b3 FF       		.byte	0xff
 3917 10b4 40       		.byte	0x40
 3918 10b5 24       		.byte	0x24
 3919 10b6 00       		.byte	0
 3920 10b7 1A       		.uleb128 0x1a
 3921 10b8 B8000000 		.4byte	.LVL67
 3922 10bc 5D160000 		.4byte	0x165d
 3923 10c0 E8100000 		.4byte	0x10e8
 3924 10c4 1B       		.uleb128 0x1b
 3925 10c5 01       		.uleb128 0x1
 3926 10c6 50       		.byte	0x50
 3927 10c7 02       		.uleb128 0x2
 3928 10c8 08       		.byte	0x8
 3929 10c9 64       		.byte	0x64
 3930 10ca 1B       		.uleb128 0x1b
 3931 10cb 01       		.uleb128 0x1
 3932 10cc 51       		.byte	0x51
 3933 10cd 02       		.uleb128 0x2
 3934 10ce 08       		.byte	0x8
 3935 10cf C3       		.byte	0xc3
 3936 10d0 1B       		.uleb128 0x1b
 3937 10d1 01       		.uleb128 0x1
 3938 10d2 52       		.byte	0x52
 3939 10d3 05       		.uleb128 0x5
 3940 10d4 03       		.byte	0x3
 3941 10d5 74000000 		.4byte	.LC12
 3942 10d9 1B       		.uleb128 0x1b
 3943 10da 01       		.uleb128 0x1
 3944 10db 53       		.byte	0x53
 3945 10dc 01       		.uleb128 0x1
 3946 10dd 30       		.byte	0x30
 3947 10de 1B       		.uleb128 0x1b
 3948 10df 02       		.uleb128 0x2
 3949 10e0 7D       		.byte	0x7d
 3950 10e1 00       		.sleb128 0
 3951 10e2 04       		.uleb128 0x4
 3952 10e3 08       		.byte	0x8
 3953 10e4 FF       		.byte	0xff
 3954 10e5 40       		.byte	0x40
 3955 10e6 24       		.byte	0x24
 3956 10e7 00       		.byte	0
 3957 10e8 1A       		.uleb128 0x1a
ARM GAS  C:\Users\leoja\AppData\Local\Temp\ccVHTcit.s 			page 78


 3958 10e9 C2000000 		.4byte	.LVL70
 3959 10ed 650C0000 		.4byte	0xc65
 3960 10f1 FE100000 		.4byte	0x10fe
 3961 10f5 1B       		.uleb128 0x1b
 3962 10f6 01       		.uleb128 0x1
 3963 10f7 50       		.byte	0x50
 3964 10f8 04       		.uleb128 0x4
 3965 10f9 08       		.byte	0x8
 3966 10fa FF       		.byte	0xff
 3967 10fb 40       		.byte	0x40
 3968 10fc 24       		.byte	0x24
 3969 10fd 00       		.byte	0
 3970 10fe 1A       		.uleb128 0x1a
 3971 10ff D4000000 		.4byte	.LVL71
 3972 1103 5D160000 		.4byte	0x165d
 3973 1107 2F110000 		.4byte	0x112f
 3974 110b 1B       		.uleb128 0x1b
 3975 110c 01       		.uleb128 0x1
 3976 110d 50       		.byte	0x50
 3977 110e 02       		.uleb128 0x2
 3978 110f 08       		.byte	0x8
 3979 1110 64       		.byte	0x64
 3980 1111 1B       		.uleb128 0x1b
 3981 1112 01       		.uleb128 0x1
 3982 1113 51       		.byte	0x51
 3983 1114 02       		.uleb128 0x2
 3984 1115 08       		.byte	0x8
 3985 1116 C3       		.byte	0xc3
 3986 1117 1B       		.uleb128 0x1b
 3987 1118 01       		.uleb128 0x1
 3988 1119 52       		.byte	0x52
 3989 111a 05       		.uleb128 0x5
 3990 111b 03       		.byte	0x3
 3991 111c 80000000 		.4byte	.LC13
 3992 1120 1B       		.uleb128 0x1b
 3993 1121 01       		.uleb128 0x1
 3994 1122 53       		.byte	0x53
 3995 1123 01       		.uleb128 0x1
 3996 1124 30       		.byte	0x30
 3997 1125 1B       		.uleb128 0x1b
 3998 1126 02       		.uleb128 0x2
 3999 1127 7D       		.byte	0x7d
 4000 1128 00       		.sleb128 0
 4001 1129 04       		.uleb128 0x4
 4002 112a 08       		.byte	0x8
 4003 112b FF       		.byte	0xff
 4004 112c 40       		.byte	0x40
 4005 112d 24       		.byte	0x24
 4006 112e 00       		.byte	0
 4007 112f 1A       		.uleb128 0x1a
 4008 1130 F2010000 		.4byte	.LVL114
 4009 1134 650C0000 		.4byte	0xc65
 4010 1138 44110000 		.4byte	0x1144
 4011 113c 1B       		.uleb128 0x1b
 4012 113d 01       		.uleb128 0x1
 4013 113e 50       		.byte	0x50
 4014 113f 03       		.uleb128 0x3
ARM GAS  C:\Users\leoja\AppData\Local\Temp\ccVHTcit.s 			page 79


 4015 1140 0A       		.byte	0xa
 4016 1141 00FF     		.2byte	0xff00
 4017 1143 00       		.byte	0
 4018 1144 1A       		.uleb128 0x1a
 4019 1145 10020000 		.4byte	.LVL115
 4020 1149 5D160000 		.4byte	0x165d
 4021 114d 74110000 		.4byte	0x1174
 4022 1151 1B       		.uleb128 0x1b
 4023 1152 01       		.uleb128 0x1
 4024 1153 50       		.byte	0x50
 4025 1154 02       		.uleb128 0x2
 4026 1155 08       		.byte	0x8
 4027 1156 64       		.byte	0x64
 4028 1157 1B       		.uleb128 0x1b
 4029 1158 01       		.uleb128 0x1
 4030 1159 51       		.byte	0x51
 4031 115a 02       		.uleb128 0x2
 4032 115b 08       		.byte	0x8
 4033 115c C3       		.byte	0xc3
 4034 115d 1B       		.uleb128 0x1b
 4035 115e 01       		.uleb128 0x1
 4036 115f 52       		.byte	0x52
 4037 1160 05       		.uleb128 0x5
 4038 1161 03       		.byte	0x3
 4039 1162 FC000000 		.4byte	.LC23
 4040 1166 1B       		.uleb128 0x1b
 4041 1167 01       		.uleb128 0x1
 4042 1168 53       		.byte	0x53
 4043 1169 01       		.uleb128 0x1
 4044 116a 30       		.byte	0x30
 4045 116b 1B       		.uleb128 0x1b
 4046 116c 02       		.uleb128 0x2
 4047 116d 7D       		.byte	0x7d
 4048 116e 00       		.sleb128 0
 4049 116f 03       		.uleb128 0x3
 4050 1170 0A       		.byte	0xa
 4051 1171 00FF     		.2byte	0xff00
 4052 1173 00       		.byte	0
 4053 1174 1A       		.uleb128 0x1a
 4054 1175 24020000 		.4byte	.LVL116
 4055 1179 5D160000 		.4byte	0x165d
 4056 117d A4110000 		.4byte	0x11a4
 4057 1181 1B       		.uleb128 0x1b
 4058 1182 01       		.uleb128 0x1
 4059 1183 50       		.byte	0x50
 4060 1184 02       		.uleb128 0x2
 4061 1185 08       		.byte	0x8
 4062 1186 64       		.byte	0x64
 4063 1187 1B       		.uleb128 0x1b
 4064 1188 01       		.uleb128 0x1
 4065 1189 51       		.byte	0x51
 4066 118a 02       		.uleb128 0x2
 4067 118b 08       		.byte	0x8
 4068 118c C3       		.byte	0xc3
 4069 118d 1B       		.uleb128 0x1b
 4070 118e 01       		.uleb128 0x1
 4071 118f 52       		.byte	0x52
ARM GAS  C:\Users\leoja\AppData\Local\Temp\ccVHTcit.s 			page 80


 4072 1190 05       		.uleb128 0x5
 4073 1191 03       		.byte	0x3
 4074 1192 08010000 		.4byte	.LC24
 4075 1196 1B       		.uleb128 0x1b
 4076 1197 01       		.uleb128 0x1
 4077 1198 53       		.byte	0x53
 4078 1199 01       		.uleb128 0x1
 4079 119a 30       		.byte	0x30
 4080 119b 1B       		.uleb128 0x1b
 4081 119c 02       		.uleb128 0x2
 4082 119d 7D       		.byte	0x7d
 4083 119e 00       		.sleb128 0
 4084 119f 03       		.uleb128 0x3
 4085 11a0 0A       		.byte	0xa
 4086 11a1 00FF     		.2byte	0xff00
 4087 11a3 00       		.byte	0
 4088 11a4 1A       		.uleb128 0x1a
 4089 11a5 38020000 		.4byte	.LVL117
 4090 11a9 5D160000 		.4byte	0x165d
 4091 11ad D4110000 		.4byte	0x11d4
 4092 11b1 1B       		.uleb128 0x1b
 4093 11b2 01       		.uleb128 0x1
 4094 11b3 50       		.byte	0x50
 4095 11b4 02       		.uleb128 0x2
 4096 11b5 08       		.byte	0x8
 4097 11b6 64       		.byte	0x64
 4098 11b7 1B       		.uleb128 0x1b
 4099 11b8 01       		.uleb128 0x1
 4100 11b9 51       		.byte	0x51
 4101 11ba 02       		.uleb128 0x2
 4102 11bb 08       		.byte	0x8
 4103 11bc C3       		.byte	0xc3
 4104 11bd 1B       		.uleb128 0x1b
 4105 11be 01       		.uleb128 0x1
 4106 11bf 52       		.byte	0x52
 4107 11c0 05       		.uleb128 0x5
 4108 11c1 03       		.byte	0x3
 4109 11c2 14010000 		.4byte	.LC25
 4110 11c6 1B       		.uleb128 0x1b
 4111 11c7 01       		.uleb128 0x1
 4112 11c8 53       		.byte	0x53
 4113 11c9 01       		.uleb128 0x1
 4114 11ca 30       		.byte	0x30
 4115 11cb 1B       		.uleb128 0x1b
 4116 11cc 02       		.uleb128 0x2
 4117 11cd 7D       		.byte	0x7d
 4118 11ce 00       		.sleb128 0
 4119 11cf 03       		.uleb128 0x3
 4120 11d0 0A       		.byte	0xa
 4121 11d1 00FF     		.2byte	0xff00
 4122 11d3 00       		.byte	0
 4123 11d4 1C       		.uleb128 0x1c
 4124 11d5 4C020000 		.4byte	.LVL118
 4125 11d9 5D160000 		.4byte	0x165d
 4126 11dd 1B       		.uleb128 0x1b
 4127 11de 01       		.uleb128 0x1
 4128 11df 50       		.byte	0x50
ARM GAS  C:\Users\leoja\AppData\Local\Temp\ccVHTcit.s 			page 81


 4129 11e0 02       		.uleb128 0x2
 4130 11e1 08       		.byte	0x8
 4131 11e2 64       		.byte	0x64
 4132 11e3 1B       		.uleb128 0x1b
 4133 11e4 01       		.uleb128 0x1
 4134 11e5 51       		.byte	0x51
 4135 11e6 02       		.uleb128 0x2
 4136 11e7 08       		.byte	0x8
 4137 11e8 C3       		.byte	0xc3
 4138 11e9 1B       		.uleb128 0x1b
 4139 11ea 01       		.uleb128 0x1
 4140 11eb 52       		.byte	0x52
 4141 11ec 05       		.uleb128 0x5
 4142 11ed 03       		.byte	0x3
 4143 11ee 20010000 		.4byte	.LC26
 4144 11f2 1B       		.uleb128 0x1b
 4145 11f3 01       		.uleb128 0x1
 4146 11f4 53       		.byte	0x53
 4147 11f5 01       		.uleb128 0x1
 4148 11f6 30       		.byte	0x30
 4149 11f7 1B       		.uleb128 0x1b
 4150 11f8 02       		.uleb128 0x2
 4151 11f9 7D       		.byte	0x7d
 4152 11fa 00       		.sleb128 0
 4153 11fb 03       		.uleb128 0x3
 4154 11fc 0A       		.byte	0xa
 4155 11fd 00FF     		.2byte	0xff00
 4156 11ff 00       		.byte	0
 4157 1200 00       		.byte	0
 4158 1201 1D       		.uleb128 0x1d
 4159 1202 EB020000 		.4byte	.LASF133
 4160 1206 01       		.byte	0x1
 4161 1207 EE       		.byte	0xee
 4162 1208 00000000 		.4byte	.LFB70
 4163 120c D0000000 		.4byte	.LFE70-.LFB70
 4164 1210 01       		.uleb128 0x1
 4165 1211 9C       		.byte	0x9c
 4166 1212 BD120000 		.4byte	0x12bd
 4167 1216 1E       		.uleb128 0x1e
 4168 1217 B0030000 		.4byte	.LASF82
 4169 121b 01       		.byte	0x1
 4170 121c EE       		.byte	0xee
 4171 121d E4000000 		.4byte	0xe4
 4172 1221 B2040000 		.4byte	.LLST9
 4173 1225 1F       		.uleb128 0x1f
 4174 1226 F1010000 		.4byte	.LASF125
 4175 122a 01       		.byte	0x1
 4176 122b F4       		.byte	0xf4
 4177 122c 20040000 		.4byte	0x420
 4178 1230 04050000 		.4byte	.LLST10
 4179 1234 23       		.uleb128 0x23
 4180 1235 08000000 		.4byte	.LASF126
 4181 1239 01       		.byte	0x1
 4182 123a 0301     		.2byte	0x103
 4183 123c BD120000 		.4byte	0x12bd
 4184 1240 02       		.uleb128 0x2
 4185 1241 91       		.byte	0x91
ARM GAS  C:\Users\leoja\AppData\Local\Temp\ccVHTcit.s 			page 82


 4186 1242 68       		.sleb128 -24
 4187 1243 1A       		.uleb128 0x1a
 4188 1244 58000000 		.4byte	.LVL124
 4189 1248 2F160000 		.4byte	0x162f
 4190 124c 71120000 		.4byte	0x1271
 4191 1250 1B       		.uleb128 0x1b
 4192 1251 01       		.uleb128 0x1
 4193 1252 50       		.byte	0x50
 4194 1253 02       		.uleb128 0x2
 4195 1254 08       		.byte	0x8
 4196 1255 5F       		.byte	0x5f
 4197 1256 1B       		.uleb128 0x1b
 4198 1257 01       		.uleb128 0x1
 4199 1258 51       		.byte	0x51
 4200 1259 02       		.uleb128 0x2
 4201 125a 08       		.byte	0x8
 4202 125b E6       		.byte	0xe6
 4203 125c 1B       		.uleb128 0x1b
 4204 125d 01       		.uleb128 0x1
 4205 125e 52       		.byte	0x52
 4206 125f 02       		.uleb128 0x2
 4207 1260 08       		.byte	0x8
 4208 1261 B6       		.byte	0xb6
 4209 1262 1B       		.uleb128 0x1b
 4210 1263 01       		.uleb128 0x1
 4211 1264 53       		.byte	0x53
 4212 1265 03       		.uleb128 0x3
 4213 1266 0A       		.byte	0xa
 4214 1267 0401     		.2byte	0x104
 4215 1269 1B       		.uleb128 0x1b
 4216 126a 02       		.uleb128 0x2
 4217 126b 7D       		.byte	0x7d
 4218 126c 00       		.sleb128 0
 4219 126d 02       		.uleb128 0x2
 4220 126e 75       		.byte	0x75
 4221 126f 00       		.sleb128 0
 4222 1270 00       		.byte	0
 4223 1271 1A       		.uleb128 0x1a
 4224 1272 66000000 		.4byte	.LVL125
 4225 1276 52160000 		.4byte	0x1652
 4226 127a 94120000 		.4byte	0x1294
 4227 127e 1B       		.uleb128 0x1b
 4228 127f 01       		.uleb128 0x1
 4229 1280 50       		.byte	0x50
 4230 1281 02       		.uleb128 0x2
 4231 1282 91       		.byte	0x91
 4232 1283 68       		.sleb128 -24
 4233 1284 1B       		.uleb128 0x1b
 4234 1285 01       		.uleb128 0x1
 4235 1286 51       		.byte	0x51
 4236 1287 05       		.uleb128 0x5
 4237 1288 03       		.byte	0x3
 4238 1289 44000000 		.4byte	.LC7
 4239 128d 1B       		.uleb128 0x1b
 4240 128e 01       		.uleb128 0x1
 4241 128f 52       		.byte	0x52
 4242 1290 02       		.uleb128 0x2
ARM GAS  C:\Users\leoja\AppData\Local\Temp\ccVHTcit.s 			page 83


 4243 1291 74       		.byte	0x74
 4244 1292 00       		.sleb128 0
 4245 1293 00       		.byte	0
 4246 1294 1C       		.uleb128 0x1c
 4247 1295 B8000000 		.4byte	.LVL126
 4248 1299 5D160000 		.4byte	0x165d
 4249 129d 1B       		.uleb128 0x1b
 4250 129e 01       		.uleb128 0x1
 4251 129f 50       		.byte	0x50
 4252 12a0 02       		.uleb128 0x2
 4253 12a1 08       		.byte	0x8
 4254 12a2 64       		.byte	0x64
 4255 12a3 1B       		.uleb128 0x1b
 4256 12a4 01       		.uleb128 0x1
 4257 12a5 51       		.byte	0x51
 4258 12a6 02       		.uleb128 0x2
 4259 12a7 08       		.byte	0x8
 4260 12a8 F0       		.byte	0xf0
 4261 12a9 1B       		.uleb128 0x1b
 4262 12aa 01       		.uleb128 0x1
 4263 12ab 52       		.byte	0x52
 4264 12ac 02       		.uleb128 0x2
 4265 12ad 91       		.byte	0x91
 4266 12ae 68       		.sleb128 -24
 4267 12af 1B       		.uleb128 0x1b
 4268 12b0 01       		.uleb128 0x1
 4269 12b1 53       		.byte	0x53
 4270 12b2 01       		.uleb128 0x1
 4271 12b3 30       		.byte	0x30
 4272 12b4 1B       		.uleb128 0x1b
 4273 12b5 02       		.uleb128 0x2
 4274 12b6 7D       		.byte	0x7d
 4275 12b7 00       		.sleb128 0
 4276 12b8 02       		.uleb128 0x2
 4277 12b9 75       		.byte	0x75
 4278 12ba 00       		.sleb128 0
 4279 12bb 00       		.byte	0
 4280 12bc 00       		.byte	0
 4281 12bd 17       		.uleb128 0x17
 4282 12be 09010000 		.4byte	0x109
 4283 12c2 CD120000 		.4byte	0x12cd
 4284 12c6 18       		.uleb128 0x18
 4285 12c7 17010000 		.4byte	0x117
 4286 12cb 06       		.byte	0x6
 4287 12cc 00       		.byte	0
 4288 12cd 24       		.uleb128 0x24
 4289 12ce FC050000 		.4byte	.LASF134
 4290 12d2 01       		.byte	0x1
 4291 12d3 1601     		.2byte	0x116
 4292 12d5 00000000 		.4byte	.LFB71
 4293 12d9 88000000 		.4byte	.LFE71-.LFB71
 4294 12dd 01       		.uleb128 0x1
 4295 12de 9C       		.byte	0x9c
 4296 12df 20140000 		.4byte	0x1420
 4297 12e3 25       		.uleb128 0x25
 4298 12e4 B0030000 		.4byte	.LASF82
 4299 12e8 01       		.byte	0x1
ARM GAS  C:\Users\leoja\AppData\Local\Temp\ccVHTcit.s 			page 84


 4300 12e9 1601     		.2byte	0x116
 4301 12eb CE000000 		.4byte	0xce
 4302 12ef 17050000 		.4byte	.LLST11
 4303 12f3 20       		.uleb128 0x20
 4304 12f4 0A000000 		.4byte	.LBB4
 4305 12f8 3A000000 		.4byte	.LBE4-.LBB4
 4306 12fc 8B130000 		.4byte	0x138b
 4307 1300 23       		.uleb128 0x23
 4308 1301 08000000 		.4byte	.LASF126
 4309 1305 01       		.byte	0x1
 4310 1306 1A01     		.2byte	0x11a
 4311 1308 20140000 		.4byte	0x1420
 4312 130c 02       		.uleb128 0x2
 4313 130d 91       		.byte	0x91
 4314 130e 68       		.sleb128 -24
 4315 130f 1A       		.uleb128 0x1a
 4316 1310 20000000 		.4byte	.LVL130
 4317 1314 2F160000 		.4byte	0x162f
 4318 1318 3E130000 		.4byte	0x133e
 4319 131c 1B       		.uleb128 0x1b
 4320 131d 01       		.uleb128 0x1
 4321 131e 50       		.byte	0x50
 4322 131f 03       		.uleb128 0x3
 4323 1320 0A       		.byte	0xa
 4324 1321 9A01     		.2byte	0x19a
 4325 1323 1B       		.uleb128 0x1b
 4326 1324 01       		.uleb128 0x1
 4327 1325 51       		.byte	0x51
 4328 1326 02       		.uleb128 0x2
 4329 1327 08       		.byte	0x8
 4330 1328 B9       		.byte	0xb9
 4331 1329 1B       		.uleb128 0x1b
 4332 132a 01       		.uleb128 0x1
 4333 132b 52       		.byte	0x52
 4334 132c 03       		.uleb128 0x3
 4335 132d 0A       		.byte	0xa
 4336 132e D601     		.2byte	0x1d6
 4337 1330 1B       		.uleb128 0x1b
 4338 1331 01       		.uleb128 0x1
 4339 1332 53       		.byte	0x53
 4340 1333 02       		.uleb128 0x2
 4341 1334 08       		.byte	0x8
 4342 1335 D7       		.byte	0xd7
 4343 1336 1B       		.uleb128 0x1b
 4344 1337 02       		.uleb128 0x2
 4345 1338 7D       		.byte	0x7d
 4346 1339 00       		.sleb128 0
 4347 133a 02       		.uleb128 0x2
 4348 133b 75       		.byte	0x75
 4349 133c 00       		.sleb128 0
 4350 133d 00       		.byte	0
 4351 133e 1A       		.uleb128 0x1a
 4352 133f 2A000000 		.4byte	.LVL131
 4353 1343 52160000 		.4byte	0x1652
 4354 1347 61130000 		.4byte	0x1361
 4355 134b 1B       		.uleb128 0x1b
 4356 134c 01       		.uleb128 0x1
ARM GAS  C:\Users\leoja\AppData\Local\Temp\ccVHTcit.s 			page 85


 4357 134d 50       		.byte	0x50
 4358 134e 02       		.uleb128 0x2
 4359 134f 91       		.byte	0x91
 4360 1350 68       		.sleb128 -24
 4361 1351 1B       		.uleb128 0x1b
 4362 1352 01       		.uleb128 0x1
 4363 1353 51       		.byte	0x51
 4364 1354 05       		.uleb128 0x5
 4365 1355 03       		.byte	0x3
 4366 1356 44000000 		.4byte	.LC7
 4367 135a 1B       		.uleb128 0x1b
 4368 135b 01       		.uleb128 0x1
 4369 135c 52       		.byte	0x52
 4370 135d 02       		.uleb128 0x2
 4371 135e 74       		.byte	0x74
 4372 135f 00       		.sleb128 0
 4373 1360 00       		.byte	0
 4374 1361 1C       		.uleb128 0x1c
 4375 1362 44000000 		.4byte	.LVL132
 4376 1366 5D160000 		.4byte	0x165d
 4377 136a 1B       		.uleb128 0x1b
 4378 136b 01       		.uleb128 0x1
 4379 136c 50       		.byte	0x50
 4380 136d 03       		.uleb128 0x3
 4381 136e 0A       		.byte	0xa
 4382 136f 9F01     		.2byte	0x19f
 4383 1371 1B       		.uleb128 0x1b
 4384 1372 01       		.uleb128 0x1
 4385 1373 51       		.byte	0x51
 4386 1374 02       		.uleb128 0x2
 4387 1375 08       		.byte	0x8
 4388 1376 C3       		.byte	0xc3
 4389 1377 1B       		.uleb128 0x1b
 4390 1378 01       		.uleb128 0x1
 4391 1379 52       		.byte	0x52
 4392 137a 02       		.uleb128 0x2
 4393 137b 91       		.byte	0x91
 4394 137c 68       		.sleb128 -24
 4395 137d 1B       		.uleb128 0x1b
 4396 137e 01       		.uleb128 0x1
 4397 137f 53       		.byte	0x53
 4398 1380 01       		.uleb128 0x1
 4399 1381 30       		.byte	0x30
 4400 1382 1B       		.uleb128 0x1b
 4401 1383 02       		.uleb128 0x2
 4402 1384 7D       		.byte	0x7d
 4403 1385 00       		.sleb128 0
 4404 1386 02       		.uleb128 0x2
 4405 1387 75       		.byte	0x75
 4406 1388 00       		.sleb128 0
 4407 1389 00       		.byte	0
 4408 138a 00       		.byte	0
 4409 138b 26       		.uleb128 0x26
 4410 138c 46000000 		.4byte	.LBB5
 4411 1390 3A000000 		.4byte	.LBE5-.LBB5
 4412 1394 23       		.uleb128 0x23
 4413 1395 08000000 		.4byte	.LASF126
ARM GAS  C:\Users\leoja\AppData\Local\Temp\ccVHTcit.s 			page 86


 4414 1399 01       		.byte	0x1
 4415 139a 2201     		.2byte	0x122
 4416 139c 250B0000 		.4byte	0xb25
 4417 13a0 02       		.uleb128 0x2
 4418 13a1 91       		.byte	0x91
 4419 13a2 68       		.sleb128 -24
 4420 13a3 1A       		.uleb128 0x1a
 4421 13a4 5C000000 		.4byte	.LVL135
 4422 13a8 2F160000 		.4byte	0x162f
 4423 13ac D2130000 		.4byte	0x13d2
 4424 13b0 1B       		.uleb128 0x1b
 4425 13b1 01       		.uleb128 0x1
 4426 13b2 50       		.byte	0x50
 4427 13b3 03       		.uleb128 0x3
 4428 13b4 0A       		.byte	0xa
 4429 13b5 9A01     		.2byte	0x19a
 4430 13b7 1B       		.uleb128 0x1b
 4431 13b8 01       		.uleb128 0x1
 4432 13b9 51       		.byte	0x51
 4433 13ba 02       		.uleb128 0x2
 4434 13bb 08       		.byte	0x8
 4435 13bc B9       		.byte	0xb9
 4436 13bd 1B       		.uleb128 0x1b
 4437 13be 01       		.uleb128 0x1
 4438 13bf 52       		.byte	0x52
 4439 13c0 03       		.uleb128 0x3
 4440 13c1 0A       		.byte	0xa
 4441 13c2 D601     		.2byte	0x1d6
 4442 13c4 1B       		.uleb128 0x1b
 4443 13c5 01       		.uleb128 0x1
 4444 13c6 53       		.byte	0x53
 4445 13c7 02       		.uleb128 0x2
 4446 13c8 08       		.byte	0x8
 4447 13c9 D7       		.byte	0xd7
 4448 13ca 1B       		.uleb128 0x1b
 4449 13cb 02       		.uleb128 0x2
 4450 13cc 7D       		.byte	0x7d
 4451 13cd 00       		.sleb128 0
 4452 13ce 02       		.uleb128 0x2
 4453 13cf 75       		.byte	0x75
 4454 13d0 00       		.sleb128 0
 4455 13d1 00       		.byte	0
 4456 13d2 1A       		.uleb128 0x1a
 4457 13d3 66000000 		.4byte	.LVL136
 4458 13d7 52160000 		.4byte	0x1652
 4459 13db F5130000 		.4byte	0x13f5
 4460 13df 1B       		.uleb128 0x1b
 4461 13e0 01       		.uleb128 0x1
 4462 13e1 50       		.byte	0x50
 4463 13e2 02       		.uleb128 0x2
 4464 13e3 91       		.byte	0x91
 4465 13e4 68       		.sleb128 -24
 4466 13e5 1B       		.uleb128 0x1b
 4467 13e6 01       		.uleb128 0x1
 4468 13e7 51       		.byte	0x51
 4469 13e8 05       		.uleb128 0x5
 4470 13e9 03       		.byte	0x3
ARM GAS  C:\Users\leoja\AppData\Local\Temp\ccVHTcit.s 			page 87


 4471 13ea 44000000 		.4byte	.LC7
 4472 13ee 1B       		.uleb128 0x1b
 4473 13ef 01       		.uleb128 0x1
 4474 13f0 52       		.byte	0x52
 4475 13f1 02       		.uleb128 0x2
 4476 13f2 74       		.byte	0x74
 4477 13f3 00       		.sleb128 0
 4478 13f4 00       		.byte	0
 4479 13f5 1C       		.uleb128 0x1c
 4480 13f6 80000000 		.4byte	.LVL137
 4481 13fa 5D160000 		.4byte	0x165d
 4482 13fe 1B       		.uleb128 0x1b
 4483 13ff 01       		.uleb128 0x1
 4484 1400 50       		.byte	0x50
 4485 1401 03       		.uleb128 0x3
 4486 1402 0A       		.byte	0xa
 4487 1403 A601     		.2byte	0x1a6
 4488 1405 1B       		.uleb128 0x1b
 4489 1406 01       		.uleb128 0x1
 4490 1407 51       		.byte	0x51
 4491 1408 02       		.uleb128 0x2
 4492 1409 08       		.byte	0x8
 4493 140a C3       		.byte	0xc3
 4494 140b 1B       		.uleb128 0x1b
 4495 140c 01       		.uleb128 0x1
 4496 140d 52       		.byte	0x52
 4497 140e 02       		.uleb128 0x2
 4498 140f 91       		.byte	0x91
 4499 1410 68       		.sleb128 -24
 4500 1411 1B       		.uleb128 0x1b
 4501 1412 01       		.uleb128 0x1
 4502 1413 53       		.byte	0x53
 4503 1414 01       		.uleb128 0x1
 4504 1415 30       		.byte	0x30
 4505 1416 1B       		.uleb128 0x1b
 4506 1417 02       		.uleb128 0x2
 4507 1418 7D       		.byte	0x7d
 4508 1419 00       		.sleb128 0
 4509 141a 02       		.uleb128 0x2
 4510 141b 75       		.byte	0x75
 4511 141c 00       		.sleb128 0
 4512 141d 00       		.byte	0
 4513 141e 00       		.byte	0
 4514 141f 00       		.byte	0
 4515 1420 17       		.uleb128 0x17
 4516 1421 09010000 		.4byte	0x109
 4517 1425 30140000 		.4byte	0x1430
 4518 1429 18       		.uleb128 0x18
 4519 142a 17010000 		.4byte	0x117
 4520 142e 04       		.byte	0x4
 4521 142f 00       		.byte	0
 4522 1430 24       		.uleb128 0x24
 4523 1431 90050000 		.4byte	.LASF135
 4524 1435 01       		.byte	0x1
 4525 1436 2A01     		.2byte	0x12a
 4526 1438 00000000 		.4byte	.LFB72
 4527 143c 8C000000 		.4byte	.LFE72-.LFB72
ARM GAS  C:\Users\leoja\AppData\Local\Temp\ccVHTcit.s 			page 88


 4528 1440 01       		.uleb128 0x1
 4529 1441 9C       		.byte	0x9c
 4530 1442 85150000 		.4byte	0x1585
 4531 1446 25       		.uleb128 0x25
 4532 1447 B0030000 		.4byte	.LASF82
 4533 144b 01       		.byte	0x1
 4534 144c 2A01     		.2byte	0x12a
 4535 144e CE000000 		.4byte	0xce
 4536 1452 51050000 		.4byte	.LLST12
 4537 1456 20       		.uleb128 0x20
 4538 1457 0A000000 		.4byte	.LBB6
 4539 145b 3C000000 		.4byte	.LBE6-.LBB6
 4540 145f EF140000 		.4byte	0x14ef
 4541 1463 23       		.uleb128 0x23
 4542 1464 08000000 		.4byte	.LASF126
 4543 1468 01       		.byte	0x1
 4544 1469 2E01     		.2byte	0x12e
 4545 146b 20140000 		.4byte	0x1420
 4546 146f 02       		.uleb128 0x2
 4547 1470 91       		.byte	0x91
 4548 1471 68       		.sleb128 -24
 4549 1472 1A       		.uleb128 0x1a
 4550 1473 22000000 		.4byte	.LVL140
 4551 1477 2F160000 		.4byte	0x162f
 4552 147b A2140000 		.4byte	0x14a2
 4553 147f 1B       		.uleb128 0x1b
 4554 1480 01       		.uleb128 0x1
 4555 1481 50       		.byte	0x50
 4556 1482 03       		.uleb128 0x3
 4557 1483 0A       		.byte	0xa
 4558 1484 9A01     		.2byte	0x19a
 4559 1486 1B       		.uleb128 0x1b
 4560 1487 01       		.uleb128 0x1
 4561 1488 51       		.byte	0x51
 4562 1489 02       		.uleb128 0x2
 4563 148a 08       		.byte	0x8
 4564 148b E6       		.byte	0xe6
 4565 148c 1B       		.uleb128 0x1b
 4566 148d 01       		.uleb128 0x1
 4567 148e 52       		.byte	0x52
 4568 148f 03       		.uleb128 0x3
 4569 1490 0A       		.byte	0xa
 4570 1491 D601     		.2byte	0x1d6
 4571 1493 1B       		.uleb128 0x1b
 4572 1494 01       		.uleb128 0x1
 4573 1495 53       		.byte	0x53
 4574 1496 03       		.uleb128 0x3
 4575 1497 0A       		.byte	0xa
 4576 1498 0401     		.2byte	0x104
 4577 149a 1B       		.uleb128 0x1b
 4578 149b 02       		.uleb128 0x2
 4579 149c 7D       		.byte	0x7d
 4580 149d 00       		.sleb128 0
 4581 149e 02       		.uleb128 0x2
 4582 149f 75       		.byte	0x75
 4583 14a0 00       		.sleb128 0
 4584 14a1 00       		.byte	0
ARM GAS  C:\Users\leoja\AppData\Local\Temp\ccVHTcit.s 			page 89


 4585 14a2 1A       		.uleb128 0x1a
 4586 14a3 2C000000 		.4byte	.LVL141
 4587 14a7 52160000 		.4byte	0x1652
 4588 14ab C5140000 		.4byte	0x14c5
 4589 14af 1B       		.uleb128 0x1b
 4590 14b0 01       		.uleb128 0x1
 4591 14b1 50       		.byte	0x50
 4592 14b2 02       		.uleb128 0x2
 4593 14b3 91       		.byte	0x91
 4594 14b4 68       		.sleb128 -24
 4595 14b5 1B       		.uleb128 0x1b
 4596 14b6 01       		.uleb128 0x1
 4597 14b7 51       		.byte	0x51
 4598 14b8 05       		.uleb128 0x5
 4599 14b9 03       		.byte	0x3
 4600 14ba 44000000 		.4byte	.LC7
 4601 14be 1B       		.uleb128 0x1b
 4602 14bf 01       		.uleb128 0x1
 4603 14c0 52       		.byte	0x52
 4604 14c1 02       		.uleb128 0x2
 4605 14c2 74       		.byte	0x74
 4606 14c3 00       		.sleb128 0
 4607 14c4 00       		.byte	0
 4608 14c5 1C       		.uleb128 0x1c
 4609 14c6 46000000 		.4byte	.LVL142
 4610 14ca 5D160000 		.4byte	0x165d
 4611 14ce 1B       		.uleb128 0x1b
 4612 14cf 01       		.uleb128 0x1
 4613 14d0 50       		.byte	0x50
 4614 14d1 03       		.uleb128 0x3
 4615 14d2 0A       		.byte	0xa
 4616 14d3 9F01     		.2byte	0x19f
 4617 14d5 1B       		.uleb128 0x1b
 4618 14d6 01       		.uleb128 0x1
 4619 14d7 51       		.byte	0x51
 4620 14d8 02       		.uleb128 0x2
 4621 14d9 08       		.byte	0x8
 4622 14da F0       		.byte	0xf0
 4623 14db 1B       		.uleb128 0x1b
 4624 14dc 01       		.uleb128 0x1
 4625 14dd 52       		.byte	0x52
 4626 14de 02       		.uleb128 0x2
 4627 14df 91       		.byte	0x91
 4628 14e0 68       		.sleb128 -24
 4629 14e1 1B       		.uleb128 0x1b
 4630 14e2 01       		.uleb128 0x1
 4631 14e3 53       		.byte	0x53
 4632 14e4 01       		.uleb128 0x1
 4633 14e5 30       		.byte	0x30
 4634 14e6 1B       		.uleb128 0x1b
 4635 14e7 02       		.uleb128 0x2
 4636 14e8 7D       		.byte	0x7d
 4637 14e9 00       		.sleb128 0
 4638 14ea 02       		.uleb128 0x2
 4639 14eb 75       		.byte	0x75
 4640 14ec 00       		.sleb128 0
 4641 14ed 00       		.byte	0
ARM GAS  C:\Users\leoja\AppData\Local\Temp\ccVHTcit.s 			page 90


 4642 14ee 00       		.byte	0
 4643 14ef 26       		.uleb128 0x26
 4644 14f0 48000000 		.4byte	.LBB7
 4645 14f4 3C000000 		.4byte	.LBE7-.LBB7
 4646 14f8 23       		.uleb128 0x23
 4647 14f9 08000000 		.4byte	.LASF126
 4648 14fd 01       		.byte	0x1
 4649 14fe 3601     		.2byte	0x136
 4650 1500 250B0000 		.4byte	0xb25
 4651 1504 02       		.uleb128 0x2
 4652 1505 91       		.byte	0x91
 4653 1506 68       		.sleb128 -24
 4654 1507 1A       		.uleb128 0x1a
 4655 1508 60000000 		.4byte	.LVL145
 4656 150c 2F160000 		.4byte	0x162f
 4657 1510 37150000 		.4byte	0x1537
 4658 1514 1B       		.uleb128 0x1b
 4659 1515 01       		.uleb128 0x1
 4660 1516 50       		.byte	0x50
 4661 1517 03       		.uleb128 0x3
 4662 1518 0A       		.byte	0xa
 4663 1519 9A01     		.2byte	0x19a
 4664 151b 1B       		.uleb128 0x1b
 4665 151c 01       		.uleb128 0x1
 4666 151d 51       		.byte	0x51
 4667 151e 02       		.uleb128 0x2
 4668 151f 08       		.byte	0x8
 4669 1520 E6       		.byte	0xe6
 4670 1521 1B       		.uleb128 0x1b
 4671 1522 01       		.uleb128 0x1
 4672 1523 52       		.byte	0x52
 4673 1524 03       		.uleb128 0x3
 4674 1525 0A       		.byte	0xa
 4675 1526 D601     		.2byte	0x1d6
 4676 1528 1B       		.uleb128 0x1b
 4677 1529 01       		.uleb128 0x1
 4678 152a 53       		.byte	0x53
 4679 152b 03       		.uleb128 0x3
 4680 152c 0A       		.byte	0xa
 4681 152d 0401     		.2byte	0x104
 4682 152f 1B       		.uleb128 0x1b
 4683 1530 02       		.uleb128 0x2
 4684 1531 7D       		.byte	0x7d
 4685 1532 00       		.sleb128 0
 4686 1533 02       		.uleb128 0x2
 4687 1534 75       		.byte	0x75
 4688 1535 00       		.sleb128 0
 4689 1536 00       		.byte	0
 4690 1537 1A       		.uleb128 0x1a
 4691 1538 6A000000 		.4byte	.LVL146
 4692 153c 52160000 		.4byte	0x1652
 4693 1540 5A150000 		.4byte	0x155a
 4694 1544 1B       		.uleb128 0x1b
 4695 1545 01       		.uleb128 0x1
 4696 1546 50       		.byte	0x50
 4697 1547 02       		.uleb128 0x2
 4698 1548 91       		.byte	0x91
ARM GAS  C:\Users\leoja\AppData\Local\Temp\ccVHTcit.s 			page 91


 4699 1549 68       		.sleb128 -24
 4700 154a 1B       		.uleb128 0x1b
 4701 154b 01       		.uleb128 0x1
 4702 154c 51       		.byte	0x51
 4703 154d 05       		.uleb128 0x5
 4704 154e 03       		.byte	0x3
 4705 154f 44000000 		.4byte	.LC7
 4706 1553 1B       		.uleb128 0x1b
 4707 1554 01       		.uleb128 0x1
 4708 1555 52       		.byte	0x52
 4709 1556 02       		.uleb128 0x2
 4710 1557 74       		.byte	0x74
 4711 1558 00       		.sleb128 0
 4712 1559 00       		.byte	0
 4713 155a 1C       		.uleb128 0x1c
 4714 155b 84000000 		.4byte	.LVL147
 4715 155f 5D160000 		.4byte	0x165d
 4716 1563 1B       		.uleb128 0x1b
 4717 1564 01       		.uleb128 0x1
 4718 1565 50       		.byte	0x50
 4719 1566 03       		.uleb128 0x3
 4720 1567 0A       		.byte	0xa
 4721 1568 A601     		.2byte	0x1a6
 4722 156a 1B       		.uleb128 0x1b
 4723 156b 01       		.uleb128 0x1
 4724 156c 51       		.byte	0x51
 4725 156d 02       		.uleb128 0x2
 4726 156e 08       		.byte	0x8
 4727 156f F0       		.byte	0xf0
 4728 1570 1B       		.uleb128 0x1b
 4729 1571 01       		.uleb128 0x1
 4730 1572 52       		.byte	0x52
 4731 1573 02       		.uleb128 0x2
 4732 1574 91       		.byte	0x91
 4733 1575 68       		.sleb128 -24
 4734 1576 1B       		.uleb128 0x1b
 4735 1577 01       		.uleb128 0x1
 4736 1578 53       		.byte	0x53
 4737 1579 01       		.uleb128 0x1
 4738 157a 30       		.byte	0x30
 4739 157b 1B       		.uleb128 0x1b
 4740 157c 02       		.uleb128 0x2
 4741 157d 7D       		.byte	0x7d
 4742 157e 00       		.sleb128 0
 4743 157f 02       		.uleb128 0x2
 4744 1580 75       		.byte	0x75
 4745 1581 00       		.sleb128 0
 4746 1582 00       		.byte	0
 4747 1583 00       		.byte	0
 4748 1584 00       		.byte	0
 4749 1585 27       		.uleb128 0x27
 4750 1586 83050000 		.4byte	.LASF136
 4751 158a 08       		.byte	0x8
 4752 158b 5506     		.2byte	0x655
 4753 158d 91150000 		.4byte	0x1591
 4754 1591 28       		.uleb128 0x28
 4755 1592 D9000000 		.4byte	0xd9
ARM GAS  C:\Users\leoja\AppData\Local\Temp\ccVHTcit.s 			page 92


 4756 1596 29       		.uleb128 0x29
 4757 1597 77010000 		.4byte	.LASF137
 4758 159b 07       		.byte	0x7
 4759 159c 51       		.byte	0x51
 4760 159d 71040000 		.4byte	0x471
 4761 15a1 29       		.uleb128 0x29
 4762 15a2 A9050000 		.4byte	.LASF138
 4763 15a6 07       		.byte	0x7
 4764 15a7 60       		.byte	0x60
 4765 15a8 71040000 		.4byte	0x471
 4766 15ac 2A       		.uleb128 0x2a
 4767 15ad BF040000 		.4byte	.LASF139
 4768 15b1 09       		.byte	0x9
 4769 15b2 34       		.byte	0x34
 4770 15b3 71070000 		.4byte	0x771
 4771 15b7 05       		.uleb128 0x5
 4772 15b8 03       		.byte	0x3
 4773 15b9 00000000 		.4byte	gui1963
 4774 15bd 2A       		.uleb128 0x2a
 4775 15be B7020000 		.4byte	.LASF140
 4776 15c2 0A       		.byte	0xa
 4777 15c3 0F       		.byte	0xf
 4778 15c4 20040000 		.4byte	0x420
 4779 15c8 05       		.uleb128 0x5
 4780 15c9 03       		.byte	0x3
 4781 15ca 00000000 		.4byte	last_SOC_color
 4782 15ce 2A       		.uleb128 0x2a
 4783 15cf 08040000 		.4byte	.LASF141
 4784 15d3 0A       		.byte	0xa
 4785 15d4 10       		.byte	0x10
 4786 15d5 20040000 		.4byte	0x420
 4787 15d9 05       		.uleb128 0x5
 4788 15da 03       		.byte	0x3
 4789 15db 00000000 		.4byte	last_max_pack_temp_color
 4790 15df 2A       		.uleb128 0x2a
 4791 15e0 0E050000 		.4byte	.LASF142
 4792 15e4 0A       		.byte	0xa
 4793 15e5 11       		.byte	0x11
 4794 15e6 20040000 		.4byte	0x420
 4795 15ea 05       		.uleb128 0x5
 4796 15eb 03       		.byte	0x3
 4797 15ec 00000000 		.4byte	last_state_color
 4798 15f0 2A       		.uleb128 0x2a
 4799 15f1 34060000 		.4byte	.LASF143
 4800 15f5 0A       		.byte	0xa
 4801 15f6 12       		.byte	0x12
 4802 15f7 20040000 		.4byte	0x420
 4803 15fb 05       		.uleb128 0x5
 4804 15fc 03       		.byte	0x3
 4805 15fd 00000000 		.4byte	last_glv_v_color
 4806 1601 2A       		.uleb128 0x2a
 4807 1602 8A060000 		.4byte	.LASF144
 4808 1606 0A       		.byte	0xa
 4809 1607 13       		.byte	0x13
 4810 1608 20040000 		.4byte	0x420
 4811 160c 05       		.uleb128 0x5
 4812 160d 03       		.byte	0x3
ARM GAS  C:\Users\leoja\AppData\Local\Temp\ccVHTcit.s 			page 93


 4813 160e 00000000 		.4byte	last_mc_temp_color
 4814 1612 2A       		.uleb128 0x2a
 4815 1613 0C030000 		.4byte	.LASF145
 4816 1617 0A       		.byte	0xa
 4817 1618 14       		.byte	0x14
 4818 1619 20040000 		.4byte	0x420
 4819 161d 05       		.uleb128 0x5
 4820 161e 03       		.byte	0x3
 4821 161f 00000000 		.4byte	last_motor_temp_color
 4822 1623 2B       		.uleb128 0x2b
 4823 1624 A9020000 		.4byte	.LASF146
 4824 1628 A9020000 		.4byte	.LASF146
 4825 162c 07       		.byte	0x7
 4826 162d EC02     		.2byte	0x2ec
 4827 162f 2B       		.uleb128 0x2b
 4828 1630 F6000000 		.4byte	.LASF147
 4829 1634 F6000000 		.4byte	.LASF147
 4830 1638 07       		.byte	0x7
 4831 1639 ED02     		.2byte	0x2ed
 4832 163b 2C       		.uleb128 0x2c
 4833 163c 00000000 		.4byte	.LASF148
 4834 1640 00000000 		.4byte	.LASF148
 4835 1644 0B       		.byte	0xb
 4836 1645 77       		.byte	0x77
 4837 1646 2B       		.uleb128 0x2b
 4838 1647 95040000 		.4byte	.LASF149
 4839 164b 95040000 		.4byte	.LASF149
 4840 164f 07       		.byte	0x7
 4841 1650 F702     		.2byte	0x2f7
 4842 1652 2C       		.uleb128 0x2c
 4843 1653 AE040000 		.4byte	.LASF150
 4844 1657 AE040000 		.4byte	.LASF150
 4845 165b 0C       		.byte	0xc
 4846 165c E7       		.byte	0xe7
 4847 165d 2B       		.uleb128 0x2b
 4848 165e 85020000 		.4byte	.LASF151
 4849 1662 85020000 		.4byte	.LASF151
 4850 1666 07       		.byte	0x7
 4851 1667 F802     		.2byte	0x2f8
 4852 1669 2B       		.uleb128 0x2b
 4853 166a 13070000 		.4byte	.LASF152
 4854 166e 13070000 		.4byte	.LASF152
 4855 1672 07       		.byte	0x7
 4856 1673 EB02     		.2byte	0x2eb
 4857 1675 00       		.byte	0
 4858              		.section	.debug_abbrev,"",%progbits
 4859              	.Ldebug_abbrev0:
 4860 0000 01       		.uleb128 0x1
 4861 0001 11       		.uleb128 0x11
 4862 0002 01       		.byte	0x1
 4863 0003 25       		.uleb128 0x25
 4864 0004 0E       		.uleb128 0xe
 4865 0005 13       		.uleb128 0x13
 4866 0006 0B       		.uleb128 0xb
 4867 0007 03       		.uleb128 0x3
 4868 0008 0E       		.uleb128 0xe
 4869 0009 1B       		.uleb128 0x1b
ARM GAS  C:\Users\leoja\AppData\Local\Temp\ccVHTcit.s 			page 94


 4870 000a 0E       		.uleb128 0xe
 4871 000b 55       		.uleb128 0x55
 4872 000c 17       		.uleb128 0x17
 4873 000d 11       		.uleb128 0x11
 4874 000e 01       		.uleb128 0x1
 4875 000f 10       		.uleb128 0x10
 4876 0010 17       		.uleb128 0x17
 4877 0011 00       		.byte	0
 4878 0012 00       		.byte	0
 4879 0013 02       		.uleb128 0x2
 4880 0014 24       		.uleb128 0x24
 4881 0015 00       		.byte	0
 4882 0016 0B       		.uleb128 0xb
 4883 0017 0B       		.uleb128 0xb
 4884 0018 3E       		.uleb128 0x3e
 4885 0019 0B       		.uleb128 0xb
 4886 001a 03       		.uleb128 0x3
 4887 001b 0E       		.uleb128 0xe
 4888 001c 00       		.byte	0
 4889 001d 00       		.byte	0
 4890 001e 03       		.uleb128 0x3
 4891 001f 16       		.uleb128 0x16
 4892 0020 00       		.byte	0
 4893 0021 03       		.uleb128 0x3
 4894 0022 0E       		.uleb128 0xe
 4895 0023 3A       		.uleb128 0x3a
 4896 0024 0B       		.uleb128 0xb
 4897 0025 3B       		.uleb128 0x3b
 4898 0026 0B       		.uleb128 0xb
 4899 0027 49       		.uleb128 0x49
 4900 0028 13       		.uleb128 0x13
 4901 0029 00       		.byte	0
 4902 002a 00       		.byte	0
 4903 002b 04       		.uleb128 0x4
 4904 002c 24       		.uleb128 0x24
 4905 002d 00       		.byte	0
 4906 002e 0B       		.uleb128 0xb
 4907 002f 0B       		.uleb128 0xb
 4908 0030 3E       		.uleb128 0x3e
 4909 0031 0B       		.uleb128 0xb
 4910 0032 03       		.uleb128 0x3
 4911 0033 08       		.uleb128 0x8
 4912 0034 00       		.byte	0
 4913 0035 00       		.byte	0
 4914 0036 05       		.uleb128 0x5
 4915 0037 16       		.uleb128 0x16
 4916 0038 00       		.byte	0
 4917 0039 03       		.uleb128 0x3
 4918 003a 0E       		.uleb128 0xe
 4919 003b 3A       		.uleb128 0x3a
 4920 003c 0B       		.uleb128 0xb
 4921 003d 3B       		.uleb128 0x3b
 4922 003e 05       		.uleb128 0x5
 4923 003f 49       		.uleb128 0x49
 4924 0040 13       		.uleb128 0x13
 4925 0041 00       		.byte	0
 4926 0042 00       		.byte	0
ARM GAS  C:\Users\leoja\AppData\Local\Temp\ccVHTcit.s 			page 95


 4927 0043 06       		.uleb128 0x6
 4928 0044 0F       		.uleb128 0xf
 4929 0045 00       		.byte	0
 4930 0046 0B       		.uleb128 0xb
 4931 0047 0B       		.uleb128 0xb
 4932 0048 00       		.byte	0
 4933 0049 00       		.byte	0
 4934 004a 07       		.uleb128 0x7
 4935 004b 0F       		.uleb128 0xf
 4936 004c 00       		.byte	0
 4937 004d 0B       		.uleb128 0xb
 4938 004e 0B       		.uleb128 0xb
 4939 004f 49       		.uleb128 0x49
 4940 0050 13       		.uleb128 0x13
 4941 0051 00       		.byte	0
 4942 0052 00       		.byte	0
 4943 0053 08       		.uleb128 0x8
 4944 0054 04       		.uleb128 0x4
 4945 0055 01       		.byte	0x1
 4946 0056 0B       		.uleb128 0xb
 4947 0057 0B       		.uleb128 0xb
 4948 0058 49       		.uleb128 0x49
 4949 0059 13       		.uleb128 0x13
 4950 005a 3A       		.uleb128 0x3a
 4951 005b 0B       		.uleb128 0xb
 4952 005c 3B       		.uleb128 0x3b
 4953 005d 0B       		.uleb128 0xb
 4954 005e 01       		.uleb128 0x1
 4955 005f 13       		.uleb128 0x13
 4956 0060 00       		.byte	0
 4957 0061 00       		.byte	0
 4958 0062 09       		.uleb128 0x9
 4959 0063 28       		.uleb128 0x28
 4960 0064 00       		.byte	0
 4961 0065 03       		.uleb128 0x3
 4962 0066 08       		.uleb128 0x8
 4963 0067 1C       		.uleb128 0x1c
 4964 0068 0B       		.uleb128 0xb
 4965 0069 00       		.byte	0
 4966 006a 00       		.byte	0
 4967 006b 0A       		.uleb128 0xa
 4968 006c 28       		.uleb128 0x28
 4969 006d 00       		.byte	0
 4970 006e 03       		.uleb128 0x3
 4971 006f 0E       		.uleb128 0xe
 4972 0070 1C       		.uleb128 0x1c
 4973 0071 0B       		.uleb128 0xb
 4974 0072 00       		.byte	0
 4975 0073 00       		.byte	0
 4976 0074 0B       		.uleb128 0xb
 4977 0075 28       		.uleb128 0x28
 4978 0076 00       		.byte	0
 4979 0077 03       		.uleb128 0x3
 4980 0078 0E       		.uleb128 0xe
 4981 0079 1C       		.uleb128 0x1c
 4982 007a 05       		.uleb128 0x5
 4983 007b 00       		.byte	0
ARM GAS  C:\Users\leoja\AppData\Local\Temp\ccVHTcit.s 			page 96


 4984 007c 00       		.byte	0
 4985 007d 0C       		.uleb128 0xc
 4986 007e 13       		.uleb128 0x13
 4987 007f 01       		.byte	0x1
 4988 0080 0B       		.uleb128 0xb
 4989 0081 0B       		.uleb128 0xb
 4990 0082 3A       		.uleb128 0x3a
 4991 0083 0B       		.uleb128 0xb
 4992 0084 3B       		.uleb128 0x3b
 4993 0085 0B       		.uleb128 0xb
 4994 0086 01       		.uleb128 0x1
 4995 0087 13       		.uleb128 0x13
 4996 0088 00       		.byte	0
 4997 0089 00       		.byte	0
 4998 008a 0D       		.uleb128 0xd
 4999 008b 0D       		.uleb128 0xd
 5000 008c 00       		.byte	0
 5001 008d 03       		.uleb128 0x3
 5002 008e 08       		.uleb128 0x8
 5003 008f 3A       		.uleb128 0x3a
 5004 0090 0B       		.uleb128 0xb
 5005 0091 3B       		.uleb128 0x3b
 5006 0092 0B       		.uleb128 0xb
 5007 0093 49       		.uleb128 0x49
 5008 0094 13       		.uleb128 0x13
 5009 0095 38       		.uleb128 0x38
 5010 0096 0B       		.uleb128 0xb
 5011 0097 00       		.byte	0
 5012 0098 00       		.byte	0
 5013 0099 0E       		.uleb128 0xe
 5014 009a 0D       		.uleb128 0xd
 5015 009b 00       		.byte	0
 5016 009c 03       		.uleb128 0x3
 5017 009d 0E       		.uleb128 0xe
 5018 009e 3A       		.uleb128 0x3a
 5019 009f 0B       		.uleb128 0xb
 5020 00a0 3B       		.uleb128 0x3b
 5021 00a1 0B       		.uleb128 0xb
 5022 00a2 49       		.uleb128 0x49
 5023 00a3 13       		.uleb128 0x13
 5024 00a4 38       		.uleb128 0x38
 5025 00a5 0B       		.uleb128 0xb
 5026 00a6 00       		.byte	0
 5027 00a7 00       		.byte	0
 5028 00a8 0F       		.uleb128 0xf
 5029 00a9 13       		.uleb128 0x13
 5030 00aa 01       		.byte	0x1
 5031 00ab 03       		.uleb128 0x3
 5032 00ac 0E       		.uleb128 0xe
 5033 00ad 0B       		.uleb128 0xb
 5034 00ae 0B       		.uleb128 0xb
 5035 00af 3A       		.uleb128 0x3a
 5036 00b0 0B       		.uleb128 0xb
 5037 00b1 3B       		.uleb128 0x3b
 5038 00b2 0B       		.uleb128 0xb
 5039 00b3 01       		.uleb128 0x1
 5040 00b4 13       		.uleb128 0x13
ARM GAS  C:\Users\leoja\AppData\Local\Temp\ccVHTcit.s 			page 97


 5041 00b5 00       		.byte	0
 5042 00b6 00       		.byte	0
 5043 00b7 10       		.uleb128 0x10
 5044 00b8 0D       		.uleb128 0xd
 5045 00b9 00       		.byte	0
 5046 00ba 03       		.uleb128 0x3
 5047 00bb 0E       		.uleb128 0xe
 5048 00bc 3A       		.uleb128 0x3a
 5049 00bd 0B       		.uleb128 0xb
 5050 00be 3B       		.uleb128 0x3b
 5051 00bf 05       		.uleb128 0x5
 5052 00c0 49       		.uleb128 0x49
 5053 00c1 13       		.uleb128 0x13
 5054 00c2 38       		.uleb128 0x38
 5055 00c3 0B       		.uleb128 0xb
 5056 00c4 00       		.byte	0
 5057 00c5 00       		.byte	0
 5058 00c6 11       		.uleb128 0x11
 5059 00c7 13       		.uleb128 0x13
 5060 00c8 01       		.byte	0x1
 5061 00c9 03       		.uleb128 0x3
 5062 00ca 0E       		.uleb128 0xe
 5063 00cb 0B       		.uleb128 0xb
 5064 00cc 0B       		.uleb128 0xb
 5065 00cd 3A       		.uleb128 0x3a
 5066 00ce 0B       		.uleb128 0xb
 5067 00cf 3B       		.uleb128 0x3b
 5068 00d0 05       		.uleb128 0x5
 5069 00d1 01       		.uleb128 0x1
 5070 00d2 13       		.uleb128 0x13
 5071 00d3 00       		.byte	0
 5072 00d4 00       		.byte	0
 5073 00d5 12       		.uleb128 0x12
 5074 00d6 0D       		.uleb128 0xd
 5075 00d7 00       		.byte	0
 5076 00d8 03       		.uleb128 0x3
 5077 00d9 08       		.uleb128 0x8
 5078 00da 3A       		.uleb128 0x3a
 5079 00db 0B       		.uleb128 0xb
 5080 00dc 3B       		.uleb128 0x3b
 5081 00dd 05       		.uleb128 0x5
 5082 00de 49       		.uleb128 0x49
 5083 00df 13       		.uleb128 0x13
 5084 00e0 38       		.uleb128 0x38
 5085 00e1 0B       		.uleb128 0xb
 5086 00e2 00       		.byte	0
 5087 00e3 00       		.byte	0
 5088 00e4 13       		.uleb128 0x13
 5089 00e5 26       		.uleb128 0x26
 5090 00e6 00       		.byte	0
 5091 00e7 49       		.uleb128 0x49
 5092 00e8 13       		.uleb128 0x13
 5093 00e9 00       		.byte	0
 5094 00ea 00       		.byte	0
 5095 00eb 14       		.uleb128 0x14
 5096 00ec 15       		.uleb128 0x15
 5097 00ed 01       		.byte	0x1
ARM GAS  C:\Users\leoja\AppData\Local\Temp\ccVHTcit.s 			page 98


 5098 00ee 27       		.uleb128 0x27
 5099 00ef 19       		.uleb128 0x19
 5100 00f0 01       		.uleb128 0x1
 5101 00f1 13       		.uleb128 0x13
 5102 00f2 00       		.byte	0
 5103 00f3 00       		.byte	0
 5104 00f4 15       		.uleb128 0x15
 5105 00f5 05       		.uleb128 0x5
 5106 00f6 00       		.byte	0
 5107 00f7 49       		.uleb128 0x49
 5108 00f8 13       		.uleb128 0x13
 5109 00f9 00       		.byte	0
 5110 00fa 00       		.byte	0
 5111 00fb 16       		.uleb128 0x16
 5112 00fc 13       		.uleb128 0x13
 5113 00fd 01       		.byte	0x1
 5114 00fe 0B       		.uleb128 0xb
 5115 00ff 0B       		.uleb128 0xb
 5116 0100 3A       		.uleb128 0x3a
 5117 0101 0B       		.uleb128 0xb
 5118 0102 3B       		.uleb128 0x3b
 5119 0103 05       		.uleb128 0x5
 5120 0104 01       		.uleb128 0x1
 5121 0105 13       		.uleb128 0x13
 5122 0106 00       		.byte	0
 5123 0107 00       		.byte	0
 5124 0108 17       		.uleb128 0x17
 5125 0109 01       		.uleb128 0x1
 5126 010a 01       		.byte	0x1
 5127 010b 49       		.uleb128 0x49
 5128 010c 13       		.uleb128 0x13
 5129 010d 01       		.uleb128 0x1
 5130 010e 13       		.uleb128 0x13
 5131 010f 00       		.byte	0
 5132 0110 00       		.byte	0
 5133 0111 18       		.uleb128 0x18
 5134 0112 21       		.uleb128 0x21
 5135 0113 00       		.byte	0
 5136 0114 49       		.uleb128 0x49
 5137 0115 13       		.uleb128 0x13
 5138 0116 2F       		.uleb128 0x2f
 5139 0117 0B       		.uleb128 0xb
 5140 0118 00       		.byte	0
 5141 0119 00       		.byte	0
 5142 011a 19       		.uleb128 0x19
 5143 011b 2E       		.uleb128 0x2e
 5144 011c 01       		.byte	0x1
 5145 011d 3F       		.uleb128 0x3f
 5146 011e 19       		.uleb128 0x19
 5147 011f 03       		.uleb128 0x3
 5148 0120 0E       		.uleb128 0xe
 5149 0121 3A       		.uleb128 0x3a
 5150 0122 0B       		.uleb128 0xb
 5151 0123 3B       		.uleb128 0x3b
 5152 0124 0B       		.uleb128 0xb
 5153 0125 11       		.uleb128 0x11
 5154 0126 01       		.uleb128 0x1
ARM GAS  C:\Users\leoja\AppData\Local\Temp\ccVHTcit.s 			page 99


 5155 0127 12       		.uleb128 0x12
 5156 0128 06       		.uleb128 0x6
 5157 0129 40       		.uleb128 0x40
 5158 012a 18       		.uleb128 0x18
 5159 012b 9742     		.uleb128 0x2117
 5160 012d 19       		.uleb128 0x19
 5161 012e 01       		.uleb128 0x1
 5162 012f 13       		.uleb128 0x13
 5163 0130 00       		.byte	0
 5164 0131 00       		.byte	0
 5165 0132 1A       		.uleb128 0x1a
 5166 0133 898201   		.uleb128 0x4109
 5167 0136 01       		.byte	0x1
 5168 0137 11       		.uleb128 0x11
 5169 0138 01       		.uleb128 0x1
 5170 0139 31       		.uleb128 0x31
 5171 013a 13       		.uleb128 0x13
 5172 013b 01       		.uleb128 0x1
 5173 013c 13       		.uleb128 0x13
 5174 013d 00       		.byte	0
 5175 013e 00       		.byte	0
 5176 013f 1B       		.uleb128 0x1b
 5177 0140 8A8201   		.uleb128 0x410a
 5178 0143 00       		.byte	0
 5179 0144 02       		.uleb128 0x2
 5180 0145 18       		.uleb128 0x18
 5181 0146 9142     		.uleb128 0x2111
 5182 0148 18       		.uleb128 0x18
 5183 0149 00       		.byte	0
 5184 014a 00       		.byte	0
 5185 014b 1C       		.uleb128 0x1c
 5186 014c 898201   		.uleb128 0x4109
 5187 014f 01       		.byte	0x1
 5188 0150 11       		.uleb128 0x11
 5189 0151 01       		.uleb128 0x1
 5190 0152 31       		.uleb128 0x31
 5191 0153 13       		.uleb128 0x13
 5192 0154 00       		.byte	0
 5193 0155 00       		.byte	0
 5194 0156 1D       		.uleb128 0x1d
 5195 0157 2E       		.uleb128 0x2e
 5196 0158 01       		.byte	0x1
 5197 0159 3F       		.uleb128 0x3f
 5198 015a 19       		.uleb128 0x19
 5199 015b 03       		.uleb128 0x3
 5200 015c 0E       		.uleb128 0xe
 5201 015d 3A       		.uleb128 0x3a
 5202 015e 0B       		.uleb128 0xb
 5203 015f 3B       		.uleb128 0x3b
 5204 0160 0B       		.uleb128 0xb
 5205 0161 27       		.uleb128 0x27
 5206 0162 19       		.uleb128 0x19
 5207 0163 11       		.uleb128 0x11
 5208 0164 01       		.uleb128 0x1
 5209 0165 12       		.uleb128 0x12
 5210 0166 06       		.uleb128 0x6
 5211 0167 40       		.uleb128 0x40
ARM GAS  C:\Users\leoja\AppData\Local\Temp\ccVHTcit.s 			page 100


 5212 0168 18       		.uleb128 0x18
 5213 0169 9742     		.uleb128 0x2117
 5214 016b 19       		.uleb128 0x19
 5215 016c 01       		.uleb128 0x1
 5216 016d 13       		.uleb128 0x13
 5217 016e 00       		.byte	0
 5218 016f 00       		.byte	0
 5219 0170 1E       		.uleb128 0x1e
 5220 0171 05       		.uleb128 0x5
 5221 0172 00       		.byte	0
 5222 0173 03       		.uleb128 0x3
 5223 0174 0E       		.uleb128 0xe
 5224 0175 3A       		.uleb128 0x3a
 5225 0176 0B       		.uleb128 0xb
 5226 0177 3B       		.uleb128 0x3b
 5227 0178 0B       		.uleb128 0xb
 5228 0179 49       		.uleb128 0x49
 5229 017a 13       		.uleb128 0x13
 5230 017b 02       		.uleb128 0x2
 5231 017c 17       		.uleb128 0x17
 5232 017d 00       		.byte	0
 5233 017e 00       		.byte	0
 5234 017f 1F       		.uleb128 0x1f
 5235 0180 34       		.uleb128 0x34
 5236 0181 00       		.byte	0
 5237 0182 03       		.uleb128 0x3
 5238 0183 0E       		.uleb128 0xe
 5239 0184 3A       		.uleb128 0x3a
 5240 0185 0B       		.uleb128 0xb
 5241 0186 3B       		.uleb128 0x3b
 5242 0187 0B       		.uleb128 0xb
 5243 0188 49       		.uleb128 0x49
 5244 0189 13       		.uleb128 0x13
 5245 018a 02       		.uleb128 0x2
 5246 018b 17       		.uleb128 0x17
 5247 018c 00       		.byte	0
 5248 018d 00       		.byte	0
 5249 018e 20       		.uleb128 0x20
 5250 018f 0B       		.uleb128 0xb
 5251 0190 01       		.byte	0x1
 5252 0191 11       		.uleb128 0x11
 5253 0192 01       		.uleb128 0x1
 5254 0193 12       		.uleb128 0x12
 5255 0194 06       		.uleb128 0x6
 5256 0195 01       		.uleb128 0x1
 5257 0196 13       		.uleb128 0x13
 5258 0197 00       		.byte	0
 5259 0198 00       		.byte	0
 5260 0199 21       		.uleb128 0x21
 5261 019a 34       		.uleb128 0x34
 5262 019b 00       		.byte	0
 5263 019c 03       		.uleb128 0x3
 5264 019d 0E       		.uleb128 0xe
 5265 019e 3A       		.uleb128 0x3a
 5266 019f 0B       		.uleb128 0xb
 5267 01a0 3B       		.uleb128 0x3b
 5268 01a1 0B       		.uleb128 0xb
ARM GAS  C:\Users\leoja\AppData\Local\Temp\ccVHTcit.s 			page 101


 5269 01a2 49       		.uleb128 0x49
 5270 01a3 13       		.uleb128 0x13
 5271 01a4 02       		.uleb128 0x2
 5272 01a5 18       		.uleb128 0x18
 5273 01a6 00       		.byte	0
 5274 01a7 00       		.byte	0
 5275 01a8 22       		.uleb128 0x22
 5276 01a9 898201   		.uleb128 0x4109
 5277 01ac 00       		.byte	0
 5278 01ad 11       		.uleb128 0x11
 5279 01ae 01       		.uleb128 0x1
 5280 01af 31       		.uleb128 0x31
 5281 01b0 13       		.uleb128 0x13
 5282 01b1 00       		.byte	0
 5283 01b2 00       		.byte	0
 5284 01b3 23       		.uleb128 0x23
 5285 01b4 34       		.uleb128 0x34
 5286 01b5 00       		.byte	0
 5287 01b6 03       		.uleb128 0x3
 5288 01b7 0E       		.uleb128 0xe
 5289 01b8 3A       		.uleb128 0x3a
 5290 01b9 0B       		.uleb128 0xb
 5291 01ba 3B       		.uleb128 0x3b
 5292 01bb 05       		.uleb128 0x5
 5293 01bc 49       		.uleb128 0x49
 5294 01bd 13       		.uleb128 0x13
 5295 01be 02       		.uleb128 0x2
 5296 01bf 18       		.uleb128 0x18
 5297 01c0 00       		.byte	0
 5298 01c1 00       		.byte	0
 5299 01c2 24       		.uleb128 0x24
 5300 01c3 2E       		.uleb128 0x2e
 5301 01c4 01       		.byte	0x1
 5302 01c5 3F       		.uleb128 0x3f
 5303 01c6 19       		.uleb128 0x19
 5304 01c7 03       		.uleb128 0x3
 5305 01c8 0E       		.uleb128 0xe
 5306 01c9 3A       		.uleb128 0x3a
 5307 01ca 0B       		.uleb128 0xb
 5308 01cb 3B       		.uleb128 0x3b
 5309 01cc 05       		.uleb128 0x5
 5310 01cd 27       		.uleb128 0x27
 5311 01ce 19       		.uleb128 0x19
 5312 01cf 11       		.uleb128 0x11
 5313 01d0 01       		.uleb128 0x1
 5314 01d1 12       		.uleb128 0x12
 5315 01d2 06       		.uleb128 0x6
 5316 01d3 40       		.uleb128 0x40
 5317 01d4 18       		.uleb128 0x18
 5318 01d5 9742     		.uleb128 0x2117
 5319 01d7 19       		.uleb128 0x19
 5320 01d8 01       		.uleb128 0x1
 5321 01d9 13       		.uleb128 0x13
 5322 01da 00       		.byte	0
 5323 01db 00       		.byte	0
 5324 01dc 25       		.uleb128 0x25
 5325 01dd 05       		.uleb128 0x5
ARM GAS  C:\Users\leoja\AppData\Local\Temp\ccVHTcit.s 			page 102


 5326 01de 00       		.byte	0
 5327 01df 03       		.uleb128 0x3
 5328 01e0 0E       		.uleb128 0xe
 5329 01e1 3A       		.uleb128 0x3a
 5330 01e2 0B       		.uleb128 0xb
 5331 01e3 3B       		.uleb128 0x3b
 5332 01e4 05       		.uleb128 0x5
 5333 01e5 49       		.uleb128 0x49
 5334 01e6 13       		.uleb128 0x13
 5335 01e7 02       		.uleb128 0x2
 5336 01e8 17       		.uleb128 0x17
 5337 01e9 00       		.byte	0
 5338 01ea 00       		.byte	0
 5339 01eb 26       		.uleb128 0x26
 5340 01ec 0B       		.uleb128 0xb
 5341 01ed 01       		.byte	0x1
 5342 01ee 11       		.uleb128 0x11
 5343 01ef 01       		.uleb128 0x1
 5344 01f0 12       		.uleb128 0x12
 5345 01f1 06       		.uleb128 0x6
 5346 01f2 00       		.byte	0
 5347 01f3 00       		.byte	0
 5348 01f4 27       		.uleb128 0x27
 5349 01f5 34       		.uleb128 0x34
 5350 01f6 00       		.byte	0
 5351 01f7 03       		.uleb128 0x3
 5352 01f8 0E       		.uleb128 0xe
 5353 01f9 3A       		.uleb128 0x3a
 5354 01fa 0B       		.uleb128 0xb
 5355 01fb 3B       		.uleb128 0x3b
 5356 01fc 05       		.uleb128 0x5
 5357 01fd 49       		.uleb128 0x49
 5358 01fe 13       		.uleb128 0x13
 5359 01ff 3F       		.uleb128 0x3f
 5360 0200 19       		.uleb128 0x19
 5361 0201 3C       		.uleb128 0x3c
 5362 0202 19       		.uleb128 0x19
 5363 0203 00       		.byte	0
 5364 0204 00       		.byte	0
 5365 0205 28       		.uleb128 0x28
 5366 0206 35       		.uleb128 0x35
 5367 0207 00       		.byte	0
 5368 0208 49       		.uleb128 0x49
 5369 0209 13       		.uleb128 0x13
 5370 020a 00       		.byte	0
 5371 020b 00       		.byte	0
 5372 020c 29       		.uleb128 0x29
 5373 020d 34       		.uleb128 0x34
 5374 020e 00       		.byte	0
 5375 020f 03       		.uleb128 0x3
 5376 0210 0E       		.uleb128 0xe
 5377 0211 3A       		.uleb128 0x3a
 5378 0212 0B       		.uleb128 0xb
 5379 0213 3B       		.uleb128 0x3b
 5380 0214 0B       		.uleb128 0xb
 5381 0215 49       		.uleb128 0x49
 5382 0216 13       		.uleb128 0x13
ARM GAS  C:\Users\leoja\AppData\Local\Temp\ccVHTcit.s 			page 103


 5383 0217 3F       		.uleb128 0x3f
 5384 0218 19       		.uleb128 0x19
 5385 0219 3C       		.uleb128 0x3c
 5386 021a 19       		.uleb128 0x19
 5387 021b 00       		.byte	0
 5388 021c 00       		.byte	0
 5389 021d 2A       		.uleb128 0x2a
 5390 021e 34       		.uleb128 0x34
 5391 021f 00       		.byte	0
 5392 0220 03       		.uleb128 0x3
 5393 0221 0E       		.uleb128 0xe
 5394 0222 3A       		.uleb128 0x3a
 5395 0223 0B       		.uleb128 0xb
 5396 0224 3B       		.uleb128 0x3b
 5397 0225 0B       		.uleb128 0xb
 5398 0226 49       		.uleb128 0x49
 5399 0227 13       		.uleb128 0x13
 5400 0228 3F       		.uleb128 0x3f
 5401 0229 19       		.uleb128 0x19
 5402 022a 02       		.uleb128 0x2
 5403 022b 18       		.uleb128 0x18
 5404 022c 00       		.byte	0
 5405 022d 00       		.byte	0
 5406 022e 2B       		.uleb128 0x2b
 5407 022f 2E       		.uleb128 0x2e
 5408 0230 00       		.byte	0
 5409 0231 3F       		.uleb128 0x3f
 5410 0232 19       		.uleb128 0x19
 5411 0233 3C       		.uleb128 0x3c
 5412 0234 19       		.uleb128 0x19
 5413 0235 6E       		.uleb128 0x6e
 5414 0236 0E       		.uleb128 0xe
 5415 0237 03       		.uleb128 0x3
 5416 0238 0E       		.uleb128 0xe
 5417 0239 3A       		.uleb128 0x3a
 5418 023a 0B       		.uleb128 0xb
 5419 023b 3B       		.uleb128 0x3b
 5420 023c 05       		.uleb128 0x5
 5421 023d 00       		.byte	0
 5422 023e 00       		.byte	0
 5423 023f 2C       		.uleb128 0x2c
 5424 0240 2E       		.uleb128 0x2e
 5425 0241 00       		.byte	0
 5426 0242 3F       		.uleb128 0x3f
 5427 0243 19       		.uleb128 0x19
 5428 0244 3C       		.uleb128 0x3c
 5429 0245 19       		.uleb128 0x19
 5430 0246 6E       		.uleb128 0x6e
 5431 0247 0E       		.uleb128 0xe
 5432 0248 03       		.uleb128 0x3
 5433 0249 0E       		.uleb128 0xe
 5434 024a 3A       		.uleb128 0x3a
 5435 024b 0B       		.uleb128 0xb
 5436 024c 3B       		.uleb128 0x3b
 5437 024d 0B       		.uleb128 0xb
 5438 024e 00       		.byte	0
 5439 024f 00       		.byte	0
ARM GAS  C:\Users\leoja\AppData\Local\Temp\ccVHTcit.s 			page 104


 5440 0250 00       		.byte	0
 5441              		.section	.debug_loc,"",%progbits
 5442              	.Ldebug_loc0:
 5443              	.LLST0:
 5444 0000 00000000 		.4byte	.LVL13
 5445 0004 08000000 		.4byte	.LVL14
 5446 0008 0100     		.2byte	0x1
 5447 000a 50       		.byte	0x50
 5448 000b 08000000 		.4byte	.LVL14
 5449 000f 08010000 		.4byte	.LFE66
 5450 0013 0400     		.2byte	0x4
 5451 0015 F3       		.byte	0xf3
 5452 0016 01       		.uleb128 0x1
 5453 0017 50       		.byte	0x50
 5454 0018 9F       		.byte	0x9f
 5455 0019 00000000 		.4byte	0
 5456 001d 00000000 		.4byte	0
 5457              	.LLST1:
 5458 0021 10000000 		.4byte	.LVL16
 5459 0025 44000000 		.4byte	.LVL19
 5460 0029 0400     		.2byte	0x4
 5461 002b 0A       		.byte	0xa
 5462 002c 00FF     		.2byte	0xff00
 5463 002e 9F       		.byte	0x9f
 5464 002f 70000000 		.4byte	.LVL21
 5465 0033 A6000000 		.4byte	.LVL24
 5466 0037 0100     		.2byte	0x1
 5467 0039 54       		.byte	0x54
 5468 003a B2000000 		.4byte	.LVL25
 5469 003e E0000000 		.4byte	.LVL28
 5470 0042 0500     		.2byte	0x5
 5471 0044 08       		.byte	0x8
 5472 0045 FF       		.byte	0xff
 5473 0046 40       		.byte	0x40
 5474 0047 24       		.byte	0x24
 5475 0048 9F       		.byte	0x9f
 5476 0049 00000000 		.4byte	0
 5477 004d 00000000 		.4byte	0
 5478              	.LLST2:
 5479 0051 00000000 		.4byte	.LVL30
 5480 0055 22000000 		.4byte	.LVL32
 5481 0059 0100     		.2byte	0x1
 5482 005b 50       		.byte	0x50
 5483 005c 22000000 		.4byte	.LVL32
 5484 0060 3E000000 		.4byte	.LVL35
 5485 0064 0400     		.2byte	0x4
 5486 0066 F3       		.byte	0xf3
 5487 0067 01       		.uleb128 0x1
 5488 0068 50       		.byte	0x50
 5489 0069 9F       		.byte	0x9f
 5490 006a 3E000000 		.4byte	.LVL35
 5491 006e 4A000000 		.4byte	.LVL36
 5492 0072 0100     		.2byte	0x1
 5493 0074 50       		.byte	0x50
 5494 0075 4A000000 		.4byte	.LVL36
 5495 0079 B4000000 		.4byte	.LFE67
 5496 007d 0400     		.2byte	0x4
ARM GAS  C:\Users\leoja\AppData\Local\Temp\ccVHTcit.s 			page 105


 5497 007f F3       		.byte	0xf3
 5498 0080 01       		.uleb128 0x1
 5499 0081 50       		.byte	0x50
 5500 0082 9F       		.byte	0x9f
 5501 0083 00000000 		.4byte	0
 5502 0087 00000000 		.4byte	0
 5503              	.LLST3:
 5504 008b 12000000 		.4byte	.LVL31
 5505 008f 3E000000 		.4byte	.LVL35
 5506 0093 0500     		.2byte	0x5
 5507 0095 08       		.byte	0x8
 5508 0096 FF       		.byte	0xff
 5509 0097 40       		.byte	0x40
 5510 0098 24       		.byte	0x24
 5511 0099 9F       		.byte	0x9f
 5512 009a 4A000000 		.4byte	.LVL36
 5513 009e 9C000000 		.4byte	.LVL42
 5514 00a2 0100     		.2byte	0x1
 5515 00a4 54       		.byte	0x54
 5516 00a5 00000000 		.4byte	0
 5517 00a9 00000000 		.4byte	0
 5518              	.LLST4:
 5519 00ad 00000000 		.4byte	.LVL43
 5520 00b1 18000000 		.4byte	.LVL44
 5521 00b5 0100     		.2byte	0x1
 5522 00b7 50       		.byte	0x50
 5523 00b8 18000000 		.4byte	.LVL44
 5524 00bc 24000000 		.4byte	.LVL46
 5525 00c0 0100     		.2byte	0x1
 5526 00c2 54       		.byte	0x54
 5527 00c3 24000000 		.4byte	.LVL46
 5528 00c7 2C000000 		.4byte	.LFE69
 5529 00cb 0100     		.2byte	0x1
 5530 00cd 50       		.byte	0x50
 5531 00ce 00000000 		.4byte	0
 5532 00d2 00000000 		.4byte	0
 5533              	.LLST5:
 5534 00d6 00000000 		.4byte	.LVL47
 5535 00da 32000000 		.4byte	.LVL49
 5536 00de 0100     		.2byte	0x1
 5537 00e0 50       		.byte	0x50
 5538 00e1 32000000 		.4byte	.LVL49
 5539 00e5 4A000000 		.4byte	.LVL52
 5540 00e9 0400     		.2byte	0x4
 5541 00eb F3       		.byte	0xf3
 5542 00ec 01       		.uleb128 0x1
 5543 00ed 50       		.byte	0x50
 5544 00ee 9F       		.byte	0x9f
 5545 00ef 4A000000 		.4byte	.LVL52
 5546 00f3 4E000000 		.4byte	.LVL53
 5547 00f7 0100     		.2byte	0x1
 5548 00f9 50       		.byte	0x50
 5549 00fa 4E000000 		.4byte	.LVL53
 5550 00fe 66000000 		.4byte	.LVL56
 5551 0102 0400     		.2byte	0x4
 5552 0104 F3       		.byte	0xf3
 5553 0105 01       		.uleb128 0x1
ARM GAS  C:\Users\leoja\AppData\Local\Temp\ccVHTcit.s 			page 106


 5554 0106 50       		.byte	0x50
 5555 0107 9F       		.byte	0x9f
 5556 0108 66000000 		.4byte	.LVL56
 5557 010c 6A000000 		.4byte	.LVL57
 5558 0110 0100     		.2byte	0x1
 5559 0112 50       		.byte	0x50
 5560 0113 6A000000 		.4byte	.LVL57
 5561 0117 82000000 		.4byte	.LVL60
 5562 011b 0400     		.2byte	0x4
 5563 011d F3       		.byte	0xf3
 5564 011e 01       		.uleb128 0x1
 5565 011f 50       		.byte	0x50
 5566 0120 9F       		.byte	0x9f
 5567 0121 82000000 		.4byte	.LVL60
 5568 0125 86000000 		.4byte	.LVL61
 5569 0129 0100     		.2byte	0x1
 5570 012b 50       		.byte	0x50
 5571 012c 86000000 		.4byte	.LVL61
 5572 0130 9E000000 		.4byte	.LVL64
 5573 0134 0400     		.2byte	0x4
 5574 0136 F3       		.byte	0xf3
 5575 0137 01       		.uleb128 0x1
 5576 0138 50       		.byte	0x50
 5577 0139 9F       		.byte	0x9f
 5578 013a 9E000000 		.4byte	.LVL64
 5579 013e A2000000 		.4byte	.LVL65
 5580 0142 0100     		.2byte	0x1
 5581 0144 50       		.byte	0x50
 5582 0145 A2000000 		.4byte	.LVL65
 5583 0149 BA000000 		.4byte	.LVL68
 5584 014d 0400     		.2byte	0x4
 5585 014f F3       		.byte	0xf3
 5586 0150 01       		.uleb128 0x1
 5587 0151 50       		.byte	0x50
 5588 0152 9F       		.byte	0x9f
 5589 0153 BA000000 		.4byte	.LVL68
 5590 0157 BE000000 		.4byte	.LVL69
 5591 015b 0100     		.2byte	0x1
 5592 015d 50       		.byte	0x50
 5593 015e BE000000 		.4byte	.LVL69
 5594 0162 D6000000 		.4byte	.LVL72
 5595 0166 0400     		.2byte	0x4
 5596 0168 F3       		.byte	0xf3
 5597 0169 01       		.uleb128 0x1
 5598 016a 50       		.byte	0x50
 5599 016b 9F       		.byte	0x9f
 5600 016c D6000000 		.4byte	.LVL72
 5601 0170 FA000000 		.4byte	.LVL76
 5602 0174 0100     		.2byte	0x1
 5603 0176 50       		.byte	0x50
 5604 0177 FA000000 		.4byte	.LVL76
 5605 017b 0E010000 		.4byte	.LVL79
 5606 017f 0400     		.2byte	0x4
 5607 0181 F3       		.byte	0xf3
 5608 0182 01       		.uleb128 0x1
 5609 0183 50       		.byte	0x50
 5610 0184 9F       		.byte	0x9f
ARM GAS  C:\Users\leoja\AppData\Local\Temp\ccVHTcit.s 			page 107


 5611 0185 0E010000 		.4byte	.LVL79
 5612 0189 12010000 		.4byte	.LVL80
 5613 018d 0100     		.2byte	0x1
 5614 018f 50       		.byte	0x50
 5615 0190 12010000 		.4byte	.LVL80
 5616 0194 2A010000 		.4byte	.LVL83
 5617 0198 0400     		.2byte	0x4
 5618 019a F3       		.byte	0xf3
 5619 019b 01       		.uleb128 0x1
 5620 019c 50       		.byte	0x50
 5621 019d 9F       		.byte	0x9f
 5622 019e 2A010000 		.4byte	.LVL83
 5623 01a2 2E010000 		.4byte	.LVL84
 5624 01a6 0100     		.2byte	0x1
 5625 01a8 50       		.byte	0x50
 5626 01a9 2E010000 		.4byte	.LVL84
 5627 01ad 46010000 		.4byte	.LVL87
 5628 01b1 0400     		.2byte	0x4
 5629 01b3 F3       		.byte	0xf3
 5630 01b4 01       		.uleb128 0x1
 5631 01b5 50       		.byte	0x50
 5632 01b6 9F       		.byte	0x9f
 5633 01b7 46010000 		.4byte	.LVL87
 5634 01bb 4A010000 		.4byte	.LVL88
 5635 01bf 0100     		.2byte	0x1
 5636 01c1 50       		.byte	0x50
 5637 01c2 4A010000 		.4byte	.LVL88
 5638 01c6 62010000 		.4byte	.LVL91
 5639 01ca 0400     		.2byte	0x4
 5640 01cc F3       		.byte	0xf3
 5641 01cd 01       		.uleb128 0x1
 5642 01ce 50       		.byte	0x50
 5643 01cf 9F       		.byte	0x9f
 5644 01d0 62010000 		.4byte	.LVL91
 5645 01d4 66010000 		.4byte	.LVL92
 5646 01d8 0100     		.2byte	0x1
 5647 01da 50       		.byte	0x50
 5648 01db 66010000 		.4byte	.LVL92
 5649 01df 7E010000 		.4byte	.LVL95
 5650 01e3 0400     		.2byte	0x4
 5651 01e5 F3       		.byte	0xf3
 5652 01e6 01       		.uleb128 0x1
 5653 01e7 50       		.byte	0x50
 5654 01e8 9F       		.byte	0x9f
 5655 01e9 7E010000 		.4byte	.LVL95
 5656 01ed 82010000 		.4byte	.LVL96
 5657 01f1 0100     		.2byte	0x1
 5658 01f3 50       		.byte	0x50
 5659 01f4 82010000 		.4byte	.LVL96
 5660 01f8 9A010000 		.4byte	.LVL99
 5661 01fc 0400     		.2byte	0x4
 5662 01fe F3       		.byte	0xf3
 5663 01ff 01       		.uleb128 0x1
 5664 0200 50       		.byte	0x50
 5665 0201 9F       		.byte	0x9f
 5666 0202 9A010000 		.4byte	.LVL99
 5667 0206 9E010000 		.4byte	.LVL101
ARM GAS  C:\Users\leoja\AppData\Local\Temp\ccVHTcit.s 			page 108


 5668 020a 0100     		.2byte	0x1
 5669 020c 50       		.byte	0x50
 5670 020d 9E010000 		.4byte	.LVL101
 5671 0211 B2010000 		.4byte	.LVL104
 5672 0215 0400     		.2byte	0x4
 5673 0217 F3       		.byte	0xf3
 5674 0218 01       		.uleb128 0x1
 5675 0219 50       		.byte	0x50
 5676 021a 9F       		.byte	0x9f
 5677 021b B2010000 		.4byte	.LVL104
 5678 021f B6010000 		.4byte	.LVL105
 5679 0223 0100     		.2byte	0x1
 5680 0225 50       		.byte	0x50
 5681 0226 B6010000 		.4byte	.LVL105
 5682 022a CE010000 		.4byte	.LVL108
 5683 022e 0400     		.2byte	0x4
 5684 0230 F3       		.byte	0xf3
 5685 0231 01       		.uleb128 0x1
 5686 0232 50       		.byte	0x50
 5687 0233 9F       		.byte	0x9f
 5688 0234 CE010000 		.4byte	.LVL108
 5689 0238 D2010000 		.4byte	.LVL109
 5690 023c 0100     		.2byte	0x1
 5691 023e 50       		.byte	0x50
 5692 023f D2010000 		.4byte	.LVL109
 5693 0243 EA010000 		.4byte	.LVL112
 5694 0247 0400     		.2byte	0x4
 5695 0249 F3       		.byte	0xf3
 5696 024a 01       		.uleb128 0x1
 5697 024b 50       		.byte	0x50
 5698 024c 9F       		.byte	0x9f
 5699 024d EA010000 		.4byte	.LVL112
 5700 0251 EE010000 		.4byte	.LVL113
 5701 0255 0100     		.2byte	0x1
 5702 0257 50       		.byte	0x50
 5703 0258 EE010000 		.4byte	.LVL113
 5704 025c A0020000 		.4byte	.LFE68
 5705 0260 0400     		.2byte	0x4
 5706 0262 F3       		.byte	0xf3
 5707 0263 01       		.uleb128 0x1
 5708 0264 50       		.byte	0x50
 5709 0265 9F       		.byte	0x9f
 5710 0266 00000000 		.4byte	0
 5711 026a 00000000 		.4byte	0
 5712              	.LLST6:
 5713 026e 00000000 		.4byte	.LVL47
 5714 0272 35000000 		.4byte	.LVL50-1
 5715 0276 0100     		.2byte	0x1
 5716 0278 51       		.byte	0x51
 5717 0279 35000000 		.4byte	.LVL50-1
 5718 027d 4A000000 		.4byte	.LVL52
 5719 0281 0400     		.2byte	0x4
 5720 0283 F3       		.byte	0xf3
 5721 0284 01       		.uleb128 0x1
 5722 0285 51       		.byte	0x51
 5723 0286 9F       		.byte	0x9f
 5724 0287 4A000000 		.4byte	.LVL52
ARM GAS  C:\Users\leoja\AppData\Local\Temp\ccVHTcit.s 			page 109


 5725 028b 51000000 		.4byte	.LVL54-1
 5726 028f 0100     		.2byte	0x1
 5727 0291 51       		.byte	0x51
 5728 0292 51000000 		.4byte	.LVL54-1
 5729 0296 66000000 		.4byte	.LVL56
 5730 029a 0400     		.2byte	0x4
 5731 029c F3       		.byte	0xf3
 5732 029d 01       		.uleb128 0x1
 5733 029e 51       		.byte	0x51
 5734 029f 9F       		.byte	0x9f
 5735 02a0 66000000 		.4byte	.LVL56
 5736 02a4 6D000000 		.4byte	.LVL58-1
 5737 02a8 0100     		.2byte	0x1
 5738 02aa 51       		.byte	0x51
 5739 02ab 6D000000 		.4byte	.LVL58-1
 5740 02af 82000000 		.4byte	.LVL60
 5741 02b3 0400     		.2byte	0x4
 5742 02b5 F3       		.byte	0xf3
 5743 02b6 01       		.uleb128 0x1
 5744 02b7 51       		.byte	0x51
 5745 02b8 9F       		.byte	0x9f
 5746 02b9 82000000 		.4byte	.LVL60
 5747 02bd 89000000 		.4byte	.LVL62-1
 5748 02c1 0100     		.2byte	0x1
 5749 02c3 51       		.byte	0x51
 5750 02c4 89000000 		.4byte	.LVL62-1
 5751 02c8 9E000000 		.4byte	.LVL64
 5752 02cc 0400     		.2byte	0x4
 5753 02ce F3       		.byte	0xf3
 5754 02cf 01       		.uleb128 0x1
 5755 02d0 51       		.byte	0x51
 5756 02d1 9F       		.byte	0x9f
 5757 02d2 9E000000 		.4byte	.LVL64
 5758 02d6 A5000000 		.4byte	.LVL66-1
 5759 02da 0100     		.2byte	0x1
 5760 02dc 51       		.byte	0x51
 5761 02dd A5000000 		.4byte	.LVL66-1
 5762 02e1 BA000000 		.4byte	.LVL68
 5763 02e5 0400     		.2byte	0x4
 5764 02e7 F3       		.byte	0xf3
 5765 02e8 01       		.uleb128 0x1
 5766 02e9 51       		.byte	0x51
 5767 02ea 9F       		.byte	0x9f
 5768 02eb BA000000 		.4byte	.LVL68
 5769 02ef C1000000 		.4byte	.LVL70-1
 5770 02f3 0100     		.2byte	0x1
 5771 02f5 51       		.byte	0x51
 5772 02f6 C1000000 		.4byte	.LVL70-1
 5773 02fa D6000000 		.4byte	.LVL72
 5774 02fe 0400     		.2byte	0x4
 5775 0300 F3       		.byte	0xf3
 5776 0301 01       		.uleb128 0x1
 5777 0302 51       		.byte	0x51
 5778 0303 9F       		.byte	0x9f
 5779 0304 D6000000 		.4byte	.LVL72
 5780 0308 FD000000 		.4byte	.LVL77-1
 5781 030c 0100     		.2byte	0x1
ARM GAS  C:\Users\leoja\AppData\Local\Temp\ccVHTcit.s 			page 110


 5782 030e 51       		.byte	0x51
 5783 030f FD000000 		.4byte	.LVL77-1
 5784 0313 0E010000 		.4byte	.LVL79
 5785 0317 0400     		.2byte	0x4
 5786 0319 F3       		.byte	0xf3
 5787 031a 01       		.uleb128 0x1
 5788 031b 51       		.byte	0x51
 5789 031c 9F       		.byte	0x9f
 5790 031d 0E010000 		.4byte	.LVL79
 5791 0321 15010000 		.4byte	.LVL81-1
 5792 0325 0100     		.2byte	0x1
 5793 0327 51       		.byte	0x51
 5794 0328 15010000 		.4byte	.LVL81-1
 5795 032c 2A010000 		.4byte	.LVL83
 5796 0330 0400     		.2byte	0x4
 5797 0332 F3       		.byte	0xf3
 5798 0333 01       		.uleb128 0x1
 5799 0334 51       		.byte	0x51
 5800 0335 9F       		.byte	0x9f
 5801 0336 2A010000 		.4byte	.LVL83
 5802 033a 31010000 		.4byte	.LVL85-1
 5803 033e 0100     		.2byte	0x1
 5804 0340 51       		.byte	0x51
 5805 0341 31010000 		.4byte	.LVL85-1
 5806 0345 46010000 		.4byte	.LVL87
 5807 0349 0400     		.2byte	0x4
 5808 034b F3       		.byte	0xf3
 5809 034c 01       		.uleb128 0x1
 5810 034d 51       		.byte	0x51
 5811 034e 9F       		.byte	0x9f
 5812 034f 46010000 		.4byte	.LVL87
 5813 0353 4D010000 		.4byte	.LVL89-1
 5814 0357 0100     		.2byte	0x1
 5815 0359 51       		.byte	0x51
 5816 035a 4D010000 		.4byte	.LVL89-1
 5817 035e 62010000 		.4byte	.LVL91
 5818 0362 0400     		.2byte	0x4
 5819 0364 F3       		.byte	0xf3
 5820 0365 01       		.uleb128 0x1
 5821 0366 51       		.byte	0x51
 5822 0367 9F       		.byte	0x9f
 5823 0368 62010000 		.4byte	.LVL91
 5824 036c 69010000 		.4byte	.LVL93-1
 5825 0370 0100     		.2byte	0x1
 5826 0372 51       		.byte	0x51
 5827 0373 69010000 		.4byte	.LVL93-1
 5828 0377 7E010000 		.4byte	.LVL95
 5829 037b 0400     		.2byte	0x4
 5830 037d F3       		.byte	0xf3
 5831 037e 01       		.uleb128 0x1
 5832 037f 51       		.byte	0x51
 5833 0380 9F       		.byte	0x9f
 5834 0381 7E010000 		.4byte	.LVL95
 5835 0385 85010000 		.4byte	.LVL97-1
 5836 0389 0100     		.2byte	0x1
 5837 038b 51       		.byte	0x51
 5838 038c 85010000 		.4byte	.LVL97-1
ARM GAS  C:\Users\leoja\AppData\Local\Temp\ccVHTcit.s 			page 111


 5839 0390 9A010000 		.4byte	.LVL99
 5840 0394 0400     		.2byte	0x4
 5841 0396 F3       		.byte	0xf3
 5842 0397 01       		.uleb128 0x1
 5843 0398 51       		.byte	0x51
 5844 0399 9F       		.byte	0x9f
 5845 039a 9A010000 		.4byte	.LVL99
 5846 039e A1010000 		.4byte	.LVL102-1
 5847 03a2 0100     		.2byte	0x1
 5848 03a4 51       		.byte	0x51
 5849 03a5 A1010000 		.4byte	.LVL102-1
 5850 03a9 B2010000 		.4byte	.LVL104
 5851 03ad 0400     		.2byte	0x4
 5852 03af F3       		.byte	0xf3
 5853 03b0 01       		.uleb128 0x1
 5854 03b1 51       		.byte	0x51
 5855 03b2 9F       		.byte	0x9f
 5856 03b3 B2010000 		.4byte	.LVL104
 5857 03b7 B9010000 		.4byte	.LVL106-1
 5858 03bb 0100     		.2byte	0x1
 5859 03bd 51       		.byte	0x51
 5860 03be B9010000 		.4byte	.LVL106-1
 5861 03c2 CE010000 		.4byte	.LVL108
 5862 03c6 0400     		.2byte	0x4
 5863 03c8 F3       		.byte	0xf3
 5864 03c9 01       		.uleb128 0x1
 5865 03ca 51       		.byte	0x51
 5866 03cb 9F       		.byte	0x9f
 5867 03cc CE010000 		.4byte	.LVL108
 5868 03d0 D5010000 		.4byte	.LVL110-1
 5869 03d4 0100     		.2byte	0x1
 5870 03d6 51       		.byte	0x51
 5871 03d7 D5010000 		.4byte	.LVL110-1
 5872 03db EA010000 		.4byte	.LVL112
 5873 03df 0400     		.2byte	0x4
 5874 03e1 F3       		.byte	0xf3
 5875 03e2 01       		.uleb128 0x1
 5876 03e3 51       		.byte	0x51
 5877 03e4 9F       		.byte	0x9f
 5878 03e5 EA010000 		.4byte	.LVL112
 5879 03e9 F1010000 		.4byte	.LVL114-1
 5880 03ed 0100     		.2byte	0x1
 5881 03ef 51       		.byte	0x51
 5882 03f0 F1010000 		.4byte	.LVL114-1
 5883 03f4 A0020000 		.4byte	.LFE68
 5884 03f8 0400     		.2byte	0x4
 5885 03fa F3       		.byte	0xf3
 5886 03fb 01       		.uleb128 0x1
 5887 03fc 51       		.byte	0x51
 5888 03fd 9F       		.byte	0x9f
 5889 03fe 00000000 		.4byte	0
 5890 0402 00000000 		.4byte	0
 5891              	.LLST7:
 5892 0406 2E000000 		.4byte	.LVL48
 5893 040a D6000000 		.4byte	.LVL72
 5894 040e 0500     		.2byte	0x5
 5895 0410 08       		.byte	0x8
ARM GAS  C:\Users\leoja\AppData\Local\Temp\ccVHTcit.s 			page 112


 5896 0411 FF       		.byte	0xff
 5897 0412 40       		.byte	0x40
 5898 0413 24       		.byte	0x24
 5899 0414 9F       		.byte	0x9f
 5900 0415 F6000000 		.4byte	.LVL74
 5901 0419 0E010000 		.4byte	.LVL79
 5902 041d 0600     		.2byte	0x6
 5903 041f 0C       		.byte	0xc
 5904 0420 00FFFF00 		.4byte	0xffff00
 5905 0424 9F       		.byte	0x9f
 5906 0425 0E010000 		.4byte	.LVL79
 5907 0429 9A010000 		.4byte	.LVL99
 5908 042d 0500     		.2byte	0x5
 5909 042f 08       		.byte	0x8
 5910 0430 FF       		.byte	0xff
 5911 0431 40       		.byte	0x40
 5912 0432 24       		.byte	0x24
 5913 0433 9F       		.byte	0x9f
 5914 0434 9A010000 		.4byte	.LVL99
 5915 0438 B2010000 		.4byte	.LVL104
 5916 043c 0600     		.2byte	0x6
 5917 043e 0C       		.byte	0xc
 5918 043f 00FFFF00 		.4byte	0xffff00
 5919 0443 9F       		.byte	0x9f
 5920 0444 B2010000 		.4byte	.LVL104
 5921 0448 EA010000 		.4byte	.LVL112
 5922 044c 0500     		.2byte	0x5
 5923 044e 08       		.byte	0x8
 5924 044f FF       		.byte	0xff
 5925 0450 40       		.byte	0x40
 5926 0451 24       		.byte	0x24
 5927 0452 9F       		.byte	0x9f
 5928 0453 EA010000 		.4byte	.LVL112
 5929 0457 4C020000 		.4byte	.LVL118
 5930 045b 0400     		.2byte	0x4
 5931 045d 0A       		.byte	0xa
 5932 045e 00FF     		.2byte	0xff00
 5933 0460 9F       		.byte	0x9f
 5934 0461 00000000 		.4byte	0
 5935 0465 00000000 		.4byte	0
 5936              	.LLST8:
 5937 0469 E2000000 		.4byte	.LVL73
 5938 046d F8000000 		.4byte	.LVL75
 5939 0471 0100     		.2byte	0x1
 5940 0473 54       		.byte	0x54
 5941 0474 F8000000 		.4byte	.LVL75
 5942 0478 FA000000 		.4byte	.LVL76
 5943 047c 0600     		.2byte	0x6
 5944 047e 70       		.byte	0x70
 5945 047f 00       		.sleb128 0
 5946 0480 08       		.byte	0x8
 5947 0481 7F       		.byte	0x7f
 5948 0482 1A       		.byte	0x1a
 5949 0483 9F       		.byte	0x9f
 5950 0484 0E010000 		.4byte	.LVL79
 5951 0488 9C010000 		.4byte	.LVL100
 5952 048c 0100     		.2byte	0x1
ARM GAS  C:\Users\leoja\AppData\Local\Temp\ccVHTcit.s 			page 113


 5953 048e 54       		.byte	0x54
 5954 048f 9C010000 		.4byte	.LVL100
 5955 0493 9E010000 		.4byte	.LVL101
 5956 0497 0600     		.2byte	0x6
 5957 0499 70       		.byte	0x70
 5958 049a 00       		.sleb128 0
 5959 049b 08       		.byte	0x8
 5960 049c 7F       		.byte	0x7f
 5961 049d 1A       		.byte	0x1a
 5962 049e 9F       		.byte	0x9f
 5963 049f B2010000 		.4byte	.LVL104
 5964 04a3 EA010000 		.4byte	.LVL112
 5965 04a7 0100     		.2byte	0x1
 5966 04a9 54       		.byte	0x54
 5967 04aa 00000000 		.4byte	0
 5968 04ae 00000000 		.4byte	0
 5969              	.LLST9:
 5970 04b2 00000000 		.4byte	.LVL119
 5971 04b6 0C000000 		.4byte	.LVL120
 5972 04ba 0100     		.2byte	0x1
 5973 04bc 50       		.byte	0x50
 5974 04bd 0C000000 		.4byte	.LVL120
 5975 04c1 14000000 		.4byte	.LVL121
 5976 04c5 0100     		.2byte	0x1
 5977 04c7 50       		.byte	0x50
 5978 04c8 14000000 		.4byte	.LVL121
 5979 04cc BC000000 		.4byte	.LVL127
 5980 04d0 0100     		.2byte	0x1
 5981 04d2 54       		.byte	0x54
 5982 04d3 BC000000 		.4byte	.LVL127
 5983 04d7 D0000000 		.4byte	.LFE70
 5984 04db 1F00     		.2byte	0x1f
 5985 04dd F3       		.byte	0xf3
 5986 04de 01       		.uleb128 0x1
 5987 04df 50       		.byte	0x50
 5988 04e0 0A       		.byte	0xa
 5989 04e1 5B03     		.2byte	0x35b
 5990 04e3 1E       		.byte	0x1e
 5991 04e4 F7       		.byte	0xf7
 5992 04e5 2C       		.uleb128 0x2c
 5993 04e6 F7       		.byte	0xf7
 5994 04e7 25       		.uleb128 0x25
 5995 04e8 0C       		.byte	0xc
 5996 04e9 D34D6210 		.4byte	0x10624dd3
 5997 04ed F7       		.byte	0xf7
 5998 04ee 25       		.uleb128 0x25
 5999 04ef 1E       		.byte	0x1e
 6000 04f0 08       		.byte	0x8
 6001 04f1 20       		.byte	0x20
 6002 04f2 F7       		.byte	0xf7
 6003 04f3 25       		.uleb128 0x25
 6004 04f4 25       		.byte	0x25
 6005 04f5 F7       		.byte	0xf7
 6006 04f6 2C       		.uleb128 0x2c
 6007 04f7 37       		.byte	0x37
 6008 04f8 25       		.byte	0x25
 6009 04f9 23       		.byte	0x23
ARM GAS  C:\Users\leoja\AppData\Local\Temp\ccVHTcit.s 			page 114


 6010 04fa 12       		.uleb128 0x12
 6011 04fb 9F       		.byte	0x9f
 6012 04fc 00000000 		.4byte	0
 6013 0500 00000000 		.4byte	0
 6014              	.LLST10:
 6015 0504 40000000 		.4byte	.LVL123
 6016 0508 BC000000 		.4byte	.LVL127
 6017 050c 0100     		.2byte	0x1
 6018 050e 55       		.byte	0x55
 6019 050f 00000000 		.4byte	0
 6020 0513 00000000 		.4byte	0
 6021              	.LLST11:
 6022 0517 00000000 		.4byte	.LVL128
 6023 051b 1C000000 		.4byte	.LVL129
 6024 051f 0100     		.2byte	0x1
 6025 0521 50       		.byte	0x50
 6026 0522 1C000000 		.4byte	.LVL129
 6027 0526 46000000 		.4byte	.LVL133
 6028 052a 0400     		.2byte	0x4
 6029 052c F3       		.byte	0xf3
 6030 052d 01       		.uleb128 0x1
 6031 052e 50       		.byte	0x50
 6032 052f 9F       		.byte	0x9f
 6033 0530 46000000 		.4byte	.LVL133
 6034 0534 58000000 		.4byte	.LVL134
 6035 0538 0100     		.2byte	0x1
 6036 053a 50       		.byte	0x50
 6037 053b 58000000 		.4byte	.LVL134
 6038 053f 88000000 		.4byte	.LFE71
 6039 0543 0400     		.2byte	0x4
 6040 0545 F3       		.byte	0xf3
 6041 0546 01       		.uleb128 0x1
 6042 0547 50       		.byte	0x50
 6043 0548 9F       		.byte	0x9f
 6044 0549 00000000 		.4byte	0
 6045 054d 00000000 		.4byte	0
 6046              	.LLST12:
 6047 0551 00000000 		.4byte	.LVL138
 6048 0555 1E000000 		.4byte	.LVL139
 6049 0559 0100     		.2byte	0x1
 6050 055b 50       		.byte	0x50
 6051 055c 1E000000 		.4byte	.LVL139
 6052 0560 48000000 		.4byte	.LVL143
 6053 0564 0400     		.2byte	0x4
 6054 0566 F3       		.byte	0xf3
 6055 0567 01       		.uleb128 0x1
 6056 0568 50       		.byte	0x50
 6057 0569 9F       		.byte	0x9f
 6058 056a 48000000 		.4byte	.LVL143
 6059 056e 5C000000 		.4byte	.LVL144
 6060 0572 0100     		.2byte	0x1
 6061 0574 50       		.byte	0x50
 6062 0575 5C000000 		.4byte	.LVL144
 6063 0579 8C000000 		.4byte	.LFE72
 6064 057d 0400     		.2byte	0x4
 6065 057f F3       		.byte	0xf3
 6066 0580 01       		.uleb128 0x1
ARM GAS  C:\Users\leoja\AppData\Local\Temp\ccVHTcit.s 			page 115


 6067 0581 50       		.byte	0x50
 6068 0582 9F       		.byte	0x9f
 6069 0583 00000000 		.4byte	0
 6070 0587 00000000 		.4byte	0
 6071              		.section	.debug_aranges,"",%progbits
 6072 0000 5C000000 		.4byte	0x5c
 6073 0004 0200     		.2byte	0x2
 6074 0006 00000000 		.4byte	.Ldebug_info0
 6075 000a 04       		.byte	0x4
 6076 000b 00       		.byte	0
 6077 000c 0000     		.2byte	0
 6078 000e 0000     		.2byte	0
 6079 0010 00000000 		.4byte	.LFB64
 6080 0014 74000000 		.4byte	.LFE64-.LFB64
 6081 0018 00000000 		.4byte	.LFB65
 6082 001c 64000000 		.4byte	.LFE65-.LFB65
 6083 0020 00000000 		.4byte	.LFB66
 6084 0024 08010000 		.4byte	.LFE66-.LFB66
 6085 0028 00000000 		.4byte	.LFB67
 6086 002c B4000000 		.4byte	.LFE67-.LFB67
 6087 0030 00000000 		.4byte	.LFB69
 6088 0034 2C000000 		.4byte	.LFE69-.LFB69
 6089 0038 00000000 		.4byte	.LFB68
 6090 003c A0020000 		.4byte	.LFE68-.LFB68
 6091 0040 00000000 		.4byte	.LFB70
 6092 0044 D0000000 		.4byte	.LFE70-.LFB70
 6093 0048 00000000 		.4byte	.LFB71
 6094 004c 88000000 		.4byte	.LFE71-.LFB71
 6095 0050 00000000 		.4byte	.LFB72
 6096 0054 8C000000 		.4byte	.LFE72-.LFB72
 6097 0058 00000000 		.4byte	0
 6098 005c 00000000 		.4byte	0
 6099              		.section	.debug_ranges,"",%progbits
 6100              	.Ldebug_ranges0:
 6101 0000 00000000 		.4byte	.LFB64
 6102 0004 74000000 		.4byte	.LFE64
 6103 0008 00000000 		.4byte	.LFB65
 6104 000c 64000000 		.4byte	.LFE65
 6105 0010 00000000 		.4byte	.LFB66
 6106 0014 08010000 		.4byte	.LFE66
 6107 0018 00000000 		.4byte	.LFB67
 6108 001c B4000000 		.4byte	.LFE67
 6109 0020 00000000 		.4byte	.LFB69
 6110 0024 2C000000 		.4byte	.LFE69
 6111 0028 00000000 		.4byte	.LFB68
 6112 002c A0020000 		.4byte	.LFE68
 6113 0030 00000000 		.4byte	.LFB70
 6114 0034 D0000000 		.4byte	.LFE70
 6115 0038 00000000 		.4byte	.LFB71
 6116 003c 88000000 		.4byte	.LFE71
 6117 0040 00000000 		.4byte	.LFB72
 6118 0044 8C000000 		.4byte	.LFE72
 6119 0048 00000000 		.4byte	0
 6120 004c 00000000 		.4byte	0
 6121              		.section	.debug_line,"",%progbits
 6122              	.Ldebug_line0:
 6123 0000 60030000 		.section	.debug_str,"MS",%progbits,1
ARM GAS  C:\Users\leoja\AppData\Local\Temp\ccVHTcit.s 			page 116


 6123      02001D02 
 6123      00000201 
 6123      FB0E0D00 
 6123      01010101 
 6124              	.LASF148:
 6125 0000 43794465 		.ascii	"CyDelay\000"
 6125      6C617900 
 6126              	.LASF126:
 6127 0008 64617461 		.ascii	"data_s\000"
 6127      5F7300
 6128              	.LASF65:
 6129 000f 464F4E54 		.ascii	"FONT_TYPE_8BPP\000"
 6129      5F545950 
 6129      455F3842 
 6129      505000
 6130              	.LASF121:
 6131 001e 6465736B 		.ascii	"desktop_color\000"
 6131      746F705F 
 6131      636F6C6F 
 6131      7200
 6132              	.LASF76:
 6133 002c 746F7563 		.ascii	"touch_state\000"
 6133      685F7374 
 6133      61746500 
 6134              	.LASF90:
 6135 0038 55475F43 		.ascii	"UG_COLOR\000"
 6135      4F4C4F52 
 6135      00
 6136              	.LASF52:
 6137 0041 5350495F 		.ascii	"SPI_FAULT\000"
 6137      4641554C 
 6137      5400
 6138              	.LASF61:
 6139 004b 55475F55 		.ascii	"UG_U16\000"
 6139      313600
 6140              	.LASF1:
 6141 0052 756E7369 		.ascii	"unsigned int\000"
 6141      676E6564 
 6141      20696E74 
 6141      00
 6142              	.LASF120:
 6143 005f 63686172 		.ascii	"char_v_space\000"
 6143      5F765F73 
 6143      70616365 
 6143      00
 6144              	.LASF31:
 6145 006c 4E4F4E45 		.ascii	"NONE\000"
 6145      00
 6146              	.LASF10:
 6147 0071 5F5F696E 		.ascii	"__int32_t\000"
 6147      7433325F 
 6147      7400
 6148              	.LASF118:
 6149 007b 636F6E73 		.ascii	"console\000"
 6149      6F6C6500 
 6150              	.LASF57:
 6151 0083 50524543 		.ascii	"PRECHARGE_CLOSED\000"
ARM GAS  C:\Users\leoja\AppData\Local\Temp\ccVHTcit.s 			page 117


 6151      48415247 
 6151      455F434C 
 6151      4F534544 
 6151      00
 6152              	.LASF85:
 6153 0094 535F5749 		.ascii	"S_WINDOW\000"
 6153      4E444F57 
 6153      00
 6154              	.LASF36:
 6155 009d 53454E53 		.ascii	"SENSOR_DISCREPANCY\000"
 6155      4F525F44 
 6155      49534352 
 6155      4550414E 
 6155      435900
 6156              	.LASF53:
 6157 00b0 43454C4C 		.ascii	"CELL_VOLT_OVER\000"
 6157      5F564F4C 
 6157      545F4F56 
 6157      455200
 6158              	.LASF77:
 6159 00bf 75706461 		.ascii	"update\000"
 6159      746500
 6160              	.LASF113:
 6161 00c6 795F6469 		.ascii	"y_dim\000"
 6161      6D00
 6162              	.LASF39:
 6163 00cc 554E4341 		.ascii	"UNCALIBRATED\000"
 6163      4C494252 
 6163      41544544 
 6163      00
 6164              	.LASF129:
 6165 00d9 73746174 		.ascii	"state_rect\000"
 6165      655F7265 
 6165      637400
 6166              	.LASF37:
 6167 00e4 4252414B 		.ascii	"BRAKE_IMPLAUSIBLE\000"
 6167      455F494D 
 6167      504C4155 
 6167      5349424C 
 6167      4500
 6168              	.LASF147:
 6169 00f6 55475F46 		.ascii	"UG_FillFrame\000"
 6169      696C6C46 
 6169      72616D65 
 6169      00
 6170              	.LASF87:
 6171 0103 6F626A6C 		.ascii	"objlst\000"
 6171      737400
 6172              	.LASF115:
 6173 010a 6E657874 		.ascii	"next_window\000"
 6173      5F77696E 
 6173      646F7700 
 6174              	.LASF55:
 6175 0116 43484152 		.ascii	"CHARGE_HAULT\000"
 6175      47455F48 
 6175      41554C54 
 6175      00
ARM GAS  C:\Users\leoja\AppData\Local\Temp\ccVHTcit.s 			page 118


 6176              	.LASF89:
 6177 0123 7469746C 		.ascii	"title\000"
 6177      6500
 6178              	.LASF20:
 6179 0129 75696E74 		.ascii	"uint32_t\000"
 6179      33325F74 
 6179      00
 6180              	.LASF15:
 6181 0132 696E7438 		.ascii	"int8_t\000"
 6181      5F7400
 6182              	.LASF63:
 6183 0139 55475F55 		.ascii	"UG_U32\000"
 6183      333200
 6184              	.LASF107:
 6185 0140 785F656E 		.ascii	"x_end\000"
 6185      6400
 6186              	.LASF22:
 6187 0146 666C6F61 		.ascii	"float\000"
 6187      7400
 6188              	.LASF81:
 6189 014c 6576656E 		.ascii	"event\000"
 6189      7400
 6190              	.LASF117:
 6191 0152 6C617374 		.ascii	"last_window\000"
 6191      5F77696E 
 6191      646F7700 
 6192              	.LASF110:
 6193 015e 6261636B 		.ascii	"back_color\000"
 6193      5F636F6C 
 6193      6F7200
 6194              	.LASF29:
 6195 0169 44524956 		.ascii	"DRIVE\000"
 6195      4500
 6196              	.LASF17:
 6197 016f 696E7431 		.ascii	"int16_t\000"
 6197      365F7400 
 6198              	.LASF137:
 6199 0177 464F4E54 		.ascii	"FONT_12X16\000"
 6199      5F313258 
 6199      313600
 6200              	.LASF0:
 6201 0182 6C6F6E67 		.ascii	"long long unsigned int\000"
 6201      206C6F6E 
 6201      6720756E 
 6201      7369676E 
 6201      65642069 
 6202              	.LASF123:
 6203 0199 63616C69 		.ascii	"calibrateScreen\000"
 6203      62726174 
 6203      65536372 
 6203      65656E00 
 6204              	.LASF8:
 6205 01a9 5F5F7569 		.ascii	"__uint16_t\000"
 6205      6E743136 
 6205      5F7400
 6206              	.LASF116:
 6207 01b4 61637469 		.ascii	"active_window\000"
ARM GAS  C:\Users\leoja\AppData\Local\Temp\ccVHTcit.s 			page 119


 6207      76655F77 
 6207      696E646F 
 6207      7700
 6208              	.LASF86:
 6209 01c2 6F626A63 		.ascii	"objcnt\000"
 6209      6E7400
 6210              	.LASF62:
 6211 01c9 55475F53 		.ascii	"UG_S16\000"
 6211      313600
 6212              	.LASF109:
 6213 01d0 666F7265 		.ascii	"fore_color\000"
 6213      5F636F6C 
 6213      6F7200
 6214              	.LASF49:
 6215 01db 4E45475F 		.ascii	"NEG_CONT_CLOSED\000"
 6215      434F4E54 
 6215      5F434C4F 
 6215      53454400 
 6216              	.LASF104:
 6217 01eb 795F706F 		.ascii	"y_pos\000"
 6217      7300
 6218              	.LASF125:
 6219 01f1 636F6C6F 		.ascii	"color\000"
 6219      7200
 6220              	.LASF153:
 6221 01f7 474E5520 		.ascii	"GNU C11 5.4.1 20160609 (release) [ARM/embedded-5-br"
 6221      43313120 
 6221      352E342E 
 6221      31203230 
 6221      31363036 
 6222 022a 616E6368 		.ascii	"anch revision 237715] -mcpu=cortex-m3 -mthumb -g -O"
 6222      20726576 
 6222      6973696F 
 6222      6E203233 
 6222      37373135 
 6223 025d 67202D66 		.ascii	"g -ffunction-sections -ffat-lto-objects\000"
 6223      66756E63 
 6223      74696F6E 
 6223      2D736563 
 6223      74696F6E 
 6224              	.LASF151:
 6225 0285 55475F50 		.ascii	"UG_PutColorString\000"
 6225      7574436F 
 6225      6C6F7253 
 6225      7472696E 
 6225      6700
 6226              	.LASF34:
 6227 0297 4252414B 		.ascii	"BRAKE_NOT_PRESSED\000"
 6227      455F4E4F 
 6227      545F5052 
 6227      45535345 
 6227      4400
 6228              	.LASF146:
 6229 02a9 55475F46 		.ascii	"UG_FillScreen\000"
 6229      696C6C53 
 6229      63726565 
 6229      6E00
ARM GAS  C:\Users\leoja\AppData\Local\Temp\ccVHTcit.s 			page 120


 6230              	.LASF140:
 6231 02b7 6C617374 		.ascii	"last_SOC_color\000"
 6231      5F534F43 
 6231      5F636F6C 
 6231      6F7200
 6232              	.LASF68:
 6233 02c6 63686172 		.ascii	"char_width\000"
 6233      5F776964 
 6233      746800
 6234              	.LASF35:
 6235 02d1 48565F44 		.ascii	"HV_DISABLED_WHILE_DRIVING\000"
 6235      49534142 
 6235      4C45445F 
 6235      5748494C 
 6235      455F4452 
 6236              	.LASF133:
 6237 02eb 64697370 		.ascii	"disp_glv_v\000"
 6237      5F676C76 
 6237      5F7600
 6238              	.LASF131:
 6239 02f6 626D735F 		.ascii	"bms_status\000"
 6239      73746174 
 6239      757300
 6240              	.LASF43:
 6241 0301 46555345 		.ascii	"FUSE_BLOWN\000"
 6241      5F424C4F 
 6241      574E00
 6242              	.LASF145:
 6243 030c 6C617374 		.ascii	"last_motor_temp_color\000"
 6243      5F6D6F74 
 6243      6F725F74 
 6243      656D705F 
 6243      636F6C6F 
 6244              	.LASF38:
 6245 0322 53485554 		.ascii	"SHUTDOWN_CIRCUIT_OPEN\000"
 6245      444F574E 
 6245      5F434952 
 6245      43554954 
 6245      5F4F5045 
 6246              	.LASF28:
 6247 0338 48565F45 		.ascii	"HV_ENABLED\000"
 6247      4E41424C 
 6247      454400
 6248              	.LASF45:
 6249 0343 4C4F575F 		.ascii	"LOW_SOC\000"
 6249      534F4300 
 6250              	.LASF106:
 6251 034b 795F7374 		.ascii	"y_start\000"
 6251      61727400 
 6252              	.LASF97:
 6253 0353 765F7370 		.ascii	"v_space\000"
 6253      61636500 
 6254              	.LASF24:
 6255 035b 63686172 		.ascii	"char\000"
 6255      00
 6256              	.LASF33:
 6257 0360 434F4E53 		.ascii	"CONSERVATIVE_TIMER_MAXED\000"
ARM GAS  C:\Users\leoja\AppData\Local\Temp\ccVHTcit.s 			page 121


 6257      45525641 
 6257      54495645 
 6257      5F54494D 
 6257      45525F4D 
 6258              	.LASF67:
 6259 0379 666F6E74 		.ascii	"font_type\000"
 6259      5F747970 
 6259      6500
 6260              	.LASF66:
 6261 0383 464F4E54 		.ascii	"FONT_TYPE\000"
 6261      5F545950 
 6261      4500
 6262              	.LASF91:
 6263 038d 55475F41 		.ascii	"UG_AREA\000"
 6263      52454100 
 6264              	.LASF93:
 6265 0395 55475F4D 		.ascii	"UG_MESSAGE\000"
 6265      45535341 
 6265      474500
 6266              	.LASF54:
 6267 03a0 43454C4C 		.ascii	"CELL_VOLT_UNDER\000"
 6267      5F564F4C 
 6267      545F554E 
 6267      44455200 
 6268              	.LASF82:
 6269 03b0 64617461 		.ascii	"data\000"
 6269      00
 6270              	.LASF16:
 6271 03b5 75696E74 		.ascii	"uint8_t\000"
 6271      385F7400 
 6272              	.LASF114:
 6273 03bd 746F7563 		.ascii	"touch\000"
 6273      6800
 6274              	.LASF101:
 6275 03c3 64726976 		.ascii	"driver\000"
 6275      657200
 6276              	.LASF41:
 6277 03ca 43484152 		.ascii	"CHARGEMODE\000"
 6277      47454D4F 
 6277      444500
 6278              	.LASF40:
 6279 03d5 4E4F5F45 		.ascii	"NO_ERROR\000"
 6279      52524F52 
 6279      00
 6280              	.LASF60:
 6281 03de 55475F53 		.ascii	"UG_S8\000"
 6281      3800
 6282              	.LASF112:
 6283 03e4 785F6469 		.ascii	"x_dim\000"
 6283      6D00
 6284              	.LASF50:
 6285 03ea 504F535F 		.ascii	"POS_CONT_CLOSED\000"
 6285      434F4E54 
 6285      5F434C4F 
 6285      53454400 
 6286              	.LASF14:
 6287 03fa 6C6F6E67 		.ascii	"long long int\000"
ARM GAS  C:\Users\leoja\AppData\Local\Temp\ccVHTcit.s 			page 122


 6287      206C6F6E 
 6287      6720696E 
 6287      7400
 6288              	.LASF141:
 6289 0408 6C617374 		.ascii	"last_max_pack_temp_color\000"
 6289      5F6D6178 
 6289      5F706163 
 6289      6B5F7465 
 6289      6D705F63 
 6290              	.LASF6:
 6291 0421 5F5F696E 		.ascii	"__int16_t\000"
 6291      7431365F 
 6291      7400
 6292              	.LASF74:
 6293 042b 55475F4F 		.ascii	"UG_OBJECT\000"
 6293      424A4543 
 6293      5400
 6294              	.LASF111:
 6295 0435 70736574 		.ascii	"pset\000"
 6295      00
 6296              	.LASF47:
 6297 043a 494D4241 		.ascii	"IMBALANCE\000"
 6297      4C414E43 
 6297      4500
 6298              	.LASF92:
 6299 0444 7375625F 		.ascii	"sub_id\000"
 6299      696400
 6300              	.LASF48:
 6301 044b 434F4D5F 		.ascii	"COM_FAILURE\000"
 6301      4641494C 
 6301      55524500 
 6302              	.LASF99:
 6303 0457 68656967 		.ascii	"height\000"
 6303      687400
 6304              	.LASF70:
 6305 045e 73746172 		.ascii	"start_char\000"
 6305      745F6368 
 6305      617200
 6306              	.LASF27:
 6307 0469 50524543 		.ascii	"PRECHARGING\000"
 6307      48415247 
 6307      494E4700 
 6308              	.LASF51:
 6309 0475 49534F5F 		.ascii	"ISO_FAULT\000"
 6309      4641554C 
 6309      5400
 6310              	.LASF59:
 6311 047f 55475F55 		.ascii	"UG_U8\000"
 6311      3800
 6312              	.LASF3:
 6313 0485 5F5F696E 		.ascii	"__int8_t\000"
 6313      74385F74 
 6313      00
 6314              	.LASF72:
 6315 048e 77696474 		.ascii	"widths\000"
 6315      687300
 6316              	.LASF149:
ARM GAS  C:\Users\leoja\AppData\Local\Temp\ccVHTcit.s 			page 123


 6317 0495 55475F50 		.ascii	"UG_PutString\000"
 6317      75745374 
 6317      72696E67 
 6317      00
 6318              	.LASF25:
 6319 04a2 6C6F6E67 		.ascii	"long double\000"
 6319      20646F75 
 6319      626C6500 
 6320              	.LASF150:
 6321 04ae 73707269 		.ascii	"sprintf\000"
 6321      6E746600 
 6322              	.LASF18:
 6323 04b6 75696E74 		.ascii	"uint16_t\000"
 6323      31365F74 
 6323      00
 6324              	.LASF139:
 6325 04bf 67756931 		.ascii	"gui1963\000"
 6325      39363300 
 6326              	.LASF58:
 6327 04c7 424D535F 		.ascii	"BMS_STATUS\000"
 6327      53544154 
 6327      555300
 6328              	.LASF100:
 6329 04d2 55475F54 		.ascii	"UG_TITLE\000"
 6329      49544C45 
 6329      00
 6330              	.LASF102:
 6331 04db 55475F44 		.ascii	"UG_DRIVER\000"
 6331      52495645 
 6331      5200
 6332              	.LASF103:
 6333 04e5 785F706F 		.ascii	"x_pos\000"
 6333      7300
 6334              	.LASF46:
 6335 04eb 43524954 		.ascii	"CRITICAL_SOC\000"
 6335      4943414C 
 6335      5F534F43 
 6335      00
 6336              	.LASF69:
 6337 04f8 63686172 		.ascii	"char_height\000"
 6337      5F686569 
 6337      67687400 
 6338              	.LASF7:
 6339 0504 73686F72 		.ascii	"short int\000"
 6339      7420696E 
 6339      7400
 6340              	.LASF142:
 6341 050e 6C617374 		.ascii	"last_state_color\000"
 6341      5F737461 
 6341      74655F63 
 6341      6F6C6F72 
 6341      00
 6342              	.LASF11:
 6343 051f 6C6F6E67 		.ascii	"long int\000"
 6343      20696E74 
 6343      00
 6344              	.LASF155:
ARM GAS  C:\Users\leoja\AppData\Local\Temp\ccVHTcit.s 			page 124


 6345 0528 443A5C55 		.ascii	"D:\\Users\\leoja\\Documents\\GitHub\\Dashboard-Firm"
 6345      73657273 
 6345      5C6C656F 
 6345      6A615C44 
 6345      6F63756D 
 6346 0556 77617265 		.ascii	"ware-FE9-FE7-Board\\Dashboard.cydsn\000"
 6346      2D464539 
 6346      2D464537 
 6346      2D426F61 
 6346      72645C44 
 6347              	.LASF83:
 6348 0579 55475F57 		.ascii	"UG_WINDOW\000"
 6348      494E444F 
 6348      5700
 6349              	.LASF136:
 6350 0583 49544D5F 		.ascii	"ITM_RxBuffer\000"
 6350      52784275 
 6350      66666572 
 6350      00
 6351              	.LASF135:
 6352 0590 64697370 		.ascii	"disp_motor_temp\000"
 6352      5F6D6F74 
 6352      6F725F74 
 6352      656D7000 
 6353              	.LASF71:
 6354 05a0 656E645F 		.ascii	"end_char\000"
 6354      63686172 
 6354      00
 6355              	.LASF138:
 6356 05a9 464F4E54 		.ascii	"FONT_32X53\000"
 6356      5F333258 
 6356      353300
 6357              	.LASF56:
 6358 05b4 46554C4C 		.ascii	"FULL\000"
 6358      00
 6359              	.LASF73:
 6360 05b9 55475F46 		.ascii	"UG_FONT\000"
 6360      4F4E5400 
 6361              	.LASF4:
 6362 05c1 5F5F7569 		.ascii	"__uint8_t\000"
 6362      6E74385F 
 6362      7400
 6363              	.LASF95:
 6364 05cb 666F6E74 		.ascii	"font\000"
 6364      00
 6365              	.LASF26:
 6366 05d0 73697A65 		.ascii	"sizetype\000"
 6366      74797065 
 6366      00
 6367              	.LASF124:
 6368 05d9 696E6974 		.ascii	"initDashTemplate\000"
 6368      44617368 
 6368      54656D70 
 6368      6C617465 
 6368      00
 6369              	.LASF13:
 6370 05ea 6C6F6E67 		.ascii	"long unsigned int\000"
ARM GAS  C:\Users\leoja\AppData\Local\Temp\ccVHTcit.s 			page 125


 6370      20756E73 
 6370      69676E65 
 6370      6420696E 
 6370      7400
 6371              	.LASF134:
 6372 05fc 64697370 		.ascii	"disp_mc_temp\000"
 6372      5F6D635F 
 6372      74656D70 
 6372      00
 6373              	.LASF44:
 6374 0609 5041434B 		.ascii	"PACK_TEMP_UNDER\000"
 6374      5F54454D 
 6374      505F554E 
 6374      44455200 
 6375              	.LASF19:
 6376 0619 696E7433 		.ascii	"int32_t\000"
 6376      325F7400 
 6377              	.LASF128:
 6378 0621 64697370 		.ascii	"disp_max_pack_temp\000"
 6378      5F6D6178 
 6378      5F706163 
 6378      6B5F7465 
 6378      6D7000
 6379              	.LASF143:
 6380 0634 6C617374 		.ascii	"last_glv_v_color\000"
 6380      5F676C76 
 6380      5F765F63 
 6380      6F6C6F72 
 6380      00
 6381              	.LASF80:
 6382 0645 74797065 		.ascii	"type\000"
 6382      00
 6383              	.LASF5:
 6384 064a 756E7369 		.ascii	"unsigned char\000"
 6384      676E6564 
 6384      20636861 
 6384      7200
 6385              	.LASF12:
 6386 0658 5F5F7569 		.ascii	"__uint32_t\000"
 6386      6E743332 
 6386      5F7400
 6387              	.LASF96:
 6388 0663 685F7370 		.ascii	"h_space\000"
 6388      61636500 
 6389              	.LASF130:
 6390 066b 64697370 		.ascii	"disp_state\000"
 6390      5F737461 
 6390      746500
 6391              	.LASF105:
 6392 0676 785F7374 		.ascii	"x_start\000"
 6392      61727400 
 6393              	.LASF30:
 6394 067e 4641554C 		.ascii	"FAULT\000"
 6394      5400
 6395              	.LASF108:
 6396 0684 795F656E 		.ascii	"y_end\000"
 6396      6400
ARM GAS  C:\Users\leoja\AppData\Local\Temp\ccVHTcit.s 			page 126


 6397              	.LASF144:
 6398 068a 6C617374 		.ascii	"last_mc_temp_color\000"
 6398      5F6D635F 
 6398      74656D70 
 6398      5F636F6C 
 6398      6F7200
 6399              	.LASF88:
 6400 069d 7374796C 		.ascii	"style\000"
 6400      6500
 6401              	.LASF75:
 6402 06a3 73746174 		.ascii	"state\000"
 6402      6500
 6403              	.LASF127:
 6404 06a9 64697370 		.ascii	"disp_SOC\000"
 6404      5F534F43 
 6404      00
 6405              	.LASF122:
 6406 06b2 55475F47 		.ascii	"UG_GUI\000"
 6406      554900
 6407              	.LASF79:
 6408 06b9 615F7265 		.ascii	"a_rel\000"
 6408      6C00
 6409              	.LASF94:
 6410 06bf 55475F54 		.ascii	"UG_TOUCH\000"
 6410      4F554348 
 6410      00
 6411              	.LASF2:
 6412 06c8 7369676E 		.ascii	"signed char\000"
 6412      65642063 
 6412      68617200 
 6413              	.LASF9:
 6414 06d4 73686F72 		.ascii	"short unsigned int\000"
 6414      7420756E 
 6414      7369676E 
 6414      65642069 
 6414      6E7400
 6415              	.LASF154:
 6416 06e7 66727563 		.ascii	"frucd_display.c\000"
 6416      645F6469 
 6416      73706C61 
 6416      792E6300 
 6417              	.LASF42:
 6418 06f7 5041434B 		.ascii	"PACK_TEMP_OVER\000"
 6418      5F54454D 
 6418      505F4F56 
 6418      455200
 6419              	.LASF21:
 6420 0706 75696E74 		.ascii	"uint8\000"
 6420      3800
 6421              	.LASF23:
 6422 070c 646F7562 		.ascii	"double\000"
 6422      6C6500
 6423              	.LASF152:
 6424 0713 55475F46 		.ascii	"UG_FontSelect\000"
 6424      6F6E7453 
 6424      656C6563 
 6424      7400
ARM GAS  C:\Users\leoja\AppData\Local\Temp\ccVHTcit.s 			page 127


 6425              	.LASF32:
 6426 0721 44524956 		.ascii	"DRIVE_REQUEST_FROM_LV\000"
 6426      455F5245 
 6426      51554553 
 6426      545F4652 
 6426      4F4D5F4C 
 6427              	.LASF84:
 6428 0737 535F4F42 		.ascii	"S_OBJECT\000"
 6428      4A454354 
 6428      00
 6429              	.LASF98:
 6430 0740 616C6967 		.ascii	"align\000"
 6430      6E00
 6431              	.LASF78:
 6432 0746 615F6162 		.ascii	"a_abs\000"
 6432      7300
 6433              	.LASF132:
 6434 074c 6661756C 		.ascii	"fault\000"
 6434      7400
 6435              	.LASF64:
 6436 0752 464F4E54 		.ascii	"FONT_TYPE_1BPP\000"
 6436      5F545950 
 6436      455F3142 
 6436      505000
 6437              	.LASF119:
 6438 0761 63686172 		.ascii	"char_h_space\000"
 6438      5F685F73 
 6438      70616365 
 6438      00
 6439              		.ident	"GCC: (GNU Tools for ARM Embedded Processors) 5.4.1 20160609 (release) [ARM/embedded-5-bran
