ARM GAS  C:\Users\leoja\AppData\Local\Temp\ccVHTcit.s 			page 1


   1              		.syntax unified
   2              		.cpu cortex-m3
   3              		.fpu softvfp
   4              		.eabi_attribute 20, 1
   5              		.eabi_attribute 21, 1
   6              		.eabi_attribute 23, 3
   7              		.eabi_attribute 24, 1
   8              		.eabi_attribute 25, 1
   9              		.eabi_attribute 26, 1
  10              		.eabi_attribute 30, 1
  11              		.eabi_attribute 34, 1
  12              		.eabi_attribute 18, 4
  13              		.thumb
  14              		.syntax unified
  15              		.file	"frucd_display.c"
  16              		.text
  17              	.Ltext0:
  18              		.cfi_sections	.debug_frame
  19              		.section	.text.calibrateScreen,"ax",%progbits
  20              		.align	2
  21              		.global	calibrateScreen
  22              		.thumb
  23              		.thumb_func
  24              		.type	calibrateScreen, %function
  25              	calibrateScreen:
  26              	.LFB64:
  27              		.file 1 "frucd_display.c"
   1:frucd_display.c **** /* ========================================
   2:frucd_display.c ****  *
   3:frucd_display.c ****  * APIs for updating FRUCD Dashboard display
   4:frucd_display.c ****  *
   5:frucd_display.c ****  * ========================================
   6:frucd_display.c **** */
   7:frucd_display.c **** #include "frucd_display.h"
   8:frucd_display.c **** 
   9:frucd_display.c **** // Just a test function that displays elements at the supposed corners of the screen
  10:frucd_display.c **** void calibrateScreen() {
  28              		.loc 1 10 0
  29              		.cfi_startproc
  30              		@ args = 0, pretend = 0, frame = 0
  31              		@ frame_needed = 0, uses_anonymous_args = 0
  32 0000 00B5     		push	{lr}
  33              		.cfi_def_cfa_offset 4
  34              		.cfi_offset 14, -4
  35 0002 83B0     		sub	sp, sp, #12
  36              		.cfi_def_cfa_offset 16
  11:frucd_display.c ****     UG_FillScreen(C_WHITE);
  37              		.loc 1 11 0
  38 0004 6FF07F40 		mvn	r0, #-16777216
  39 0008 FFF7FEFF 		bl	UG_FillScreen
  40              	.LVL0:
  12:frucd_display.c ****     //libTFT_FillRectangle(0, 0, 10, 10, RED);
  13:frucd_display.c ****     UG_FillFrame(0, 0, 10, 10, C_RED);
  41              		.loc 1 13 0
  42 000c 4FF47F03 		mov	r3, #16711680
  43 0010 0093     		str	r3, [sp]
  44 0012 0A23     		movs	r3, #10
ARM GAS  C:\Users\leoja\AppData\Local\Temp\ccVHTcit.s 			page 2


  45 0014 1A46     		mov	r2, r3
  46 0016 0021     		movs	r1, #0
  47 0018 0846     		mov	r0, r1
  48 001a FFF7FEFF 		bl	UG_FillFrame
  49              	.LVL1:
  14:frucd_display.c ****     //libTFT_FillRectangle(0, 262, 10, 10, BLUE);
  15:frucd_display.c ****     UG_FillFrame(0, 262, 10, 272, C_BLUE);
  50              		.loc 1 15 0
  51 001e FF23     		movs	r3, #255
  52 0020 0093     		str	r3, [sp]
  53 0022 4FF48873 		mov	r3, #272
  54 0026 0A22     		movs	r2, #10
  55 0028 4FF48371 		mov	r1, #262
  56 002c 0020     		movs	r0, #0
  57 002e FFF7FEFF 		bl	UG_FillFrame
  58              	.LVL2:
  16:frucd_display.c ****     //libTFT_FillRectangle(470, 0, 10, 10, GREEN);
  17:frucd_display.c ****     UG_FillFrame(470, 0, 480, 10, C_GREEN);
  59              		.loc 1 17 0
  60 0032 4FF47F43 		mov	r3, #65280
  61 0036 0093     		str	r3, [sp]
  62 0038 0A23     		movs	r3, #10
  63 003a 4FF4F072 		mov	r2, #480
  64 003e 0021     		movs	r1, #0
  65 0040 4FF4EB70 		mov	r0, #470
  66 0044 FFF7FEFF 		bl	UG_FillFrame
  67              	.LVL3:
  18:frucd_display.c ****     //libTFT_FillRectangle(470, 262, 10, 10, YELLOW);
  19:frucd_display.c ****     UG_FillFrame(470, 262, 480, 272, C_YELLOW);
  68              		.loc 1 19 0
  69 0048 094B     		ldr	r3, .L3
  70 004a 0093     		str	r3, [sp]
  71 004c 4FF48873 		mov	r3, #272
  72 0050 4FF4F072 		mov	r2, #480
  73 0054 4FF48371 		mov	r1, #262
  74 0058 4FF4EB70 		mov	r0, #470
  75 005c FFF7FEFF 		bl	UG_FillFrame
  76              	.LVL4:
  20:frucd_display.c ****     CyDelay(300);
  77              		.loc 1 20 0
  78 0060 4FF49670 		mov	r0, #300
  79 0064 FFF7FEFF 		bl	CyDelay
  80              	.LVL5:
  21:frucd_display.c **** }
  81              		.loc 1 21 0
  82 0068 03B0     		add	sp, sp, #12
  83              		.cfi_def_cfa_offset 4
  84              		@ sp needed
  85 006a 5DF804FB 		ldr	pc, [sp], #4
  86              	.L4:
  87 006e 00BF     		.align	2
  88              	.L3:
  89 0070 00FFFF00 		.word	16776960
  90              		.cfi_endproc
  91              	.LFE64:
  92              		.size	calibrateScreen, .-calibrateScreen
  93              		.section	.text.initDashTemplate,"ax",%progbits
ARM GAS  C:\Users\leoja\AppData\Local\Temp\ccVHTcit.s 			page 3


  94              		.align	2
  95              		.global	initDashTemplate
  96              		.thumb
  97              		.thumb_func
  98              		.type	initDashTemplate, %function
  99              	initDashTemplate:
 100              	.LFB65:
  22:frucd_display.c **** 
  23:frucd_display.c **** // Initializes dashboard layout/labels
  24:frucd_display.c **** void initDashTemplate() {
 101              		.loc 1 24 0
 102              		.cfi_startproc
 103              		@ args = 0, pretend = 0, frame = 0
 104              		@ frame_needed = 0, uses_anonymous_args = 0
 105 0000 08B5     		push	{r3, lr}
 106              		.cfi_def_cfa_offset 8
 107              		.cfi_offset 3, -8
 108              		.cfi_offset 14, -4
  25:frucd_display.c ****     UG_FillScreen(C_BLACK);
 109              		.loc 1 25 0
 110 0002 0020     		movs	r0, #0
 111 0004 FFF7FEFF 		bl	UG_FillScreen
 112              	.LVL6:
  26:frucd_display.c ****     UG_PutString(68, 10, "PACK SOC");
 113              		.loc 1 26 0
 114 0008 104A     		ldr	r2, .L7
 115 000a 0A21     		movs	r1, #10
 116 000c 4420     		movs	r0, #68
 117 000e FFF7FEFF 		bl	UG_PutString
 118              	.LVL7:
  27:frucd_display.c ****     UG_PutString(297, 10, "MAX PACK T");
 119              		.loc 1 27 0
 120 0012 0F4A     		ldr	r2, .L7+4
 121 0014 0A21     		movs	r1, #10
 122 0016 40F22910 		movw	r0, #297
 123 001a FFF7FEFF 		bl	UG_PutString
 124              	.LVL8:
  28:frucd_display.c ****     UG_PutString(10, 195, "STATE:");
 125              		.loc 1 28 0
 126 001e 0D4A     		ldr	r2, .L7+8
 127 0020 C321     		movs	r1, #195
 128 0022 0A20     		movs	r0, #10
 129 0024 FFF7FEFF 		bl	UG_PutString
 130              	.LVL9:
  29:frucd_display.c ****     UG_PutString(10, 240, "GLV V:");
 131              		.loc 1 29 0
 132 0028 0B4A     		ldr	r2, .L7+12
 133 002a F021     		movs	r1, #240
 134 002c 0A20     		movs	r0, #10
 135 002e FFF7FEFF 		bl	UG_PutString
 136              	.LVL10:
  30:frucd_display.c ****     UG_PutString(339, 195, "MC T:");
 137              		.loc 1 30 0
 138 0032 0A4A     		ldr	r2, .L7+16
 139 0034 C321     		movs	r1, #195
 140 0036 40F25310 		movw	r0, #339
 141 003a FFF7FEFF 		bl	UG_PutString
ARM GAS  C:\Users\leoja\AppData\Local\Temp\ccVHTcit.s 			page 4


 142              	.LVL11:
  31:frucd_display.c ****     UG_PutString(300, 240, "MOTOR T:");
 143              		.loc 1 31 0
 144 003e 084A     		ldr	r2, .L7+20
 145 0040 F021     		movs	r1, #240
 146 0042 4FF49670 		mov	r0, #300
 147 0046 FFF7FEFF 		bl	UG_PutString
 148              	.LVL12:
 149 004a 08BD     		pop	{r3, pc}
 150              	.L8:
 151              		.align	2
 152              	.L7:
 153 004c 00000000 		.word	.LC0
 154 0050 0C000000 		.word	.LC1
 155 0054 18000000 		.word	.LC2
 156 0058 20000000 		.word	.LC3
 157 005c 28000000 		.word	.LC4
 158 0060 30000000 		.word	.LC5
 159              		.cfi_endproc
 160              	.LFE65:
 161              		.size	initDashTemplate, .-initDashTemplate
 162              		.section	.text.disp_SOC,"ax",%progbits
 163              		.align	2
 164              		.global	disp_SOC
 165              		.thumb
 166              		.thumb_func
 167              		.type	disp_SOC, %function
 168              	disp_SOC:
 169              	.LFB66:
  32:frucd_display.c **** }
  33:frucd_display.c **** 
  34:frucd_display.c **** /*
  35:frucd_display.c ****  * BEGIN: functions to show data on dash
  36:frucd_display.c ****  * - handle variety of digit counts
  37:frucd_display.c ****  * - color decision logic is in here
  38:frucd_display.c ****  */
  39:frucd_display.c **** void disp_SOC(uint8_t data) {
 170              		.loc 1 39 0
 171              		.cfi_startproc
 172              		@ args = 0, pretend = 0, frame = 8
 173              		@ frame_needed = 0, uses_anonymous_args = 0
 174              	.LVL13:
 175 0000 30B5     		push	{r4, r5, lr}
 176              		.cfi_def_cfa_offset 12
 177              		.cfi_offset 4, -12
 178              		.cfi_offset 5, -8
 179              		.cfi_offset 14, -4
 180 0002 85B0     		sub	sp, sp, #20
 181              		.cfi_def_cfa_offset 32
 182 0004 0446     		mov	r4, r0
  40:frucd_display.c ****     UG_FontSelect(&FONT_32X53);
 183              		.loc 1 40 0
 184 0006 3948     		ldr	r0, .L21
 185              	.LVL14:
 186 0008 FFF7FEFF 		bl	UG_FontSelect
 187              	.LVL15:
  41:frucd_display.c ****     UG_COLOR color;
ARM GAS  C:\Users\leoja\AppData\Local\Temp\ccVHTcit.s 			page 5


  42:frucd_display.c ****     if (data == 100) {
 188              		.loc 1 42 0
 189 000c 642C     		cmp	r4, #100
 190 000e 19D1     		bne	.L10
 191              	.LVL16:
  43:frucd_display.c ****         // handle 100% case
  44:frucd_display.c ****         color = C_GREEN;
  45:frucd_display.c ****         if (color != last_SOC_color) {
 192              		.loc 1 45 0
 193 0010 374B     		ldr	r3, .L21+4
 194 0012 1B68     		ldr	r3, [r3]
 195 0014 B3F57F4F 		cmp	r3, #65280
 196 0018 0AD0     		beq	.L11
  46:frucd_display.c ****             // only draw rectangle if color changed
  47:frucd_display.c ****             UG_FillFrame(30, 35, 210, 170, color);
 197              		.loc 1 47 0
 198 001a 4FF47F44 		mov	r4, #65280
 199 001e 0094     		str	r4, [sp]
 200 0020 AA23     		movs	r3, #170
 201 0022 D222     		movs	r2, #210
 202 0024 2321     		movs	r1, #35
 203 0026 1E20     		movs	r0, #30
 204 0028 FFF7FEFF 		bl	UG_FillFrame
 205              	.LVL17:
  48:frucd_display.c ****             last_SOC_color = color;
 206              		.loc 1 48 0
 207 002c 304B     		ldr	r3, .L21+4
 208 002e 1C60     		str	r4, [r3]
 209              	.L11:
  49:frucd_display.c ****         }
  50:frucd_display.c ****         UG_PutColorString(55, 80, "100%", C_BLACK, C_GREEN);
 210              		.loc 1 50 0
 211 0030 4FF47F43 		mov	r3, #65280
 212 0034 0093     		str	r3, [sp]
 213 0036 0023     		movs	r3, #0
 214 0038 2E4A     		ldr	r2, .L21+8
 215 003a 5021     		movs	r1, #80
 216 003c 3720     		movs	r0, #55
 217 003e FFF7FEFF 		bl	UG_PutColorString
 218              	.LVL18:
 219 0042 4DE0     		b	.L12
 220              	.LVL19:
 221              	.L10:
 222              	.LBB2:
  51:frucd_display.c ****     } else {
  52:frucd_display.c ****         // handle other cases
  53:frucd_display.c ****         char data_s[4];
  54:frucd_display.c ****         sprintf(data_s, "%d", data);
 223              		.loc 1 54 0
 224 0044 2246     		mov	r2, r4
 225 0046 2C49     		ldr	r1, .L21+12
 226 0048 03A8     		add	r0, sp, #12
 227 004a FFF7FEFF 		bl	sprintf
 228              	.LVL20:
  55:frucd_display.c ****         if (data >= 10) {
 229              		.loc 1 55 0
 230 004e 092C     		cmp	r4, #9
ARM GAS  C:\Users\leoja\AppData\Local\Temp\ccVHTcit.s 			page 6


 231 0050 29D9     		bls	.L13
  56:frucd_display.c ****             // handle 2 digit cases
  57:frucd_display.c ****             // choose color
  58:frucd_display.c ****             if (data > 75) {
 232              		.loc 1 58 0
 233 0052 4B2C     		cmp	r4, #75
 234 0054 05D8     		bhi	.L17
  59:frucd_display.c ****                 color = C_GREEN;
  60:frucd_display.c ****             } else if (data > 50) {
 235              		.loc 1 60 0
 236 0056 322C     		cmp	r4, #50
 237 0058 06D8     		bhi	.L18
  61:frucd_display.c ****                 color = C_YELLOW;
  62:frucd_display.c ****             } else if (data > 25) {
 238              		.loc 1 62 0
 239 005a 192C     		cmp	r4, #25
 240 005c 06D9     		bls	.L19
  63:frucd_display.c ****                 color = C_ORANGE;
 241              		.loc 1 63 0
 242 005e 274C     		ldr	r4, .L21+16
 243 0060 06E0     		b	.L14
 244              	.L17:
  59:frucd_display.c ****                 color = C_GREEN;
 245              		.loc 1 59 0
 246 0062 4FF47F44 		mov	r4, #65280
 247 0066 03E0     		b	.L14
 248              	.L18:
  61:frucd_display.c ****                 color = C_YELLOW;
 249              		.loc 1 61 0
 250 0068 254C     		ldr	r4, .L21+20
 251 006a 01E0     		b	.L14
 252              	.L19:
  64:frucd_display.c ****             } else {
  65:frucd_display.c ****                 color = C_RED;
 253              		.loc 1 65 0
 254 006c 4FF47F04 		mov	r4, #16711680
 255              	.L14:
 256              	.LVL21:
  66:frucd_display.c ****             }
  67:frucd_display.c ****             data_s[2] = '%';
 257              		.loc 1 67 0
 258 0070 2523     		movs	r3, #37
 259 0072 8DF80E30 		strb	r3, [sp, #14]
  68:frucd_display.c ****             data_s[3] = '\0';
 260              		.loc 1 68 0
 261 0076 0023     		movs	r3, #0
 262 0078 8DF80F30 		strb	r3, [sp, #15]
  69:frucd_display.c ****             if (color != last_SOC_color) {
 263              		.loc 1 69 0
 264 007c 1C4B     		ldr	r3, .L21+4
 265 007e 1B68     		ldr	r3, [r3]
 266 0080 9C42     		cmp	r4, r3
 267 0082 08D0     		beq	.L15
  70:frucd_display.c ****                 // only draw rectangle if color changed
  71:frucd_display.c ****                 UG_FillFrame(30, 35, 210, 170, color);
 268              		.loc 1 71 0
 269 0084 0094     		str	r4, [sp]
ARM GAS  C:\Users\leoja\AppData\Local\Temp\ccVHTcit.s 			page 7


 270 0086 AA23     		movs	r3, #170
 271 0088 D222     		movs	r2, #210
 272 008a 2321     		movs	r1, #35
 273 008c 1E20     		movs	r0, #30
 274 008e FFF7FEFF 		bl	UG_FillFrame
 275              	.LVL22:
  72:frucd_display.c ****                 last_SOC_color = color;
 276              		.loc 1 72 0
 277 0092 174B     		ldr	r3, .L21+4
 278 0094 1C60     		str	r4, [r3]
 279              	.L15:
  73:frucd_display.c ****             }
  74:frucd_display.c ****             UG_PutColorString(70, 80, data_s, C_BLACK, color);
 280              		.loc 1 74 0
 281 0096 0094     		str	r4, [sp]
 282 0098 0023     		movs	r3, #0
 283 009a 03AA     		add	r2, sp, #12
 284 009c 5021     		movs	r1, #80
 285 009e 4620     		movs	r0, #70
 286 00a0 FFF7FEFF 		bl	UG_PutColorString
 287              	.LVL23:
 288 00a4 1CE0     		b	.L12
 289              	.LVL24:
 290              	.L13:
  75:frucd_display.c ****         } else {
  76:frucd_display.c ****             // handle 1 digit cases
  77:frucd_display.c ****             data_s[1] = '%';
 291              		.loc 1 77 0
 292 00a6 2523     		movs	r3, #37
 293 00a8 8DF80D30 		strb	r3, [sp, #13]
  78:frucd_display.c ****             data_s[2] = '\0';
 294              		.loc 1 78 0
 295 00ac 0024     		movs	r4, #0
 296 00ae 8DF80E40 		strb	r4, [sp, #14]
 297              	.LVL25:
  79:frucd_display.c ****             color = C_RED;
  80:frucd_display.c ****             UG_FillFrame(30, 35, 210, 170, C_BLACK);
 298              		.loc 1 80 0
 299 00b2 0094     		str	r4, [sp]
 300 00b4 AA23     		movs	r3, #170
 301 00b6 D222     		movs	r2, #210
 302 00b8 2321     		movs	r1, #35
 303 00ba 1E20     		movs	r0, #30
 304 00bc FFF7FEFF 		bl	UG_FillFrame
 305              	.LVL26:
  81:frucd_display.c ****             UG_FillFrame(30, 35, 210, 170, color);
 306              		.loc 1 81 0
 307 00c0 4FF47F05 		mov	r5, #16711680
 308 00c4 0095     		str	r5, [sp]
 309 00c6 AA23     		movs	r3, #170
 310 00c8 D222     		movs	r2, #210
 311 00ca 2321     		movs	r1, #35
 312 00cc 1E20     		movs	r0, #30
 313 00ce FFF7FEFF 		bl	UG_FillFrame
 314              	.LVL27:
  82:frucd_display.c ****             UG_PutColorString(90, 80, data_s, C_BLACK, color);
 315              		.loc 1 82 0
ARM GAS  C:\Users\leoja\AppData\Local\Temp\ccVHTcit.s 			page 8


 316 00d2 0095     		str	r5, [sp]
 317 00d4 2346     		mov	r3, r4
 318 00d6 03AA     		add	r2, sp, #12
 319 00d8 5021     		movs	r1, #80
 320 00da 5A20     		movs	r0, #90
 321 00dc FFF7FEFF 		bl	UG_PutColorString
 322              	.LVL28:
 323              	.L12:
 324              	.LBE2:
  83:frucd_display.c ****         }   
  84:frucd_display.c ****     }
  85:frucd_display.c ****     UG_FontSelect(&FONT_12X16);
 325              		.loc 1 85 0
 326 00e0 0848     		ldr	r0, .L21+24
 327 00e2 FFF7FEFF 		bl	UG_FontSelect
 328              	.LVL29:
  86:frucd_display.c **** }
 329              		.loc 1 86 0
 330 00e6 05B0     		add	sp, sp, #20
 331              		.cfi_def_cfa_offset 12
 332              		@ sp needed
 333 00e8 30BD     		pop	{r4, r5, pc}
 334              	.L22:
 335 00ea 00BF     		.align	2
 336              	.L21:
 337 00ec 00000000 		.word	FONT_32X53
 338 00f0 00000000 		.word	last_SOC_color
 339 00f4 3C000000 		.word	.LC6
 340 00f8 44000000 		.word	.LC7
 341 00fc 00A5FF00 		.word	16753920
 342 0100 00FFFF00 		.word	16776960
 343 0104 00000000 		.word	FONT_12X16
 344              		.cfi_endproc
 345              	.LFE66:
 346              		.size	disp_SOC, .-disp_SOC
 347              		.section	.text.disp_max_pack_temp,"ax",%progbits
 348              		.align	2
 349              		.global	disp_max_pack_temp
 350              		.thumb
 351              		.thumb_func
 352              		.type	disp_max_pack_temp, %function
 353              	disp_max_pack_temp:
 354              	.LFB67:
  87:frucd_display.c **** 
  88:frucd_display.c **** void disp_max_pack_temp(uint8_t data) {
 355              		.loc 1 88 0
 356              		.cfi_startproc
 357              		@ args = 0, pretend = 0, frame = 8
 358              		@ frame_needed = 0, uses_anonymous_args = 0
 359              	.LVL30:
 360 0000 30B5     		push	{r4, r5, lr}
 361              		.cfi_def_cfa_offset 12
 362              		.cfi_offset 4, -12
 363              		.cfi_offset 5, -8
 364              		.cfi_offset 14, -4
 365 0002 85B0     		sub	sp, sp, #20
 366              		.cfi_def_cfa_offset 32
ARM GAS  C:\Users\leoja\AppData\Local\Temp\ccVHTcit.s 			page 9


 367 0004 0546     		mov	r5, r0
  89:frucd_display.c ****     // choose color
  90:frucd_display.c ****     UG_COLOR color;
  91:frucd_display.c ****     if (data < 45) {
 368              		.loc 1 91 0
 369 0006 2C28     		cmp	r0, #44
 370 0008 19D9     		bls	.L26
  92:frucd_display.c ****         color = C_GREEN;
  93:frucd_display.c ****     } else if (data < 50) {
 371              		.loc 1 93 0
 372 000a 3128     		cmp	r0, #49
 373 000c 1AD9     		bls	.L27
  94:frucd_display.c ****         color = C_YELLOW;
  95:frucd_display.c ****     } else if (data < 55) {
 374              		.loc 1 95 0
 375 000e 3628     		cmp	r0, #54
 376 0010 1AD9     		bls	.L28
 377              	.LVL31:
  96:frucd_display.c ****         color = C_ORANGE;
  97:frucd_display.c ****     } else {
  98:frucd_display.c ****         color = C_RED;
  99:frucd_display.c ****         UG_FillFrame(270, 35, 450, 170, C_BLACK);
 378              		.loc 1 99 0
 379 0012 0023     		movs	r3, #0
 380 0014 0093     		str	r3, [sp]
 381 0016 AA23     		movs	r3, #170
 382 0018 4FF4E172 		mov	r2, #450
 383 001c 2321     		movs	r1, #35
 384 001e 4FF48770 		mov	r0, #270
 385              	.LVL32:
 386 0022 FFF7FEFF 		bl	UG_FillFrame
 387              	.LVL33:
 100:frucd_display.c ****         UG_FillFrame(270, 35, 450, 170, color);
 388              		.loc 1 100 0
 389 0026 4FF47F04 		mov	r4, #16711680
 390 002a 0094     		str	r4, [sp]
 391 002c AA23     		movs	r3, #170
 392 002e 4FF4E172 		mov	r2, #450
 393 0032 2321     		movs	r1, #35
 394 0034 4FF48770 		mov	r0, #270
 395 0038 FFF7FEFF 		bl	UG_FillFrame
 396              	.LVL34:
 397 003c 05E0     		b	.L24
 398              	.LVL35:
 399              	.L26:
  92:frucd_display.c ****     } else if (data < 50) {
 400              		.loc 1 92 0
 401 003e 4FF47F44 		mov	r4, #65280
 402 0042 02E0     		b	.L24
 403              	.L27:
  94:frucd_display.c ****     } else if (data < 55) {
 404              		.loc 1 94 0
 405 0044 154C     		ldr	r4, .L30
 406 0046 00E0     		b	.L24
 407              	.L28:
  96:frucd_display.c ****     } else {
 408              		.loc 1 96 0
ARM GAS  C:\Users\leoja\AppData\Local\Temp\ccVHTcit.s 			page 10


 409 0048 154C     		ldr	r4, .L30+4
 410              	.LVL36:
 411              	.L24:
 101:frucd_display.c ****     }
 102:frucd_display.c ****     
 103:frucd_display.c ****     if (color != last_max_pack_temp_color) {
 412              		.loc 1 103 0
 413 004a 164B     		ldr	r3, .L30+8
 414 004c 1B68     		ldr	r3, [r3]
 415 004e 9C42     		cmp	r4, r3
 416 0050 0AD0     		beq	.L25
 104:frucd_display.c ****         // only draw rectangle if color changed
 105:frucd_display.c ****         UG_FillFrame(270, 35, 450, 170, color);
 417              		.loc 1 105 0
 418 0052 0094     		str	r4, [sp]
 419 0054 AA23     		movs	r3, #170
 420 0056 4FF4E172 		mov	r2, #450
 421 005a 2321     		movs	r1, #35
 422 005c 4FF48770 		mov	r0, #270
 423 0060 FFF7FEFF 		bl	UG_FillFrame
 424              	.LVL37:
 106:frucd_display.c ****         last_max_pack_temp_color = color;
 425              		.loc 1 106 0
 426 0064 0F4B     		ldr	r3, .L30+8
 427 0066 1C60     		str	r4, [r3]
 428              	.L25:
 107:frucd_display.c ****     }
 108:frucd_display.c ****     UG_FontSelect(&FONT_32X53);
 429              		.loc 1 108 0
 430 0068 0F48     		ldr	r0, .L30+12
 431 006a FFF7FEFF 		bl	UG_FontSelect
 432              	.LVL38:
 109:frucd_display.c ****     char data_s[4];
 110:frucd_display.c ****     sprintf(data_s, "%d", data);
 433              		.loc 1 110 0
 434 006e 2A46     		mov	r2, r5
 435 0070 0E49     		ldr	r1, .L30+16
 436 0072 03A8     		add	r0, sp, #12
 437 0074 FFF7FEFF 		bl	sprintf
 438              	.LVL39:
 111:frucd_display.c ****     data_s[2] = 'C';
 439              		.loc 1 111 0
 440 0078 4323     		movs	r3, #67
 441 007a 8DF80E30 		strb	r3, [sp, #14]
 112:frucd_display.c ****     data_s[3] = '\0';
 442              		.loc 1 112 0
 443 007e 0023     		movs	r3, #0
 444 0080 8DF80F30 		strb	r3, [sp, #15]
 113:frucd_display.c ****     UG_PutColorString(310, 80, data_s, C_BLACK, color);
 445              		.loc 1 113 0
 446 0084 0094     		str	r4, [sp]
 447 0086 03AA     		add	r2, sp, #12
 448 0088 5021     		movs	r1, #80
 449 008a 4FF49B70 		mov	r0, #310
 450 008e FFF7FEFF 		bl	UG_PutColorString
 451              	.LVL40:
 114:frucd_display.c ****     UG_FontSelect(&FONT_12X16);
ARM GAS  C:\Users\leoja\AppData\Local\Temp\ccVHTcit.s 			page 11


 452              		.loc 1 114 0
 453 0092 0748     		ldr	r0, .L30+20
 454 0094 FFF7FEFF 		bl	UG_FontSelect
 455              	.LVL41:
 115:frucd_display.c **** }
 456              		.loc 1 115 0
 457 0098 05B0     		add	sp, sp, #20
 458              		.cfi_def_cfa_offset 12
 459              		@ sp needed
 460 009a 30BD     		pop	{r4, r5, pc}
 461              	.LVL42:
 462              	.L31:
 463              		.align	2
 464              	.L30:
 465 009c 00FFFF00 		.word	16776960
 466 00a0 00A5FF00 		.word	16753920
 467 00a4 00000000 		.word	last_max_pack_temp_color
 468 00a8 00000000 		.word	FONT_32X53
 469 00ac 44000000 		.word	.LC7
 470 00b0 00000000 		.word	FONT_12X16
 471              		.cfi_endproc
 472              	.LFE67:
 473              		.size	disp_max_pack_temp, .-disp_max_pack_temp
 474              		.section	.text.state_rect,"ax",%progbits
 475              		.align	2
 476              		.global	state_rect
 477              		.thumb
 478              		.thumb_func
 479              		.type	state_rect, %function
 480              	state_rect:
 481              	.LFB69:
 116:frucd_display.c **** 
 117:frucd_display.c **** void disp_state(uint8_t state, BMS_STATUS bms_status) { // TODO
 118:frucd_display.c ****     UG_COLOR color;
 119:frucd_display.c ****     
 120:frucd_display.c ****     switch(bms_status){        //BMS faults more important than VCU faults
 121:frucd_display.c ****         case PACK_TEMP_OVER: 
 122:frucd_display.c ****         case PACK_TEMP_UNDER:
 123:frucd_display.c ****             color = C_RED;
 124:frucd_display.c ****             state_rect(color);
 125:frucd_display.c ****             UG_PutColorString(100, 195, "BMS TEMP", C_BLACK, color);
 126:frucd_display.c ****             break;
 127:frucd_display.c ****         case LOW_SOC: 
 128:frucd_display.c ****             color = C_RED;
 129:frucd_display.c ****             state_rect(color);
 130:frucd_display.c ****             UG_PutColorString(100, 195, "LOW SOC", C_BLACK, color);
 131:frucd_display.c ****             break;
 132:frucd_display.c ****         case IMBALANCE:
 133:frucd_display.c ****             color = C_RED;
 134:frucd_display.c ****             state_rect(color);
 135:frucd_display.c ****             UG_PutColorString(100, 195, "IMBALANCE", C_BLACK, color);
 136:frucd_display.c ****             break;
 137:frucd_display.c ****         case SPI_FAULT:
 138:frucd_display.c ****             color = C_RED;
 139:frucd_display.c ****             state_rect(color);
 140:frucd_display.c ****             UG_PutColorString(100, 195, "SPI FAULT", C_BLACK, color);
 141:frucd_display.c ****             break;
ARM GAS  C:\Users\leoja\AppData\Local\Temp\ccVHTcit.s 			page 12


 142:frucd_display.c ****         case CELL_VOLT_OVER:
 143:frucd_display.c ****             color = C_RED;
 144:frucd_display.c ****             state_rect(color);
 145:frucd_display.c ****             UG_PutColorString(100, 195, "OVERVOLT", C_BLACK, color);
 146:frucd_display.c ****             break;
 147:frucd_display.c ****         case CELL_VOLT_UNDER:
 148:frucd_display.c ****             color = C_RED;
 149:frucd_display.c ****             state_rect(color);
 150:frucd_display.c ****             UG_PutColorString(100, 195, "UNDERVOLT", C_BLACK, color);
 151:frucd_display.c ****             break;
 152:frucd_display.c ****         default:
 153:frucd_display.c ****             // check fault bit
 154:frucd_display.c ****             if (state & 0x80) {
 155:frucd_display.c ****                 // *************** FAULTS ***************
 156:frucd_display.c ****                 uint8 fault = state & 0x7f; // mask off fault bit
 157:frucd_display.c ****                 switch(fault) {
 158:frucd_display.c ****                     case NONE: // STARTUP (effectively)
 159:frucd_display.c ****                         // not obtainable via CAN
 160:frucd_display.c ****                         // would only show when hardcoded on startup
 161:frucd_display.c ****                         color = C_YELLOW;
 162:frucd_display.c ****                         state_rect(color);
 163:frucd_display.c ****                         UG_PutColorString(100, 195, " STARTUP  ", C_BLACK, color);
 164:frucd_display.c ****                         break;
 165:frucd_display.c ****                     case DRIVE_REQUEST_FROM_LV:
 166:frucd_display.c ****                         color = C_RED;
 167:frucd_display.c ****                         state_rect(color);
 168:frucd_display.c ****                         UG_PutColorString(100, 195, "DRV FRM LV", C_BLACK, color);
 169:frucd_display.c ****                         break;
 170:frucd_display.c ****                     case CONSERVATIVE_TIMER_MAXED:
 171:frucd_display.c ****                         color = C_RED;
 172:frucd_display.c ****                         state_rect(color);
 173:frucd_display.c ****                         UG_PutColorString(100, 195, "PRE TM OUT", C_BLACK, color);
 174:frucd_display.c ****                         break;
 175:frucd_display.c ****                     case BRAKE_NOT_PRESSED:
 176:frucd_display.c ****                         color = C_RED;
 177:frucd_display.c ****                         state_rect(color);
 178:frucd_display.c ****                         UG_PutColorString(100, 195, "BR NOT PRS", C_BLACK, color);
 179:frucd_display.c ****                         break;
 180:frucd_display.c ****                     case HV_DISABLED_WHILE_DRIVING:
 181:frucd_display.c ****                         color = C_RED;
 182:frucd_display.c ****                         state_rect(color);
 183:frucd_display.c ****                         UG_PutColorString(100, 195, "HV OFF DRV", C_BLACK, color);
 184:frucd_display.c ****                         break;
 185:frucd_display.c ****                     case SENSOR_DISCREPANCY:
 186:frucd_display.c ****                         color = C_RED;
 187:frucd_display.c ****                         state_rect(color);
 188:frucd_display.c ****                         UG_PutColorString(100, 195, "SNSR DSCRP", C_BLACK, color);
 189:frucd_display.c ****                         break;
 190:frucd_display.c ****                     case BRAKE_IMPLAUSIBLE:
 191:frucd_display.c ****                         color = C_YELLOW;
 192:frucd_display.c ****                         state_rect(color);
 193:frucd_display.c ****                         UG_PutColorString(100, 195, "BSPD TRIPD", C_BLACK, color); //whitespace to 
 194:frucd_display.c ****                         break;
 195:frucd_display.c ****                     case SHUTDOWN_CIRCUIT_OPEN:
 196:frucd_display.c ****                         color = C_RED;
 197:frucd_display.c ****                         state_rect(color);
 198:frucd_display.c ****                         UG_PutColorString(100, 195, "SHTDWN OPN", C_BLACK, color); //whitespace to 
ARM GAS  C:\Users\leoja\AppData\Local\Temp\ccVHTcit.s 			page 13


 199:frucd_display.c ****                         break;
 200:frucd_display.c ****                     case UNCALIBRATED:
 201:frucd_display.c ****                         color = C_RED;
 202:frucd_display.c ****                         state_rect(color);
 203:frucd_display.c ****                         UG_PutColorString(100, 195, "UNCALIBRATED", C_BLACK, color); //whitespace t
 204:frucd_display.c ****                         break;
 205:frucd_display.c ****                 }
 206:frucd_display.c ****                 
 207:frucd_display.c ****             } else {
 208:frucd_display.c ****                 // *************** NO FAULTS ***************
 209:frucd_display.c ****                 color = C_GREEN;
 210:frucd_display.c ****                 state_rect(color);
 211:frucd_display.c ****                 switch(state) {
 212:frucd_display.c ****                     case LV:
 213:frucd_display.c ****                         UG_PutColorString(100, 195, "    LV    ", C_BLACK, color);
 214:frucd_display.c ****                         break;
 215:frucd_display.c ****                     case PRECHARGING:
 216:frucd_display.c ****                         UG_PutColorString(100, 195, "PRECHARGE ", C_BLACK, color);
 217:frucd_display.c ****                         break;
 218:frucd_display.c ****                     case HV_ENABLED:
 219:frucd_display.c ****                         UG_PutColorString(100, 195, "HV ENABLED", C_BLACK, color);
 220:frucd_display.c ****                         break;
 221:frucd_display.c ****                     case DRIVE:
 222:frucd_display.c ****                         UG_PutColorString(100, 195, "  DRIVE   ", C_BLACK, color);
 223:frucd_display.c ****                         break;
 224:frucd_display.c ****                 }
 225:frucd_display.c ****             }
 226:frucd_display.c ****             break; 
 227:frucd_display.c ****     }
 228:frucd_display.c **** }
 229:frucd_display.c **** 
 230:frucd_display.c **** void state_rect(UG_COLOR color){
 482              		.loc 1 230 0
 483              		.cfi_startproc
 484              		@ args = 0, pretend = 0, frame = 0
 485              		@ frame_needed = 0, uses_anonymous_args = 0
 486              	.LVL43:
 231:frucd_display.c ****     if (color != last_state_color) {
 487              		.loc 1 231 0
 488 0000 094B     		ldr	r3, .L36
 489 0002 1B68     		ldr	r3, [r3]
 490 0004 8342     		cmp	r3, r0
 491 0006 0DD0     		beq	.L35
 230:frucd_display.c ****     if (color != last_state_color) {
 492              		.loc 1 230 0
 493 0008 10B5     		push	{r4, lr}
 494              		.cfi_def_cfa_offset 8
 495              		.cfi_offset 4, -8
 496              		.cfi_offset 14, -4
 497 000a 82B0     		sub	sp, sp, #8
 498              		.cfi_def_cfa_offset 16
 499 000c 0446     		mov	r4, r0
 232:frucd_display.c ****         // only draw rectangle if color changed
 233:frucd_display.c ****         UG_FillFrame(95, 185, 240, 215, color);
 500              		.loc 1 233 0
 501 000e 0090     		str	r0, [sp]
 502 0010 D723     		movs	r3, #215
ARM GAS  C:\Users\leoja\AppData\Local\Temp\ccVHTcit.s 			page 14


 503 0012 F022     		movs	r2, #240
 504 0014 B921     		movs	r1, #185
 505 0016 5F20     		movs	r0, #95
 506              	.LVL44:
 507 0018 FFF7FEFF 		bl	UG_FillFrame
 508              	.LVL45:
 234:frucd_display.c ****         last_state_color = color;
 509              		.loc 1 234 0
 510 001c 024B     		ldr	r3, .L36
 511 001e 1C60     		str	r4, [r3]
 235:frucd_display.c ****     }
 236:frucd_display.c **** }
 512              		.loc 1 236 0
 513 0020 02B0     		add	sp, sp, #8
 514              		.cfi_def_cfa_offset 8
 515              		@ sp needed
 516 0022 10BD     		pop	{r4, pc}
 517              	.LVL46:
 518              	.L35:
 519              		.cfi_def_cfa_offset 0
 520              		.cfi_restore 4
 521              		.cfi_restore 14
 522 0024 7047     		bx	lr
 523              	.L37:
 524 0026 00BF     		.align	2
 525              	.L36:
 526 0028 00000000 		.word	last_state_color
 527              		.cfi_endproc
 528              	.LFE69:
 529              		.size	state_rect, .-state_rect
 530              		.section	.text.disp_state,"ax",%progbits
 531              		.align	2
 532              		.global	disp_state
 533              		.thumb
 534              		.thumb_func
 535              		.type	disp_state, %function
 536              	disp_state:
 537              	.LFB68:
 117:frucd_display.c ****     UG_COLOR color;
 538              		.loc 1 117 0
 539              		.cfi_startproc
 540              		@ args = 0, pretend = 0, frame = 0
 541              		@ frame_needed = 0, uses_anonymous_args = 0
 542              	.LVL47:
 543 0000 10B5     		push	{r4, lr}
 544              		.cfi_def_cfa_offset 8
 545              		.cfi_offset 4, -8
 546              		.cfi_offset 14, -4
 547 0002 82B0     		sub	sp, sp, #8
 548              		.cfi_def_cfa_offset 16
 120:frucd_display.c ****         case PACK_TEMP_OVER: 
 549              		.loc 1 120 0
 550 0004 4029     		cmp	r1, #64
 551 0006 2ED0     		beq	.L40
 552 0008 0446     		mov	r4, r0
 553 000a 06D8     		bhi	.L41
 554 000c 0829     		cmp	r1, #8
ARM GAS  C:\Users\leoja\AppData\Local\Temp\ccVHTcit.s 			page 15


 555 000e 0ED0     		beq	.L42
 556 0010 1029     		cmp	r1, #16
 557 0012 1AD0     		beq	.L43
 558 0014 0229     		cmp	r1, #2
 559 0016 5ED1     		bne	.L39
 560 0018 09E0     		b	.L42
 561              	.L41:
 562 001a B1F5006F 		cmp	r1, #2048
 563 001e 3ED0     		beq	.L44
 564 0020 B1F5805F 		cmp	r1, #4096
 565 0024 49D0     		beq	.L45
 566 0026 B1F5806F 		cmp	r1, #1024
 567 002a 54D1     		bne	.L39
 568 002c 29E0     		b	.L46
 569              	.L42:
 570              	.LVL48:
 124:frucd_display.c ****             UG_PutColorString(100, 195, "BMS TEMP", C_BLACK, color);
 571              		.loc 1 124 0
 572 002e 4FF47F00 		mov	r0, #16711680
 573              	.LVL49:
 574 0032 FFF7FEFF 		bl	state_rect
 575              	.LVL50:
 125:frucd_display.c ****             break;
 576              		.loc 1 125 0
 577 0036 4FF47F03 		mov	r3, #16711680
 578 003a 0093     		str	r3, [sp]
 579 003c 0023     		movs	r3, #0
 580 003e 844A     		ldr	r2, .L65
 581 0040 C321     		movs	r1, #195
 582 0042 6420     		movs	r0, #100
 583 0044 FFF7FEFF 		bl	UG_PutColorString
 584              	.LVL51:
 126:frucd_display.c ****         case LOW_SOC: 
 585              		.loc 1 126 0
 586 0048 00E1     		b	.L38
 587              	.LVL52:
 588              	.L43:
 129:frucd_display.c ****             UG_PutColorString(100, 195, "LOW SOC", C_BLACK, color);
 589              		.loc 1 129 0
 590 004a 4FF47F00 		mov	r0, #16711680
 591              	.LVL53:
 592 004e FFF7FEFF 		bl	state_rect
 593              	.LVL54:
 130:frucd_display.c ****             break;
 594              		.loc 1 130 0
 595 0052 4FF47F03 		mov	r3, #16711680
 596 0056 0093     		str	r3, [sp]
 597 0058 0023     		movs	r3, #0
 598 005a 7E4A     		ldr	r2, .L65+4
 599 005c C321     		movs	r1, #195
 600 005e 6420     		movs	r0, #100
 601 0060 FFF7FEFF 		bl	UG_PutColorString
 602              	.LVL55:
 131:frucd_display.c ****         case IMBALANCE:
 603              		.loc 1 131 0
 604 0064 F2E0     		b	.L38
 605              	.LVL56:
ARM GAS  C:\Users\leoja\AppData\Local\Temp\ccVHTcit.s 			page 16


 606              	.L40:
 134:frucd_display.c ****             UG_PutColorString(100, 195, "IMBALANCE", C_BLACK, color);
 607              		.loc 1 134 0
 608 0066 4FF47F00 		mov	r0, #16711680
 609              	.LVL57:
 610 006a FFF7FEFF 		bl	state_rect
 611              	.LVL58:
 135:frucd_display.c ****             break;
 612              		.loc 1 135 0
 613 006e 4FF47F03 		mov	r3, #16711680
 614 0072 0093     		str	r3, [sp]
 615 0074 0023     		movs	r3, #0
 616 0076 784A     		ldr	r2, .L65+8
 617 0078 C321     		movs	r1, #195
 618 007a 6420     		movs	r0, #100
 619 007c FFF7FEFF 		bl	UG_PutColorString
 620              	.LVL59:
 136:frucd_display.c ****         case SPI_FAULT:
 621              		.loc 1 136 0
 622 0080 E4E0     		b	.L38
 623              	.LVL60:
 624              	.L46:
 139:frucd_display.c ****             UG_PutColorString(100, 195, "SPI FAULT", C_BLACK, color);
 625              		.loc 1 139 0
 626 0082 4FF47F00 		mov	r0, #16711680
 627              	.LVL61:
 628 0086 FFF7FEFF 		bl	state_rect
 629              	.LVL62:
 140:frucd_display.c ****             break;
 630              		.loc 1 140 0
 631 008a 4FF47F03 		mov	r3, #16711680
 632 008e 0093     		str	r3, [sp]
 633 0090 0023     		movs	r3, #0
 634 0092 724A     		ldr	r2, .L65+12
 635 0094 C321     		movs	r1, #195
 636 0096 6420     		movs	r0, #100
 637 0098 FFF7FEFF 		bl	UG_PutColorString
 638              	.LVL63:
 141:frucd_display.c ****         case CELL_VOLT_OVER:
 639              		.loc 1 141 0
 640 009c D6E0     		b	.L38
 641              	.LVL64:
 642              	.L44:
 144:frucd_display.c ****             UG_PutColorString(100, 195, "OVERVOLT", C_BLACK, color);
 643              		.loc 1 144 0
 644 009e 4FF47F00 		mov	r0, #16711680
 645              	.LVL65:
 646 00a2 FFF7FEFF 		bl	state_rect
 647              	.LVL66:
 145:frucd_display.c ****             break;
 648              		.loc 1 145 0
 649 00a6 4FF47F03 		mov	r3, #16711680
 650 00aa 0093     		str	r3, [sp]
 651 00ac 0023     		movs	r3, #0
 652 00ae 6C4A     		ldr	r2, .L65+16
 653 00b0 C321     		movs	r1, #195
 654 00b2 6420     		movs	r0, #100
ARM GAS  C:\Users\leoja\AppData\Local\Temp\ccVHTcit.s 			page 17


 655 00b4 FFF7FEFF 		bl	UG_PutColorString
 656              	.LVL67:
 146:frucd_display.c ****         case CELL_VOLT_UNDER:
 657              		.loc 1 146 0
 658 00b8 C8E0     		b	.L38
 659              	.LVL68:
 660              	.L45:
 149:frucd_display.c ****             UG_PutColorString(100, 195, "UNDERVOLT", C_BLACK, color);
 661              		.loc 1 149 0
 662 00ba 4FF47F00 		mov	r0, #16711680
 663              	.LVL69:
 664 00be FFF7FEFF 		bl	state_rect
 665              	.LVL70:
 150:frucd_display.c ****             break;
 666              		.loc 1 150 0
 667 00c2 4FF47F03 		mov	r3, #16711680
 668 00c6 0093     		str	r3, [sp]
 669 00c8 0023     		movs	r3, #0
 670 00ca 664A     		ldr	r2, .L65+20
 671 00cc C321     		movs	r1, #195
 672 00ce 6420     		movs	r0, #100
 673 00d0 FFF7FEFF 		bl	UG_PutColorString
 674              	.LVL71:
 151:frucd_display.c ****         default:
 675              		.loc 1 151 0
 676 00d4 BAE0     		b	.L38
 677              	.LVL72:
 678              	.L39:
 154:frucd_display.c ****                 // *************** FAULTS ***************
 679              		.loc 1 154 0
 680 00d6 14F0800F 		tst	r4, #128
 681 00da 00F08680 		beq	.L48
 682              	.LBB3:
 156:frucd_display.c ****                 switch(fault) {
 683              		.loc 1 156 0
 684 00de 04F07F04 		and	r4, r4, #127
 685              	.LVL73:
 157:frucd_display.c ****                     case NONE: // STARTUP (effectively)
 686              		.loc 1 157 0
 687 00e2 082C     		cmp	r4, #8
 688 00e4 00F2B280 		bhi	.L38
 689 00e8 DFE804F0 		tbb	[pc, r4]
 690              	.L50:
 691 00ec 05       		.byte	(.L49-.L50)/2
 692 00ed 11       		.byte	(.L51-.L50)/2
 693 00ee 1F       		.byte	(.L52-.L50)/2
 694 00ef 2D       		.byte	(.L53-.L50)/2
 695 00f0 3B       		.byte	(.L54-.L50)/2
 696 00f1 49       		.byte	(.L55-.L50)/2
 697 00f2 57       		.byte	(.L56-.L50)/2
 698 00f3 63       		.byte	(.L57-.L50)/2
 699 00f4 71       		.byte	(.L58-.L50)/2
 700 00f5 00       		.p2align 1
 701              	.L49:
 702              	.LVL74:
 162:frucd_display.c ****                         UG_PutColorString(100, 195, " STARTUP  ", C_BLACK, color);
 703              		.loc 1 162 0
ARM GAS  C:\Users\leoja\AppData\Local\Temp\ccVHTcit.s 			page 18


 704 00f6 5C4C     		ldr	r4, .L65+24
 705              	.LVL75:
 706 00f8 2046     		mov	r0, r4
 707              	.LVL76:
 708 00fa FFF7FEFF 		bl	state_rect
 709              	.LVL77:
 163:frucd_display.c ****                         break;
 710              		.loc 1 163 0
 711 00fe 0094     		str	r4, [sp]
 712 0100 0023     		movs	r3, #0
 713 0102 5A4A     		ldr	r2, .L65+28
 714 0104 C321     		movs	r1, #195
 715 0106 6420     		movs	r0, #100
 716 0108 FFF7FEFF 		bl	UG_PutColorString
 717              	.LVL78:
 164:frucd_display.c ****                     case DRIVE_REQUEST_FROM_LV:
 718              		.loc 1 164 0
 719 010c 9EE0     		b	.L38
 720              	.LVL79:
 721              	.L51:
 167:frucd_display.c ****                         UG_PutColorString(100, 195, "DRV FRM LV", C_BLACK, color);
 722              		.loc 1 167 0
 723 010e 4FF47F00 		mov	r0, #16711680
 724              	.LVL80:
 725 0112 FFF7FEFF 		bl	state_rect
 726              	.LVL81:
 168:frucd_display.c ****                         break;
 727              		.loc 1 168 0
 728 0116 4FF47F03 		mov	r3, #16711680
 729 011a 0093     		str	r3, [sp]
 730 011c 0023     		movs	r3, #0
 731 011e 544A     		ldr	r2, .L65+32
 732 0120 C321     		movs	r1, #195
 733 0122 6420     		movs	r0, #100
 734 0124 FFF7FEFF 		bl	UG_PutColorString
 735              	.LVL82:
 169:frucd_display.c ****                     case CONSERVATIVE_TIMER_MAXED:
 736              		.loc 1 169 0
 737 0128 90E0     		b	.L38
 738              	.LVL83:
 739              	.L52:
 172:frucd_display.c ****                         UG_PutColorString(100, 195, "PRE TM OUT", C_BLACK, color);
 740              		.loc 1 172 0
 741 012a 4FF47F00 		mov	r0, #16711680
 742              	.LVL84:
 743 012e FFF7FEFF 		bl	state_rect
 744              	.LVL85:
 173:frucd_display.c ****                         break;
 745              		.loc 1 173 0
 746 0132 4FF47F03 		mov	r3, #16711680
 747 0136 0093     		str	r3, [sp]
 748 0138 0023     		movs	r3, #0
 749 013a 4E4A     		ldr	r2, .L65+36
 750 013c C321     		movs	r1, #195
 751 013e 6420     		movs	r0, #100
 752 0140 FFF7FEFF 		bl	UG_PutColorString
 753              	.LVL86:
ARM GAS  C:\Users\leoja\AppData\Local\Temp\ccVHTcit.s 			page 19


 174:frucd_display.c ****                     case BRAKE_NOT_PRESSED:
 754              		.loc 1 174 0
 755 0144 82E0     		b	.L38
 756              	.LVL87:
 757              	.L53:
 177:frucd_display.c ****                         UG_PutColorString(100, 195, "BR NOT PRS", C_BLACK, color);
 758              		.loc 1 177 0
 759 0146 4FF47F00 		mov	r0, #16711680
 760              	.LVL88:
 761 014a FFF7FEFF 		bl	state_rect
 762              	.LVL89:
 178:frucd_display.c ****                         break;
 763              		.loc 1 178 0
 764 014e 4FF47F03 		mov	r3, #16711680
 765 0152 0093     		str	r3, [sp]
 766 0154 0023     		movs	r3, #0
 767 0156 484A     		ldr	r2, .L65+40
 768 0158 C321     		movs	r1, #195
 769 015a 6420     		movs	r0, #100
 770 015c FFF7FEFF 		bl	UG_PutColorString
 771              	.LVL90:
 179:frucd_display.c ****                     case HV_DISABLED_WHILE_DRIVING:
 772              		.loc 1 179 0
 773 0160 74E0     		b	.L38
 774              	.LVL91:
 775              	.L54:
 182:frucd_display.c ****                         UG_PutColorString(100, 195, "HV OFF DRV", C_BLACK, color);
 776              		.loc 1 182 0
 777 0162 4FF47F00 		mov	r0, #16711680
 778              	.LVL92:
 779 0166 FFF7FEFF 		bl	state_rect
 780              	.LVL93:
 183:frucd_display.c ****                         break;
 781              		.loc 1 183 0
 782 016a 4FF47F03 		mov	r3, #16711680
 783 016e 0093     		str	r3, [sp]
 784 0170 0023     		movs	r3, #0
 785 0172 424A     		ldr	r2, .L65+44
 786 0174 C321     		movs	r1, #195
 787 0176 6420     		movs	r0, #100
 788 0178 FFF7FEFF 		bl	UG_PutColorString
 789              	.LVL94:
 184:frucd_display.c ****                     case SENSOR_DISCREPANCY:
 790              		.loc 1 184 0
 791 017c 66E0     		b	.L38
 792              	.LVL95:
 793              	.L55:
 187:frucd_display.c ****                         UG_PutColorString(100, 195, "SNSR DSCRP", C_BLACK, color);
 794              		.loc 1 187 0
 795 017e 4FF47F00 		mov	r0, #16711680
 796              	.LVL96:
 797 0182 FFF7FEFF 		bl	state_rect
 798              	.LVL97:
 188:frucd_display.c ****                         break;
 799              		.loc 1 188 0
 800 0186 4FF47F03 		mov	r3, #16711680
 801 018a 0093     		str	r3, [sp]
ARM GAS  C:\Users\leoja\AppData\Local\Temp\ccVHTcit.s 			page 20


 802 018c 0023     		movs	r3, #0
 803 018e 3C4A     		ldr	r2, .L65+48
 804 0190 C321     		movs	r1, #195
 805 0192 6420     		movs	r0, #100
 806 0194 FFF7FEFF 		bl	UG_PutColorString
 807              	.LVL98:
 189:frucd_display.c ****                     case BRAKE_IMPLAUSIBLE:
 808              		.loc 1 189 0
 809 0198 58E0     		b	.L38
 810              	.LVL99:
 811              	.L56:
 192:frucd_display.c ****                         UG_PutColorString(100, 195, "BSPD TRIPD", C_BLACK, color); //whitespace to 
 812              		.loc 1 192 0
 813 019a 334C     		ldr	r4, .L65+24
 814              	.LVL100:
 815 019c 2046     		mov	r0, r4
 816              	.LVL101:
 817 019e FFF7FEFF 		bl	state_rect
 818              	.LVL102:
 193:frucd_display.c ****                         break;
 819              		.loc 1 193 0
 820 01a2 0094     		str	r4, [sp]
 821 01a4 0023     		movs	r3, #0
 822 01a6 374A     		ldr	r2, .L65+52
 823 01a8 C321     		movs	r1, #195
 824 01aa 6420     		movs	r0, #100
 825 01ac FFF7FEFF 		bl	UG_PutColorString
 826              	.LVL103:
 194:frucd_display.c ****                     case SHUTDOWN_CIRCUIT_OPEN:
 827              		.loc 1 194 0
 828 01b0 4CE0     		b	.L38
 829              	.LVL104:
 830              	.L57:
 197:frucd_display.c ****                         UG_PutColorString(100, 195, "SHTDWN OPN", C_BLACK, color); //whitespace to 
 831              		.loc 1 197 0
 832 01b2 4FF47F00 		mov	r0, #16711680
 833              	.LVL105:
 834 01b6 FFF7FEFF 		bl	state_rect
 835              	.LVL106:
 198:frucd_display.c ****                         break;
 836              		.loc 1 198 0
 837 01ba 4FF47F03 		mov	r3, #16711680
 838 01be 0093     		str	r3, [sp]
 839 01c0 0023     		movs	r3, #0
 840 01c2 314A     		ldr	r2, .L65+56
 841 01c4 C321     		movs	r1, #195
 842 01c6 6420     		movs	r0, #100
 843 01c8 FFF7FEFF 		bl	UG_PutColorString
 844              	.LVL107:
 199:frucd_display.c ****                     case UNCALIBRATED:
 845              		.loc 1 199 0
 846 01cc 3EE0     		b	.L38
 847              	.LVL108:
 848              	.L58:
 202:frucd_display.c ****                         UG_PutColorString(100, 195, "UNCALIBRATED", C_BLACK, color); //whitespace t
 849              		.loc 1 202 0
 850 01ce 4FF47F00 		mov	r0, #16711680
ARM GAS  C:\Users\leoja\AppData\Local\Temp\ccVHTcit.s 			page 21


 851              	.LVL109:
 852 01d2 FFF7FEFF 		bl	state_rect
 853              	.LVL110:
 203:frucd_display.c ****                         break;
 854              		.loc 1 203 0
 855 01d6 4FF47F03 		mov	r3, #16711680
 856 01da 0093     		str	r3, [sp]
 857 01dc 0023     		movs	r3, #0
 858 01de 2B4A     		ldr	r2, .L65+60
 859 01e0 C321     		movs	r1, #195
 860 01e2 6420     		movs	r0, #100
 861 01e4 FFF7FEFF 		bl	UG_PutColorString
 862              	.LVL111:
 204:frucd_display.c ****                 }
 863              		.loc 1 204 0
 864 01e8 30E0     		b	.L38
 865              	.LVL112:
 866              	.L48:
 867              	.LBE3:
 210:frucd_display.c ****                 switch(state) {
 868              		.loc 1 210 0
 869 01ea 4FF47F40 		mov	r0, #65280
 870              	.LVL113:
 871 01ee FFF7FEFF 		bl	state_rect
 872              	.LVL114:
 211:frucd_display.c ****                     case LV:
 873              		.loc 1 211 0
 874 01f2 032C     		cmp	r4, #3
 875 01f4 2AD8     		bhi	.L38
 876 01f6 DFE804F0 		tbb	[pc, r4]
 877              	.L60:
 878 01fa 02       		.byte	(.L59-.L60)/2
 879 01fb 0C       		.byte	(.L61-.L60)/2
 880 01fc 16       		.byte	(.L62-.L60)/2
 881 01fd 20       		.byte	(.L63-.L60)/2
 882              		.p2align 1
 883              	.L59:
 213:frucd_display.c ****                         break;
 884              		.loc 1 213 0
 885 01fe 4FF47F43 		mov	r3, #65280
 886 0202 0093     		str	r3, [sp]
 887 0204 0023     		movs	r3, #0
 888 0206 224A     		ldr	r2, .L65+64
 889 0208 C321     		movs	r1, #195
 890 020a 6420     		movs	r0, #100
 891 020c FFF7FEFF 		bl	UG_PutColorString
 892              	.LVL115:
 214:frucd_display.c ****                     case PRECHARGING:
 893              		.loc 1 214 0
 894 0210 1CE0     		b	.L38
 895              	.L61:
 216:frucd_display.c ****                         break;
 896              		.loc 1 216 0
 897 0212 4FF47F43 		mov	r3, #65280
 898 0216 0093     		str	r3, [sp]
 899 0218 0023     		movs	r3, #0
 900 021a 1E4A     		ldr	r2, .L65+68
ARM GAS  C:\Users\leoja\AppData\Local\Temp\ccVHTcit.s 			page 22


 901 021c C321     		movs	r1, #195
 902 021e 6420     		movs	r0, #100
 903 0220 FFF7FEFF 		bl	UG_PutColorString
 904              	.LVL116:
 217:frucd_display.c ****                     case HV_ENABLED:
 905              		.loc 1 217 0
 906 0224 12E0     		b	.L38
 907              	.L62:
 219:frucd_display.c ****                         break;
 908              		.loc 1 219 0
 909 0226 4FF47F43 		mov	r3, #65280
 910 022a 0093     		str	r3, [sp]
 911 022c 0023     		movs	r3, #0
 912 022e 1A4A     		ldr	r2, .L65+72
 913 0230 C321     		movs	r1, #195
 914 0232 6420     		movs	r0, #100
 915 0234 FFF7FEFF 		bl	UG_PutColorString
 916              	.LVL117:
 220:frucd_display.c ****                     case DRIVE:
 917              		.loc 1 220 0
 918 0238 08E0     		b	.L38
 919              	.L63:
 222:frucd_display.c ****                         break;
 920              		.loc 1 222 0
 921 023a 4FF47F43 		mov	r3, #65280
 922 023e 0093     		str	r3, [sp]
 923 0240 0023     		movs	r3, #0
 924 0242 164A     		ldr	r2, .L65+76
 925 0244 C321     		movs	r1, #195
 926 0246 6420     		movs	r0, #100
 927 0248 FFF7FEFF 		bl	UG_PutColorString
 928              	.LVL118:
 929              	.L38:
 228:frucd_display.c **** 
 930              		.loc 1 228 0
 931 024c 02B0     		add	sp, sp, #8
 932              		.cfi_def_cfa_offset 8
 933              		@ sp needed
 934 024e 10BD     		pop	{r4, pc}
 935              	.L66:
 936              		.align	2
 937              	.L65:
 938 0250 48000000 		.word	.LC8
 939 0254 54000000 		.word	.LC9
 940 0258 5C000000 		.word	.LC10
 941 025c 68000000 		.word	.LC11
 942 0260 74000000 		.word	.LC12
 943 0264 80000000 		.word	.LC13
 944 0268 00FFFF00 		.word	16776960
 945 026c 8C000000 		.word	.LC14
 946 0270 98000000 		.word	.LC15
 947 0274 A4000000 		.word	.LC16
 948 0278 B0000000 		.word	.LC17
 949 027c BC000000 		.word	.LC18
 950 0280 C8000000 		.word	.LC19
 951 0284 D4000000 		.word	.LC20
 952 0288 E0000000 		.word	.LC21
ARM GAS  C:\Users\leoja\AppData\Local\Temp\ccVHTcit.s 			page 23


 953 028c EC000000 		.word	.LC22
 954 0290 FC000000 		.word	.LC23
 955 0294 08010000 		.word	.LC24
 956 0298 14010000 		.word	.LC25
 957 029c 20010000 		.word	.LC26
 958              		.cfi_endproc
 959              	.LFE68:
 960              		.size	disp_state, .-disp_state
 961              		.section	.text.disp_glv_v,"ax",%progbits
 962              		.align	2
 963              		.global	disp_glv_v
 964              		.thumb
 965              		.thumb_func
 966              		.type	disp_glv_v, %function
 967              	disp_glv_v:
 968              	.LFB70:
 237:frucd_display.c **** 
 238:frucd_display.c **** void disp_glv_v(uint32_t data) {
 969              		.loc 1 238 0
 970              		.cfi_startproc
 971              		@ args = 0, pretend = 0, frame = 8
 972              		@ frame_needed = 0, uses_anonymous_args = 0
 973              	.LVL119:
 974 0000 30B5     		push	{r4, r5, lr}
 975              		.cfi_def_cfa_offset 12
 976              		.cfi_offset 4, -12
 977              		.cfi_offset 5, -8
 978              		.cfi_offset 14, -4
 979 0002 85B0     		sub	sp, sp, #20
 980              		.cfi_def_cfa_offset 32
 239:frucd_display.c ****     // translate from voltage divider measurement to true voltage
 240:frucd_display.c ****     // y = 0.4295x + 18.254
 241:frucd_display.c ****     data *= 859;
 981              		.loc 1 241 0
 982 0004 40F25B34 		movw	r4, #859
 983 0008 04FB00F0 		mul	r0, r4, r0
 984              	.LVL120:
 242:frucd_display.c ****     data /= 2000; // 0.4295
 985              		.loc 1 242 0
 986 000c 2B4C     		ldr	r4, .L75
 987 000e A4FB0034 		umull	r3, r4, r4, r0
 988 0012 E409     		lsrs	r4, r4, #7
 989              	.LVL121:
 243:frucd_display.c ****     data += 18;
 990              		.loc 1 243 0
 991 0014 1234     		adds	r4, r4, #18
 992              	.LVL122:
 244:frucd_display.c ****     UG_COLOR color;
 245:frucd_display.c ****     if (data > 1150) {
 993              		.loc 1 245 0
 994 0016 40F27E43 		movw	r3, #1150
 995 001a 9C42     		cmp	r4, r3
 996 001c 09D8     		bhi	.L71
 246:frucd_display.c ****         color = C_GREEN;
 247:frucd_display.c ****     } else if (data > 1100) {
 997              		.loc 1 247 0
 998 001e 40F24C43 		movw	r3, #1100
ARM GAS  C:\Users\leoja\AppData\Local\Temp\ccVHTcit.s 			page 24


 999 0022 9C42     		cmp	r4, r3
 1000 0024 08D8     		bhi	.L72
 248:frucd_display.c ****         color = C_YELLOW;
 249:frucd_display.c ****     } else if (data > 1050) {
 1001              		.loc 1 249 0
 1002 0026 40F21A43 		movw	r3, #1050
 1003 002a 9C42     		cmp	r4, r3
 1004 002c 06D9     		bls	.L73
 250:frucd_display.c ****         color = C_ORANGE;
 1005              		.loc 1 250 0
 1006 002e 244D     		ldr	r5, .L75+4
 1007 0030 06E0     		b	.L68
 1008              	.L71:
 246:frucd_display.c ****         color = C_GREEN;
 1009              		.loc 1 246 0
 1010 0032 4FF47F45 		mov	r5, #65280
 1011 0036 03E0     		b	.L68
 1012              	.L72:
 248:frucd_display.c ****         color = C_YELLOW;
 1013              		.loc 1 248 0
 1014 0038 224D     		ldr	r5, .L75+8
 1015 003a 01E0     		b	.L68
 1016              	.L73:
 251:frucd_display.c ****     } else {
 252:frucd_display.c ****         color = C_RED;
 1017              		.loc 1 252 0
 1018 003c 4FF47F05 		mov	r5, #16711680
 1019              	.L68:
 1020              	.LVL123:
 253:frucd_display.c ****     }
 254:frucd_display.c ****     if (color != last_glv_v_color) {
 1021              		.loc 1 254 0
 1022 0040 214B     		ldr	r3, .L75+12
 1023 0042 1B68     		ldr	r3, [r3]
 1024 0044 9D42     		cmp	r5, r3
 1025 0046 09D0     		beq	.L69
 255:frucd_display.c ****         // only draw rectangle if color changed
 256:frucd_display.c ****         UG_FillFrame(95, 230, 182, 260, color);
 1026              		.loc 1 256 0
 1027 0048 0095     		str	r5, [sp]
 1028 004a 4FF48273 		mov	r3, #260
 1029 004e B622     		movs	r2, #182
 1030 0050 E621     		movs	r1, #230
 1031 0052 5F20     		movs	r0, #95
 1032 0054 FFF7FEFF 		bl	UG_FillFrame
 1033              	.LVL124:
 257:frucd_display.c ****         last_glv_v_color = color;
 1034              		.loc 1 257 0
 1035 0058 1B4B     		ldr	r3, .L75+12
 1036 005a 1D60     		str	r5, [r3]
 1037              	.L69:
 258:frucd_display.c ****     }
 259:frucd_display.c ****     char data_s[7];
 260:frucd_display.c ****     sprintf(data_s, "%d", data);
 1038              		.loc 1 260 0
 1039 005c 2246     		mov	r2, r4
 1040 005e 1B49     		ldr	r1, .L75+16
ARM GAS  C:\Users\leoja\AppData\Local\Temp\ccVHTcit.s 			page 25


 1041 0060 02A8     		add	r0, sp, #8
 1042 0062 FFF7FEFF 		bl	sprintf
 1043              	.LVL125:
 261:frucd_display.c ****     // handle 3 digit cases; 2 and 1 are practically impossible
 262:frucd_display.c ****     if (data < 1000) {
 1044              		.loc 1 262 0
 1045 0066 B4F57A7F 		cmp	r4, #1000
 1046 006a 0ED2     		bcs	.L70
 263:frucd_display.c ****         data_s[3] = data_s[2];
 1047              		.loc 1 263 0
 1048 006c 9DF80A30 		ldrb	r3, [sp, #10]	@ zero_extendqisi2
 1049 0070 8DF80B30 		strb	r3, [sp, #11]
 264:frucd_display.c ****         data_s[2] = data_s[1];
 1050              		.loc 1 264 0
 1051 0074 9DF80930 		ldrb	r3, [sp, #9]	@ zero_extendqisi2
 1052 0078 8DF80A30 		strb	r3, [sp, #10]
 265:frucd_display.c ****         data_s[1] = data_s[0];  
 1053              		.loc 1 265 0
 1054 007c 9DF80830 		ldrb	r3, [sp, #8]	@ zero_extendqisi2
 1055 0080 8DF80930 		strb	r3, [sp, #9]
 266:frucd_display.c ****         data_s[0] = ' ';
 1056              		.loc 1 266 0
 1057 0084 2023     		movs	r3, #32
 1058 0086 8DF80830 		strb	r3, [sp, #8]
 1059              	.L70:
 267:frucd_display.c ****     }
 268:frucd_display.c ****     // shift over fractional part
 269:frucd_display.c ****     data_s[4] = data_s[3];
 1060              		.loc 1 269 0
 1061 008a 9DF80B30 		ldrb	r3, [sp, #11]	@ zero_extendqisi2
 1062 008e 8DF80C30 		strb	r3, [sp, #12]
 270:frucd_display.c ****     data_s[3] = data_s[2];
 1063              		.loc 1 270 0
 1064 0092 9DF80A30 		ldrb	r3, [sp, #10]	@ zero_extendqisi2
 1065 0096 8DF80B30 		strb	r3, [sp, #11]
 271:frucd_display.c ****     // add syntax
 272:frucd_display.c ****     data_s[2] = '.';
 1066              		.loc 1 272 0
 1067 009a 2E23     		movs	r3, #46
 1068 009c 8DF80A30 		strb	r3, [sp, #10]
 273:frucd_display.c ****     data_s[5] = 'V';
 1069              		.loc 1 273 0
 1070 00a0 5623     		movs	r3, #86
 1071 00a2 8DF80D30 		strb	r3, [sp, #13]
 274:frucd_display.c ****     data_s[6] = '\0';
 1072              		.loc 1 274 0
 1073 00a6 0023     		movs	r3, #0
 1074 00a8 8DF80E30 		strb	r3, [sp, #14]
 275:frucd_display.c ****     UG_PutColorString(100, 240, data_s, C_BLACK, color);
 1075              		.loc 1 275 0
 1076 00ac 0095     		str	r5, [sp]
 1077 00ae 02AA     		add	r2, sp, #8
 1078 00b0 F021     		movs	r1, #240
 1079 00b2 6420     		movs	r0, #100
 1080 00b4 FFF7FEFF 		bl	UG_PutColorString
 1081              	.LVL126:
 276:frucd_display.c **** }
ARM GAS  C:\Users\leoja\AppData\Local\Temp\ccVHTcit.s 			page 26


 1082              		.loc 1 276 0
 1083 00b8 05B0     		add	sp, sp, #20
 1084              		.cfi_def_cfa_offset 12
 1085              		@ sp needed
 1086 00ba 30BD     		pop	{r4, r5, pc}
 1087              	.LVL127:
 1088              	.L76:
 1089              		.align	2
 1090              	.L75:
 1091 00bc D34D6210 		.word	274877907
 1092 00c0 00A5FF00 		.word	16753920
 1093 00c4 00FFFF00 		.word	16776960
 1094 00c8 00000000 		.word	last_glv_v_color
 1095 00cc 44000000 		.word	.LC7
 1096              		.cfi_endproc
 1097              	.LFE70:
 1098              		.size	disp_glv_v, .-disp_glv_v
 1099              		.section	.text.disp_mc_temp,"ax",%progbits
 1100              		.align	2
 1101              		.global	disp_mc_temp
 1102              		.thumb
 1103              		.thumb_func
 1104              		.type	disp_mc_temp, %function
 1105              	disp_mc_temp:
 1106              	.LFB71:
 277:frucd_display.c **** 
 278:frucd_display.c **** void disp_mc_temp(uint16_t data) {
 1107              		.loc 1 278 0
 1108              		.cfi_startproc
 1109              		@ args = 0, pretend = 0, frame = 8
 1110              		@ frame_needed = 0, uses_anonymous_args = 0
 1111              	.LVL128:
 1112 0000 30B5     		push	{r4, r5, lr}
 1113              		.cfi_def_cfa_offset 12
 1114              		.cfi_offset 4, -12
 1115              		.cfi_offset 5, -8
 1116              		.cfi_offset 14, -4
 1117 0002 85B0     		sub	sp, sp, #20
 1118              		.cfi_def_cfa_offset 32
 1119 0004 0446     		mov	r4, r0
 279:frucd_display.c ****     if (data >= 100) {
 1120              		.loc 1 279 0
 1121 0006 6328     		cmp	r0, #99
 1122 0008 1DD9     		bls	.L78
 1123              	.LBB4:
 280:frucd_display.c ****         // handle 3 digit cases
 281:frucd_display.c ****         UG_FillFrame(410, 185, 470, 215, C_GREEN);
 1124              		.loc 1 281 0
 1125 000a 4FF47F45 		mov	r5, #65280
 1126 000e 0095     		str	r5, [sp]
 1127 0010 D723     		movs	r3, #215
 1128 0012 4FF4EB72 		mov	r2, #470
 1129 0016 B921     		movs	r1, #185
 1130 0018 4FF4CD70 		mov	r0, #410
 1131              	.LVL129:
 1132 001c FFF7FEFF 		bl	UG_FillFrame
 1133              	.LVL130:
ARM GAS  C:\Users\leoja\AppData\Local\Temp\ccVHTcit.s 			page 27


 282:frucd_display.c ****         char data_s[5];
 283:frucd_display.c ****         sprintf(data_s, "%d", data);
 1134              		.loc 1 283 0
 1135 0020 2246     		mov	r2, r4
 1136 0022 1849     		ldr	r1, .L81
 1137 0024 02A8     		add	r0, sp, #8
 1138 0026 FFF7FEFF 		bl	sprintf
 1139              	.LVL131:
 284:frucd_display.c ****         data_s[3] = 'C';
 1140              		.loc 1 284 0
 1141 002a 4323     		movs	r3, #67
 1142 002c 8DF80B30 		strb	r3, [sp, #11]
 285:frucd_display.c ****         data_s[4] = '\0';
 1143              		.loc 1 285 0
 1144 0030 0023     		movs	r3, #0
 1145 0032 8DF80C30 		strb	r3, [sp, #12]
 286:frucd_display.c ****         UG_PutColorString(415, 195, data_s, C_BLACK, C_GREEN);
 1146              		.loc 1 286 0
 1147 0036 0095     		str	r5, [sp]
 1148 0038 02AA     		add	r2, sp, #8
 1149 003a C321     		movs	r1, #195
 1150 003c 40F29F10 		movw	r0, #415
 1151 0040 FFF7FEFF 		bl	UG_PutColorString
 1152              	.LVL132:
 1153              	.LBE4:
 1154 0044 1CE0     		b	.L77
 1155              	.LVL133:
 1156              	.L78:
 1157              	.LBB5:
 287:frucd_display.c ****     } else {
 288:frucd_display.c ****         // handle 2 digit cases
 289:frucd_display.c ****         UG_FillFrame(410, 185, 470, 215, C_GREEN);
 1158              		.loc 1 289 0
 1159 0046 4FF47F45 		mov	r5, #65280
 1160 004a 0095     		str	r5, [sp]
 1161 004c D723     		movs	r3, #215
 1162 004e 4FF4EB72 		mov	r2, #470
 1163 0052 B921     		movs	r1, #185
 1164 0054 4FF4CD70 		mov	r0, #410
 1165              	.LVL134:
 1166 0058 FFF7FEFF 		bl	UG_FillFrame
 1167              	.LVL135:
 290:frucd_display.c ****         char data_s[4];
 291:frucd_display.c ****         sprintf(data_s, "%d", data);
 1168              		.loc 1 291 0
 1169 005c 2246     		mov	r2, r4
 1170 005e 0949     		ldr	r1, .L81
 1171 0060 02A8     		add	r0, sp, #8
 1172 0062 FFF7FEFF 		bl	sprintf
 1173              	.LVL136:
 292:frucd_display.c ****         data_s[2] = 'C';
 1174              		.loc 1 292 0
 1175 0066 4323     		movs	r3, #67
 1176 0068 8DF80A30 		strb	r3, [sp, #10]
 293:frucd_display.c ****         data_s[3] = '\0';
 1177              		.loc 1 293 0
 1178 006c 0023     		movs	r3, #0
ARM GAS  C:\Users\leoja\AppData\Local\Temp\ccVHTcit.s 			page 28


 1179 006e 8DF80B30 		strb	r3, [sp, #11]
 294:frucd_display.c ****         UG_PutColorString(422, 195, data_s, C_BLACK, C_GREEN);
 1180              		.loc 1 294 0
 1181 0072 0095     		str	r5, [sp]
 1182 0074 02AA     		add	r2, sp, #8
 1183 0076 C321     		movs	r1, #195
 1184 0078 4FF4D370 		mov	r0, #422
 1185 007c FFF7FEFF 		bl	UG_PutColorString
 1186              	.LVL137:
 1187              	.L77:
 1188              	.LBE5:
 295:frucd_display.c ****     }
 296:frucd_display.c **** }
 1189              		.loc 1 296 0
 1190 0080 05B0     		add	sp, sp, #20
 1191              		.cfi_def_cfa_offset 12
 1192              		@ sp needed
 1193 0082 30BD     		pop	{r4, r5, pc}
 1194              	.L82:
 1195              		.align	2
 1196              	.L81:
 1197 0084 44000000 		.word	.LC7
 1198              		.cfi_endproc
 1199              	.LFE71:
 1200              		.size	disp_mc_temp, .-disp_mc_temp
 1201              		.section	.text.disp_motor_temp,"ax",%progbits
 1202              		.align	2
 1203              		.global	disp_motor_temp
 1204              		.thumb
 1205              		.thumb_func
 1206              		.type	disp_motor_temp, %function
 1207              	disp_motor_temp:
 1208              	.LFB72:
 297:frucd_display.c **** 
 298:frucd_display.c **** void disp_motor_temp(uint16_t data) {
 1209              		.loc 1 298 0
 1210              		.cfi_startproc
 1211              		@ args = 0, pretend = 0, frame = 8
 1212              		@ frame_needed = 0, uses_anonymous_args = 0
 1213              	.LVL138:
 1214 0000 30B5     		push	{r4, r5, lr}
 1215              		.cfi_def_cfa_offset 12
 1216              		.cfi_offset 4, -12
 1217              		.cfi_offset 5, -8
 1218              		.cfi_offset 14, -4
 1219 0002 85B0     		sub	sp, sp, #20
 1220              		.cfi_def_cfa_offset 32
 1221 0004 0446     		mov	r4, r0
 299:frucd_display.c ****     if (data >= 100) {
 1222              		.loc 1 299 0
 1223 0006 6328     		cmp	r0, #99
 1224 0008 1ED9     		bls	.L84
 1225              	.LBB6:
 300:frucd_display.c ****         // handle 3 digit cases
 301:frucd_display.c ****         UG_FillFrame(410, 230, 470, 260, C_GREEN);
 1226              		.loc 1 301 0
 1227 000a 4FF47F45 		mov	r5, #65280
ARM GAS  C:\Users\leoja\AppData\Local\Temp\ccVHTcit.s 			page 29


 1228 000e 0095     		str	r5, [sp]
 1229 0010 4FF48273 		mov	r3, #260
 1230 0014 4FF4EB72 		mov	r2, #470
 1231 0018 E621     		movs	r1, #230
 1232 001a 4FF4CD70 		mov	r0, #410
 1233              	.LVL139:
 1234 001e FFF7FEFF 		bl	UG_FillFrame
 1235              	.LVL140:
 302:frucd_display.c ****         char data_s[5];
 303:frucd_display.c ****         sprintf(data_s, "%d", data);
 1236              		.loc 1 303 0
 1237 0022 2246     		mov	r2, r4
 1238 0024 1849     		ldr	r1, .L87
 1239 0026 02A8     		add	r0, sp, #8
 1240 0028 FFF7FEFF 		bl	sprintf
 1241              	.LVL141:
 304:frucd_display.c ****         data_s[3] = 'C';
 1242              		.loc 1 304 0
 1243 002c 4323     		movs	r3, #67
 1244 002e 8DF80B30 		strb	r3, [sp, #11]
 305:frucd_display.c ****         data_s[4] = '\0';
 1245              		.loc 1 305 0
 1246 0032 0023     		movs	r3, #0
 1247 0034 8DF80C30 		strb	r3, [sp, #12]
 306:frucd_display.c ****         UG_PutColorString(415, 240, data_s, C_BLACK, C_GREEN);
 1248              		.loc 1 306 0
 1249 0038 0095     		str	r5, [sp]
 1250 003a 02AA     		add	r2, sp, #8
 1251 003c F021     		movs	r1, #240
 1252 003e 40F29F10 		movw	r0, #415
 1253 0042 FFF7FEFF 		bl	UG_PutColorString
 1254              	.LVL142:
 1255              	.LBE6:
 1256 0046 1DE0     		b	.L83
 1257              	.LVL143:
 1258              	.L84:
 1259              	.LBB7:
 307:frucd_display.c ****     } else {
 308:frucd_display.c ****         // handle 2 digit cases
 309:frucd_display.c ****         UG_FillFrame(410, 230, 470, 260, C_GREEN);
 1260              		.loc 1 309 0
 1261 0048 4FF47F45 		mov	r5, #65280
 1262 004c 0095     		str	r5, [sp]
 1263 004e 4FF48273 		mov	r3, #260
 1264 0052 4FF4EB72 		mov	r2, #470
 1265 0056 E621     		movs	r1, #230
 1266 0058 4FF4CD70 		mov	r0, #410
 1267              	.LVL144:
 1268 005c FFF7FEFF 		bl	UG_FillFrame
 1269              	.LVL145:
 310:frucd_display.c ****         char data_s[4];
 311:frucd_display.c ****         sprintf(data_s, "%d", data);
 1270              		.loc 1 311 0
 1271 0060 2246     		mov	r2, r4
 1272 0062 0949     		ldr	r1, .L87
 1273 0064 02A8     		add	r0, sp, #8
 1274 0066 FFF7FEFF 		bl	sprintf
ARM GAS  C:\Users\leoja\AppData\Local\Temp\ccVHTcit.s 			page 30


 1275              	.LVL146:
 312:frucd_display.c ****         data_s[2] = 'C';
 1276              		.loc 1 312 0
 1277 006a 4323     		movs	r3, #67
 1278 006c 8DF80A30 		strb	r3, [sp, #10]
 313:frucd_display.c ****         data_s[3] = '\0';
 1279              		.loc 1 313 0
 1280 0070 0023     		movs	r3, #0
 1281 0072 8DF80B30 		strb	r3, [sp, #11]
 314:frucd_display.c ****         UG_PutColorString(422, 240, data_s, C_BLACK, C_GREEN);
 1282              		.loc 1 314 0
 1283 0076 0095     		str	r5, [sp]
 1284 0078 02AA     		add	r2, sp, #8
 1285 007a F021     		movs	r1, #240
 1286 007c 4FF4D370 		mov	r0, #422
 1287 0080 FFF7FEFF 		bl	UG_PutColorString
 1288              	.LVL147:
 1289              	.L83:
 1290              	.LBE7:
 315:frucd_display.c ****     }
 316:frucd_display.c **** }
 1291              		.loc 1 316 0
 1292 0084 05B0     		add	sp, sp, #20
 1293              		.cfi_def_cfa_offset 12
 1294              		@ sp needed
 1295 0086 30BD     		pop	{r4, r5, pc}
 1296              	.L88:
 1297              		.align	2
 1298              	.L87:
 1299 0088 44000000 		.word	.LC7
 1300              		.cfi_endproc
 1301              	.LFE72:
 1302              		.size	disp_motor_temp, .-disp_motor_temp
 1303              		.comm	last_motor_temp_color,4,4
 1304              		.comm	last_mc_temp_color,4,4
 1305              		.comm	last_glv_v_color,4,4
 1306              		.comm	last_state_color,4,4
 1307              		.comm	last_max_pack_temp_color,4,4
 1308              		.comm	last_SOC_color,4,4
 1309              		.comm	gui1963,120,4
 1310              		.section	.rodata.str1.4,"aMS",%progbits,1
 1311              		.align	2
 1312              	.LC0:
 1313 0000 5041434B 		.ascii	"PACK SOC\000"
 1313      20534F43 
 1313      00
 1314 0009 000000   		.space	3
 1315              	.LC1:
 1316 000c 4D415820 		.ascii	"MAX PACK T\000"
 1316      5041434B 
 1316      205400
 1317 0017 00       		.space	1
 1318              	.LC2:
 1319 0018 53544154 		.ascii	"STATE:\000"
 1319      453A00
 1320 001f 00       		.space	1
 1321              	.LC3:
ARM GAS  C:\Users\leoja\AppData\Local\Temp\ccVHTcit.s 			page 31


 1322 0020 474C5620 		.ascii	"GLV V:\000"
 1322      563A00
 1323 0027 00       		.space	1
 1324              	.LC4:
 1325 0028 4D432054 		.ascii	"MC T:\000"
 1325      3A00
 1326 002e 0000     		.space	2
 1327              	.LC5:
 1328 0030 4D4F544F 		.ascii	"MOTOR T:\000"
 1328      5220543A 
 1328      00
 1329 0039 000000   		.space	3
 1330              	.LC6:
 1331 003c 31303025 		.ascii	"100%\000"
 1331      00
 1332 0041 000000   		.space	3
 1333              	.LC7:
 1334 0044 256400   		.ascii	"%d\000"
 1335 0047 00       		.space	1
 1336              	.LC8:
 1337 0048 424D5320 		.ascii	"BMS TEMP\000"
 1337      54454D50 
 1337      00
 1338 0051 000000   		.space	3
 1339              	.LC9:
 1340 0054 4C4F5720 		.ascii	"LOW SOC\000"
 1340      534F4300 
 1341              	.LC10:
 1342 005c 494D4241 		.ascii	"IMBALANCE\000"
 1342      4C414E43 
 1342      4500
 1343 0066 0000     		.space	2
 1344              	.LC11:
 1345 0068 53504920 		.ascii	"SPI FAULT\000"
 1345      4641554C 
 1345      5400
 1346 0072 0000     		.space	2
 1347              	.LC12:
 1348 0074 4F564552 		.ascii	"OVERVOLT\000"
 1348      564F4C54 
 1348      00
 1349 007d 000000   		.space	3
 1350              	.LC13:
 1351 0080 554E4445 		.ascii	"UNDERVOLT\000"
 1351      52564F4C 
 1351      5400
 1352 008a 0000     		.space	2
 1353              	.LC14:
 1354 008c 20535441 		.ascii	" STARTUP  \000"
 1354      52545550 
 1354      202000
 1355 0097 00       		.space	1
 1356              	.LC15:
 1357 0098 44525620 		.ascii	"DRV FRM LV\000"
 1357      46524D20 
 1357      4C5600
 1358 00a3 00       		.space	1
ARM GAS  C:\Users\leoja\AppData\Local\Temp\ccVHTcit.s 			page 32


 1359              	.LC16:
 1360 00a4 50524520 		.ascii	"PRE TM OUT\000"
 1360      544D204F 
 1360      555400
 1361 00af 00       		.space	1
 1362              	.LC17:
 1363 00b0 4252204E 		.ascii	"BR NOT PRS\000"
 1363      4F542050 
 1363      525300
 1364 00bb 00       		.space	1
 1365              	.LC18:
 1366 00bc 4856204F 		.ascii	"HV OFF DRV\000"
 1366      46462044 
 1366      525600
 1367 00c7 00       		.space	1
 1368              	.LC19:
 1369 00c8 534E5352 		.ascii	"SNSR DSCRP\000"
 1369      20445343 
 1369      525000
 1370 00d3 00       		.space	1
 1371              	.LC20:
 1372 00d4 42535044 		.ascii	"BSPD TRIPD\000"
 1372      20545249 
 1372      504400
 1373 00df 00       		.space	1
 1374              	.LC21:
 1375 00e0 53485444 		.ascii	"SHTDWN OPN\000"
 1375      574E204F 
 1375      504E00
 1376 00eb 00       		.space	1
 1377              	.LC22:
 1378 00ec 554E4341 		.ascii	"UNCALIBRATED\000"
 1378      4C494252 
 1378      41544544 
 1378      00
 1379 00f9 000000   		.space	3
 1380              	.LC23:
 1381 00fc 20202020 		.ascii	"    LV    \000"
 1381      4C562020 
 1381      202000
 1382 0107 00       		.space	1
 1383              	.LC24:
 1384 0108 50524543 		.ascii	"PRECHARGE \000"
 1384      48415247 
 1384      452000
 1385 0113 00       		.space	1
 1386              	.LC25:
 1387 0114 48562045 		.ascii	"HV ENABLED\000"
 1387      4E41424C 
 1387      454400
 1388 011f 00       		.space	1
 1389              	.LC26:
 1390 0120 20204452 		.ascii	"  DRIVE   \000"
 1390      49564520 
 1390      202000
 1391              		.text
 1392              	.Letext0:
ARM GAS  C:\Users\leoja\AppData\Local\Temp\ccVHTcit.s 			page 33


 1393              		.file 2 "c:\\program files (x86)\\cypress\\psoc creator\\4.4\\psoc creator\\import\\gnu\\arm\\5.4.
 1394              		.file 3 "c:\\program files (x86)\\cypress\\psoc creator\\4.4\\psoc creator\\import\\gnu\\arm\\5.4.
 1395              		.file 4 "Generated_Source\\PSoC5/cytypes.h"
 1396              		.file 5 "data.h"
 1397              		.file 6 "ugui_config.h"
 1398              		.file 7 "ugui.h"
 1399              		.file 8 "Generated_Source\\PSoC5/core_cm3.h"
 1400              		.file 9 "ugui_SSD1963.h"
 1401              		.file 10 "frucd_display.h"
 1402              		.file 11 "Generated_Source\\PSoC5/CyLib.h"
 1403              		.file 12 "c:\\program files (x86)\\cypress\\psoc creator\\4.4\\psoc creator\\import\\gnu\\arm\\5.4