ARM GAS  C:\Users\ANDREY~1\AppData\Local\Temp\ccuKrLyD.s 			page 1


   1              		.syntax unified
   2              		.cpu cortex-m3
   3              		.fpu softvfp
   4              		.eabi_attribute 20, 1
   5              		.eabi_attribute 21, 1
   6              		.eabi_attribute 23, 3
   7              		.eabi_attribute 24, 1
   8              		.eabi_attribute 25, 1
   9              		.eabi_attribute 26, 1
  10              		.eabi_attribute 30, 1
  11              		.eabi_attribute 34, 1
  12              		.eabi_attribute 18, 4
  13              		.thumb
  14              		.syntax unified
  15              		.file	"frucd_display.c"
  16              		.text
  17              	.Ltext0:
  18              		.cfi_sections	.debug_frame
  19              		.section	.text.calibrateScreen,"ax",%progbits
  20              		.align	2
  21              		.global	calibrateScreen
  22              		.thumb
  23              		.thumb_func
  24              		.type	calibrateScreen, %function
  25              	calibrateScreen:
  26              	.LFB64:
  27              		.file 1 "frucd_display.c"
   1:frucd_display.c **** /* ========================================
   2:frucd_display.c ****  *
   3:frucd_display.c ****  * APIs for updating FRUCD Dashboard display
   4:frucd_display.c ****  *
   5:frucd_display.c ****  * ========================================
   6:frucd_display.c **** */
   7:frucd_display.c **** #include "frucd_display.h"
   8:frucd_display.c **** 
   9:frucd_display.c **** // Just a test function that displays elements at the supposed corners of the screen
  10:frucd_display.c **** void calibrateScreen() {
  28              		.loc 1 10 0
  29              		.cfi_startproc
  30              		@ args = 0, pretend = 0, frame = 0
  31              		@ frame_needed = 0, uses_anonymous_args = 0
  32 0000 00B5     		push	{lr}
  33              		.cfi_def_cfa_offset 4
  34              		.cfi_offset 14, -4
  35 0002 83B0     		sub	sp, sp, #12
  36              		.cfi_def_cfa_offset 16
  11:frucd_display.c ****     UG_FillScreen(C_WHITE);
  37              		.loc 1 11 0
  38 0004 6FF07F40 		mvn	r0, #-16777216
  39 0008 FFF7FEFF 		bl	UG_FillScreen
  40              	.LVL0:
  12:frucd_display.c ****     //libTFT_FillRectangle(0, 0, 10, 10, RED);
  13:frucd_display.c ****     UG_FillFrame(0, 0, 10, 10, C_RED);
  41              		.loc 1 13 0
  42 000c 4FF47F03 		mov	r3, #16711680
  43 0010 0093     		str	r3, [sp]
  44 0012 0A23     		movs	r3, #10
ARM GAS  C:\Users\ANDREY~1\AppData\Local\Temp\ccuKrLyD.s 			page 2


  45 0014 1A46     		mov	r2, r3
  46 0016 0021     		movs	r1, #0
  47 0018 0846     		mov	r0, r1
  48 001a FFF7FEFF 		bl	UG_FillFrame
  49              	.LVL1:
  14:frucd_display.c ****     //libTFT_FillRectangle(0, 262, 10, 10, BLUE);
  15:frucd_display.c ****     UG_FillFrame(0, 262, 10, 272, C_BLUE);
  50              		.loc 1 15 0
  51 001e FF23     		movs	r3, #255
  52 0020 0093     		str	r3, [sp]
  53 0022 4FF48873 		mov	r3, #272
  54 0026 0A22     		movs	r2, #10
  55 0028 4FF48371 		mov	r1, #262
  56 002c 0020     		movs	r0, #0
  57 002e FFF7FEFF 		bl	UG_FillFrame
  58              	.LVL2:
  16:frucd_display.c ****     //libTFT_FillRectangle(470, 0, 10, 10, GREEN);
  17:frucd_display.c ****     UG_FillFrame(470, 0, 480, 10, C_GREEN);
  59              		.loc 1 17 0
  60 0032 4FF47F43 		mov	r3, #65280
  61 0036 0093     		str	r3, [sp]
  62 0038 0A23     		movs	r3, #10
  63 003a 4FF4F072 		mov	r2, #480
  64 003e 0021     		movs	r1, #0
  65 0040 4FF4EB70 		mov	r0, #470
  66 0044 FFF7FEFF 		bl	UG_FillFrame
  67              	.LVL3:
  18:frucd_display.c ****     //libTFT_FillRectangle(470, 262, 10, 10, YELLOW);
  19:frucd_display.c ****     UG_FillFrame(470, 262, 480, 272, C_YELLOW);
  68              		.loc 1 19 0
  69 0048 094B     		ldr	r3, .L3
  70 004a 0093     		str	r3, [sp]
  71 004c 4FF48873 		mov	r3, #272
  72 0050 4FF4F072 		mov	r2, #480
  73 0054 4FF48371 		mov	r1, #262
  74 0058 4FF4EB70 		mov	r0, #470
  75 005c FFF7FEFF 		bl	UG_FillFrame
  76              	.LVL4:
  20:frucd_display.c ****     CyDelay(300);
  77              		.loc 1 20 0
  78 0060 4FF49670 		mov	r0, #300
  79 0064 FFF7FEFF 		bl	CyDelay
  80              	.LVL5:
  21:frucd_display.c **** }
  81              		.loc 1 21 0
  82 0068 03B0     		add	sp, sp, #12
  83              		.cfi_def_cfa_offset 4
  84              		@ sp needed
  85 006a 5DF804FB 		ldr	pc, [sp], #4
  86              	.L4:
  87 006e 00BF     		.align	2
  88              	.L3:
  89 0070 00FFFF00 		.word	16776960
  90              		.cfi_endproc
  91              	.LFE64:
  92              		.size	calibrateScreen, .-calibrateScreen
  93              		.section	.text.initDashTemplate,"ax",%progbits
ARM GAS  C:\Users\ANDREY~1\AppData\Local\Temp\ccuKrLyD.s 			page 3


  94              		.align	2
  95              		.global	initDashTemplate
  96              		.thumb
  97              		.thumb_func
  98              		.type	initDashTemplate, %function
  99              	initDashTemplate:
 100              	.LFB65:
  22:frucd_display.c **** 
  23:frucd_display.c **** // Initializes dashboard layout/labels
  24:frucd_display.c **** void initDashTemplate() {
 101              		.loc 1 24 0
 102              		.cfi_startproc
 103              		@ args = 0, pretend = 0, frame = 0
 104              		@ frame_needed = 0, uses_anonymous_args = 0
 105 0000 08B5     		push	{r3, lr}
 106              		.cfi_def_cfa_offset 8
 107              		.cfi_offset 3, -8
 108              		.cfi_offset 14, -4
  25:frucd_display.c ****     UG_FillScreen(C_BLACK);
 109              		.loc 1 25 0
 110 0002 0020     		movs	r0, #0
 111 0004 FFF7FEFF 		bl	UG_FillScreen
 112              	.LVL6:
  26:frucd_display.c ****     UG_PutString(68, 10, "PACK SOC");
 113              		.loc 1 26 0
 114 0008 104A     		ldr	r2, .L7
 115 000a 0A21     		movs	r1, #10
 116 000c 4420     		movs	r0, #68
 117 000e FFF7FEFF 		bl	UG_PutString
 118              	.LVL7:
  27:frucd_display.c ****     UG_PutString(297, 10, "MAX PACK T");
 119              		.loc 1 27 0
 120 0012 0F4A     		ldr	r2, .L7+4
 121 0014 0A21     		movs	r1, #10
 122 0016 40F22910 		movw	r0, #297
 123 001a FFF7FEFF 		bl	UG_PutString
 124              	.LVL8:
  28:frucd_display.c ****     UG_PutString(10, 195, "STATE:");
 125              		.loc 1 28 0
 126 001e 0D4A     		ldr	r2, .L7+8
 127 0020 C321     		movs	r1, #195
 128 0022 0A20     		movs	r0, #10
 129 0024 FFF7FEFF 		bl	UG_PutString
 130              	.LVL9:
  29:frucd_display.c ****     UG_PutString(10, 240, "GLV V:");
 131              		.loc 1 29 0
 132 0028 0B4A     		ldr	r2, .L7+12
 133 002a F021     		movs	r1, #240
 134 002c 0A20     		movs	r0, #10
 135 002e FFF7FEFF 		bl	UG_PutString
 136              	.LVL10:
  30:frucd_display.c ****     UG_PutString(339, 195, "MC T:");
 137              		.loc 1 30 0
 138 0032 0A4A     		ldr	r2, .L7+16
 139 0034 C321     		movs	r1, #195
 140 0036 40F25310 		movw	r0, #339
 141 003a FFF7FEFF 		bl	UG_PutString
ARM GAS  C:\Users\ANDREY~1\AppData\Local\Temp\ccuKrLyD.s 			page 4


 142              	.LVL11:
  31:frucd_display.c ****     UG_PutString(300, 240, "MOTOR T:");
 143              		.loc 1 31 0
 144 003e 084A     		ldr	r2, .L7+20
 145 0040 F021     		movs	r1, #240
 146 0042 4FF49670 		mov	r0, #300
 147 0046 FFF7FEFF 		bl	UG_PutString
 148              	.LVL12:
 149 004a 08BD     		pop	{r3, pc}
 150              	.L8:
 151              		.align	2
 152              	.L7:
 153 004c 00000000 		.word	.LC0
 154 0050 0C000000 		.word	.LC1
 155 0054 18000000 		.word	.LC2
 156 0058 20000000 		.word	.LC3
 157 005c 28000000 		.word	.LC4
 158 0060 30000000 		.word	.LC5
 159              		.cfi_endproc
 160              	.LFE65:
 161              		.size	initDashTemplate, .-initDashTemplate
 162              		.section	.text.disp_SOC,"ax",%progbits
 163              		.align	2
 164              		.global	disp_SOC
 165              		.thumb
 166              		.thumb_func
 167              		.type	disp_SOC, %function
 168              	disp_SOC:
 169              	.LFB66:
  32:frucd_display.c **** }
  33:frucd_display.c **** 
  34:frucd_display.c **** /*
  35:frucd_display.c ****  * BEGIN: functions to show data on dash
  36:frucd_display.c ****  * - handle variety of digit counts
  37:frucd_display.c ****  * - color decision logic is in here
  38:frucd_display.c ****  */
  39:frucd_display.c **** void disp_SOC(uint8 data) {
 170              		.loc 1 39 0
 171              		.cfi_startproc
 172              		@ args = 0, pretend = 0, frame = 8
 173              		@ frame_needed = 0, uses_anonymous_args = 0
 174              	.LVL13:
 175 0000 30B5     		push	{r4, r5, lr}
 176              		.cfi_def_cfa_offset 12
 177              		.cfi_offset 4, -12
 178              		.cfi_offset 5, -8
 179              		.cfi_offset 14, -4
 180 0002 85B0     		sub	sp, sp, #20
 181              		.cfi_def_cfa_offset 32
 182 0004 0446     		mov	r4, r0
  40:frucd_display.c ****     UG_FontSelect(&FONT_32X53);
 183              		.loc 1 40 0
 184 0006 3948     		ldr	r0, .L21
 185              	.LVL14:
 186 0008 FFF7FEFF 		bl	UG_FontSelect
 187              	.LVL15:
  41:frucd_display.c ****     UG_COLOR color;
ARM GAS  C:\Users\ANDREY~1\AppData\Local\Temp\ccuKrLyD.s 			page 5


  42:frucd_display.c ****     if (data == 100) {
 188              		.loc 1 42 0
 189 000c 642C     		cmp	r4, #100
 190 000e 19D1     		bne	.L10
 191              	.LVL16:
  43:frucd_display.c ****         // handle 100% case
  44:frucd_display.c ****         color = C_GREEN;
  45:frucd_display.c ****         if (color != last_SOC_color) {
 192              		.loc 1 45 0
 193 0010 374B     		ldr	r3, .L21+4
 194 0012 1B68     		ldr	r3, [r3]
 195 0014 B3F57F4F 		cmp	r3, #65280
 196 0018 0AD0     		beq	.L11
  46:frucd_display.c ****             // only draw rectangle if color changed
  47:frucd_display.c ****             UG_FillFrame(30, 35, 210, 170, color);
 197              		.loc 1 47 0
 198 001a 4FF47F44 		mov	r4, #65280
 199 001e 0094     		str	r4, [sp]
 200 0020 AA23     		movs	r3, #170
 201 0022 D222     		movs	r2, #210
 202 0024 2321     		movs	r1, #35
 203 0026 1E20     		movs	r0, #30
 204 0028 FFF7FEFF 		bl	UG_FillFrame
 205              	.LVL17:
  48:frucd_display.c ****             last_SOC_color = color;
 206              		.loc 1 48 0
 207 002c 304B     		ldr	r3, .L21+4
 208 002e 1C60     		str	r4, [r3]
 209              	.L11:
  49:frucd_display.c ****         }
  50:frucd_display.c ****         UG_PutColorString(55, 80, "100%", C_BLACK, C_GREEN);
 210              		.loc 1 50 0
 211 0030 4FF47F43 		mov	r3, #65280
 212 0034 0093     		str	r3, [sp]
 213 0036 0023     		movs	r3, #0
 214 0038 2E4A     		ldr	r2, .L21+8
 215 003a 5021     		movs	r1, #80
 216 003c 3720     		movs	r0, #55
 217 003e FFF7FEFF 		bl	UG_PutColorString
 218              	.LVL18:
 219 0042 4DE0     		b	.L12
 220              	.LVL19:
 221              	.L10:
 222              	.LBB2:
  51:frucd_display.c ****     } else {
  52:frucd_display.c ****         // handle other cases
  53:frucd_display.c ****         char data_s[4];
  54:frucd_display.c ****         sprintf(data_s, "%d", data);
 223              		.loc 1 54 0
 224 0044 2246     		mov	r2, r4
 225 0046 2C49     		ldr	r1, .L21+12
 226 0048 03A8     		add	r0, sp, #12
 227 004a FFF7FEFF 		bl	sprintf
 228              	.LVL20:
  55:frucd_display.c ****         if (data >= 10) {
 229              		.loc 1 55 0
 230 004e 092C     		cmp	r4, #9
ARM GAS  C:\Users\ANDREY~1\AppData\Local\Temp\ccuKrLyD.s 			page 6


 231 0050 29D9     		bls	.L13
  56:frucd_display.c ****             // handle 2 digit cases
  57:frucd_display.c ****             // choose color
  58:frucd_display.c ****             if (data > 75) {
 232              		.loc 1 58 0
 233 0052 4B2C     		cmp	r4, #75
 234 0054 05D8     		bhi	.L17
  59:frucd_display.c ****                 color = C_GREEN;
  60:frucd_display.c ****             } else if (data > 50) {
 235              		.loc 1 60 0
 236 0056 322C     		cmp	r4, #50
 237 0058 06D8     		bhi	.L18
  61:frucd_display.c ****                 color = C_YELLOW;
  62:frucd_display.c ****             } else if (data > 25) {
 238              		.loc 1 62 0
 239 005a 192C     		cmp	r4, #25
 240 005c 06D9     		bls	.L19
  63:frucd_display.c ****                 color = C_ORANGE;
 241              		.loc 1 63 0
 242 005e 274C     		ldr	r4, .L21+16
 243 0060 06E0     		b	.L14
 244              	.L17:
  59:frucd_display.c ****                 color = C_GREEN;
 245              		.loc 1 59 0
 246 0062 4FF47F44 		mov	r4, #65280
 247 0066 03E0     		b	.L14
 248              	.L18:
  61:frucd_display.c ****                 color = C_YELLOW;
 249              		.loc 1 61 0
 250 0068 254C     		ldr	r4, .L21+20
 251 006a 01E0     		b	.L14
 252              	.L19:
  64:frucd_display.c ****             } else {
  65:frucd_display.c ****                 color = C_RED;
 253              		.loc 1 65 0
 254 006c 4FF47F04 		mov	r4, #16711680
 255              	.L14:
 256              	.LVL21:
  66:frucd_display.c ****             }
  67:frucd_display.c ****             data_s[2] = '%';
 257              		.loc 1 67 0
 258 0070 2523     		movs	r3, #37
 259 0072 8DF80E30 		strb	r3, [sp, #14]
  68:frucd_display.c ****             data_s[3] = '\0';
 260              		.loc 1 68 0
 261 0076 0023     		movs	r3, #0
 262 0078 8DF80F30 		strb	r3, [sp, #15]
  69:frucd_display.c ****             if (color != last_SOC_color) {
 263              		.loc 1 69 0
 264 007c 1C4B     		ldr	r3, .L21+4
 265 007e 1B68     		ldr	r3, [r3]
 266 0080 9C42     		cmp	r4, r3
 267 0082 08D0     		beq	.L15
  70:frucd_display.c ****                 // only draw rectangle if color changed
  71:frucd_display.c ****                 UG_FillFrame(30, 35, 210, 170, color);
 268              		.loc 1 71 0
 269 0084 0094     		str	r4, [sp]
ARM GAS  C:\Users\ANDREY~1\AppData\Local\Temp\ccuKrLyD.s 			page 7


 270 0086 AA23     		movs	r3, #170
 271 0088 D222     		movs	r2, #210
 272 008a 2321     		movs	r1, #35
 273 008c 1E20     		movs	r0, #30
 274 008e FFF7FEFF 		bl	UG_FillFrame
 275              	.LVL22:
  72:frucd_display.c ****                 last_SOC_color = color;
 276              		.loc 1 72 0
 277 0092 174B     		ldr	r3, .L21+4
 278 0094 1C60     		str	r4, [r3]
 279              	.L15:
  73:frucd_display.c ****             }
  74:frucd_display.c ****             UG_PutColorString(70, 80, data_s, C_BLACK, color);
 280              		.loc 1 74 0
 281 0096 0094     		str	r4, [sp]
 282 0098 0023     		movs	r3, #0
 283 009a 03AA     		add	r2, sp, #12
 284 009c 5021     		movs	r1, #80
 285 009e 4620     		movs	r0, #70
 286 00a0 FFF7FEFF 		bl	UG_PutColorString
 287              	.LVL23:
 288 00a4 1CE0     		b	.L12
 289              	.LVL24:
 290              	.L13:
  75:frucd_display.c ****         } else {
  76:frucd_display.c ****             // handle 1 digit cases
  77:frucd_display.c ****             data_s[1] = '%';
 291              		.loc 1 77 0
 292 00a6 2523     		movs	r3, #37
 293 00a8 8DF80D30 		strb	r3, [sp, #13]
  78:frucd_display.c ****             data_s[2] = '\0';
 294              		.loc 1 78 0
 295 00ac 0024     		movs	r4, #0
 296 00ae 8DF80E40 		strb	r4, [sp, #14]
 297              	.LVL25:
  79:frucd_display.c ****             color = C_RED;
  80:frucd_display.c ****             UG_FillFrame(30, 35, 210, 170, C_BLACK);
 298              		.loc 1 80 0
 299 00b2 0094     		str	r4, [sp]
 300 00b4 AA23     		movs	r3, #170
 301 00b6 D222     		movs	r2, #210
 302 00b8 2321     		movs	r1, #35
 303 00ba 1E20     		movs	r0, #30
 304 00bc FFF7FEFF 		bl	UG_FillFrame
 305              	.LVL26:
  81:frucd_display.c ****             UG_FillFrame(30, 35, 210, 170, color);
 306              		.loc 1 81 0
 307 00c0 4FF47F05 		mov	r5, #16711680
 308 00c4 0095     		str	r5, [sp]
 309 00c6 AA23     		movs	r3, #170
 310 00c8 D222     		movs	r2, #210
 311 00ca 2321     		movs	r1, #35
 312 00cc 1E20     		movs	r0, #30
 313 00ce FFF7FEFF 		bl	UG_FillFrame
 314              	.LVL27:
  82:frucd_display.c ****             UG_PutColorString(90, 80, data_s, C_BLACK, color);
 315              		.loc 1 82 0
ARM GAS  C:\Users\ANDREY~1\AppData\Local\Temp\ccuKrLyD.s 			page 8


 316 00d2 0095     		str	r5, [sp]
 317 00d4 2346     		mov	r3, r4
 318 00d6 03AA     		add	r2, sp, #12
 319 00d8 5021     		movs	r1, #80
 320 00da 5A20     		movs	r0, #90
 321 00dc FFF7FEFF 		bl	UG_PutColorString
 322              	.LVL28:
 323              	.L12:
 324              	.LBE2:
  83:frucd_display.c ****         }   
  84:frucd_display.c ****     }
  85:frucd_display.c ****     UG_FontSelect(&FONT_12X16);
 325              		.loc 1 85 0
 326 00e0 0848     		ldr	r0, .L21+24
 327 00e2 FFF7FEFF 		bl	UG_FontSelect
 328              	.LVL29:
  86:frucd_display.c **** }
 329              		.loc 1 86 0
 330 00e6 05B0     		add	sp, sp, #20
 331              		.cfi_def_cfa_offset 12
 332              		@ sp needed
 333 00e8 30BD     		pop	{r4, r5, pc}
 334              	.L22:
 335 00ea 00BF     		.align	2
 336              	.L21:
 337 00ec 00000000 		.word	FONT_32X53
 338 00f0 00000000 		.word	last_SOC_color
 339 00f4 3C000000 		.word	.LC6
 340 00f8 44000000 		.word	.LC7
 341 00fc 00A5FF00 		.word	16753920
 342 0100 00FFFF00 		.word	16776960
 343 0104 00000000 		.word	FONT_12X16
 344              		.cfi_endproc
 345              	.LFE66:
 346              		.size	disp_SOC, .-disp_SOC
 347              		.section	.text.disp_max_pack_temp,"ax",%progbits
 348              		.align	2
 349              		.global	disp_max_pack_temp
 350              		.thumb
 351              		.thumb_func
 352              		.type	disp_max_pack_temp, %function
 353              	disp_max_pack_temp:
 354              	.LFB67:
  87:frucd_display.c **** 
  88:frucd_display.c **** void disp_max_pack_temp(uint8 data) {
 355              		.loc 1 88 0
 356              		.cfi_startproc
 357              		@ args = 0, pretend = 0, frame = 8
 358              		@ frame_needed = 0, uses_anonymous_args = 0
 359              	.LVL30:
 360 0000 30B5     		push	{r4, r5, lr}
 361              		.cfi_def_cfa_offset 12
 362              		.cfi_offset 4, -12
 363              		.cfi_offset 5, -8
 364              		.cfi_offset 14, -4
 365 0002 85B0     		sub	sp, sp, #20
 366              		.cfi_def_cfa_offset 32
ARM GAS  C:\Users\ANDREY~1\AppData\Local\Temp\ccuKrLyD.s 			page 9


 367 0004 0546     		mov	r5, r0
  89:frucd_display.c ****     // choose color
  90:frucd_display.c ****     UG_COLOR color;
  91:frucd_display.c ****     if (data < 45) {
 368              		.loc 1 91 0
 369 0006 2C28     		cmp	r0, #44
 370 0008 19D9     		bls	.L26
  92:frucd_display.c ****         color = C_GREEN;
  93:frucd_display.c ****     } else if (data < 50) {
 371              		.loc 1 93 0
 372 000a 3128     		cmp	r0, #49
 373 000c 1AD9     		bls	.L27
  94:frucd_display.c ****         color = C_YELLOW;
  95:frucd_display.c ****     } else if (data < 55) {
 374              		.loc 1 95 0
 375 000e 3628     		cmp	r0, #54
 376 0010 1AD9     		bls	.L28
 377              	.LVL31:
  96:frucd_display.c ****         color = C_ORANGE;
  97:frucd_display.c ****     } else {
  98:frucd_display.c ****         color = C_RED;
  99:frucd_display.c ****         UG_FillFrame(270, 35, 450, 170, C_BLACK);
 378              		.loc 1 99 0
 379 0012 0023     		movs	r3, #0
 380 0014 0093     		str	r3, [sp]
 381 0016 AA23     		movs	r3, #170
 382 0018 4FF4E172 		mov	r2, #450
 383 001c 2321     		movs	r1, #35
 384 001e 4FF48770 		mov	r0, #270
 385              	.LVL32:
 386 0022 FFF7FEFF 		bl	UG_FillFrame
 387              	.LVL33:
 100:frucd_display.c ****         UG_FillFrame(270, 35, 450, 170, color);
 388              		.loc 1 100 0
 389 0026 4FF47F04 		mov	r4, #16711680
 390 002a 0094     		str	r4, [sp]
 391 002c AA23     		movs	r3, #170
 392 002e 4FF4E172 		mov	r2, #450
 393 0032 2321     		movs	r1, #35
 394 0034 4FF48770 		mov	r0, #270
 395 0038 FFF7FEFF 		bl	UG_FillFrame
 396              	.LVL34:
 397 003c 05E0     		b	.L24
 398              	.LVL35:
 399              	.L26:
  92:frucd_display.c ****     } else if (data < 50) {
 400              		.loc 1 92 0
 401 003e 4FF47F44 		mov	r4, #65280
 402 0042 02E0     		b	.L24
 403              	.L27:
  94:frucd_display.c ****     } else if (data < 55) {
 404              		.loc 1 94 0
 405 0044 154C     		ldr	r4, .L30
 406 0046 00E0     		b	.L24
 407              	.L28:
  96:frucd_display.c ****     } else {
 408              		.loc 1 96 0
ARM GAS  C:\Users\ANDREY~1\AppData\Local\Temp\ccuKrLyD.s 			page 10


 409 0048 154C     		ldr	r4, .L30+4
 410              	.LVL36:
 411              	.L24:
 101:frucd_display.c ****     }
 102:frucd_display.c ****     
 103:frucd_display.c ****     if (color != last_max_pack_temp_color) {
 412              		.loc 1 103 0
 413 004a 164B     		ldr	r3, .L30+8
 414 004c 1B68     		ldr	r3, [r3]
 415 004e 9C42     		cmp	r4, r3
 416 0050 0AD0     		beq	.L25
 104:frucd_display.c ****         // only draw rectangle if color changed
 105:frucd_display.c ****         UG_FillFrame(270, 35, 450, 170, color);
 417              		.loc 1 105 0
 418 0052 0094     		str	r4, [sp]
 419 0054 AA23     		movs	r3, #170
 420 0056 4FF4E172 		mov	r2, #450
 421 005a 2321     		movs	r1, #35
 422 005c 4FF48770 		mov	r0, #270
 423 0060 FFF7FEFF 		bl	UG_FillFrame
 424              	.LVL37:
 106:frucd_display.c ****         last_max_pack_temp_color = color;
 425              		.loc 1 106 0
 426 0064 0F4B     		ldr	r3, .L30+8
 427 0066 1C60     		str	r4, [r3]
 428              	.L25:
 107:frucd_display.c ****     }
 108:frucd_display.c ****     UG_FontSelect(&FONT_32X53);
 429              		.loc 1 108 0
 430 0068 0F48     		ldr	r0, .L30+12
 431 006a FFF7FEFF 		bl	UG_FontSelect
 432              	.LVL38:
 109:frucd_display.c ****     char data_s[4];
 110:frucd_display.c ****     sprintf(data_s, "%d", data);
 433              		.loc 1 110 0
 434 006e 2A46     		mov	r2, r5
 435 0070 0E49     		ldr	r1, .L30+16
 436 0072 03A8     		add	r0, sp, #12
 437 0074 FFF7FEFF 		bl	sprintf
 438              	.LVL39:
 111:frucd_display.c ****     data_s[2] = 'C';
 439              		.loc 1 111 0
 440 0078 4323     		movs	r3, #67
 441 007a 8DF80E30 		strb	r3, [sp, #14]
 112:frucd_display.c ****     data_s[3] = '\0';
 442              		.loc 1 112 0
 443 007e 0023     		movs	r3, #0
 444 0080 8DF80F30 		strb	r3, [sp, #15]
 113:frucd_display.c ****     UG_PutColorString(310, 80, data_s, C_BLACK, color);
 445              		.loc 1 113 0
 446 0084 0094     		str	r4, [sp]
 447 0086 03AA     		add	r2, sp, #12
 448 0088 5021     		movs	r1, #80
 449 008a 4FF49B70 		mov	r0, #310
 450 008e FFF7FEFF 		bl	UG_PutColorString
 451              	.LVL40:
 114:frucd_display.c ****     UG_FontSelect(&FONT_12X16);
ARM GAS  C:\Users\ANDREY~1\AppData\Local\Temp\ccuKrLyD.s 			page 11


 452              		.loc 1 114 0
 453 0092 0748     		ldr	r0, .L30+20
 454 0094 FFF7FEFF 		bl	UG_FontSelect
 455              	.LVL41:
 115:frucd_display.c **** }
 456              		.loc 1 115 0
 457 0098 05B0     		add	sp, sp, #20
 458              		.cfi_def_cfa_offset 12
 459              		@ sp needed
 460 009a 30BD     		pop	{r4, r5, pc}
 461              	.LVL42:
 462              	.L31:
 463              		.align	2
 464              	.L30:
 465 009c 00FFFF00 		.word	16776960
 466 00a0 00A5FF00 		.word	16753920
 467 00a4 00000000 		.word	last_max_pack_temp_color
 468 00a8 00000000 		.word	FONT_32X53
 469 00ac 44000000 		.word	.LC7
 470 00b0 00000000 		.word	FONT_12X16
 471              		.cfi_endproc
 472              	.LFE67:
 473              		.size	disp_max_pack_temp, .-disp_max_pack_temp
 474              		.section	.text.disp_state,"ax",%progbits
 475              		.align	2
 476              		.global	disp_state
 477              		.thumb
 478              		.thumb_func
 479              		.type	disp_state, %function
 480              	disp_state:
 481              	.LFB68:
 116:frucd_display.c **** 
 117:frucd_display.c **** void disp_state(uint8 state) { // TODO
 482              		.loc 1 117 0
 483              		.cfi_startproc
 484              		@ args = 0, pretend = 0, frame = 0
 485              		@ frame_needed = 0, uses_anonymous_args = 0
 486              	.LVL43:
 487 0000 30B5     		push	{r4, r5, lr}
 488              		.cfi_def_cfa_offset 12
 489              		.cfi_offset 4, -12
 490              		.cfi_offset 5, -8
 491              		.cfi_offset 14, -4
 492 0002 83B0     		sub	sp, sp, #12
 493              		.cfi_def_cfa_offset 24
 494 0004 0446     		mov	r4, r0
 118:frucd_display.c ****     UG_COLOR color;
 119:frucd_display.c ****     // check fault bit
 120:frucd_display.c ****     if (state & 0x80) {
 495              		.loc 1 120 0
 496 0006 10F0800F 		tst	r0, #128
 497 000a 00F0D780 		beq	.L33
 498              	.LBB3:
 121:frucd_display.c ****         // *************** FAULTS ***************
 122:frucd_display.c ****         uint8 fault = state & 0x7f; // mask off fault bit
 499              		.loc 1 122 0
 500 000e 00F07F04 		and	r4, r0, #127
ARM GAS  C:\Users\ANDREY~1\AppData\Local\Temp\ccuKrLyD.s 			page 12


 501              	.LVL44:
 123:frucd_display.c ****         switch(fault) {
 502              		.loc 1 123 0
 503 0012 072C     		cmp	r4, #7
 504 0014 00F20F81 		bhi	.L32
 505 0018 DFE804F0 		tbb	[pc, r4]
 506              	.L36:
 507 001c 04       		.byte	(.L35-.L36)/2
 508 001d 1C       		.byte	(.L37-.L36)/2
 509 001e 36       		.byte	(.L38-.L36)/2
 510 001f 50       		.byte	(.L39-.L36)/2
 511 0020 6A       		.byte	(.L40-.L36)/2
 512 0021 84       		.byte	(.L41-.L36)/2
 513 0022 9E       		.byte	(.L42-.L36)/2
 514 0023 B6       		.byte	(.L43-.L36)/2
 515              		.p2align 1
 516              	.L35:
 517              	.LVL45:
 124:frucd_display.c ****             case NONE: // STARTUP (effectively)
 125:frucd_display.c ****                 // not obtainable via CAN
 126:frucd_display.c ****                 // would only show when hardcoded on startup
 127:frucd_display.c ****                 color = C_YELLOW;
 128:frucd_display.c ****                 if (color != last_state_color) {
 518              		.loc 1 128 0
 519 0024 854B     		ldr	r3, .L59
 520 0026 1A68     		ldr	r2, [r3]
 521 0028 854B     		ldr	r3, .L59+4
 522 002a 9A42     		cmp	r2, r3
 523 002c 09D0     		beq	.L44
 129:frucd_display.c ****                     // only draw rectangle if color changed
 130:frucd_display.c ****                     UG_FillFrame(95, 185, 240, 215, color);
 524              		.loc 1 130 0
 525 002e 1C46     		mov	r4, r3
 526              	.LVL46:
 527 0030 0093     		str	r3, [sp]
 528 0032 D723     		movs	r3, #215
 529 0034 F022     		movs	r2, #240
 530 0036 B921     		movs	r1, #185
 531 0038 5F20     		movs	r0, #95
 532              	.LVL47:
 533 003a FFF7FEFF 		bl	UG_FillFrame
 534              	.LVL48:
 131:frucd_display.c ****                     last_state_color = color;
 535              		.loc 1 131 0
 536 003e 7F4B     		ldr	r3, .L59
 537 0040 1C60     		str	r4, [r3]
 538              	.L44:
 132:frucd_display.c ****                 }
 133:frucd_display.c ****                 UG_PutColorString(100, 195, " STARTUP  ", C_BLACK, color);
 539              		.loc 1 133 0
 540 0042 7F4B     		ldr	r3, .L59+4
 541 0044 0093     		str	r3, [sp]
 542 0046 0023     		movs	r3, #0
 543 0048 7E4A     		ldr	r2, .L59+8
 544 004a C321     		movs	r1, #195
 545 004c 6420     		movs	r0, #100
 546 004e FFF7FEFF 		bl	UG_PutColorString
ARM GAS  C:\Users\ANDREY~1\AppData\Local\Temp\ccuKrLyD.s 			page 13


 547              	.LVL49:
 134:frucd_display.c ****                 break;
 548              		.loc 1 134 0
 549 0052 F0E0     		b	.L32
 550              	.LVL50:
 551              	.L37:
 135:frucd_display.c ****             case DRIVE_REQUEST_FROM_LV:
 136:frucd_display.c ****                 color = C_RED;
 137:frucd_display.c ****                 if (color != last_state_color) {
 552              		.loc 1 137 0
 553 0054 794B     		ldr	r3, .L59
 554 0056 1B68     		ldr	r3, [r3]
 555 0058 B3F57F0F 		cmp	r3, #16711680
 556 005c 0AD0     		beq	.L45
 138:frucd_display.c ****                     // only draw rectangle if color changed
 139:frucd_display.c ****                     UG_FillFrame(95, 185, 240, 215, color);
 557              		.loc 1 139 0
 558 005e 4FF47F04 		mov	r4, #16711680
 559              	.LVL51:
 560 0062 0094     		str	r4, [sp]
 561 0064 D723     		movs	r3, #215
 562 0066 F022     		movs	r2, #240
 563 0068 B921     		movs	r1, #185
 564 006a 5F20     		movs	r0, #95
 565              	.LVL52:
 566 006c FFF7FEFF 		bl	UG_FillFrame
 567              	.LVL53:
 140:frucd_display.c ****                     last_state_color = color;
 568              		.loc 1 140 0
 569 0070 724B     		ldr	r3, .L59
 570 0072 1C60     		str	r4, [r3]
 571              	.L45:
 141:frucd_display.c ****                 }
 142:frucd_display.c ****                 UG_PutColorString(100, 195, "DRV FRM LV", C_BLACK, color);
 572              		.loc 1 142 0
 573 0074 4FF47F03 		mov	r3, #16711680
 574 0078 0093     		str	r3, [sp]
 575 007a 0023     		movs	r3, #0
 576 007c 724A     		ldr	r2, .L59+12
 577 007e C321     		movs	r1, #195
 578 0080 6420     		movs	r0, #100
 579 0082 FFF7FEFF 		bl	UG_PutColorString
 580              	.LVL54:
 143:frucd_display.c ****                 break;
 581              		.loc 1 143 0
 582 0086 D6E0     		b	.L32
 583              	.LVL55:
 584              	.L38:
 144:frucd_display.c ****             case CONSERVATIVE_TIMER_MAXED:
 145:frucd_display.c ****                 color = C_RED;
 146:frucd_display.c ****                 if (color != last_state_color) {
 585              		.loc 1 146 0
 586 0088 6C4B     		ldr	r3, .L59
 587 008a 1B68     		ldr	r3, [r3]
 588 008c B3F57F0F 		cmp	r3, #16711680
 589 0090 0AD0     		beq	.L46
 147:frucd_display.c ****                     // only draw rectangle if color changed
ARM GAS  C:\Users\ANDREY~1\AppData\Local\Temp\ccuKrLyD.s 			page 14


 148:frucd_display.c ****                     UG_FillFrame(95, 185, 240, 215, color);
 590              		.loc 1 148 0
 591 0092 4FF47F04 		mov	r4, #16711680
 592              	.LVL56:
 593 0096 0094     		str	r4, [sp]
 594 0098 D723     		movs	r3, #215
 595 009a F022     		movs	r2, #240
 596 009c B921     		movs	r1, #185
 597 009e 5F20     		movs	r0, #95
 598              	.LVL57:
 599 00a0 FFF7FEFF 		bl	UG_FillFrame
 600              	.LVL58:
 149:frucd_display.c ****                     last_state_color = color;
 601              		.loc 1 149 0
 602 00a4 654B     		ldr	r3, .L59
 603 00a6 1C60     		str	r4, [r3]
 604              	.L46:
 150:frucd_display.c ****                 }
 151:frucd_display.c ****                 UG_PutColorString(100, 195, "PRE TM OUT", C_BLACK, color);
 605              		.loc 1 151 0
 606 00a8 4FF47F03 		mov	r3, #16711680
 607 00ac 0093     		str	r3, [sp]
 608 00ae 0023     		movs	r3, #0
 609 00b0 664A     		ldr	r2, .L59+16
 610 00b2 C321     		movs	r1, #195
 611 00b4 6420     		movs	r0, #100
 612 00b6 FFF7FEFF 		bl	UG_PutColorString
 613              	.LVL59:
 152:frucd_display.c ****                 break;
 614              		.loc 1 152 0
 615 00ba BCE0     		b	.L32
 616              	.LVL60:
 617              	.L39:
 153:frucd_display.c ****             case BRAKE_NOT_PRESSED:
 154:frucd_display.c ****                 color = C_RED;
 155:frucd_display.c ****                 if (color != last_state_color) {
 618              		.loc 1 155 0
 619 00bc 5F4B     		ldr	r3, .L59
 620 00be 1B68     		ldr	r3, [r3]
 621 00c0 B3F57F0F 		cmp	r3, #16711680
 622 00c4 0AD0     		beq	.L47
 156:frucd_display.c ****                     // only draw rectangle if color changed
 157:frucd_display.c ****                     UG_FillFrame(95, 185, 240, 215, color);
 623              		.loc 1 157 0
 624 00c6 4FF47F04 		mov	r4, #16711680
 625              	.LVL61:
 626 00ca 0094     		str	r4, [sp]
 627 00cc D723     		movs	r3, #215
 628 00ce F022     		movs	r2, #240
 629 00d0 B921     		movs	r1, #185
 630 00d2 5F20     		movs	r0, #95
 631              	.LVL62:
 632 00d4 FFF7FEFF 		bl	UG_FillFrame
 633              	.LVL63:
 158:frucd_display.c ****                     last_state_color = color;
 634              		.loc 1 158 0
 635 00d8 584B     		ldr	r3, .L59
ARM GAS  C:\Users\ANDREY~1\AppData\Local\Temp\ccuKrLyD.s 			page 15


 636 00da 1C60     		str	r4, [r3]
 637              	.L47:
 159:frucd_display.c ****                 }
 160:frucd_display.c ****                 UG_PutColorString(100, 195, "BR NOT PRS", C_BLACK, color);
 638              		.loc 1 160 0
 639 00dc 4FF47F03 		mov	r3, #16711680
 640 00e0 0093     		str	r3, [sp]
 641 00e2 0023     		movs	r3, #0
 642 00e4 5A4A     		ldr	r2, .L59+20
 643 00e6 C321     		movs	r1, #195
 644 00e8 6420     		movs	r0, #100
 645 00ea FFF7FEFF 		bl	UG_PutColorString
 646              	.LVL64:
 161:frucd_display.c ****                 break;
 647              		.loc 1 161 0
 648 00ee A2E0     		b	.L32
 649              	.LVL65:
 650              	.L40:
 162:frucd_display.c ****             case HV_DISABLED_WHILE_DRIVING:
 163:frucd_display.c ****                 color = C_RED;
 164:frucd_display.c ****                 if (color != last_state_color) {
 651              		.loc 1 164 0
 652 00f0 524B     		ldr	r3, .L59
 653 00f2 1B68     		ldr	r3, [r3]
 654 00f4 B3F57F0F 		cmp	r3, #16711680
 655 00f8 0AD0     		beq	.L48
 165:frucd_display.c ****                     // only draw rectangle if color changed
 166:frucd_display.c ****                     UG_FillFrame(95, 185, 240, 215, color);
 656              		.loc 1 166 0
 657 00fa 4FF47F04 		mov	r4, #16711680
 658              	.LVL66:
 659 00fe 0094     		str	r4, [sp]
 660 0100 D723     		movs	r3, #215
 661 0102 F022     		movs	r2, #240
 662 0104 B921     		movs	r1, #185
 663 0106 5F20     		movs	r0, #95
 664              	.LVL67:
 665 0108 FFF7FEFF 		bl	UG_FillFrame
 666              	.LVL68:
 167:frucd_display.c ****                     last_state_color = color;
 667              		.loc 1 167 0
 668 010c 4B4B     		ldr	r3, .L59
 669 010e 1C60     		str	r4, [r3]
 670              	.L48:
 168:frucd_display.c ****                 }
 169:frucd_display.c ****                 UG_PutColorString(100, 195, "HV OFF DRV", C_BLACK, color);
 671              		.loc 1 169 0
 672 0110 4FF47F03 		mov	r3, #16711680
 673 0114 0093     		str	r3, [sp]
 674 0116 0023     		movs	r3, #0
 675 0118 4E4A     		ldr	r2, .L59+24
 676 011a C321     		movs	r1, #195
 677 011c 6420     		movs	r0, #100
 678 011e FFF7FEFF 		bl	UG_PutColorString
 679              	.LVL69:
 170:frucd_display.c ****                 break;
 680              		.loc 1 170 0
ARM GAS  C:\Users\ANDREY~1\AppData\Local\Temp\ccuKrLyD.s 			page 16


 681 0122 88E0     		b	.L32
 682              	.LVL70:
 683              	.L41:
 171:frucd_display.c ****             case SENSOR_DISCREPANCY:
 172:frucd_display.c ****                 color = C_RED;
 173:frucd_display.c ****                 if (color != last_state_color) {
 684              		.loc 1 173 0
 685 0124 454B     		ldr	r3, .L59
 686 0126 1B68     		ldr	r3, [r3]
 687 0128 B3F57F0F 		cmp	r3, #16711680
 688 012c 0AD0     		beq	.L49
 174:frucd_display.c ****                     // only draw rectangle if color changed
 175:frucd_display.c ****                     UG_FillFrame(95, 185, 240, 215, color);
 689              		.loc 1 175 0
 690 012e 4FF47F04 		mov	r4, #16711680
 691              	.LVL71:
 692 0132 0094     		str	r4, [sp]
 693 0134 D723     		movs	r3, #215
 694 0136 F022     		movs	r2, #240
 695 0138 B921     		movs	r1, #185
 696 013a 5F20     		movs	r0, #95
 697              	.LVL72:
 698 013c FFF7FEFF 		bl	UG_FillFrame
 699              	.LVL73:
 176:frucd_display.c ****                     last_state_color = color;
 700              		.loc 1 176 0
 701 0140 3E4B     		ldr	r3, .L59
 702 0142 1C60     		str	r4, [r3]
 703              	.L49:
 177:frucd_display.c ****                 }
 178:frucd_display.c ****                 UG_PutColorString(100, 195, "SNSR DSCRP", C_BLACK, color);
 704              		.loc 1 178 0
 705 0144 4FF47F03 		mov	r3, #16711680
 706 0148 0093     		str	r3, [sp]
 707 014a 0023     		movs	r3, #0
 708 014c 424A     		ldr	r2, .L59+28
 709 014e C321     		movs	r1, #195
 710 0150 6420     		movs	r0, #100
 711 0152 FFF7FEFF 		bl	UG_PutColorString
 712              	.LVL74:
 179:frucd_display.c ****                 break;
 713              		.loc 1 179 0
 714 0156 6EE0     		b	.L32
 715              	.LVL75:
 716              	.L42:
 180:frucd_display.c ****             case BRAKE_IMPLAUSIBLE:
 181:frucd_display.c ****                 color = C_YELLOW;
 182:frucd_display.c ****                 if (color != last_state_color) {
 717              		.loc 1 182 0
 718 0158 384B     		ldr	r3, .L59
 719 015a 1A68     		ldr	r2, [r3]
 720 015c 384B     		ldr	r3, .L59+4
 721 015e 9A42     		cmp	r2, r3
 722 0160 09D0     		beq	.L50
 183:frucd_display.c ****                     // only draw rectangle if color changed
 184:frucd_display.c ****                     UG_FillFrame(95, 185, 240, 215, color);
 723              		.loc 1 184 0
ARM GAS  C:\Users\ANDREY~1\AppData\Local\Temp\ccuKrLyD.s 			page 17


 724 0162 1C46     		mov	r4, r3
 725              	.LVL76:
 726 0164 0093     		str	r3, [sp]
 727 0166 D723     		movs	r3, #215
 728 0168 F022     		movs	r2, #240
 729 016a B921     		movs	r1, #185
 730 016c 5F20     		movs	r0, #95
 731              	.LVL77:
 732 016e FFF7FEFF 		bl	UG_FillFrame
 733              	.LVL78:
 185:frucd_display.c ****                     last_state_color = color;
 734              		.loc 1 185 0
 735 0172 324B     		ldr	r3, .L59
 736 0174 1C60     		str	r4, [r3]
 737              	.L50:
 186:frucd_display.c ****                 }
 187:frucd_display.c ****                 UG_PutColorString(100, 195, "BSPD TRIPD", C_BLACK, color); //whitespace to clear
 738              		.loc 1 187 0
 739 0176 324B     		ldr	r3, .L59+4
 740 0178 0093     		str	r3, [sp]
 741 017a 0023     		movs	r3, #0
 742 017c 374A     		ldr	r2, .L59+32
 743 017e C321     		movs	r1, #195
 744 0180 6420     		movs	r0, #100
 745 0182 FFF7FEFF 		bl	UG_PutColorString
 746              	.LVL79:
 188:frucd_display.c ****                 break;
 747              		.loc 1 188 0
 748 0186 56E0     		b	.L32
 749              	.LVL80:
 750              	.L43:
 189:frucd_display.c ****             case ESTOP:
 190:frucd_display.c ****                 color = C_RED;
 191:frucd_display.c ****                 if (color != last_state_color) {
 751              		.loc 1 191 0
 752 0188 2C4B     		ldr	r3, .L59
 753 018a 1B68     		ldr	r3, [r3]
 754 018c B3F57F0F 		cmp	r3, #16711680
 755 0190 0AD0     		beq	.L51
 192:frucd_display.c ****                     // only draw rectangle if color changed
 193:frucd_display.c ****                     UG_FillFrame(95, 185, 240, 215, color);
 756              		.loc 1 193 0
 757 0192 4FF47F04 		mov	r4, #16711680
 758              	.LVL81:
 759 0196 0094     		str	r4, [sp]
 760 0198 D723     		movs	r3, #215
 761 019a F022     		movs	r2, #240
 762 019c B921     		movs	r1, #185
 763 019e 5F20     		movs	r0, #95
 764              	.LVL82:
 765 01a0 FFF7FEFF 		bl	UG_FillFrame
 766              	.LVL83:
 194:frucd_display.c ****                     last_state_color = color;
 767              		.loc 1 194 0
 768 01a4 254B     		ldr	r3, .L59
 769 01a6 1C60     		str	r4, [r3]
 770              	.L51:
ARM GAS  C:\Users\ANDREY~1\AppData\Local\Temp\ccuKrLyD.s 			page 18


 195:frucd_display.c ****                 }
 196:frucd_display.c ****                 UG_PutColorString(100, 195, "SHTDWN OPN", C_BLACK, color); //whitespace to clear
 771              		.loc 1 196 0
 772 01a8 4FF47F03 		mov	r3, #16711680
 773 01ac 0093     		str	r3, [sp]
 774 01ae 0023     		movs	r3, #0
 775 01b0 2B4A     		ldr	r2, .L59+36
 776 01b2 C321     		movs	r1, #195
 777 01b4 6420     		movs	r0, #100
 778 01b6 FFF7FEFF 		bl	UG_PutColorString
 779              	.LVL84:
 197:frucd_display.c ****                 break;
 780              		.loc 1 197 0
 781 01ba 3CE0     		b	.L32
 782              	.LVL85:
 783              	.L33:
 784              	.LBE3:
 198:frucd_display.c ****         }
 199:frucd_display.c ****         
 200:frucd_display.c ****     } else {
 201:frucd_display.c ****         // *************** NO FAULTS ***************
 202:frucd_display.c ****         color = C_GREEN;
 203:frucd_display.c ****         if (color != last_state_color) {
 785              		.loc 1 203 0
 786 01bc 1F4B     		ldr	r3, .L59
 787 01be 1B68     		ldr	r3, [r3]
 788 01c0 B3F57F4F 		cmp	r3, #65280
 789 01c4 0AD0     		beq	.L52
 204:frucd_display.c ****             // only draw rectangle if color changed
 205:frucd_display.c ****             UG_FillFrame(95, 185, 240, 215, color);
 790              		.loc 1 205 0
 791 01c6 4FF47F45 		mov	r5, #65280
 792 01ca 0095     		str	r5, [sp]
 793 01cc D723     		movs	r3, #215
 794 01ce F022     		movs	r2, #240
 795 01d0 B921     		movs	r1, #185
 796 01d2 5F20     		movs	r0, #95
 797              	.LVL86:
 798 01d4 FFF7FEFF 		bl	UG_FillFrame
 799              	.LVL87:
 206:frucd_display.c ****             last_state_color = color;
 800              		.loc 1 206 0
 801 01d8 184B     		ldr	r3, .L59
 802 01da 1D60     		str	r5, [r3]
 803              	.L52:
 207:frucd_display.c ****         }
 208:frucd_display.c ****         switch(state) {
 804              		.loc 1 208 0
 805 01dc 032C     		cmp	r4, #3
 806 01de 2AD8     		bhi	.L32
 807 01e0 DFE804F0 		tbb	[pc, r4]
 808              	.L54:
 809 01e4 02       		.byte	(.L53-.L54)/2
 810 01e5 0C       		.byte	(.L55-.L54)/2
 811 01e6 16       		.byte	(.L56-.L54)/2
 812 01e7 20       		.byte	(.L57-.L54)/2
 813              		.p2align 1
ARM GAS  C:\Users\ANDREY~1\AppData\Local\Temp\ccuKrLyD.s 			page 19


 814              	.L53:
 209:frucd_display.c ****             case LV:
 210:frucd_display.c ****                 UG_PutColorString(100, 195, "    LV    ", C_BLACK, color);
 815              		.loc 1 210 0
 816 01e8 4FF47F43 		mov	r3, #65280
 817 01ec 0093     		str	r3, [sp]
 818 01ee 0023     		movs	r3, #0
 819 01f0 1C4A     		ldr	r2, .L59+40
 820 01f2 C321     		movs	r1, #195
 821 01f4 6420     		movs	r0, #100
 822 01f6 FFF7FEFF 		bl	UG_PutColorString
 823              	.LVL88:
 211:frucd_display.c ****                 break;
 824              		.loc 1 211 0
 825 01fa 1CE0     		b	.L32
 826              	.L55:
 212:frucd_display.c ****             case PRECHARGING:
 213:frucd_display.c ****                 UG_PutColorString(100, 195, "PRECHARGE ", C_BLACK, color);
 827              		.loc 1 213 0
 828 01fc 4FF47F43 		mov	r3, #65280
 829 0200 0093     		str	r3, [sp]
 830 0202 0023     		movs	r3, #0
 831 0204 184A     		ldr	r2, .L59+44
 832 0206 C321     		movs	r1, #195
 833 0208 6420     		movs	r0, #100
 834 020a FFF7FEFF 		bl	UG_PutColorString
 835              	.LVL89:
 214:frucd_display.c ****                 break;
 836              		.loc 1 214 0
 837 020e 12E0     		b	.L32
 838              	.L56:
 215:frucd_display.c ****             case HV_ENABLED:
 216:frucd_display.c ****                 UG_PutColorString(100, 195, "HV ENABLED", C_BLACK, color);
 839              		.loc 1 216 0
 840 0210 4FF47F43 		mov	r3, #65280
 841 0214 0093     		str	r3, [sp]
 842 0216 0023     		movs	r3, #0
 843 0218 144A     		ldr	r2, .L59+48
 844 021a C321     		movs	r1, #195
 845 021c 6420     		movs	r0, #100
 846 021e FFF7FEFF 		bl	UG_PutColorString
 847              	.LVL90:
 217:frucd_display.c ****                 break;
 848              		.loc 1 217 0
 849 0222 08E0     		b	.L32
 850              	.L57:
 218:frucd_display.c ****             case DRIVE:
 219:frucd_display.c ****                 UG_PutColorString(100, 195, "  DRIVE   ", C_BLACK, color);
 851              		.loc 1 219 0
 852 0224 4FF47F43 		mov	r3, #65280
 853 0228 0093     		str	r3, [sp]
 854 022a 0023     		movs	r3, #0
 855 022c 104A     		ldr	r2, .L59+52
 856 022e C321     		movs	r1, #195
 857 0230 6420     		movs	r0, #100
 858 0232 FFF7FEFF 		bl	UG_PutColorString
 859              	.LVL91:
ARM GAS  C:\Users\ANDREY~1\AppData\Local\Temp\ccuKrLyD.s 			page 20


 860              	.L32:
 220:frucd_display.c ****                 break;
 221:frucd_display.c ****         }
 222:frucd_display.c ****     }
 223:frucd_display.c **** }
 861              		.loc 1 223 0
 862 0236 03B0     		add	sp, sp, #12
 863              		.cfi_def_cfa_offset 12
 864              		@ sp needed
 865 0238 30BD     		pop	{r4, r5, pc}
 866              	.L60:
 867 023a 00BF     		.align	2
 868              	.L59:
 869 023c 00000000 		.word	last_state_color
 870 0240 00FFFF00 		.word	16776960
 871 0244 48000000 		.word	.LC8
 872 0248 54000000 		.word	.LC9
 873 024c 60000000 		.word	.LC10
 874 0250 6C000000 		.word	.LC11
 875 0254 78000000 		.word	.LC12
 876 0258 84000000 		.word	.LC13
 877 025c 90000000 		.word	.LC14
 878 0260 9C000000 		.word	.LC15
 879 0264 A8000000 		.word	.LC16
 880 0268 B4000000 		.word	.LC17
 881 026c C0000000 		.word	.LC18
 882 0270 CC000000 		.word	.LC19
 883              		.cfi_endproc
 884              	.LFE68:
 885              		.size	disp_state, .-disp_state
 886              		.section	.text.disp_glv_v,"ax",%progbits
 887              		.align	2
 888              		.global	disp_glv_v
 889              		.thumb
 890              		.thumb_func
 891              		.type	disp_glv_v, %function
 892              	disp_glv_v:
 893              	.LFB69:
 224:frucd_display.c **** 
 225:frucd_display.c **** void disp_glv_v(uint16 data) {
 894              		.loc 1 225 0
 895              		.cfi_startproc
 896              		@ args = 0, pretend = 0, frame = 8
 897              		@ frame_needed = 0, uses_anonymous_args = 0
 898              	.LVL92:
 899 0000 70B5     		push	{r4, r5, r6, lr}
 900              		.cfi_def_cfa_offset 16
 901              		.cfi_offset 4, -16
 902              		.cfi_offset 5, -12
 903              		.cfi_offset 6, -8
 904              		.cfi_offset 14, -4
 905 0002 84B0     		sub	sp, sp, #16
 906              		.cfi_def_cfa_offset 32
 226:frucd_display.c ****     // format to 0-1200 range
 227:frucd_display.c ****     data *= 1; // conversion 1187/265 also *1000
 228:frucd_display.c ****     data = 100 * (data / 0xffff) + (100 * data / 0xffff - 100 * (data / 0xffff));
 907              		.loc 1 228 0
ARM GAS  C:\Users\ANDREY~1\AppData\Local\Temp\ccuKrLyD.s 			page 21


 908 0004 6423     		movs	r3, #100
 909 0006 03FB00F0 		mul	r0, r3, r0
 910              	.LVL93:
 911 000a 2D4C     		ldr	r4, .L69
 912 000c 84FB0034 		smull	r3, r4, r4, r0
 913 0010 0444     		add	r4, r4, r0
 914 0012 C017     		asrs	r0, r0, #31
 915 0014 C0EBE434 		rsb	r4, r0, r4, asr #15
 916 0018 A6B2     		uxth	r6, r4
 917              	.LVL94:
 229:frucd_display.c ****     UG_COLOR color;
 230:frucd_display.c ****     if (data > 1150) {
 918              		.loc 1 230 0
 919 001a 40F27E43 		movw	r3, #1150
 920 001e 9E42     		cmp	r6, r3
 921 0020 09D8     		bhi	.L65
 231:frucd_display.c ****         color = C_GREEN;
 232:frucd_display.c ****     } else if (data > 1100) {
 922              		.loc 1 232 0
 923 0022 40F24C43 		movw	r3, #1100
 924 0026 9E42     		cmp	r6, r3
 925 0028 08D8     		bhi	.L66
 233:frucd_display.c ****         color = C_YELLOW;
 234:frucd_display.c ****     } else if (data > 1050) {
 926              		.loc 1 234 0
 927 002a 40F21A43 		movw	r3, #1050
 928 002e 9E42     		cmp	r6, r3
 929 0030 06D9     		bls	.L67
 235:frucd_display.c ****         color = C_ORANGE;
 930              		.loc 1 235 0
 931 0032 244D     		ldr	r5, .L69+4
 932 0034 06E0     		b	.L62
 933              	.L65:
 231:frucd_display.c ****         color = C_GREEN;
 934              		.loc 1 231 0
 935 0036 4FF47F45 		mov	r5, #65280
 936 003a 03E0     		b	.L62
 937              	.L66:
 233:frucd_display.c ****         color = C_YELLOW;
 938              		.loc 1 233 0
 939 003c 224D     		ldr	r5, .L69+8
 940 003e 01E0     		b	.L62
 941              	.L67:
 236:frucd_display.c ****     } else {
 237:frucd_display.c ****         color = C_RED;
 942              		.loc 1 237 0
 943 0040 4FF47F05 		mov	r5, #16711680
 944              	.L62:
 945              	.LVL95:
 238:frucd_display.c ****     }
 239:frucd_display.c ****     if (color != last_glv_v_color) {
 946              		.loc 1 239 0
 947 0044 214B     		ldr	r3, .L69+12
 948 0046 1B68     		ldr	r3, [r3]
 949 0048 9D42     		cmp	r5, r3
 950 004a 09D0     		beq	.L63
 240:frucd_display.c ****         // only draw rectangle if color changed
ARM GAS  C:\Users\ANDREY~1\AppData\Local\Temp\ccuKrLyD.s 			page 22


 241:frucd_display.c ****         UG_FillFrame(95, 230, 182, 260, color);
 951              		.loc 1 241 0
 952 004c 0095     		str	r5, [sp]
 953 004e 4FF48273 		mov	r3, #260
 954 0052 B622     		movs	r2, #182
 955 0054 E621     		movs	r1, #230
 956 0056 5F20     		movs	r0, #95
 957 0058 FFF7FEFF 		bl	UG_FillFrame
 958              	.LVL96:
 242:frucd_display.c ****         last_glv_v_color = color;
 959              		.loc 1 242 0
 960 005c 1B4B     		ldr	r3, .L69+12
 961 005e 1D60     		str	r5, [r3]
 962              	.L63:
 243:frucd_display.c ****     }
 244:frucd_display.c ****     char data_s[7];
 245:frucd_display.c ****     sprintf(data_s, "%d", data);
 963              		.loc 1 245 0
 964 0060 A2B2     		uxth	r2, r4
 965 0062 1B49     		ldr	r1, .L69+16
 966 0064 02A8     		add	r0, sp, #8
 967 0066 FFF7FEFF 		bl	sprintf
 968              	.LVL97:
 246:frucd_display.c ****     // handle 3 digit cases; 2 and 1 are practically impossible
 247:frucd_display.c ****     if (data < 1000) {
 969              		.loc 1 247 0
 970 006a B6F57A7F 		cmp	r6, #1000
 971 006e 0ED2     		bcs	.L64
 248:frucd_display.c ****         data_s[3] = data_s[2];
 972              		.loc 1 248 0
 973 0070 9DF80A30 		ldrb	r3, [sp, #10]	@ zero_extendqisi2
 974 0074 8DF80B30 		strb	r3, [sp, #11]
 249:frucd_display.c ****         data_s[2] = data_s[1];
 975              		.loc 1 249 0
 976 0078 9DF80930 		ldrb	r3, [sp, #9]	@ zero_extendqisi2
 977 007c 8DF80A30 		strb	r3, [sp, #10]
 250:frucd_display.c ****         data_s[1] = data_s[0];  
 978              		.loc 1 250 0
 979 0080 9DF80830 		ldrb	r3, [sp, #8]	@ zero_extendqisi2
 980 0084 8DF80930 		strb	r3, [sp, #9]
 251:frucd_display.c ****         data_s[0] = ' ';
 981              		.loc 1 251 0
 982 0088 2023     		movs	r3, #32
 983 008a 8DF80830 		strb	r3, [sp, #8]
 984              	.L64:
 252:frucd_display.c ****     }
 253:frucd_display.c ****     // shift over fractional part
 254:frucd_display.c ****     data_s[4] = data_s[3];
 985              		.loc 1 254 0
 986 008e 9DF80B30 		ldrb	r3, [sp, #11]	@ zero_extendqisi2
 987 0092 8DF80C30 		strb	r3, [sp, #12]
 255:frucd_display.c ****     data_s[3] = data_s[2];
 988              		.loc 1 255 0
 989 0096 9DF80A30 		ldrb	r3, [sp, #10]	@ zero_extendqisi2
 990 009a 8DF80B30 		strb	r3, [sp, #11]
 256:frucd_display.c ****     // add syntax
 257:frucd_display.c ****     data_s[2] = '.';
ARM GAS  C:\Users\ANDREY~1\AppData\Local\Temp\ccuKrLyD.s 			page 23


 991              		.loc 1 257 0
 992 009e 2E23     		movs	r3, #46
 993 00a0 8DF80A30 		strb	r3, [sp, #10]
 258:frucd_display.c ****     data_s[5] = 'V';
 994              		.loc 1 258 0
 995 00a4 5623     		movs	r3, #86
 996 00a6 8DF80D30 		strb	r3, [sp, #13]
 259:frucd_display.c ****     data_s[6] = '\0';
 997              		.loc 1 259 0
 998 00aa 0023     		movs	r3, #0
 999 00ac 8DF80E30 		strb	r3, [sp, #14]
 260:frucd_display.c ****     UG_PutColorString(100, 240, data_s, C_BLACK, color);
 1000              		.loc 1 260 0
 1001 00b0 0095     		str	r5, [sp]
 1002 00b2 02AA     		add	r2, sp, #8
 1003 00b4 F021     		movs	r1, #240
 1004 00b6 6420     		movs	r0, #100
 1005 00b8 FFF7FEFF 		bl	UG_PutColorString
 1006              	.LVL98:
 261:frucd_display.c **** }
 1007              		.loc 1 261 0
 1008 00bc 04B0     		add	sp, sp, #16
 1009              		.cfi_def_cfa_offset 16
 1010              		@ sp needed
 1011 00be 70BD     		pop	{r4, r5, r6, pc}
 1012              	.LVL99:
 1013              	.L70:
 1014              		.align	2
 1015              	.L69:
 1016 00c0 01800080 		.word	-2147450879
 1017 00c4 00A5FF00 		.word	16753920
 1018 00c8 00FFFF00 		.word	16776960
 1019 00cc 00000000 		.word	last_glv_v_color
 1020 00d0 44000000 		.word	.LC7
 1021              		.cfi_endproc
 1022              	.LFE69:
 1023              		.size	disp_glv_v, .-disp_glv_v
 1024              		.section	.text.disp_mc_temp,"ax",%progbits
 1025              		.align	2
 1026              		.global	disp_mc_temp
 1027              		.thumb
 1028              		.thumb_func
 1029              		.type	disp_mc_temp, %function
 1030              	disp_mc_temp:
 1031              	.LFB70:
 262:frucd_display.c **** 
 263:frucd_display.c **** void disp_mc_temp(uint16 data) {
 1032              		.loc 1 263 0
 1033              		.cfi_startproc
 1034              		@ args = 0, pretend = 0, frame = 8
 1035              		@ frame_needed = 0, uses_anonymous_args = 0
 1036              	.LVL100:
 1037 0000 30B5     		push	{r4, r5, lr}
 1038              		.cfi_def_cfa_offset 12
 1039              		.cfi_offset 4, -12
 1040              		.cfi_offset 5, -8
 1041              		.cfi_offset 14, -4
ARM GAS  C:\Users\ANDREY~1\AppData\Local\Temp\ccuKrLyD.s 			page 24


 1042 0002 85B0     		sub	sp, sp, #20
 1043              		.cfi_def_cfa_offset 32
 1044 0004 0446     		mov	r4, r0
 264:frucd_display.c ****     if (data >= 100) {
 1045              		.loc 1 264 0
 1046 0006 6328     		cmp	r0, #99
 1047 0008 1DD9     		bls	.L72
 1048              	.LBB4:
 265:frucd_display.c ****         // handle 3 digit cases
 266:frucd_display.c ****         UG_FillFrame(410, 185, 470, 215, C_GREEN);
 1049              		.loc 1 266 0
 1050 000a 4FF47F45 		mov	r5, #65280
 1051 000e 0095     		str	r5, [sp]
 1052 0010 D723     		movs	r3, #215
 1053 0012 4FF4EB72 		mov	r2, #470
 1054 0016 B921     		movs	r1, #185
 1055 0018 4FF4CD70 		mov	r0, #410
 1056              	.LVL101:
 1057 001c FFF7FEFF 		bl	UG_FillFrame
 1058              	.LVL102:
 267:frucd_display.c ****         char data_s[5];
 268:frucd_display.c ****         sprintf(data_s, "%d", data);
 1059              		.loc 1 268 0
 1060 0020 2246     		mov	r2, r4
 1061 0022 1849     		ldr	r1, .L75
 1062 0024 02A8     		add	r0, sp, #8
 1063 0026 FFF7FEFF 		bl	sprintf
 1064              	.LVL103:
 269:frucd_display.c ****         data_s[3] = 'C';
 1065              		.loc 1 269 0
 1066 002a 4323     		movs	r3, #67
 1067 002c 8DF80B30 		strb	r3, [sp, #11]
 270:frucd_display.c ****         data_s[4] = '\0';
 1068              		.loc 1 270 0
 1069 0030 0023     		movs	r3, #0
 1070 0032 8DF80C30 		strb	r3, [sp, #12]
 271:frucd_display.c ****         UG_PutColorString(415, 195, data_s, C_BLACK, C_GREEN);
 1071              		.loc 1 271 0
 1072 0036 0095     		str	r5, [sp]
 1073 0038 02AA     		add	r2, sp, #8
 1074 003a C321     		movs	r1, #195
 1075 003c 40F29F10 		movw	r0, #415
 1076 0040 FFF7FEFF 		bl	UG_PutColorString
 1077              	.LVL104:
 1078              	.LBE4:
 1079 0044 1CE0     		b	.L71
 1080              	.LVL105:
 1081              	.L72:
 1082              	.LBB5:
 272:frucd_display.c ****     } else {
 273:frucd_display.c ****         // handle 2 digit cases
 274:frucd_display.c ****         UG_FillFrame(410, 185, 470, 215, C_GREEN);
 1083              		.loc 1 274 0
 1084 0046 4FF47F45 		mov	r5, #65280
 1085 004a 0095     		str	r5, [sp]
 1086 004c D723     		movs	r3, #215
 1087 004e 4FF4EB72 		mov	r2, #470
ARM GAS  C:\Users\ANDREY~1\AppData\Local\Temp\ccuKrLyD.s 			page 25


 1088 0052 B921     		movs	r1, #185
 1089 0054 4FF4CD70 		mov	r0, #410
 1090              	.LVL106:
 1091 0058 FFF7FEFF 		bl	UG_FillFrame
 1092              	.LVL107:
 275:frucd_display.c ****         char data_s[4];
 276:frucd_display.c ****         sprintf(data_s, "%d", data);
 1093              		.loc 1 276 0
 1094 005c 2246     		mov	r2, r4
 1095 005e 0949     		ldr	r1, .L75
 1096 0060 02A8     		add	r0, sp, #8
 1097 0062 FFF7FEFF 		bl	sprintf
 1098              	.LVL108:
 277:frucd_display.c ****         data_s[2] = 'C';
 1099              		.loc 1 277 0
 1100 0066 4323     		movs	r3, #67
 1101 0068 8DF80A30 		strb	r3, [sp, #10]
 278:frucd_display.c ****         data_s[3] = '\0';
 1102              		.loc 1 278 0
 1103 006c 0023     		movs	r3, #0
 1104 006e 8DF80B30 		strb	r3, [sp, #11]
 279:frucd_display.c ****         UG_PutColorString(422, 195, data_s, C_BLACK, C_GREEN);
 1105              		.loc 1 279 0
 1106 0072 0095     		str	r5, [sp]
 1107 0074 02AA     		add	r2, sp, #8
 1108 0076 C321     		movs	r1, #195
 1109 0078 4FF4D370 		mov	r0, #422
 1110 007c FFF7FEFF 		bl	UG_PutColorString
 1111              	.LVL109:
 1112              	.L71:
 1113              	.LBE5:
 280:frucd_display.c ****     }
 281:frucd_display.c **** }
 1114              		.loc 1 281 0
 1115 0080 05B0     		add	sp, sp, #20
 1116              		.cfi_def_cfa_offset 12
 1117              		@ sp needed
 1118 0082 30BD     		pop	{r4, r5, pc}
 1119              	.L76:
 1120              		.align	2
 1121              	.L75:
 1122 0084 44000000 		.word	.LC7
 1123              		.cfi_endproc
 1124              	.LFE70:
 1125              		.size	disp_mc_temp, .-disp_mc_temp
 1126              		.section	.text.disp_motor_temp,"ax",%progbits
 1127              		.align	2
 1128              		.global	disp_motor_temp
 1129              		.thumb
 1130              		.thumb_func
 1131              		.type	disp_motor_temp, %function
 1132              	disp_motor_temp:
 1133              	.LFB71:
 282:frucd_display.c **** 
 283:frucd_display.c **** void disp_motor_temp(uint16 data) {
 1134              		.loc 1 283 0
 1135              		.cfi_startproc
ARM GAS  C:\Users\ANDREY~1\AppData\Local\Temp\ccuKrLyD.s 			page 26


 1136              		@ args = 0, pretend = 0, frame = 8
 1137              		@ frame_needed = 0, uses_anonymous_args = 0
 1138              	.LVL110:
 1139 0000 30B5     		push	{r4, r5, lr}
 1140              		.cfi_def_cfa_offset 12
 1141              		.cfi_offset 4, -12
 1142              		.cfi_offset 5, -8
 1143              		.cfi_offset 14, -4
 1144 0002 85B0     		sub	sp, sp, #20
 1145              		.cfi_def_cfa_offset 32
 1146 0004 0446     		mov	r4, r0
 284:frucd_display.c ****     if (data >= 100) {
 1147              		.loc 1 284 0
 1148 0006 6328     		cmp	r0, #99
 1149 0008 1ED9     		bls	.L78
 1150              	.LBB6:
 285:frucd_display.c ****         // handle 3 digit cases
 286:frucd_display.c ****         UG_FillFrame(410, 230, 470, 260, C_GREEN);
 1151              		.loc 1 286 0
 1152 000a 4FF47F45 		mov	r5, #65280
 1153 000e 0095     		str	r5, [sp]
 1154 0010 4FF48273 		mov	r3, #260
 1155 0014 4FF4EB72 		mov	r2, #470
 1156 0018 E621     		movs	r1, #230
 1157 001a 4FF4CD70 		mov	r0, #410
 1158              	.LVL111:
 1159 001e FFF7FEFF 		bl	UG_FillFrame
 1160              	.LVL112:
 287:frucd_display.c ****         char data_s[5];
 288:frucd_display.c ****         sprintf(data_s, "%d", data);
 1161              		.loc 1 288 0
 1162 0022 2246     		mov	r2, r4
 1163 0024 1849     		ldr	r1, .L81
 1164 0026 02A8     		add	r0, sp, #8
 1165 0028 FFF7FEFF 		bl	sprintf
 1166              	.LVL113:
 289:frucd_display.c ****         data_s[3] = 'C';
 1167              		.loc 1 289 0
 1168 002c 4323     		movs	r3, #67
 1169 002e 8DF80B30 		strb	r3, [sp, #11]
 290:frucd_display.c ****         data_s[4] = '\0';
 1170              		.loc 1 290 0
 1171 0032 0023     		movs	r3, #0
 1172 0034 8DF80C30 		strb	r3, [sp, #12]
 291:frucd_display.c ****         UG_PutColorString(415, 240, data_s, C_BLACK, C_GREEN);
 1173              		.loc 1 291 0
 1174 0038 0095     		str	r5, [sp]
 1175 003a 02AA     		add	r2, sp, #8
 1176 003c F021     		movs	r1, #240
 1177 003e 40F29F10 		movw	r0, #415
 1178 0042 FFF7FEFF 		bl	UG_PutColorString
 1179              	.LVL114:
 1180              	.LBE6:
 1181 0046 1DE0     		b	.L77
 1182              	.LVL115:
 1183              	.L78:
 1184              	.LBB7:
ARM GAS  C:\Users\ANDREY~1\AppData\Local\Temp\ccuKrLyD.s 			page 27


 292:frucd_display.c ****     } else {
 293:frucd_display.c ****         // handle 2 digit cases
 294:frucd_display.c ****         UG_FillFrame(410, 230, 470, 260, C_GREEN);
 1185              		.loc 1 294 0
 1186 0048 4FF47F45 		mov	r5, #65280
 1187 004c 0095     		str	r5, [sp]
 1188 004e 4FF48273 		mov	r3, #260
 1189 0052 4FF4EB72 		mov	r2, #470
 1190 0056 E621     		movs	r1, #230
 1191 0058 4FF4CD70 		mov	r0, #410
 1192              	.LVL116:
 1193 005c FFF7FEFF 		bl	UG_FillFrame
 1194              	.LVL117:
 295:frucd_display.c ****         char data_s[4];
 296:frucd_display.c ****         sprintf(data_s, "%d", data);
 1195              		.loc 1 296 0
 1196 0060 2246     		mov	r2, r4
 1197 0062 0949     		ldr	r1, .L81
 1198 0064 02A8     		add	r0, sp, #8
 1199 0066 FFF7FEFF 		bl	sprintf
 1200              	.LVL118:
 297:frucd_display.c ****         data_s[2] = 'C';
 1201              		.loc 1 297 0
 1202 006a 4323     		movs	r3, #67
 1203 006c 8DF80A30 		strb	r3, [sp, #10]
 298:frucd_display.c ****         data_s[3] = '\0';
 1204              		.loc 1 298 0
 1205 0070 0023     		movs	r3, #0
 1206 0072 8DF80B30 		strb	r3, [sp, #11]
 299:frucd_display.c ****         UG_PutColorString(422, 240, data_s, C_BLACK, C_GREEN);
 1207              		.loc 1 299 0
 1208 0076 0095     		str	r5, [sp]
 1209 0078 02AA     		add	r2, sp, #8
 1210 007a F021     		movs	r1, #240
 1211 007c 4FF4D370 		mov	r0, #422
 1212 0080 FFF7FEFF 		bl	UG_PutColorString
 1213              	.LVL119:
 1214              	.L77:
 1215              	.LBE7:
 300:frucd_display.c ****     }
 301:frucd_display.c **** }
 1216              		.loc 1 301 0
 1217 0084 05B0     		add	sp, sp, #20
 1218              		.cfi_def_cfa_offset 12
 1219              		@ sp needed
 1220 0086 30BD     		pop	{r4, r5, pc}
 1221              	.L82:
 1222              		.align	2
 1223              	.L81:
 1224 0088 44000000 		.word	.LC7
 1225              		.cfi_endproc
 1226              	.LFE71:
 1227              		.size	disp_motor_temp, .-disp_motor_temp
 1228              		.comm	last_motor_temp_color,4,4
 1229              		.comm	last_mc_temp_color,4,4
 1230              		.comm	last_glv_v_color,4,4
 1231              		.comm	last_state_color,4,4
ARM GAS  C:\Users\ANDREY~1\AppData\Local\Temp\ccuKrLyD.s 			page 28


 1232              		.comm	last_max_pack_temp_color,4,4
 1233              		.comm	last_SOC_color,4,4
 1234              		.comm	gui1963,120,4
 1235              		.section	.rodata.str1.4,"aMS",%progbits,1
 1236              		.align	2
 1237              	.LC0:
 1238 0000 5041434B 		.ascii	"PACK SOC\000"
 1238      20534F43 
 1238      00
 1239 0009 000000   		.space	3
 1240              	.LC1:
 1241 000c 4D415820 		.ascii	"MAX PACK T\000"
 1241      5041434B 
 1241      205400
 1242 0017 00       		.space	1
 1243              	.LC2:
 1244 0018 53544154 		.ascii	"STATE:\000"
 1244      453A00
 1245 001f 00       		.space	1
 1246              	.LC3:
 1247 0020 474C5620 		.ascii	"GLV V:\000"
 1247      563A00
 1248 0027 00       		.space	1
 1249              	.LC4:
 1250 0028 4D432054 		.ascii	"MC T:\000"
 1250      3A00
 1251 002e 0000     		.space	2
 1252              	.LC5:
 1253 0030 4D4F544F 		.ascii	"MOTOR T:\000"
 1253      5220543A 
 1253      00
 1254 0039 000000   		.space	3
 1255              	.LC6:
 1256 003c 31303025 		.ascii	"100%\000"
 1256      00
 1257 0041 000000   		.space	3
 1258              	.LC7:
 1259 0044 256400   		.ascii	"%d\000"
 1260 0047 00       		.space	1
 1261              	.LC8:
 1262 0048 20535441 		.ascii	" STARTUP  \000"
 1262      52545550 
 1262      202000
 1263 0053 00       		.space	1
 1264              	.LC9:
 1265 0054 44525620 		.ascii	"DRV FRM LV\000"
 1265      46524D20 
 1265      4C5600
 1266 005f 00       		.space	1
 1267              	.LC10:
 1268 0060 50524520 		.ascii	"PRE TM OUT\000"
 1268      544D204F 
 1268      555400
 1269 006b 00       		.space	1
 1270              	.LC11:
 1271 006c 4252204E 		.ascii	"BR NOT PRS\000"
 1271      4F542050 
ARM GAS  C:\Users\ANDREY~1\AppData\Local\Temp\ccuKrLyD.s 			page 29


 1271      525300
 1272 0077 00       		.space	1
 1273              	.LC12:
 1274 0078 4856204F 		.ascii	"HV OFF DRV\000"
 1274      46462044 
 1274      525600
 1275 0083 00       		.space	1
 1276              	.LC13:
 1277 0084 534E5352 		.ascii	"SNSR DSCRP\000"
 1277      20445343 
 1277      525000
 1278 008f 00       		.space	1
 1279              	.LC14:
 1280 0090 42535044 		.ascii	"BSPD TRIPD\000"
 1280      20545249 
 1280      504400
 1281 009b 00       		.space	1
 1282              	.LC15:
 1283 009c 53485444 		.ascii	"SHTDWN OPN\000"
 1283      574E204F 
 1283      504E00
 1284 00a7 00       		.space	1
 1285              	.LC16:
 1286 00a8 20202020 		.ascii	"    LV    \000"
 1286      4C562020 
 1286      202000
 1287 00b3 00       		.space	1
 1288              	.LC17:
 1289 00b4 50524543 		.ascii	"PRECHARGE \000"
 1289      48415247 
 1289      452000
 1290 00bf 00       		.space	1
 1291              	.LC18:
 1292 00c0 48562045 		.ascii	"HV ENABLED\000"
 1292      4E41424C 
 1292      454400
 1293 00cb 00       		.space	1
 1294              	.LC19:
 1295 00cc 20204452 		.ascii	"  DRIVE   \000"
 1295      49564520 
 1295      202000
 1296              		.text
 1297              	.Letext0:
 1298              		.file 2 "c:\\program files (x86)\\cypress\\psoc creator\\4.4\\psoc creator\\import\\gnu\\arm\\5.4.
 1299              		.file 3 "c:\\program files (x86)\\cypress\\psoc creator\\4.4\\psoc creator\\import\\gnu\\arm\\5.4.
 1300              		.file 4 "Generated_Source\\PSoC5/cytypes.h"
 1301              		.file 5 "data.h"
 1302              		.file 6 "ugui_config.h"
 1303              		.file 7 "ugui.h"
 1304              		.file 8 "Generated_Source\\PSoC5/core_cm3.h"
 1305              		.file 9 "ugui_SSD1963.h"
 1306              		.file 10 "frucd_display.h"
 1307              		.file 11 "Generated_Source\\PSoC5/CyLib.h"
 1308              		.file 12 "c:\\program files (x86)\\cypress\\psoc creator\\4.4\\psoc creator\\import\\gnu\\arm\\5.4
 1309              		.section	.debug_info,"",%progbits
 1310              	.Ldebug_info0:
 1311 0000 7A140000 		.4byte	0x147a
ARM GAS  C:\Users\ANDREY~1\AppData\Local\Temp\ccuKrLyD.s 			page 30


 1312 0004 0400     		.2byte	0x4
 1313 0006 00000000 		.4byte	.Ldebug_abbrev0
 1314 000a 04       		.byte	0x4
 1315 000b 01       		.uleb128 0x1
 1316 000c A2010000 		.4byte	.LASF132
 1317 0010 0C       		.byte	0xc
 1318 0011 D7050000 		.4byte	.LASF133
 1319 0015 DC030000 		.4byte	.LASF134
 1320 0019 00000000 		.4byte	.Ldebug_ranges0+0
 1321 001d 00000000 		.4byte	0
 1322 0021 00000000 		.4byte	.Ldebug_line0
 1323 0025 02       		.uleb128 0x2
 1324 0026 B3030000 		.4byte	.LASF0
 1325 002a 02       		.byte	0x2
 1326 002b 1B       		.byte	0x1b
 1327 002c 30000000 		.4byte	0x30
 1328 0030 03       		.uleb128 0x3
 1329 0031 01       		.byte	0x1
 1330 0032 06       		.byte	0x6
 1331 0033 B8050000 		.4byte	.LASF2
 1332 0037 02       		.uleb128 0x2
 1333 0038 B6040000 		.4byte	.LASF1
 1334 003c 02       		.byte	0x2
 1335 003d 1D       		.byte	0x1d
 1336 003e 42000000 		.4byte	0x42
 1337 0042 03       		.uleb128 0x3
 1338 0043 01       		.byte	0x1
 1339 0044 08       		.byte	0x8
 1340 0045 3A050000 		.4byte	.LASF3
 1341 0049 02       		.uleb128 0x2
 1342 004a 67030000 		.4byte	.LASF4
 1343 004e 02       		.byte	0x2
 1344 004f 29       		.byte	0x29
 1345 0050 54000000 		.4byte	0x54
 1346 0054 03       		.uleb128 0x3
 1347 0055 02       		.byte	0x2
 1348 0056 05       		.byte	0x5
 1349 0057 5A040000 		.4byte	.LASF5
 1350 005b 02       		.uleb128 0x2
 1351 005c 64010000 		.4byte	.LASF6
 1352 0060 02       		.byte	0x2
 1353 0061 2B       		.byte	0x2b
 1354 0062 66000000 		.4byte	0x66
 1355 0066 03       		.uleb128 0x3
 1356 0067 02       		.byte	0x2
 1357 0068 07       		.byte	0x7
 1358 0069 C4050000 		.4byte	.LASF7
 1359 006d 02       		.uleb128 0x2
 1360 006e 67000000 		.4byte	.LASF8
 1361 0072 02       		.byte	0x2
 1362 0073 3F       		.byte	0x3f
 1363 0074 78000000 		.4byte	0x78
 1364 0078 03       		.uleb128 0x3
 1365 0079 04       		.byte	0x4
 1366 007a 05       		.byte	0x5
 1367 007b 75040000 		.4byte	.LASF9
 1368 007f 02       		.uleb128 0x2
ARM GAS  C:\Users\ANDREY~1\AppData\Local\Temp\ccuKrLyD.s 			page 31


 1369 0080 48050000 		.4byte	.LASF10
 1370 0084 02       		.byte	0x2
 1371 0085 41       		.byte	0x41
 1372 0086 8A000000 		.4byte	0x8a
 1373 008a 03       		.uleb128 0x3
 1374 008b 04       		.byte	0x4
 1375 008c 07       		.byte	0x7
 1376 008d DF040000 		.4byte	.LASF11
 1377 0091 03       		.uleb128 0x3
 1378 0092 08       		.byte	0x8
 1379 0093 05       		.byte	0x5
 1380 0094 40030000 		.4byte	.LASF12
 1381 0098 03       		.uleb128 0x3
 1382 0099 08       		.byte	0x8
 1383 009a 07       		.byte	0x7
 1384 009b 3D010000 		.4byte	.LASF13
 1385 009f 04       		.uleb128 0x4
 1386 00a0 04       		.byte	0x4
 1387 00a1 05       		.byte	0x5
 1388 00a2 696E7400 		.ascii	"int\000"
 1389 00a6 03       		.uleb128 0x3
 1390 00a7 04       		.byte	0x4
 1391 00a8 07       		.byte	0x7
 1392 00a9 48000000 		.4byte	.LASF14
 1393 00ad 02       		.uleb128 0x2
 1394 00ae ED000000 		.4byte	.LASF15
 1395 00b2 03       		.byte	0x3
 1396 00b3 14       		.byte	0x14
 1397 00b4 25000000 		.4byte	0x25
 1398 00b8 02       		.uleb128 0x2
 1399 00b9 1F030000 		.4byte	.LASF16
 1400 00bd 03       		.byte	0x3
 1401 00be 18       		.byte	0x18
 1402 00bf 37000000 		.4byte	0x37
 1403 00c3 02       		.uleb128 0x2
 1404 00c4 2A010000 		.4byte	.LASF17
 1405 00c8 03       		.byte	0x3
 1406 00c9 20       		.byte	0x20
 1407 00ca 49000000 		.4byte	0x49
 1408 00ce 02       		.uleb128 0x2
 1409 00cf 24040000 		.4byte	.LASF18
 1410 00d3 03       		.byte	0x3
 1411 00d4 24       		.byte	0x24
 1412 00d5 5B000000 		.4byte	0x5b
 1413 00d9 02       		.uleb128 0x2
 1414 00da 09050000 		.4byte	.LASF19
 1415 00de 03       		.byte	0x3
 1416 00df 2C       		.byte	0x2c
 1417 00e0 6D000000 		.4byte	0x6d
 1418 00e4 02       		.uleb128 0x2
 1419 00e5 E4000000 		.4byte	.LASF20
 1420 00e9 03       		.byte	0x3
 1421 00ea 30       		.byte	0x30
 1422 00eb 7F000000 		.4byte	0x7f
 1423 00ef 05       		.uleb128 0x5
 1424 00f0 E7050000 		.4byte	.LASF21
 1425 00f4 04       		.byte	0x4
ARM GAS  C:\Users\ANDREY~1\AppData\Local\Temp\ccuKrLyD.s 			page 32


 1426 00f5 3801     		.2byte	0x138
 1427 00f7 42000000 		.4byte	0x42
 1428 00fb 05       		.uleb128 0x5
 1429 00fc 13030000 		.4byte	.LASF22
 1430 0100 04       		.byte	0x4
 1431 0101 3901     		.2byte	0x139
 1432 0103 66000000 		.4byte	0x66
 1433 0107 03       		.uleb128 0x3
 1434 0108 04       		.byte	0x4
 1435 0109 04       		.byte	0x4
 1436 010a 01010000 		.4byte	.LASF23
 1437 010e 03       		.uleb128 0x3
 1438 010f 08       		.byte	0x8
 1439 0110 04       		.byte	0x4
 1440 0111 ED050000 		.4byte	.LASF24
 1441 0115 03       		.uleb128 0x3
 1442 0116 01       		.byte	0x1
 1443 0117 08       		.byte	0x8
 1444 0118 D8020000 		.4byte	.LASF25
 1445 011c 03       		.uleb128 0x3
 1446 011d 08       		.byte	0x8
 1447 011e 04       		.byte	0x4
 1448 011f D0030000 		.4byte	.LASF26
 1449 0123 03       		.uleb128 0x3
 1450 0124 04       		.byte	0x4
 1451 0125 07       		.byte	0x7
 1452 0126 C5040000 		.4byte	.LASF27
 1453 012a 06       		.uleb128 0x6
 1454 012b 04       		.byte	0x4
 1455 012c 07       		.uleb128 0x7
 1456 012d 04       		.byte	0x4
 1457 012e 15010000 		.4byte	0x115
 1458 0132 07       		.uleb128 0x7
 1459 0133 04       		.byte	0x4
 1460 0134 42000000 		.4byte	0x42
 1461 0138 08       		.uleb128 0x8
 1462 0139 01       		.byte	0x1
 1463 013a 42000000 		.4byte	0x42
 1464 013e 05       		.byte	0x5
 1465 013f 09       		.byte	0x9
 1466 0140 62010000 		.4byte	0x162
 1467 0144 09       		.uleb128 0x9
 1468 0145 4C5600   		.ascii	"LV\000"
 1469 0148 00       		.byte	0
 1470 0149 0A       		.uleb128 0xa
 1471 014a A1030000 		.4byte	.LASF28
 1472 014e 01       		.byte	0x1
 1473 014f 0A       		.uleb128 0xa
 1474 0150 BD020000 		.4byte	.LASF29
 1475 0154 02       		.byte	0x2
 1476 0155 0A       		.uleb128 0xa
 1477 0156 24010000 		.4byte	.LASF30
 1478 015a 03       		.byte	0x3
 1479 015b 0A       		.uleb128 0xa
 1480 015c 6E050000 		.4byte	.LASF31
 1481 0160 80       		.byte	0x80
 1482 0161 00       		.byte	0
ARM GAS  C:\Users\ANDREY~1\AppData\Local\Temp\ccuKrLyD.s 			page 33


 1483 0162 08       		.uleb128 0x8
 1484 0163 01       		.byte	0x1
 1485 0164 42000000 		.4byte	0x42
 1486 0168 05       		.byte	0x5
 1487 0169 11       		.byte	0x11
 1488 016a 9F010000 		.4byte	0x19f
 1489 016e 0A       		.uleb128 0xa
 1490 016f 62000000 		.4byte	.LASF32
 1491 0173 00       		.byte	0
 1492 0174 0A       		.uleb128 0xa
 1493 0175 02060000 		.4byte	.LASF33
 1494 0179 01       		.byte	0x1
 1495 017a 0A       		.uleb128 0xa
 1496 017b DD020000 		.4byte	.LASF34
 1497 017f 02       		.byte	0x2
 1498 0180 0A       		.uleb128 0xa
 1499 0181 42020000 		.4byte	.LASF35
 1500 0185 03       		.byte	0x3
 1501 0186 0A       		.uleb128 0xa
 1502 0187 7C020000 		.4byte	.LASF36
 1503 018b 04       		.byte	0x4
 1504 018c 0A       		.uleb128 0xa
 1505 018d 82000000 		.4byte	.LASF37
 1506 0191 05       		.byte	0x5
 1507 0192 0A       		.uleb128 0xa
 1508 0193 AC000000 		.4byte	.LASF38
 1509 0197 06       		.byte	0x6
 1510 0198 0A       		.uleb128 0xa
 1511 0199 96020000 		.4byte	.LASF39
 1512 019d 07       		.byte	0x7
 1513 019e 00       		.byte	0
 1514 019f 02       		.uleb128 0x2
 1515 01a0 AD030000 		.4byte	.LASF40
 1516 01a4 06       		.byte	0x6
 1517 01a5 26       		.byte	0x26
 1518 01a6 B8000000 		.4byte	0xb8
 1519 01aa 02       		.uleb128 0x2
 1520 01ab 34030000 		.4byte	.LASF41
 1521 01af 06       		.byte	0x6
 1522 01b0 27       		.byte	0x27
 1523 01b1 AD000000 		.4byte	0xad
 1524 01b5 02       		.uleb128 0x2
 1525 01b6 41000000 		.4byte	.LASF42
 1526 01ba 06       		.byte	0x6
 1527 01bb 28       		.byte	0x28
 1528 01bc CE000000 		.4byte	0xce
 1529 01c0 02       		.uleb128 0x2
 1530 01c1 84010000 		.4byte	.LASF43
 1531 01c5 06       		.byte	0x6
 1532 01c6 29       		.byte	0x29
 1533 01c7 C3000000 		.4byte	0xc3
 1534 01cb 02       		.uleb128 0x2
 1535 01cc F4000000 		.4byte	.LASF44
 1536 01d0 06       		.byte	0x6
 1537 01d1 2A       		.byte	0x2a
 1538 01d2 E4000000 		.4byte	0xe4
 1539 01d6 08       		.uleb128 0x8
ARM GAS  C:\Users\ANDREY~1\AppData\Local\Temp\ccuKrLyD.s 			page 34


 1540 01d7 01       		.byte	0x1
 1541 01d8 42000000 		.4byte	0x42
 1542 01dc 07       		.byte	0x7
 1543 01dd 1F       		.byte	0x1f
 1544 01de EF010000 		.4byte	0x1ef
 1545 01e2 0A       		.uleb128 0xa
 1546 01e3 33060000 		.4byte	.LASF45
 1547 01e7 00       		.byte	0
 1548 01e8 0A       		.uleb128 0xa
 1549 01e9 0F000000 		.4byte	.LASF46
 1550 01ed 01       		.byte	0x1
 1551 01ee 00       		.byte	0
 1552 01ef 02       		.uleb128 0x2
 1553 01f0 A2000000 		.4byte	.LASF47
 1554 01f4 07       		.byte	0x7
 1555 01f5 22       		.byte	0x22
 1556 01f6 D6010000 		.4byte	0x1d6
 1557 01fa 0B       		.uleb128 0xb
 1558 01fb 14       		.byte	0x14
 1559 01fc 07       		.byte	0x7
 1560 01fd 24       		.byte	0x24
 1561 01fe 55020000 		.4byte	0x255
 1562 0202 0C       		.uleb128 0xc
 1563 0203 7000     		.ascii	"p\000"
 1564 0205 07       		.byte	0x7
 1565 0206 26       		.byte	0x26
 1566 0207 32010000 		.4byte	0x132
 1567 020b 00       		.byte	0
 1568 020c 0D       		.uleb128 0xd
 1569 020d F6020000 		.4byte	.LASF48
 1570 0211 07       		.byte	0x7
 1571 0212 27       		.byte	0x27
 1572 0213 EF010000 		.4byte	0x1ef
 1573 0217 04       		.byte	0x4
 1574 0218 0D       		.uleb128 0xd
 1575 0219 71020000 		.4byte	.LASF49
 1576 021d 07       		.byte	0x7
 1577 021e 28       		.byte	0x28
 1578 021f C0010000 		.4byte	0x1c0
 1579 0223 06       		.byte	0x6
 1580 0224 0D       		.uleb128 0xd
 1581 0225 4E040000 		.4byte	.LASF50
 1582 0229 07       		.byte	0x7
 1583 022a 29       		.byte	0x29
 1584 022b C0010000 		.4byte	0x1c0
 1585 022f 08       		.byte	0x8
 1586 0230 0D       		.uleb128 0xd
 1587 0231 8E030000 		.4byte	.LASF51
 1588 0235 07       		.byte	0x7
 1589 0236 2A       		.byte	0x2a
 1590 0237 B5010000 		.4byte	0x1b5
 1591 023b 0A       		.byte	0xa
 1592 023c 0D       		.uleb128 0xd
 1593 023d A5040000 		.4byte	.LASF52
 1594 0241 07       		.byte	0x7
 1595 0242 2B       		.byte	0x2b
 1596 0243 B5010000 		.4byte	0x1b5
ARM GAS  C:\Users\ANDREY~1\AppData\Local\Temp\ccuKrLyD.s 			page 35


 1597 0247 0C       		.byte	0xc
 1598 0248 0D       		.uleb128 0xd
 1599 0249 BC030000 		.4byte	.LASF53
 1600 024d 07       		.byte	0x7
 1601 024e 2C       		.byte	0x2c
 1602 024f 55020000 		.4byte	0x255
 1603 0253 10       		.byte	0x10
 1604 0254 00       		.byte	0
 1605 0255 07       		.uleb128 0x7
 1606 0256 04       		.byte	0x4
 1607 0257 9F010000 		.4byte	0x19f
 1608 025b 02       		.uleb128 0x2
 1609 025c AE040000 		.4byte	.LASF54
 1610 0260 07       		.byte	0x7
 1611 0261 2D       		.byte	0x2d
 1612 0262 FA010000 		.4byte	0x1fa
 1613 0266 02       		.uleb128 0x2
 1614 0267 71030000 		.4byte	.LASF55
 1615 026b 07       		.byte	0x7
 1616 026c 66       		.byte	0x66
 1617 026d 71020000 		.4byte	0x271
 1618 0271 0E       		.uleb128 0xe
 1619 0272 18060000 		.4byte	.LASF65
 1620 0276 20       		.byte	0x20
 1621 0277 07       		.byte	0x7
 1622 0278 F7       		.byte	0xf7
 1623 0279 EB020000 		.4byte	0x2eb
 1624 027d 0D       		.uleb128 0xd
 1625 027e 93050000 		.4byte	.LASF56
 1626 0282 07       		.byte	0x7
 1627 0283 F9       		.byte	0xf9
 1628 0284 9F010000 		.4byte	0x19f
 1629 0288 00       		.byte	0
 1630 0289 0D       		.uleb128 0xd
 1631 028a 2C000000 		.4byte	.LASF57
 1632 028e 07       		.byte	0x7
 1633 028f FA       		.byte	0xfa
 1634 0290 9F010000 		.4byte	0x19f
 1635 0294 01       		.byte	0x1
 1636 0295 0D       		.uleb128 0xd
 1637 0296 95000000 		.4byte	.LASF58
 1638 029a 07       		.byte	0x7
 1639 029b FB       		.byte	0xfb
 1640 029c 90040000 		.4byte	0x490
 1641 02a0 04       		.byte	0x4
 1642 02a1 0D       		.uleb128 0xd
 1643 02a2 27060000 		.4byte	.LASF59
 1644 02a6 07       		.byte	0x7
 1645 02a7 FC       		.byte	0xfc
 1646 02a8 D9030000 		.4byte	0x3d9
 1647 02ac 08       		.byte	0x8
 1648 02ad 0D       		.uleb128 0xd
 1649 02ae A9050000 		.4byte	.LASF60
 1650 02b2 07       		.byte	0x7
 1651 02b3 FD       		.byte	0xfd
 1652 02b4 D9030000 		.4byte	0x3d9
 1653 02b8 10       		.byte	0x10
ARM GAS  C:\Users\ANDREY~1\AppData\Local\Temp\ccuKrLyD.s 			page 36


 1654 02b9 0D       		.uleb128 0xd
 1655 02ba 35050000 		.4byte	.LASF61
 1656 02be 07       		.byte	0x7
 1657 02bf FE       		.byte	0xfe
 1658 02c0 9F010000 		.4byte	0x19f
 1659 02c4 18       		.byte	0x18
 1660 02c5 0C       		.uleb128 0xc
 1661 02c6 696400   		.ascii	"id\000"
 1662 02c9 07       		.byte	0x7
 1663 02ca FF       		.byte	0xff
 1664 02cb 9F010000 		.4byte	0x19f
 1665 02cf 19       		.byte	0x19
 1666 02d0 0F       		.uleb128 0xf
 1667 02d1 07010000 		.4byte	.LASF62
 1668 02d5 07       		.byte	0x7
 1669 02d6 0001     		.2byte	0x100
 1670 02d8 9F010000 		.4byte	0x19f
 1671 02dc 1A       		.byte	0x1a
 1672 02dd 0F       		.uleb128 0xf
 1673 02de 1A030000 		.4byte	.LASF63
 1674 02e2 07       		.byte	0x7
 1675 02e3 0101     		.2byte	0x101
 1676 02e5 2A010000 		.4byte	0x12a
 1677 02e9 1C       		.byte	0x1c
 1678 02ea 00       		.byte	0
 1679 02eb 02       		.uleb128 0x2
 1680 02ec 7E040000 		.4byte	.LASF64
 1681 02f0 07       		.byte	0x7
 1682 02f1 67       		.byte	0x67
 1683 02f2 F6020000 		.4byte	0x2f6
 1684 02f6 10       		.uleb128 0x10
 1685 02f7 79000000 		.4byte	.LASF66
 1686 02fb 44       		.byte	0x44
 1687 02fc 07       		.byte	0x7
 1688 02fd 4101     		.2byte	0x141
 1689 02ff 99030000 		.4byte	0x399
 1690 0303 0F       		.uleb128 0xf
 1691 0304 7D010000 		.4byte	.LASF67
 1692 0308 07       		.byte	0x7
 1693 0309 4301     		.2byte	0x143
 1694 030b 9F010000 		.4byte	0x19f
 1695 030f 00       		.byte	0
 1696 0310 0F       		.uleb128 0xf
 1697 0311 CB000000 		.4byte	.LASF68
 1698 0315 07       		.byte	0x7
 1699 0316 4401     		.2byte	0x144
 1700 0318 8A040000 		.4byte	0x48a
 1701 031c 04       		.byte	0x4
 1702 031d 0F       		.uleb128 0xf
 1703 031e 93050000 		.4byte	.LASF56
 1704 0322 07       		.byte	0x7
 1705 0323 4501     		.2byte	0x145
 1706 0325 9F010000 		.4byte	0x19f
 1707 0329 08       		.byte	0x8
 1708 032a 11       		.uleb128 0x11
 1709 032b 666300   		.ascii	"fc\000"
 1710 032e 07       		.byte	0x7
ARM GAS  C:\Users\ANDREY~1\AppData\Local\Temp\ccuKrLyD.s 			page 37


 1711 032f 4601     		.2byte	0x146
 1712 0331 99030000 		.4byte	0x399
 1713 0335 0C       		.byte	0xc
 1714 0336 11       		.uleb128 0x11
 1715 0337 626300   		.ascii	"bc\000"
 1716 033a 07       		.byte	0x7
 1717 033b 4701     		.2byte	0x147
 1718 033d 99030000 		.4byte	0x399
 1719 0341 10       		.byte	0x10
 1720 0342 11       		.uleb128 0x11
 1721 0343 787300   		.ascii	"xs\000"
 1722 0346 07       		.byte	0x7
 1723 0347 4801     		.2byte	0x148
 1724 0349 C0010000 		.4byte	0x1c0
 1725 034d 14       		.byte	0x14
 1726 034e 11       		.uleb128 0x11
 1727 034f 797300   		.ascii	"ys\000"
 1728 0352 07       		.byte	0x7
 1729 0353 4901     		.2byte	0x149
 1730 0355 C0010000 		.4byte	0x1c0
 1731 0359 16       		.byte	0x16
 1732 035a 11       		.uleb128 0x11
 1733 035b 786500   		.ascii	"xe\000"
 1734 035e 07       		.byte	0x7
 1735 035f 4A01     		.2byte	0x14a
 1736 0361 C0010000 		.4byte	0x1c0
 1737 0365 18       		.byte	0x18
 1738 0366 11       		.uleb128 0x11
 1739 0367 796500   		.ascii	"ye\000"
 1740 036a 07       		.byte	0x7
 1741 036b 4B01     		.2byte	0x14b
 1742 036d C0010000 		.4byte	0x1c0
 1743 0371 1A       		.byte	0x1a
 1744 0372 0F       		.uleb128 0xf
 1745 0373 8D050000 		.4byte	.LASF69
 1746 0377 07       		.byte	0x7
 1747 0378 4C01     		.2byte	0x14c
 1748 037a 9F010000 		.4byte	0x19f
 1749 037e 1C       		.byte	0x1c
 1750 037f 0F       		.uleb128 0xf
 1751 0380 DE000000 		.4byte	.LASF70
 1752 0384 07       		.byte	0x7
 1753 0385 4D01     		.2byte	0x14d
 1754 0387 20050000 		.4byte	0x520
 1755 038b 20       		.byte	0x20
 1756 038c 11       		.uleb128 0x11
 1757 038d 636200   		.ascii	"cb\000"
 1758 0390 07       		.byte	0x7
 1759 0391 4E01     		.2byte	0x14e
 1760 0393 3D050000 		.4byte	0x53d
 1761 0397 40       		.byte	0x40
 1762 0398 00       		.byte	0
 1763 0399 02       		.uleb128 0x2
 1764 039a 38000000 		.4byte	.LASF71
 1765 039e 07       		.byte	0x7
 1766 039f 6A       		.byte	0x6a
 1767 03a0 CB010000 		.4byte	0x1cb
ARM GAS  C:\Users\ANDREY~1\AppData\Local\Temp\ccuKrLyD.s 			page 38


 1768 03a4 0B       		.uleb128 0xb
 1769 03a5 08       		.byte	0x8
 1770 03a6 07       		.byte	0x7
 1771 03a7 A7       		.byte	0xa7
 1772 03a8 D9030000 		.4byte	0x3d9
 1773 03ac 0C       		.uleb128 0xc
 1774 03ad 787300   		.ascii	"xs\000"
 1775 03b0 07       		.byte	0x7
 1776 03b1 A9       		.byte	0xa9
 1777 03b2 C0010000 		.4byte	0x1c0
 1778 03b6 00       		.byte	0
 1779 03b7 0C       		.uleb128 0xc
 1780 03b8 797300   		.ascii	"ys\000"
 1781 03bb 07       		.byte	0x7
 1782 03bc AA       		.byte	0xaa
 1783 03bd C0010000 		.4byte	0x1c0
 1784 03c1 02       		.byte	0x2
 1785 03c2 0C       		.uleb128 0xc
 1786 03c3 786500   		.ascii	"xe\000"
 1787 03c6 07       		.byte	0x7
 1788 03c7 AB       		.byte	0xab
 1789 03c8 C0010000 		.4byte	0x1c0
 1790 03cc 04       		.byte	0x4
 1791 03cd 0C       		.uleb128 0xc
 1792 03ce 796500   		.ascii	"ye\000"
 1793 03d1 07       		.byte	0x7
 1794 03d2 AC       		.byte	0xac
 1795 03d3 C0010000 		.4byte	0x1c0
 1796 03d7 06       		.byte	0x6
 1797 03d8 00       		.byte	0
 1798 03d9 02       		.uleb128 0x2
 1799 03da 00030000 		.4byte	.LASF72
 1800 03de 07       		.byte	0x7
 1801 03df AD       		.byte	0xad
 1802 03e0 A4030000 		.4byte	0x3a4
 1803 03e4 07       		.uleb128 0x7
 1804 03e5 04       		.byte	0x4
 1805 03e6 EA030000 		.4byte	0x3ea
 1806 03ea 12       		.uleb128 0x12
 1807 03eb 5B020000 		.4byte	0x25b
 1808 03ef 0B       		.uleb128 0xb
 1809 03f0 08       		.byte	0x8
 1810 03f1 07       		.byte	0x7
 1811 03f2 D6       		.byte	0xd6
 1812 03f3 33040000 		.4byte	0x433
 1813 03f7 0D       		.uleb128 0xd
 1814 03f8 35050000 		.4byte	.LASF61
 1815 03fc 07       		.byte	0x7
 1816 03fd D8       		.byte	0xd8
 1817 03fe 9F010000 		.4byte	0x19f
 1818 0402 00       		.byte	0
 1819 0403 0C       		.uleb128 0xc
 1820 0404 696400   		.ascii	"id\000"
 1821 0407 07       		.byte	0x7
 1822 0408 D9       		.byte	0xd9
 1823 0409 9F010000 		.4byte	0x19f
 1824 040d 01       		.byte	0x1
ARM GAS  C:\Users\ANDREY~1\AppData\Local\Temp\ccuKrLyD.s 			page 39


 1825 040e 0D       		.uleb128 0xd
 1826 040f 80030000 		.4byte	.LASF73
 1827 0413 07       		.byte	0x7
 1828 0414 DA       		.byte	0xda
 1829 0415 9F010000 		.4byte	0x19f
 1830 0419 02       		.byte	0x2
 1831 041a 0D       		.uleb128 0xd
 1832 041b 07010000 		.4byte	.LASF62
 1833 041f 07       		.byte	0x7
 1834 0420 DB       		.byte	0xdb
 1835 0421 9F010000 		.4byte	0x19f
 1836 0425 03       		.byte	0x3
 1837 0426 0C       		.uleb128 0xc
 1838 0427 73726300 		.ascii	"src\000"
 1839 042b 07       		.byte	0x7
 1840 042c DC       		.byte	0xdc
 1841 042d 2A010000 		.4byte	0x12a
 1842 0431 04       		.byte	0x4
 1843 0432 00       		.byte	0
 1844 0433 02       		.uleb128 0x2
 1845 0434 08030000 		.4byte	.LASF74
 1846 0438 07       		.byte	0x7
 1847 0439 DD       		.byte	0xdd
 1848 043a EF030000 		.4byte	0x3ef
 1849 043e 0B       		.uleb128 0xb
 1850 043f 06       		.byte	0x6
 1851 0440 07       		.byte	0x7
 1852 0441 E8       		.byte	0xe8
 1853 0442 69040000 		.4byte	0x469
 1854 0446 0D       		.uleb128 0xd
 1855 0447 93050000 		.4byte	.LASF56
 1856 044b 07       		.byte	0x7
 1857 044c EA       		.byte	0xea
 1858 044d 9F010000 		.4byte	0x19f
 1859 0451 00       		.byte	0
 1860 0452 0C       		.uleb128 0xc
 1861 0453 787000   		.ascii	"xp\000"
 1862 0456 07       		.byte	0x7
 1863 0457 EB       		.byte	0xeb
 1864 0458 C0010000 		.4byte	0x1c0
 1865 045c 02       		.byte	0x2
 1866 045d 0C       		.uleb128 0xc
 1867 045e 797000   		.ascii	"yp\000"
 1868 0461 07       		.byte	0x7
 1869 0462 EC       		.byte	0xec
 1870 0463 C0010000 		.4byte	0x1c0
 1871 0467 04       		.byte	0x4
 1872 0468 00       		.byte	0
 1873 0469 02       		.uleb128 0x2
 1874 046a AF050000 		.4byte	.LASF75
 1875 046e 07       		.byte	0x7
 1876 046f ED       		.byte	0xed
 1877 0470 3E040000 		.4byte	0x43e
 1878 0474 13       		.uleb128 0x13
 1879 0475 84040000 		.4byte	0x484
 1880 0479 14       		.uleb128 0x14
 1881 047a 84040000 		.4byte	0x484
ARM GAS  C:\Users\ANDREY~1\AppData\Local\Temp\ccuKrLyD.s 			page 40


 1882 047e 14       		.uleb128 0x14
 1883 047f 8A040000 		.4byte	0x48a
 1884 0483 00       		.byte	0
 1885 0484 07       		.uleb128 0x7
 1886 0485 04       		.byte	0x4
 1887 0486 EB020000 		.4byte	0x2eb
 1888 048a 07       		.uleb128 0x7
 1889 048b 04       		.byte	0x4
 1890 048c 66020000 		.4byte	0x266
 1891 0490 07       		.uleb128 0x7
 1892 0491 04       		.byte	0x4
 1893 0492 74040000 		.4byte	0x474
 1894 0496 15       		.uleb128 0x15
 1895 0497 20       		.byte	0x20
 1896 0498 07       		.byte	0x7
 1897 0499 3201     		.2byte	0x132
 1898 049b 20050000 		.4byte	0x520
 1899 049f 11       		.uleb128 0x11
 1900 04a0 73747200 		.ascii	"str\000"
 1901 04a4 07       		.byte	0x7
 1902 04a5 3401     		.2byte	0x134
 1903 04a7 2C010000 		.4byte	0x12c
 1904 04ab 00       		.byte	0
 1905 04ac 0F       		.uleb128 0xf
 1906 04ad C0040000 		.4byte	.LASF76
 1907 04b1 07       		.byte	0x7
 1908 04b2 3501     		.2byte	0x135
 1909 04b4 E4030000 		.4byte	0x3e4
 1910 04b8 04       		.byte	0x4
 1911 04b9 0F       		.uleb128 0xf
 1912 04ba 53050000 		.4byte	.LASF77
 1913 04be 07       		.byte	0x7
 1914 04bf 3601     		.2byte	0x136
 1915 04c1 AA010000 		.4byte	0x1aa
 1916 04c5 08       		.byte	0x8
 1917 04c6 0F       		.uleb128 0xf
 1918 04c7 D0020000 		.4byte	.LASF78
 1919 04cb 07       		.byte	0x7
 1920 04cc 3701     		.2byte	0x137
 1921 04ce AA010000 		.4byte	0x1aa
 1922 04d2 09       		.byte	0x9
 1923 04d3 0F       		.uleb128 0xf
 1924 04d4 21060000 		.4byte	.LASF79
 1925 04d8 07       		.byte	0x7
 1926 04d9 3801     		.2byte	0x138
 1927 04db 9F010000 		.4byte	0x19f
 1928 04df 0A       		.byte	0xa
 1929 04e0 11       		.uleb128 0x11
 1930 04e1 666300   		.ascii	"fc\000"
 1931 04e4 07       		.byte	0x7
 1932 04e5 3901     		.2byte	0x139
 1933 04e7 99030000 		.4byte	0x399
 1934 04eb 0C       		.byte	0xc
 1935 04ec 11       		.uleb128 0x11
 1936 04ed 626300   		.ascii	"bc\000"
 1937 04f0 07       		.byte	0x7
 1938 04f1 3A01     		.2byte	0x13a
ARM GAS  C:\Users\ANDREY~1\AppData\Local\Temp\ccuKrLyD.s 			page 41


 1939 04f3 99030000 		.4byte	0x399
 1940 04f7 10       		.byte	0x10
 1941 04f8 11       		.uleb128 0x11
 1942 04f9 69666300 		.ascii	"ifc\000"
 1943 04fd 07       		.byte	0x7
 1944 04fe 3B01     		.2byte	0x13b
 1945 0500 99030000 		.4byte	0x399
 1946 0504 14       		.byte	0x14
 1947 0505 11       		.uleb128 0x11
 1948 0506 69626300 		.ascii	"ibc\000"
 1949 050a 07       		.byte	0x7
 1950 050b 3C01     		.2byte	0x13c
 1951 050d 99030000 		.4byte	0x399
 1952 0511 18       		.byte	0x18
 1953 0512 0F       		.uleb128 0xf
 1954 0513 87030000 		.4byte	.LASF80
 1955 0517 07       		.byte	0x7
 1956 0518 3D01     		.2byte	0x13d
 1957 051a 9F010000 		.4byte	0x19f
 1958 051e 1C       		.byte	0x1c
 1959 051f 00       		.byte	0
 1960 0520 05       		.uleb128 0x5
 1961 0521 35040000 		.4byte	.LASF81
 1962 0525 07       		.byte	0x7
 1963 0526 3E01     		.2byte	0x13e
 1964 0528 96040000 		.4byte	0x496
 1965 052c 13       		.uleb128 0x13
 1966 052d 37050000 		.4byte	0x537
 1967 0531 14       		.uleb128 0x14
 1968 0532 37050000 		.4byte	0x537
 1969 0536 00       		.byte	0
 1970 0537 07       		.uleb128 0x7
 1971 0538 04       		.byte	0x4
 1972 0539 33040000 		.4byte	0x433
 1973 053d 07       		.uleb128 0x7
 1974 053e 04       		.byte	0x4
 1975 053f 2C050000 		.4byte	0x52c
 1976 0543 15       		.uleb128 0x15
 1977 0544 08       		.byte	0x8
 1978 0545 07       		.byte	0x7
 1979 0546 2002     		.2byte	0x220
 1980 0548 67050000 		.4byte	0x567
 1981 054c 0F       		.uleb128 0xf
 1982 054d 2D030000 		.4byte	.LASF82
 1983 0551 07       		.byte	0x7
 1984 0552 2202     		.2byte	0x222
 1985 0554 2A010000 		.4byte	0x12a
 1986 0558 00       		.byte	0
 1987 0559 0F       		.uleb128 0xf
 1988 055a 93050000 		.4byte	.LASF56
 1989 055e 07       		.byte	0x7
 1990 055f 2302     		.2byte	0x223
 1991 0561 9F010000 		.4byte	0x19f
 1992 0565 04       		.byte	0x4
 1993 0566 00       		.byte	0
 1994 0567 05       		.uleb128 0x5
 1995 0568 3E040000 		.4byte	.LASF83
ARM GAS  C:\Users\ANDREY~1\AppData\Local\Temp\ccuKrLyD.s 			page 42


 1996 056c 07       		.byte	0x7
 1997 056d 2402     		.2byte	0x224
 1998 056f 43050000 		.4byte	0x543
 1999 0573 15       		.uleb128 0x15
 2000 0574 14       		.byte	0x14
 2001 0575 07       		.byte	0x7
 2002 0576 3C02     		.2byte	0x23c
 2003 0578 E5050000 		.4byte	0x5e5
 2004 057c 0F       		.uleb128 0xf
 2005 057d 48040000 		.4byte	.LASF84
 2006 0581 07       		.byte	0x7
 2007 0582 3E02     		.2byte	0x23e
 2008 0584 C0010000 		.4byte	0x1c0
 2009 0588 00       		.byte	0
 2010 0589 0F       		.uleb128 0xf
 2011 058a 96010000 		.4byte	.LASF85
 2012 058e 07       		.byte	0x7
 2013 058f 3F02     		.2byte	0x23f
 2014 0591 C0010000 		.4byte	0x1c0
 2015 0595 02       		.byte	0x2
 2016 0596 0F       		.uleb128 0xf
 2017 0597 66050000 		.4byte	.LASF86
 2018 059b 07       		.byte	0x7
 2019 059c 4002     		.2byte	0x240
 2020 059e C0010000 		.4byte	0x1c0
 2021 05a2 04       		.byte	0x4
 2022 05a3 0F       		.uleb128 0xf
 2023 05a4 C8020000 		.4byte	.LASF87
 2024 05a8 07       		.byte	0x7
 2025 05a9 4102     		.2byte	0x241
 2026 05ab C0010000 		.4byte	0x1c0
 2027 05af 06       		.byte	0x6
 2028 05b0 0F       		.uleb128 0xf
 2029 05b1 FB000000 		.4byte	.LASF88
 2030 05b5 07       		.byte	0x7
 2031 05b6 4202     		.2byte	0x242
 2032 05b8 C0010000 		.4byte	0x1c0
 2033 05bc 08       		.byte	0x8
 2034 05bd 0F       		.uleb128 0xf
 2035 05be 74050000 		.4byte	.LASF89
 2036 05c2 07       		.byte	0x7
 2037 05c3 4302     		.2byte	0x243
 2038 05c5 C0010000 		.4byte	0x1c0
 2039 05c9 0A       		.byte	0xa
 2040 05ca 0F       		.uleb128 0xf
 2041 05cb 8B010000 		.4byte	.LASF90
 2042 05cf 07       		.byte	0x7
 2043 05d0 4402     		.2byte	0x244
 2044 05d2 99030000 		.4byte	0x399
 2045 05d6 0C       		.byte	0xc
 2046 05d7 0F       		.uleb128 0xf
 2047 05d8 19010000 		.4byte	.LASF91
 2048 05dc 07       		.byte	0x7
 2049 05dd 4502     		.2byte	0x245
 2050 05df 99030000 		.4byte	0x399
 2051 05e3 10       		.byte	0x10
 2052 05e4 00       		.byte	0
ARM GAS  C:\Users\ANDREY~1\AppData\Local\Temp\ccuKrLyD.s 			page 43


 2053 05e5 15       		.uleb128 0x15
 2054 05e6 78       		.byte	0x78
 2055 05e7 07       		.byte	0x7
 2056 05e8 3302     		.2byte	0x233
 2057 05ea BF060000 		.4byte	0x6bf
 2058 05ee 0F       		.uleb128 0xf
 2059 05ef 7B030000 		.4byte	.LASF92
 2060 05f3 07       		.byte	0x7
 2061 05f4 3502     		.2byte	0x235
 2062 05f6 D4060000 		.4byte	0x6d4
 2063 05fa 00       		.byte	0
 2064 05fb 0F       		.uleb128 0xf
 2065 05fc 3A030000 		.4byte	.LASF93
 2066 0600 07       		.byte	0x7
 2067 0601 3602     		.2byte	0x236
 2068 0603 C0010000 		.4byte	0x1c0
 2069 0607 04       		.byte	0x4
 2070 0608 0F       		.uleb128 0xf
 2071 0609 9C000000 		.4byte	.LASF94
 2072 060d 07       		.byte	0x7
 2073 060e 3702     		.2byte	0x237
 2074 0610 C0010000 		.4byte	0x1c0
 2075 0614 06       		.byte	0x6
 2076 0615 0F       		.uleb128 0xf
 2077 0616 27030000 		.4byte	.LASF95
 2078 061a 07       		.byte	0x7
 2079 061b 3802     		.2byte	0x238
 2080 061d 69040000 		.4byte	0x469
 2081 0621 08       		.byte	0x8
 2082 0622 0F       		.uleb128 0xf
 2083 0623 D2000000 		.4byte	.LASF96
 2084 0627 07       		.byte	0x7
 2085 0628 3902     		.2byte	0x239
 2086 062a 84040000 		.4byte	0x484
 2087 062e 10       		.byte	0x10
 2088 062f 0F       		.uleb128 0xf
 2089 0630 6F010000 		.4byte	.LASF97
 2090 0634 07       		.byte	0x7
 2091 0635 3A02     		.2byte	0x23a
 2092 0637 84040000 		.4byte	0x484
 2093 063b 14       		.byte	0x14
 2094 063c 0F       		.uleb128 0xf
 2095 063d 0D010000 		.4byte	.LASF98
 2096 0641 07       		.byte	0x7
 2097 0642 3B02     		.2byte	0x23b
 2098 0644 84040000 		.4byte	0x484
 2099 0648 18       		.byte	0x18
 2100 0649 0F       		.uleb128 0xf
 2101 064a 71000000 		.4byte	.LASF99
 2102 064e 07       		.byte	0x7
 2103 064f 4602     		.2byte	0x246
 2104 0651 73050000 		.4byte	0x573
 2105 0655 1C       		.byte	0x1c
 2106 0656 0F       		.uleb128 0xf
 2107 0657 C0040000 		.4byte	.LASF76
 2108 065b 07       		.byte	0x7
 2109 065c 4702     		.2byte	0x247
ARM GAS  C:\Users\ANDREY~1\AppData\Local\Temp\ccuKrLyD.s 			page 44


 2110 065e 5B020000 		.4byte	0x25b
 2111 0662 30       		.byte	0x30
 2112 0663 0F       		.uleb128 0xf
 2113 0664 42060000 		.4byte	.LASF100
 2114 0668 07       		.byte	0x7
 2115 0669 4802     		.2byte	0x248
 2116 066b AA010000 		.4byte	0x1aa
 2117 066f 44       		.byte	0x44
 2118 0670 0F       		.uleb128 0xf
 2119 0671 55000000 		.4byte	.LASF101
 2120 0675 07       		.byte	0x7
 2121 0676 4902     		.2byte	0x249
 2122 0678 AA010000 		.4byte	0x1aa
 2123 067c 45       		.byte	0x45
 2124 067d 0F       		.uleb128 0xf
 2125 067e 8B010000 		.4byte	.LASF90
 2126 0682 07       		.byte	0x7
 2127 0683 4A02     		.2byte	0x24a
 2128 0685 99030000 		.4byte	0x399
 2129 0689 48       		.byte	0x48
 2130 068a 0F       		.uleb128 0xf
 2131 068b 19010000 		.4byte	.LASF91
 2132 068f 07       		.byte	0x7
 2133 0690 4B02     		.2byte	0x24b
 2134 0692 99030000 		.4byte	0x399
 2135 0696 4C       		.byte	0x4c
 2136 0697 0F       		.uleb128 0xf
 2137 0698 1E000000 		.4byte	.LASF102
 2138 069c 07       		.byte	0x7
 2139 069d 4C02     		.2byte	0x24c
 2140 069f 99030000 		.4byte	0x399
 2141 06a3 50       		.byte	0x50
 2142 06a4 0F       		.uleb128 0xf
 2143 06a5 93050000 		.4byte	.LASF56
 2144 06a9 07       		.byte	0x7
 2145 06aa 4D02     		.2byte	0x24d
 2146 06ac 9F010000 		.4byte	0x19f
 2147 06b0 54       		.byte	0x54
 2148 06b1 0F       		.uleb128 0xf
 2149 06b2 2D030000 		.4byte	.LASF82
 2150 06b6 07       		.byte	0x7
 2151 06b7 4E02     		.2byte	0x24e
 2152 06b9 DA060000 		.4byte	0x6da
 2153 06bd 58       		.byte	0x58
 2154 06be 00       		.byte	0
 2155 06bf 13       		.uleb128 0x13
 2156 06c0 D4060000 		.4byte	0x6d4
 2157 06c4 14       		.uleb128 0x14
 2158 06c5 C0010000 		.4byte	0x1c0
 2159 06c9 14       		.uleb128 0x14
 2160 06ca C0010000 		.4byte	0x1c0
 2161 06ce 14       		.uleb128 0x14
 2162 06cf 99030000 		.4byte	0x399
 2163 06d3 00       		.byte	0
 2164 06d4 07       		.uleb128 0x7
 2165 06d5 04       		.byte	0x4
 2166 06d6 BF060000 		.4byte	0x6bf
ARM GAS  C:\Users\ANDREY~1\AppData\Local\Temp\ccuKrLyD.s 			page 45


 2167 06da 16       		.uleb128 0x16
 2168 06db 67050000 		.4byte	0x567
 2169 06df EA060000 		.4byte	0x6ea
 2170 06e3 17       		.uleb128 0x17
 2171 06e4 23010000 		.4byte	0x123
 2172 06e8 03       		.byte	0x3
 2173 06e9 00       		.byte	0
 2174 06ea 05       		.uleb128 0x5
 2175 06eb A2050000 		.4byte	.LASF103
 2176 06ef 07       		.byte	0x7
 2177 06f0 4F02     		.2byte	0x24f
 2178 06f2 E5050000 		.4byte	0x5e5
 2179 06f6 18       		.uleb128 0x18
 2180 06f7 54010000 		.4byte	.LASF104
 2181 06fb 01       		.byte	0x1
 2182 06fc 0A       		.byte	0xa
 2183 06fd 00000000 		.4byte	.LFB64
 2184 0701 74000000 		.4byte	.LFE64-.LFB64
 2185 0705 01       		.uleb128 0x1
 2186 0706 9C       		.byte	0x9c
 2187 0707 EE070000 		.4byte	0x7ee
 2188 070b 19       		.uleb128 0x19
 2189 070c 0C000000 		.4byte	.LVL0
 2190 0710 2B140000 		.4byte	0x142b
 2191 0714 22070000 		.4byte	0x722
 2192 0718 1A       		.uleb128 0x1a
 2193 0719 01       		.uleb128 0x1
 2194 071a 50       		.byte	0x50
 2195 071b 05       		.uleb128 0x5
 2196 071c 0C       		.byte	0xc
 2197 071d FFFFFF00 		.4byte	0xffffff
 2198 0721 00       		.byte	0
 2199 0722 19       		.uleb128 0x19
 2200 0723 1E000000 		.4byte	.LVL1
 2201 0727 37140000 		.4byte	0x1437
 2202 072b 4D070000 		.4byte	0x74d
 2203 072f 1A       		.uleb128 0x1a
 2204 0730 01       		.uleb128 0x1
 2205 0731 50       		.byte	0x50
 2206 0732 01       		.uleb128 0x1
 2207 0733 30       		.byte	0x30
 2208 0734 1A       		.uleb128 0x1a
 2209 0735 01       		.uleb128 0x1
 2210 0736 51       		.byte	0x51
 2211 0737 01       		.uleb128 0x1
 2212 0738 30       		.byte	0x30
 2213 0739 1A       		.uleb128 0x1a
 2214 073a 01       		.uleb128 0x1
 2215 073b 52       		.byte	0x52
 2216 073c 01       		.uleb128 0x1
 2217 073d 3A       		.byte	0x3a
 2218 073e 1A       		.uleb128 0x1a
 2219 073f 01       		.uleb128 0x1
 2220 0740 53       		.byte	0x53
 2221 0741 01       		.uleb128 0x1
 2222 0742 3A       		.byte	0x3a
 2223 0743 1A       		.uleb128 0x1a
ARM GAS  C:\Users\ANDREY~1\AppData\Local\Temp\ccuKrLyD.s 			page 46


 2224 0744 02       		.uleb128 0x2
 2225 0745 7D       		.byte	0x7d
 2226 0746 00       		.sleb128 0
 2227 0747 04       		.uleb128 0x4
 2228 0748 08       		.byte	0x8
 2229 0749 FF       		.byte	0xff
 2230 074a 40       		.byte	0x40
 2231 074b 24       		.byte	0x24
 2232 074c 00       		.byte	0
 2233 074d 19       		.uleb128 0x19
 2234 074e 32000000 		.4byte	.LVL2
 2235 0752 37140000 		.4byte	0x1437
 2236 0756 7A070000 		.4byte	0x77a
 2237 075a 1A       		.uleb128 0x1a
 2238 075b 01       		.uleb128 0x1
 2239 075c 50       		.byte	0x50
 2240 075d 01       		.uleb128 0x1
 2241 075e 30       		.byte	0x30
 2242 075f 1A       		.uleb128 0x1a
 2243 0760 01       		.uleb128 0x1
 2244 0761 51       		.byte	0x51
 2245 0762 03       		.uleb128 0x3
 2246 0763 0A       		.byte	0xa
 2247 0764 0601     		.2byte	0x106
 2248 0766 1A       		.uleb128 0x1a
 2249 0767 01       		.uleb128 0x1
 2250 0768 52       		.byte	0x52
 2251 0769 01       		.uleb128 0x1
 2252 076a 3A       		.byte	0x3a
 2253 076b 1A       		.uleb128 0x1a
 2254 076c 01       		.uleb128 0x1
 2255 076d 53       		.byte	0x53
 2256 076e 03       		.uleb128 0x3
 2257 076f 0A       		.byte	0xa
 2258 0770 1001     		.2byte	0x110
 2259 0772 1A       		.uleb128 0x1a
 2260 0773 02       		.uleb128 0x2
 2261 0774 7D       		.byte	0x7d
 2262 0775 00       		.sleb128 0
 2263 0776 02       		.uleb128 0x2
 2264 0777 08       		.byte	0x8
 2265 0778 FF       		.byte	0xff
 2266 0779 00       		.byte	0
 2267 077a 19       		.uleb128 0x19
 2268 077b 48000000 		.4byte	.LVL3
 2269 077f 37140000 		.4byte	0x1437
 2270 0783 A8070000 		.4byte	0x7a8
 2271 0787 1A       		.uleb128 0x1a
 2272 0788 01       		.uleb128 0x1
 2273 0789 50       		.byte	0x50
 2274 078a 03       		.uleb128 0x3
 2275 078b 0A       		.byte	0xa
 2276 078c D601     		.2byte	0x1d6
 2277 078e 1A       		.uleb128 0x1a
 2278 078f 01       		.uleb128 0x1
 2279 0790 51       		.byte	0x51
 2280 0791 01       		.uleb128 0x1
ARM GAS  C:\Users\ANDREY~1\AppData\Local\Temp\ccuKrLyD.s 			page 47


 2281 0792 30       		.byte	0x30
 2282 0793 1A       		.uleb128 0x1a
 2283 0794 01       		.uleb128 0x1
 2284 0795 52       		.byte	0x52
 2285 0796 03       		.uleb128 0x3
 2286 0797 0A       		.byte	0xa
 2287 0798 E001     		.2byte	0x1e0
 2288 079a 1A       		.uleb128 0x1a
 2289 079b 01       		.uleb128 0x1
 2290 079c 53       		.byte	0x53
 2291 079d 01       		.uleb128 0x1
 2292 079e 3A       		.byte	0x3a
 2293 079f 1A       		.uleb128 0x1a
 2294 07a0 02       		.uleb128 0x2
 2295 07a1 7D       		.byte	0x7d
 2296 07a2 00       		.sleb128 0
 2297 07a3 03       		.uleb128 0x3
 2298 07a4 0A       		.byte	0xa
 2299 07a5 00FF     		.2byte	0xff00
 2300 07a7 00       		.byte	0
 2301 07a8 19       		.uleb128 0x19
 2302 07a9 60000000 		.4byte	.LVL4
 2303 07ad 37140000 		.4byte	0x1437
 2304 07b1 DC070000 		.4byte	0x7dc
 2305 07b5 1A       		.uleb128 0x1a
 2306 07b6 01       		.uleb128 0x1
 2307 07b7 50       		.byte	0x50
 2308 07b8 03       		.uleb128 0x3
 2309 07b9 0A       		.byte	0xa
 2310 07ba D601     		.2byte	0x1d6
 2311 07bc 1A       		.uleb128 0x1a
 2312 07bd 01       		.uleb128 0x1
 2313 07be 51       		.byte	0x51
 2314 07bf 03       		.uleb128 0x3
 2315 07c0 0A       		.byte	0xa
 2316 07c1 0601     		.2byte	0x106
 2317 07c3 1A       		.uleb128 0x1a
 2318 07c4 01       		.uleb128 0x1
 2319 07c5 52       		.byte	0x52
 2320 07c6 03       		.uleb128 0x3
 2321 07c7 0A       		.byte	0xa
 2322 07c8 E001     		.2byte	0x1e0
 2323 07ca 1A       		.uleb128 0x1a
 2324 07cb 01       		.uleb128 0x1
 2325 07cc 53       		.byte	0x53
 2326 07cd 03       		.uleb128 0x3
 2327 07ce 0A       		.byte	0xa
 2328 07cf 1001     		.2byte	0x110
 2329 07d1 1A       		.uleb128 0x1a
 2330 07d2 02       		.uleb128 0x2
 2331 07d3 7D       		.byte	0x7d
 2332 07d4 00       		.sleb128 0
 2333 07d5 05       		.uleb128 0x5
 2334 07d6 0C       		.byte	0xc
 2335 07d7 00FFFF00 		.4byte	0xffff00
 2336 07db 00       		.byte	0
 2337 07dc 1B       		.uleb128 0x1b
ARM GAS  C:\Users\ANDREY~1\AppData\Local\Temp\ccuKrLyD.s 			page 48


 2338 07dd 68000000 		.4byte	.LVL5
 2339 07e1 43140000 		.4byte	0x1443
 2340 07e5 1A       		.uleb128 0x1a
 2341 07e6 01       		.uleb128 0x1
 2342 07e7 50       		.byte	0x50
 2343 07e8 03       		.uleb128 0x3
 2344 07e9 0A       		.byte	0xa
 2345 07ea 2C01     		.2byte	0x12c
 2346 07ec 00       		.byte	0
 2347 07ed 00       		.byte	0
 2348 07ee 18       		.uleb128 0x18
 2349 07ef CE040000 		.4byte	.LASF105
 2350 07f3 01       		.byte	0x1
 2351 07f4 18       		.byte	0x18
 2352 07f5 00000000 		.4byte	.LFB65
 2353 07f9 64000000 		.4byte	.LFE65-.LFB65
 2354 07fd 01       		.uleb128 0x1
 2355 07fe 9C       		.byte	0x9c
 2356 07ff E4080000 		.4byte	0x8e4
 2357 0803 19       		.uleb128 0x19
 2358 0804 08000000 		.4byte	.LVL6
 2359 0808 2B140000 		.4byte	0x142b
 2360 080c 16080000 		.4byte	0x816
 2361 0810 1A       		.uleb128 0x1a
 2362 0811 01       		.uleb128 0x1
 2363 0812 50       		.byte	0x50
 2364 0813 01       		.uleb128 0x1
 2365 0814 30       		.byte	0x30
 2366 0815 00       		.byte	0
 2367 0816 19       		.uleb128 0x19
 2368 0817 12000000 		.4byte	.LVL7
 2369 081b 4E140000 		.4byte	0x144e
 2370 081f 38080000 		.4byte	0x838
 2371 0823 1A       		.uleb128 0x1a
 2372 0824 01       		.uleb128 0x1
 2373 0825 50       		.byte	0x50
 2374 0826 02       		.uleb128 0x2
 2375 0827 08       		.byte	0x8
 2376 0828 44       		.byte	0x44
 2377 0829 1A       		.uleb128 0x1a
 2378 082a 01       		.uleb128 0x1
 2379 082b 51       		.byte	0x51
 2380 082c 01       		.uleb128 0x1
 2381 082d 3A       		.byte	0x3a
 2382 082e 1A       		.uleb128 0x1a
 2383 082f 01       		.uleb128 0x1
 2384 0830 52       		.byte	0x52
 2385 0831 05       		.uleb128 0x5
 2386 0832 03       		.byte	0x3
 2387 0833 00000000 		.4byte	.LC0
 2388 0837 00       		.byte	0
 2389 0838 19       		.uleb128 0x19
 2390 0839 1E000000 		.4byte	.LVL8
 2391 083d 4E140000 		.4byte	0x144e
 2392 0841 5B080000 		.4byte	0x85b
 2393 0845 1A       		.uleb128 0x1a
 2394 0846 01       		.uleb128 0x1
ARM GAS  C:\Users\ANDREY~1\AppData\Local\Temp\ccuKrLyD.s 			page 49


 2395 0847 50       		.byte	0x50
 2396 0848 03       		.uleb128 0x3
 2397 0849 0A       		.byte	0xa
 2398 084a 2901     		.2byte	0x129
 2399 084c 1A       		.uleb128 0x1a
 2400 084d 01       		.uleb128 0x1
 2401 084e 51       		.byte	0x51
 2402 084f 01       		.uleb128 0x1
 2403 0850 3A       		.byte	0x3a
 2404 0851 1A       		.uleb128 0x1a
 2405 0852 01       		.uleb128 0x1
 2406 0853 52       		.byte	0x52
 2407 0854 05       		.uleb128 0x5
 2408 0855 03       		.byte	0x3
 2409 0856 0C000000 		.4byte	.LC1
 2410 085a 00       		.byte	0
 2411 085b 19       		.uleb128 0x19
 2412 085c 28000000 		.4byte	.LVL9
 2413 0860 4E140000 		.4byte	0x144e
 2414 0864 7D080000 		.4byte	0x87d
 2415 0868 1A       		.uleb128 0x1a
 2416 0869 01       		.uleb128 0x1
 2417 086a 50       		.byte	0x50
 2418 086b 01       		.uleb128 0x1
 2419 086c 3A       		.byte	0x3a
 2420 086d 1A       		.uleb128 0x1a
 2421 086e 01       		.uleb128 0x1
 2422 086f 51       		.byte	0x51
 2423 0870 02       		.uleb128 0x2
 2424 0871 08       		.byte	0x8
 2425 0872 C3       		.byte	0xc3
 2426 0873 1A       		.uleb128 0x1a
 2427 0874 01       		.uleb128 0x1
 2428 0875 52       		.byte	0x52
 2429 0876 05       		.uleb128 0x5
 2430 0877 03       		.byte	0x3
 2431 0878 18000000 		.4byte	.LC2
 2432 087c 00       		.byte	0
 2433 087d 19       		.uleb128 0x19
 2434 087e 32000000 		.4byte	.LVL10
 2435 0882 4E140000 		.4byte	0x144e
 2436 0886 9F080000 		.4byte	0x89f
 2437 088a 1A       		.uleb128 0x1a
 2438 088b 01       		.uleb128 0x1
 2439 088c 50       		.byte	0x50
 2440 088d 01       		.uleb128 0x1
 2441 088e 3A       		.byte	0x3a
 2442 088f 1A       		.uleb128 0x1a
 2443 0890 01       		.uleb128 0x1
 2444 0891 51       		.byte	0x51
 2445 0892 02       		.uleb128 0x2
 2446 0893 08       		.byte	0x8
 2447 0894 F0       		.byte	0xf0
 2448 0895 1A       		.uleb128 0x1a
 2449 0896 01       		.uleb128 0x1
 2450 0897 52       		.byte	0x52
 2451 0898 05       		.uleb128 0x5
ARM GAS  C:\Users\ANDREY~1\AppData\Local\Temp\ccuKrLyD.s 			page 50


 2452 0899 03       		.byte	0x3
 2453 089a 20000000 		.4byte	.LC3
 2454 089e 00       		.byte	0
 2455 089f 19       		.uleb128 0x19
 2456 08a0 3E000000 		.4byte	.LVL11
 2457 08a4 4E140000 		.4byte	0x144e
 2458 08a8 C3080000 		.4byte	0x8c3
 2459 08ac 1A       		.uleb128 0x1a
 2460 08ad 01       		.uleb128 0x1
 2461 08ae 50       		.byte	0x50
 2462 08af 03       		.uleb128 0x3
 2463 08b0 0A       		.byte	0xa
 2464 08b1 5301     		.2byte	0x153
 2465 08b3 1A       		.uleb128 0x1a
 2466 08b4 01       		.uleb128 0x1
 2467 08b5 51       		.byte	0x51
 2468 08b6 02       		.uleb128 0x2
 2469 08b7 08       		.byte	0x8
 2470 08b8 C3       		.byte	0xc3
 2471 08b9 1A       		.uleb128 0x1a
 2472 08ba 01       		.uleb128 0x1
 2473 08bb 52       		.byte	0x52
 2474 08bc 05       		.uleb128 0x5
 2475 08bd 03       		.byte	0x3
 2476 08be 28000000 		.4byte	.LC4
 2477 08c2 00       		.byte	0
 2478 08c3 1B       		.uleb128 0x1b
 2479 08c4 4A000000 		.4byte	.LVL12
 2480 08c8 4E140000 		.4byte	0x144e
 2481 08cc 1A       		.uleb128 0x1a
 2482 08cd 01       		.uleb128 0x1
 2483 08ce 50       		.byte	0x50
 2484 08cf 03       		.uleb128 0x3
 2485 08d0 0A       		.byte	0xa
 2486 08d1 2C01     		.2byte	0x12c
 2487 08d3 1A       		.uleb128 0x1a
 2488 08d4 01       		.uleb128 0x1
 2489 08d5 51       		.byte	0x51
 2490 08d6 02       		.uleb128 0x2
 2491 08d7 08       		.byte	0x8
 2492 08d8 F0       		.byte	0xf0
 2493 08d9 1A       		.uleb128 0x1a
 2494 08da 01       		.uleb128 0x1
 2495 08db 52       		.byte	0x52
 2496 08dc 05       		.uleb128 0x5
 2497 08dd 03       		.byte	0x3
 2498 08de 30000000 		.4byte	.LC5
 2499 08e2 00       		.byte	0
 2500 08e3 00       		.byte	0
 2501 08e4 1C       		.uleb128 0x1c
 2502 08e5 99050000 		.4byte	.LASF108
 2503 08e9 01       		.byte	0x1
 2504 08ea 27       		.byte	0x27
 2505 08eb 00000000 		.4byte	.LFB66
 2506 08ef 08010000 		.4byte	.LFE66-.LFB66
 2507 08f3 01       		.uleb128 0x1
 2508 08f4 9C       		.byte	0x9c
ARM GAS  C:\Users\ANDREY~1\AppData\Local\Temp\ccuKrLyD.s 			page 51


 2509 08f5 9E0A0000 		.4byte	0xa9e
 2510 08f9 1D       		.uleb128 0x1d
 2511 08fa 1A030000 		.4byte	.LASF63
 2512 08fe 01       		.byte	0x1
 2513 08ff 27       		.byte	0x27
 2514 0900 EF000000 		.4byte	0xef
 2515 0904 00000000 		.4byte	.LLST0
 2516 0908 1E       		.uleb128 0x1e
 2517 0909 9C010000 		.4byte	.LASF106
 2518 090d 01       		.byte	0x1
 2519 090e 29       		.byte	0x29
 2520 090f 99030000 		.4byte	0x399
 2521 0913 21000000 		.4byte	.LLST1
 2522 0917 1F       		.uleb128 0x1f
 2523 0918 44000000 		.4byte	.LBB2
 2524 091c 9C000000 		.4byte	.LBE2-.LBB2
 2525 0920 2F0A0000 		.4byte	0xa2f
 2526 0924 20       		.uleb128 0x20
 2527 0925 08000000 		.4byte	.LASF107
 2528 0929 01       		.byte	0x1
 2529 092a 35       		.byte	0x35
 2530 092b 9E0A0000 		.4byte	0xa9e
 2531 092f 02       		.uleb128 0x2
 2532 0930 91       		.byte	0x91
 2533 0931 6C       		.sleb128 -20
 2534 0932 19       		.uleb128 0x19
 2535 0933 4E000000 		.4byte	.LVL20
 2536 0937 5A140000 		.4byte	0x145a
 2537 093b 55090000 		.4byte	0x955
 2538 093f 1A       		.uleb128 0x1a
 2539 0940 01       		.uleb128 0x1
 2540 0941 50       		.byte	0x50
 2541 0942 02       		.uleb128 0x2
 2542 0943 91       		.byte	0x91
 2543 0944 6C       		.sleb128 -20
 2544 0945 1A       		.uleb128 0x1a
 2545 0946 01       		.uleb128 0x1
 2546 0947 51       		.byte	0x51
 2547 0948 05       		.uleb128 0x5
 2548 0949 03       		.byte	0x3
 2549 094a 44000000 		.4byte	.LC7
 2550 094e 1A       		.uleb128 0x1a
 2551 094f 01       		.uleb128 0x1
 2552 0950 52       		.byte	0x52
 2553 0951 02       		.uleb128 0x2
 2554 0952 74       		.byte	0x74
 2555 0953 00       		.sleb128 0
 2556 0954 00       		.byte	0
 2557 0955 19       		.uleb128 0x19
 2558 0956 92000000 		.4byte	.LVL22
 2559 095a 37140000 		.4byte	0x1437
 2560 095e 81090000 		.4byte	0x981
 2561 0962 1A       		.uleb128 0x1a
 2562 0963 01       		.uleb128 0x1
 2563 0964 50       		.byte	0x50
 2564 0965 01       		.uleb128 0x1
 2565 0966 4E       		.byte	0x4e
ARM GAS  C:\Users\ANDREY~1\AppData\Local\Temp\ccuKrLyD.s 			page 52


 2566 0967 1A       		.uleb128 0x1a
 2567 0968 01       		.uleb128 0x1
 2568 0969 51       		.byte	0x51
 2569 096a 02       		.uleb128 0x2
 2570 096b 08       		.byte	0x8
 2571 096c 23       		.byte	0x23
 2572 096d 1A       		.uleb128 0x1a
 2573 096e 01       		.uleb128 0x1
 2574 096f 52       		.byte	0x52
 2575 0970 02       		.uleb128 0x2
 2576 0971 08       		.byte	0x8
 2577 0972 D2       		.byte	0xd2
 2578 0973 1A       		.uleb128 0x1a
 2579 0974 01       		.uleb128 0x1
 2580 0975 53       		.byte	0x53
 2581 0976 02       		.uleb128 0x2
 2582 0977 08       		.byte	0x8
 2583 0978 AA       		.byte	0xaa
 2584 0979 1A       		.uleb128 0x1a
 2585 097a 02       		.uleb128 0x2
 2586 097b 7D       		.byte	0x7d
 2587 097c 00       		.sleb128 0
 2588 097d 02       		.uleb128 0x2
 2589 097e 74       		.byte	0x74
 2590 097f 00       		.sleb128 0
 2591 0980 00       		.byte	0
 2592 0981 19       		.uleb128 0x19
 2593 0982 A4000000 		.4byte	.LVL23
 2594 0986 65140000 		.4byte	0x1465
 2595 098a AD090000 		.4byte	0x9ad
 2596 098e 1A       		.uleb128 0x1a
 2597 098f 01       		.uleb128 0x1
 2598 0990 50       		.byte	0x50
 2599 0991 02       		.uleb128 0x2
 2600 0992 08       		.byte	0x8
 2601 0993 46       		.byte	0x46
 2602 0994 1A       		.uleb128 0x1a
 2603 0995 01       		.uleb128 0x1
 2604 0996 51       		.byte	0x51
 2605 0997 02       		.uleb128 0x2
 2606 0998 08       		.byte	0x8
 2607 0999 50       		.byte	0x50
 2608 099a 1A       		.uleb128 0x1a
 2609 099b 01       		.uleb128 0x1
 2610 099c 52       		.byte	0x52
 2611 099d 02       		.uleb128 0x2
 2612 099e 91       		.byte	0x91
 2613 099f 6C       		.sleb128 -20
 2614 09a0 1A       		.uleb128 0x1a
 2615 09a1 01       		.uleb128 0x1
 2616 09a2 53       		.byte	0x53
 2617 09a3 01       		.uleb128 0x1
 2618 09a4 30       		.byte	0x30
 2619 09a5 1A       		.uleb128 0x1a
 2620 09a6 02       		.uleb128 0x2
 2621 09a7 7D       		.byte	0x7d
 2622 09a8 00       		.sleb128 0
ARM GAS  C:\Users\ANDREY~1\AppData\Local\Temp\ccuKrLyD.s 			page 53


 2623 09a9 02       		.uleb128 0x2
 2624 09aa 74       		.byte	0x74
 2625 09ab 00       		.sleb128 0
 2626 09ac 00       		.byte	0
 2627 09ad 19       		.uleb128 0x19
 2628 09ae C0000000 		.4byte	.LVL26
 2629 09b2 37140000 		.4byte	0x1437
 2630 09b6 D9090000 		.4byte	0x9d9
 2631 09ba 1A       		.uleb128 0x1a
 2632 09bb 01       		.uleb128 0x1
 2633 09bc 50       		.byte	0x50
 2634 09bd 01       		.uleb128 0x1
 2635 09be 4E       		.byte	0x4e
 2636 09bf 1A       		.uleb128 0x1a
 2637 09c0 01       		.uleb128 0x1
 2638 09c1 51       		.byte	0x51
 2639 09c2 02       		.uleb128 0x2
 2640 09c3 08       		.byte	0x8
 2641 09c4 23       		.byte	0x23
 2642 09c5 1A       		.uleb128 0x1a
 2643 09c6 01       		.uleb128 0x1
 2644 09c7 52       		.byte	0x52
 2645 09c8 02       		.uleb128 0x2
 2646 09c9 08       		.byte	0x8
 2647 09ca D2       		.byte	0xd2
 2648 09cb 1A       		.uleb128 0x1a
 2649 09cc 01       		.uleb128 0x1
 2650 09cd 53       		.byte	0x53
 2651 09ce 02       		.uleb128 0x2
 2652 09cf 08       		.byte	0x8
 2653 09d0 AA       		.byte	0xaa
 2654 09d1 1A       		.uleb128 0x1a
 2655 09d2 02       		.uleb128 0x2
 2656 09d3 7D       		.byte	0x7d
 2657 09d4 00       		.sleb128 0
 2658 09d5 02       		.uleb128 0x2
 2659 09d6 74       		.byte	0x74
 2660 09d7 00       		.sleb128 0
 2661 09d8 00       		.byte	0
 2662 09d9 19       		.uleb128 0x19
 2663 09da D2000000 		.4byte	.LVL27
 2664 09de 37140000 		.4byte	0x1437
 2665 09e2 050A0000 		.4byte	0xa05
 2666 09e6 1A       		.uleb128 0x1a
 2667 09e7 01       		.uleb128 0x1
 2668 09e8 50       		.byte	0x50
 2669 09e9 01       		.uleb128 0x1
 2670 09ea 4E       		.byte	0x4e
 2671 09eb 1A       		.uleb128 0x1a
 2672 09ec 01       		.uleb128 0x1
 2673 09ed 51       		.byte	0x51
 2674 09ee 02       		.uleb128 0x2
 2675 09ef 08       		.byte	0x8
 2676 09f0 23       		.byte	0x23
 2677 09f1 1A       		.uleb128 0x1a
 2678 09f2 01       		.uleb128 0x1
 2679 09f3 52       		.byte	0x52
ARM GAS  C:\Users\ANDREY~1\AppData\Local\Temp\ccuKrLyD.s 			page 54


 2680 09f4 02       		.uleb128 0x2
 2681 09f5 08       		.byte	0x8
 2682 09f6 D2       		.byte	0xd2
 2683 09f7 1A       		.uleb128 0x1a
 2684 09f8 01       		.uleb128 0x1
 2685 09f9 53       		.byte	0x53
 2686 09fa 02       		.uleb128 0x2
 2687 09fb 08       		.byte	0x8
 2688 09fc AA       		.byte	0xaa
 2689 09fd 1A       		.uleb128 0x1a
 2690 09fe 02       		.uleb128 0x2
 2691 09ff 7D       		.byte	0x7d
 2692 0a00 00       		.sleb128 0
 2693 0a01 02       		.uleb128 0x2
 2694 0a02 75       		.byte	0x75
 2695 0a03 00       		.sleb128 0
 2696 0a04 00       		.byte	0
 2697 0a05 1B       		.uleb128 0x1b
 2698 0a06 E0000000 		.4byte	.LVL28
 2699 0a0a 65140000 		.4byte	0x1465
 2700 0a0e 1A       		.uleb128 0x1a
 2701 0a0f 01       		.uleb128 0x1
 2702 0a10 50       		.byte	0x50
 2703 0a11 02       		.uleb128 0x2
 2704 0a12 08       		.byte	0x8
 2705 0a13 5A       		.byte	0x5a
 2706 0a14 1A       		.uleb128 0x1a
 2707 0a15 01       		.uleb128 0x1
 2708 0a16 51       		.byte	0x51
 2709 0a17 02       		.uleb128 0x2
 2710 0a18 08       		.byte	0x8
 2711 0a19 50       		.byte	0x50
 2712 0a1a 1A       		.uleb128 0x1a
 2713 0a1b 01       		.uleb128 0x1
 2714 0a1c 52       		.byte	0x52
 2715 0a1d 02       		.uleb128 0x2
 2716 0a1e 91       		.byte	0x91
 2717 0a1f 6C       		.sleb128 -20
 2718 0a20 1A       		.uleb128 0x1a
 2719 0a21 01       		.uleb128 0x1
 2720 0a22 53       		.byte	0x53
 2721 0a23 02       		.uleb128 0x2
 2722 0a24 74       		.byte	0x74
 2723 0a25 00       		.sleb128 0
 2724 0a26 1A       		.uleb128 0x1a
 2725 0a27 02       		.uleb128 0x2
 2726 0a28 7D       		.byte	0x7d
 2727 0a29 00       		.sleb128 0
 2728 0a2a 02       		.uleb128 0x2
 2729 0a2b 75       		.byte	0x75
 2730 0a2c 00       		.sleb128 0
 2731 0a2d 00       		.byte	0
 2732 0a2e 00       		.byte	0
 2733 0a2f 21       		.uleb128 0x21
 2734 0a30 0C000000 		.4byte	.LVL15
 2735 0a34 71140000 		.4byte	0x1471
 2736 0a38 19       		.uleb128 0x19
ARM GAS  C:\Users\ANDREY~1\AppData\Local\Temp\ccuKrLyD.s 			page 55


 2737 0a39 2C000000 		.4byte	.LVL17
 2738 0a3d 37140000 		.4byte	0x1437
 2739 0a41 640A0000 		.4byte	0xa64
 2740 0a45 1A       		.uleb128 0x1a
 2741 0a46 01       		.uleb128 0x1
 2742 0a47 50       		.byte	0x50
 2743 0a48 01       		.uleb128 0x1
 2744 0a49 4E       		.byte	0x4e
 2745 0a4a 1A       		.uleb128 0x1a
 2746 0a4b 01       		.uleb128 0x1
 2747 0a4c 51       		.byte	0x51
 2748 0a4d 02       		.uleb128 0x2
 2749 0a4e 08       		.byte	0x8
 2750 0a4f 23       		.byte	0x23
 2751 0a50 1A       		.uleb128 0x1a
 2752 0a51 01       		.uleb128 0x1
 2753 0a52 52       		.byte	0x52
 2754 0a53 02       		.uleb128 0x2
 2755 0a54 08       		.byte	0x8
 2756 0a55 D2       		.byte	0xd2
 2757 0a56 1A       		.uleb128 0x1a
 2758 0a57 01       		.uleb128 0x1
 2759 0a58 53       		.byte	0x53
 2760 0a59 02       		.uleb128 0x2
 2761 0a5a 08       		.byte	0x8
 2762 0a5b AA       		.byte	0xaa
 2763 0a5c 1A       		.uleb128 0x1a
 2764 0a5d 02       		.uleb128 0x2
 2765 0a5e 7D       		.byte	0x7d
 2766 0a5f 00       		.sleb128 0
 2767 0a60 02       		.uleb128 0x2
 2768 0a61 74       		.byte	0x74
 2769 0a62 00       		.sleb128 0
 2770 0a63 00       		.byte	0
 2771 0a64 19       		.uleb128 0x19
 2772 0a65 42000000 		.4byte	.LVL18
 2773 0a69 65140000 		.4byte	0x1465
 2774 0a6d 940A0000 		.4byte	0xa94
 2775 0a71 1A       		.uleb128 0x1a
 2776 0a72 01       		.uleb128 0x1
 2777 0a73 50       		.byte	0x50
 2778 0a74 02       		.uleb128 0x2
 2779 0a75 08       		.byte	0x8
 2780 0a76 37       		.byte	0x37
 2781 0a77 1A       		.uleb128 0x1a
 2782 0a78 01       		.uleb128 0x1
 2783 0a79 51       		.byte	0x51
 2784 0a7a 02       		.uleb128 0x2
 2785 0a7b 08       		.byte	0x8
 2786 0a7c 50       		.byte	0x50
 2787 0a7d 1A       		.uleb128 0x1a
 2788 0a7e 01       		.uleb128 0x1
 2789 0a7f 52       		.byte	0x52
 2790 0a80 05       		.uleb128 0x5
 2791 0a81 03       		.byte	0x3
 2792 0a82 3C000000 		.4byte	.LC6
 2793 0a86 1A       		.uleb128 0x1a
ARM GAS  C:\Users\ANDREY~1\AppData\Local\Temp\ccuKrLyD.s 			page 56


 2794 0a87 01       		.uleb128 0x1
 2795 0a88 53       		.byte	0x53
 2796 0a89 01       		.uleb128 0x1
 2797 0a8a 30       		.byte	0x30
 2798 0a8b 1A       		.uleb128 0x1a
 2799 0a8c 02       		.uleb128 0x2
 2800 0a8d 7D       		.byte	0x7d
 2801 0a8e 00       		.sleb128 0
 2802 0a8f 03       		.uleb128 0x3
 2803 0a90 0A       		.byte	0xa
 2804 0a91 00FF     		.2byte	0xff00
 2805 0a93 00       		.byte	0
 2806 0a94 21       		.uleb128 0x21
 2807 0a95 E6000000 		.4byte	.LVL29
 2808 0a99 71140000 		.4byte	0x1471
 2809 0a9d 00       		.byte	0
 2810 0a9e 16       		.uleb128 0x16
 2811 0a9f 15010000 		.4byte	0x115
 2812 0aa3 AE0A0000 		.4byte	0xaae
 2813 0aa7 17       		.uleb128 0x17
 2814 0aa8 23010000 		.4byte	0x123
 2815 0aac 03       		.byte	0x3
 2816 0aad 00       		.byte	0
 2817 0aae 1C       		.uleb128 0x1c
 2818 0aaf 11050000 		.4byte	.LASF109
 2819 0ab3 01       		.byte	0x1
 2820 0ab4 58       		.byte	0x58
 2821 0ab5 00000000 		.4byte	.LFB67
 2822 0ab9 B4000000 		.4byte	.LFE67-.LFB67
 2823 0abd 01       		.uleb128 0x1
 2824 0abe 9C       		.byte	0x9c
 2825 0abf DE0B0000 		.4byte	0xbde
 2826 0ac3 1D       		.uleb128 0x1d
 2827 0ac4 1A030000 		.4byte	.LASF63
 2828 0ac8 01       		.byte	0x1
 2829 0ac9 58       		.byte	0x58
 2830 0aca EF000000 		.4byte	0xef
 2831 0ace 51000000 		.4byte	.LLST2
 2832 0ad2 1E       		.uleb128 0x1e
 2833 0ad3 9C010000 		.4byte	.LASF106
 2834 0ad7 01       		.byte	0x1
 2835 0ad8 5A       		.byte	0x5a
 2836 0ad9 99030000 		.4byte	0x399
 2837 0add 8B000000 		.4byte	.LLST3
 2838 0ae1 20       		.uleb128 0x20
 2839 0ae2 08000000 		.4byte	.LASF107
 2840 0ae6 01       		.byte	0x1
 2841 0ae7 6D       		.byte	0x6d
 2842 0ae8 9E0A0000 		.4byte	0xa9e
 2843 0aec 02       		.uleb128 0x2
 2844 0aed 91       		.byte	0x91
 2845 0aee 6C       		.sleb128 -20
 2846 0aef 19       		.uleb128 0x19
 2847 0af0 26000000 		.4byte	.LVL33
 2848 0af4 37140000 		.4byte	0x1437
 2849 0af8 1D0B0000 		.4byte	0xb1d
 2850 0afc 1A       		.uleb128 0x1a
ARM GAS  C:\Users\ANDREY~1\AppData\Local\Temp\ccuKrLyD.s 			page 57


 2851 0afd 01       		.uleb128 0x1
 2852 0afe 50       		.byte	0x50
 2853 0aff 03       		.uleb128 0x3
 2854 0b00 0A       		.byte	0xa
 2855 0b01 0E01     		.2byte	0x10e
 2856 0b03 1A       		.uleb128 0x1a
 2857 0b04 01       		.uleb128 0x1
 2858 0b05 51       		.byte	0x51
 2859 0b06 02       		.uleb128 0x2
 2860 0b07 08       		.byte	0x8
 2861 0b08 23       		.byte	0x23
 2862 0b09 1A       		.uleb128 0x1a
 2863 0b0a 01       		.uleb128 0x1
 2864 0b0b 52       		.byte	0x52
 2865 0b0c 03       		.uleb128 0x3
 2866 0b0d 0A       		.byte	0xa
 2867 0b0e C201     		.2byte	0x1c2
 2868 0b10 1A       		.uleb128 0x1a
 2869 0b11 01       		.uleb128 0x1
 2870 0b12 53       		.byte	0x53
 2871 0b13 02       		.uleb128 0x2
 2872 0b14 08       		.byte	0x8
 2873 0b15 AA       		.byte	0xaa
 2874 0b16 1A       		.uleb128 0x1a
 2875 0b17 02       		.uleb128 0x2
 2876 0b18 7D       		.byte	0x7d
 2877 0b19 00       		.sleb128 0
 2878 0b1a 01       		.uleb128 0x1
 2879 0b1b 30       		.byte	0x30
 2880 0b1c 00       		.byte	0
 2881 0b1d 19       		.uleb128 0x19
 2882 0b1e 3C000000 		.4byte	.LVL34
 2883 0b22 37140000 		.4byte	0x1437
 2884 0b26 4C0B0000 		.4byte	0xb4c
 2885 0b2a 1A       		.uleb128 0x1a
 2886 0b2b 01       		.uleb128 0x1
 2887 0b2c 50       		.byte	0x50
 2888 0b2d 03       		.uleb128 0x3
 2889 0b2e 0A       		.byte	0xa
 2890 0b2f 0E01     		.2byte	0x10e
 2891 0b31 1A       		.uleb128 0x1a
 2892 0b32 01       		.uleb128 0x1
 2893 0b33 51       		.byte	0x51
 2894 0b34 02       		.uleb128 0x2
 2895 0b35 08       		.byte	0x8
 2896 0b36 23       		.byte	0x23
 2897 0b37 1A       		.uleb128 0x1a
 2898 0b38 01       		.uleb128 0x1
 2899 0b39 52       		.byte	0x52
 2900 0b3a 03       		.uleb128 0x3
 2901 0b3b 0A       		.byte	0xa
 2902 0b3c C201     		.2byte	0x1c2
 2903 0b3e 1A       		.uleb128 0x1a
 2904 0b3f 01       		.uleb128 0x1
 2905 0b40 53       		.byte	0x53
 2906 0b41 02       		.uleb128 0x2
 2907 0b42 08       		.byte	0x8
ARM GAS  C:\Users\ANDREY~1\AppData\Local\Temp\ccuKrLyD.s 			page 58


 2908 0b43 AA       		.byte	0xaa
 2909 0b44 1A       		.uleb128 0x1a
 2910 0b45 02       		.uleb128 0x2
 2911 0b46 7D       		.byte	0x7d
 2912 0b47 00       		.sleb128 0
 2913 0b48 02       		.uleb128 0x2
 2914 0b49 74       		.byte	0x74
 2915 0b4a 00       		.sleb128 0
 2916 0b4b 00       		.byte	0
 2917 0b4c 19       		.uleb128 0x19
 2918 0b4d 64000000 		.4byte	.LVL37
 2919 0b51 37140000 		.4byte	0x1437
 2920 0b55 7B0B0000 		.4byte	0xb7b
 2921 0b59 1A       		.uleb128 0x1a
 2922 0b5a 01       		.uleb128 0x1
 2923 0b5b 50       		.byte	0x50
 2924 0b5c 03       		.uleb128 0x3
 2925 0b5d 0A       		.byte	0xa
 2926 0b5e 0E01     		.2byte	0x10e
 2927 0b60 1A       		.uleb128 0x1a
 2928 0b61 01       		.uleb128 0x1
 2929 0b62 51       		.byte	0x51
 2930 0b63 02       		.uleb128 0x2
 2931 0b64 08       		.byte	0x8
 2932 0b65 23       		.byte	0x23
 2933 0b66 1A       		.uleb128 0x1a
 2934 0b67 01       		.uleb128 0x1
 2935 0b68 52       		.byte	0x52
 2936 0b69 03       		.uleb128 0x3
 2937 0b6a 0A       		.byte	0xa
 2938 0b6b C201     		.2byte	0x1c2
 2939 0b6d 1A       		.uleb128 0x1a
 2940 0b6e 01       		.uleb128 0x1
 2941 0b6f 53       		.byte	0x53
 2942 0b70 02       		.uleb128 0x2
 2943 0b71 08       		.byte	0x8
 2944 0b72 AA       		.byte	0xaa
 2945 0b73 1A       		.uleb128 0x1a
 2946 0b74 02       		.uleb128 0x2
 2947 0b75 7D       		.byte	0x7d
 2948 0b76 00       		.sleb128 0
 2949 0b77 02       		.uleb128 0x2
 2950 0b78 74       		.byte	0x74
 2951 0b79 00       		.sleb128 0
 2952 0b7a 00       		.byte	0
 2953 0b7b 21       		.uleb128 0x21
 2954 0b7c 6E000000 		.4byte	.LVL38
 2955 0b80 71140000 		.4byte	0x1471
 2956 0b84 19       		.uleb128 0x19
 2957 0b85 78000000 		.4byte	.LVL39
 2958 0b89 5A140000 		.4byte	0x145a
 2959 0b8d A70B0000 		.4byte	0xba7
 2960 0b91 1A       		.uleb128 0x1a
 2961 0b92 01       		.uleb128 0x1
 2962 0b93 50       		.byte	0x50
 2963 0b94 02       		.uleb128 0x2
 2964 0b95 91       		.byte	0x91
ARM GAS  C:\Users\ANDREY~1\AppData\Local\Temp\ccuKrLyD.s 			page 59


 2965 0b96 6C       		.sleb128 -20
 2966 0b97 1A       		.uleb128 0x1a
 2967 0b98 01       		.uleb128 0x1
 2968 0b99 51       		.byte	0x51
 2969 0b9a 05       		.uleb128 0x5
 2970 0b9b 03       		.byte	0x3
 2971 0b9c 44000000 		.4byte	.LC7
 2972 0ba0 1A       		.uleb128 0x1a
 2973 0ba1 01       		.uleb128 0x1
 2974 0ba2 52       		.byte	0x52
 2975 0ba3 02       		.uleb128 0x2
 2976 0ba4 75       		.byte	0x75
 2977 0ba5 00       		.sleb128 0
 2978 0ba6 00       		.byte	0
 2979 0ba7 19       		.uleb128 0x19
 2980 0ba8 92000000 		.4byte	.LVL40
 2981 0bac 65140000 		.4byte	0x1465
 2982 0bb0 D40B0000 		.4byte	0xbd4
 2983 0bb4 1A       		.uleb128 0x1a
 2984 0bb5 01       		.uleb128 0x1
 2985 0bb6 50       		.byte	0x50
 2986 0bb7 03       		.uleb128 0x3
 2987 0bb8 0A       		.byte	0xa
 2988 0bb9 3601     		.2byte	0x136
 2989 0bbb 1A       		.uleb128 0x1a
 2990 0bbc 01       		.uleb128 0x1
 2991 0bbd 51       		.byte	0x51
 2992 0bbe 02       		.uleb128 0x2
 2993 0bbf 08       		.byte	0x8
 2994 0bc0 50       		.byte	0x50
 2995 0bc1 1A       		.uleb128 0x1a
 2996 0bc2 01       		.uleb128 0x1
 2997 0bc3 52       		.byte	0x52
 2998 0bc4 02       		.uleb128 0x2
 2999 0bc5 91       		.byte	0x91
 3000 0bc6 6C       		.sleb128 -20
 3001 0bc7 1A       		.uleb128 0x1a
 3002 0bc8 01       		.uleb128 0x1
 3003 0bc9 53       		.byte	0x53
 3004 0bca 01       		.uleb128 0x1
 3005 0bcb 30       		.byte	0x30
 3006 0bcc 1A       		.uleb128 0x1a
 3007 0bcd 02       		.uleb128 0x2
 3008 0bce 7D       		.byte	0x7d
 3009 0bcf 00       		.sleb128 0
 3010 0bd0 02       		.uleb128 0x2
 3011 0bd1 74       		.byte	0x74
 3012 0bd2 00       		.sleb128 0
 3013 0bd3 00       		.byte	0
 3014 0bd4 21       		.uleb128 0x21
 3015 0bd5 98000000 		.4byte	.LVL41
 3016 0bd9 71140000 		.4byte	0x1471
 3017 0bdd 00       		.byte	0
 3018 0bde 1C       		.uleb128 0x1c
 3019 0bdf 5B050000 		.4byte	.LASF110
 3020 0be3 01       		.byte	0x1
 3021 0be4 75       		.byte	0x75
ARM GAS  C:\Users\ANDREY~1\AppData\Local\Temp\ccuKrLyD.s 			page 60


 3022 0be5 00000000 		.4byte	.LFB68
 3023 0be9 74020000 		.4byte	.LFE68-.LFB68
 3024 0bed 01       		.uleb128 0x1
 3025 0bee 9C       		.byte	0x9c
 3026 0bef 06100000 		.4byte	0x1006
 3027 0bf3 1D       		.uleb128 0x1d
 3028 0bf4 93050000 		.4byte	.LASF56
 3029 0bf8 01       		.byte	0x1
 3030 0bf9 75       		.byte	0x75
 3031 0bfa EF000000 		.4byte	0xef
 3032 0bfe AD000000 		.4byte	.LLST4
 3033 0c02 1E       		.uleb128 0x1e
 3034 0c03 9C010000 		.4byte	.LASF106
 3035 0c07 01       		.byte	0x1
 3036 0c08 76       		.byte	0x76
 3037 0c09 99030000 		.4byte	0x399
 3038 0c0d 96010000 		.4byte	.LLST5
 3039 0c11 1F       		.uleb128 0x1f
 3040 0c12 0E000000 		.4byte	.LBB3
 3041 0c16 AE010000 		.4byte	.LBE3-.LBB3
 3042 0c1a 1C0F0000 		.4byte	0xf1c
 3043 0c1e 1E       		.uleb128 0x1e
 3044 0c1f 2D060000 		.4byte	.LASF111
 3045 0c23 01       		.byte	0x1
 3046 0c24 7A       		.byte	0x7a
 3047 0c25 EF000000 		.4byte	0xef
 3048 0c29 EA010000 		.4byte	.LLST6
 3049 0c2d 19       		.uleb128 0x19
 3050 0c2e 3E000000 		.4byte	.LVL48
 3051 0c32 37140000 		.4byte	0x1437
 3052 0c36 5A0C0000 		.4byte	0xc5a
 3053 0c3a 1A       		.uleb128 0x1a
 3054 0c3b 01       		.uleb128 0x1
 3055 0c3c 50       		.byte	0x50
 3056 0c3d 02       		.uleb128 0x2
 3057 0c3e 08       		.byte	0x8
 3058 0c3f 5F       		.byte	0x5f
 3059 0c40 1A       		.uleb128 0x1a
 3060 0c41 01       		.uleb128 0x1
 3061 0c42 51       		.byte	0x51
 3062 0c43 02       		.uleb128 0x2
 3063 0c44 08       		.byte	0x8
 3064 0c45 B9       		.byte	0xb9
 3065 0c46 1A       		.uleb128 0x1a
 3066 0c47 01       		.uleb128 0x1
 3067 0c48 52       		.byte	0x52
 3068 0c49 02       		.uleb128 0x2
 3069 0c4a 08       		.byte	0x8
 3070 0c4b F0       		.byte	0xf0
 3071 0c4c 1A       		.uleb128 0x1a
 3072 0c4d 01       		.uleb128 0x1
 3073 0c4e 53       		.byte	0x53
 3074 0c4f 02       		.uleb128 0x2
 3075 0c50 08       		.byte	0x8
 3076 0c51 D7       		.byte	0xd7
 3077 0c52 1A       		.uleb128 0x1a
 3078 0c53 02       		.uleb128 0x2
ARM GAS  C:\Users\ANDREY~1\AppData\Local\Temp\ccuKrLyD.s 			page 61


 3079 0c54 7D       		.byte	0x7d
 3080 0c55 00       		.sleb128 0
 3081 0c56 02       		.uleb128 0x2
 3082 0c57 74       		.byte	0x74
 3083 0c58 00       		.sleb128 0
 3084 0c59 00       		.byte	0
 3085 0c5a 19       		.uleb128 0x19
 3086 0c5b 52000000 		.4byte	.LVL49
 3087 0c5f 65140000 		.4byte	0x1465
 3088 0c63 8C0C0000 		.4byte	0xc8c
 3089 0c67 1A       		.uleb128 0x1a
 3090 0c68 01       		.uleb128 0x1
 3091 0c69 50       		.byte	0x50
 3092 0c6a 02       		.uleb128 0x2
 3093 0c6b 08       		.byte	0x8
 3094 0c6c 64       		.byte	0x64
 3095 0c6d 1A       		.uleb128 0x1a
 3096 0c6e 01       		.uleb128 0x1
 3097 0c6f 51       		.byte	0x51
 3098 0c70 02       		.uleb128 0x2
 3099 0c71 08       		.byte	0x8
 3100 0c72 C3       		.byte	0xc3
 3101 0c73 1A       		.uleb128 0x1a
 3102 0c74 01       		.uleb128 0x1
 3103 0c75 52       		.byte	0x52
 3104 0c76 05       		.uleb128 0x5
 3105 0c77 03       		.byte	0x3
 3106 0c78 48000000 		.4byte	.LC8
 3107 0c7c 1A       		.uleb128 0x1a
 3108 0c7d 01       		.uleb128 0x1
 3109 0c7e 53       		.byte	0x53
 3110 0c7f 01       		.uleb128 0x1
 3111 0c80 30       		.byte	0x30
 3112 0c81 1A       		.uleb128 0x1a
 3113 0c82 02       		.uleb128 0x2
 3114 0c83 7D       		.byte	0x7d
 3115 0c84 00       		.sleb128 0
 3116 0c85 05       		.uleb128 0x5
 3117 0c86 0C       		.byte	0xc
 3118 0c87 00FFFF00 		.4byte	0xffff00
 3119 0c8b 00       		.byte	0
 3120 0c8c 19       		.uleb128 0x19
 3121 0c8d 70000000 		.4byte	.LVL53
 3122 0c91 37140000 		.4byte	0x1437
 3123 0c95 B90C0000 		.4byte	0xcb9
 3124 0c99 1A       		.uleb128 0x1a
 3125 0c9a 01       		.uleb128 0x1
 3126 0c9b 50       		.byte	0x50
 3127 0c9c 02       		.uleb128 0x2
 3128 0c9d 08       		.byte	0x8
 3129 0c9e 5F       		.byte	0x5f
 3130 0c9f 1A       		.uleb128 0x1a
 3131 0ca0 01       		.uleb128 0x1
 3132 0ca1 51       		.byte	0x51
 3133 0ca2 02       		.uleb128 0x2
 3134 0ca3 08       		.byte	0x8
 3135 0ca4 B9       		.byte	0xb9
ARM GAS  C:\Users\ANDREY~1\AppData\Local\Temp\ccuKrLyD.s 			page 62


 3136 0ca5 1A       		.uleb128 0x1a
 3137 0ca6 01       		.uleb128 0x1
 3138 0ca7 52       		.byte	0x52
 3139 0ca8 02       		.uleb128 0x2
 3140 0ca9 08       		.byte	0x8
 3141 0caa F0       		.byte	0xf0
 3142 0cab 1A       		.uleb128 0x1a
 3143 0cac 01       		.uleb128 0x1
 3144 0cad 53       		.byte	0x53
 3145 0cae 02       		.uleb128 0x2
 3146 0caf 08       		.byte	0x8
 3147 0cb0 D7       		.byte	0xd7
 3148 0cb1 1A       		.uleb128 0x1a
 3149 0cb2 02       		.uleb128 0x2
 3150 0cb3 7D       		.byte	0x7d
 3151 0cb4 00       		.sleb128 0
 3152 0cb5 02       		.uleb128 0x2
 3153 0cb6 74       		.byte	0x74
 3154 0cb7 00       		.sleb128 0
 3155 0cb8 00       		.byte	0
 3156 0cb9 19       		.uleb128 0x19
 3157 0cba 86000000 		.4byte	.LVL54
 3158 0cbe 65140000 		.4byte	0x1465
 3159 0cc2 EA0C0000 		.4byte	0xcea
 3160 0cc6 1A       		.uleb128 0x1a
 3161 0cc7 01       		.uleb128 0x1
 3162 0cc8 50       		.byte	0x50
 3163 0cc9 02       		.uleb128 0x2
 3164 0cca 08       		.byte	0x8
 3165 0ccb 64       		.byte	0x64
 3166 0ccc 1A       		.uleb128 0x1a
 3167 0ccd 01       		.uleb128 0x1
 3168 0cce 51       		.byte	0x51
 3169 0ccf 02       		.uleb128 0x2
 3170 0cd0 08       		.byte	0x8
 3171 0cd1 C3       		.byte	0xc3
 3172 0cd2 1A       		.uleb128 0x1a
 3173 0cd3 01       		.uleb128 0x1
 3174 0cd4 52       		.byte	0x52
 3175 0cd5 05       		.uleb128 0x5
 3176 0cd6 03       		.byte	0x3
 3177 0cd7 54000000 		.4byte	.LC9
 3178 0cdb 1A       		.uleb128 0x1a
 3179 0cdc 01       		.uleb128 0x1
 3180 0cdd 53       		.byte	0x53
 3181 0cde 01       		.uleb128 0x1
 3182 0cdf 30       		.byte	0x30
 3183 0ce0 1A       		.uleb128 0x1a
 3184 0ce1 02       		.uleb128 0x2
 3185 0ce2 7D       		.byte	0x7d
 3186 0ce3 00       		.sleb128 0
 3187 0ce4 04       		.uleb128 0x4
 3188 0ce5 08       		.byte	0x8
 3189 0ce6 FF       		.byte	0xff
 3190 0ce7 40       		.byte	0x40
 3191 0ce8 24       		.byte	0x24
 3192 0ce9 00       		.byte	0
ARM GAS  C:\Users\ANDREY~1\AppData\Local\Temp\ccuKrLyD.s 			page 63


 3193 0cea 19       		.uleb128 0x19
 3194 0ceb A4000000 		.4byte	.LVL58
 3195 0cef 37140000 		.4byte	0x1437
 3196 0cf3 170D0000 		.4byte	0xd17
 3197 0cf7 1A       		.uleb128 0x1a
 3198 0cf8 01       		.uleb128 0x1
 3199 0cf9 50       		.byte	0x50
 3200 0cfa 02       		.uleb128 0x2
 3201 0cfb 08       		.byte	0x8
 3202 0cfc 5F       		.byte	0x5f
 3203 0cfd 1A       		.uleb128 0x1a
 3204 0cfe 01       		.uleb128 0x1
 3205 0cff 51       		.byte	0x51
 3206 0d00 02       		.uleb128 0x2
 3207 0d01 08       		.byte	0x8
 3208 0d02 B9       		.byte	0xb9
 3209 0d03 1A       		.uleb128 0x1a
 3210 0d04 01       		.uleb128 0x1
 3211 0d05 52       		.byte	0x52
 3212 0d06 02       		.uleb128 0x2
 3213 0d07 08       		.byte	0x8
 3214 0d08 F0       		.byte	0xf0
 3215 0d09 1A       		.uleb128 0x1a
 3216 0d0a 01       		.uleb128 0x1
 3217 0d0b 53       		.byte	0x53
 3218 0d0c 02       		.uleb128 0x2
 3219 0d0d 08       		.byte	0x8
 3220 0d0e D7       		.byte	0xd7
 3221 0d0f 1A       		.uleb128 0x1a
 3222 0d10 02       		.uleb128 0x2
 3223 0d11 7D       		.byte	0x7d
 3224 0d12 00       		.sleb128 0
 3225 0d13 02       		.uleb128 0x2
 3226 0d14 74       		.byte	0x74
 3227 0d15 00       		.sleb128 0
 3228 0d16 00       		.byte	0
 3229 0d17 19       		.uleb128 0x19
 3230 0d18 BA000000 		.4byte	.LVL59
 3231 0d1c 65140000 		.4byte	0x1465
 3232 0d20 480D0000 		.4byte	0xd48
 3233 0d24 1A       		.uleb128 0x1a
 3234 0d25 01       		.uleb128 0x1
 3235 0d26 50       		.byte	0x50
 3236 0d27 02       		.uleb128 0x2
 3237 0d28 08       		.byte	0x8
 3238 0d29 64       		.byte	0x64
 3239 0d2a 1A       		.uleb128 0x1a
 3240 0d2b 01       		.uleb128 0x1
 3241 0d2c 51       		.byte	0x51
 3242 0d2d 02       		.uleb128 0x2
 3243 0d2e 08       		.byte	0x8
 3244 0d2f C3       		.byte	0xc3
 3245 0d30 1A       		.uleb128 0x1a
 3246 0d31 01       		.uleb128 0x1
 3247 0d32 52       		.byte	0x52
 3248 0d33 05       		.uleb128 0x5
 3249 0d34 03       		.byte	0x3
ARM GAS  C:\Users\ANDREY~1\AppData\Local\Temp\ccuKrLyD.s 			page 64


 3250 0d35 60000000 		.4byte	.LC10
 3251 0d39 1A       		.uleb128 0x1a
 3252 0d3a 01       		.uleb128 0x1
 3253 0d3b 53       		.byte	0x53
 3254 0d3c 01       		.uleb128 0x1
 3255 0d3d 30       		.byte	0x30
 3256 0d3e 1A       		.uleb128 0x1a
 3257 0d3f 02       		.uleb128 0x2
 3258 0d40 7D       		.byte	0x7d
 3259 0d41 00       		.sleb128 0
 3260 0d42 04       		.uleb128 0x4
 3261 0d43 08       		.byte	0x8
 3262 0d44 FF       		.byte	0xff
 3263 0d45 40       		.byte	0x40
 3264 0d46 24       		.byte	0x24
 3265 0d47 00       		.byte	0
 3266 0d48 19       		.uleb128 0x19
 3267 0d49 D8000000 		.4byte	.LVL63
 3268 0d4d 37140000 		.4byte	0x1437
 3269 0d51 750D0000 		.4byte	0xd75
 3270 0d55 1A       		.uleb128 0x1a
 3271 0d56 01       		.uleb128 0x1
 3272 0d57 50       		.byte	0x50
 3273 0d58 02       		.uleb128 0x2
 3274 0d59 08       		.byte	0x8
 3275 0d5a 5F       		.byte	0x5f
 3276 0d5b 1A       		.uleb128 0x1a
 3277 0d5c 01       		.uleb128 0x1
 3278 0d5d 51       		.byte	0x51
 3279 0d5e 02       		.uleb128 0x2
 3280 0d5f 08       		.byte	0x8
 3281 0d60 B9       		.byte	0xb9
 3282 0d61 1A       		.uleb128 0x1a
 3283 0d62 01       		.uleb128 0x1
 3284 0d63 52       		.byte	0x52
 3285 0d64 02       		.uleb128 0x2
 3286 0d65 08       		.byte	0x8
 3287 0d66 F0       		.byte	0xf0
 3288 0d67 1A       		.uleb128 0x1a
 3289 0d68 01       		.uleb128 0x1
 3290 0d69 53       		.byte	0x53
 3291 0d6a 02       		.uleb128 0x2
 3292 0d6b 08       		.byte	0x8
 3293 0d6c D7       		.byte	0xd7
 3294 0d6d 1A       		.uleb128 0x1a
 3295 0d6e 02       		.uleb128 0x2
 3296 0d6f 7D       		.byte	0x7d
 3297 0d70 00       		.sleb128 0
 3298 0d71 02       		.uleb128 0x2
 3299 0d72 74       		.byte	0x74
 3300 0d73 00       		.sleb128 0
 3301 0d74 00       		.byte	0
 3302 0d75 19       		.uleb128 0x19
 3303 0d76 EE000000 		.4byte	.LVL64
 3304 0d7a 65140000 		.4byte	0x1465
 3305 0d7e A60D0000 		.4byte	0xda6
 3306 0d82 1A       		.uleb128 0x1a
ARM GAS  C:\Users\ANDREY~1\AppData\Local\Temp\ccuKrLyD.s 			page 65


 3307 0d83 01       		.uleb128 0x1
 3308 0d84 50       		.byte	0x50
 3309 0d85 02       		.uleb128 0x2
 3310 0d86 08       		.byte	0x8
 3311 0d87 64       		.byte	0x64
 3312 0d88 1A       		.uleb128 0x1a
 3313 0d89 01       		.uleb128 0x1
 3314 0d8a 51       		.byte	0x51
 3315 0d8b 02       		.uleb128 0x2
 3316 0d8c 08       		.byte	0x8
 3317 0d8d C3       		.byte	0xc3
 3318 0d8e 1A       		.uleb128 0x1a
 3319 0d8f 01       		.uleb128 0x1
 3320 0d90 52       		.byte	0x52
 3321 0d91 05       		.uleb128 0x5
 3322 0d92 03       		.byte	0x3
 3323 0d93 6C000000 		.4byte	.LC11
 3324 0d97 1A       		.uleb128 0x1a
 3325 0d98 01       		.uleb128 0x1
 3326 0d99 53       		.byte	0x53
 3327 0d9a 01       		.uleb128 0x1
 3328 0d9b 30       		.byte	0x30
 3329 0d9c 1A       		.uleb128 0x1a
 3330 0d9d 02       		.uleb128 0x2
 3331 0d9e 7D       		.byte	0x7d
 3332 0d9f 00       		.sleb128 0
 3333 0da0 04       		.uleb128 0x4
 3334 0da1 08       		.byte	0x8
 3335 0da2 FF       		.byte	0xff
 3336 0da3 40       		.byte	0x40
 3337 0da4 24       		.byte	0x24
 3338 0da5 00       		.byte	0
 3339 0da6 19       		.uleb128 0x19
 3340 0da7 0C010000 		.4byte	.LVL68
 3341 0dab 37140000 		.4byte	0x1437
 3342 0daf D30D0000 		.4byte	0xdd3
 3343 0db3 1A       		.uleb128 0x1a
 3344 0db4 01       		.uleb128 0x1
 3345 0db5 50       		.byte	0x50
 3346 0db6 02       		.uleb128 0x2
 3347 0db7 08       		.byte	0x8
 3348 0db8 5F       		.byte	0x5f
 3349 0db9 1A       		.uleb128 0x1a
 3350 0dba 01       		.uleb128 0x1
 3351 0dbb 51       		.byte	0x51
 3352 0dbc 02       		.uleb128 0x2
 3353 0dbd 08       		.byte	0x8
 3354 0dbe B9       		.byte	0xb9
 3355 0dbf 1A       		.uleb128 0x1a
 3356 0dc0 01       		.uleb128 0x1
 3357 0dc1 52       		.byte	0x52
 3358 0dc2 02       		.uleb128 0x2
 3359 0dc3 08       		.byte	0x8
 3360 0dc4 F0       		.byte	0xf0
 3361 0dc5 1A       		.uleb128 0x1a
 3362 0dc6 01       		.uleb128 0x1
 3363 0dc7 53       		.byte	0x53
ARM GAS  C:\Users\ANDREY~1\AppData\Local\Temp\ccuKrLyD.s 			page 66


 3364 0dc8 02       		.uleb128 0x2
 3365 0dc9 08       		.byte	0x8
 3366 0dca D7       		.byte	0xd7
 3367 0dcb 1A       		.uleb128 0x1a
 3368 0dcc 02       		.uleb128 0x2
 3369 0dcd 7D       		.byte	0x7d
 3370 0dce 00       		.sleb128 0
 3371 0dcf 02       		.uleb128 0x2
 3372 0dd0 74       		.byte	0x74
 3373 0dd1 00       		.sleb128 0
 3374 0dd2 00       		.byte	0
 3375 0dd3 19       		.uleb128 0x19
 3376 0dd4 22010000 		.4byte	.LVL69
 3377 0dd8 65140000 		.4byte	0x1465
 3378 0ddc 040E0000 		.4byte	0xe04
 3379 0de0 1A       		.uleb128 0x1a
 3380 0de1 01       		.uleb128 0x1
 3381 0de2 50       		.byte	0x50
 3382 0de3 02       		.uleb128 0x2
 3383 0de4 08       		.byte	0x8
 3384 0de5 64       		.byte	0x64
 3385 0de6 1A       		.uleb128 0x1a
 3386 0de7 01       		.uleb128 0x1
 3387 0de8 51       		.byte	0x51
 3388 0de9 02       		.uleb128 0x2
 3389 0dea 08       		.byte	0x8
 3390 0deb C3       		.byte	0xc3
 3391 0dec 1A       		.uleb128 0x1a
 3392 0ded 01       		.uleb128 0x1
 3393 0dee 52       		.byte	0x52
 3394 0def 05       		.uleb128 0x5
 3395 0df0 03       		.byte	0x3
 3396 0df1 78000000 		.4byte	.LC12
 3397 0df5 1A       		.uleb128 0x1a
 3398 0df6 01       		.uleb128 0x1
 3399 0df7 53       		.byte	0x53
 3400 0df8 01       		.uleb128 0x1
 3401 0df9 30       		.byte	0x30
 3402 0dfa 1A       		.uleb128 0x1a
 3403 0dfb 02       		.uleb128 0x2
 3404 0dfc 7D       		.byte	0x7d
 3405 0dfd 00       		.sleb128 0
 3406 0dfe 04       		.uleb128 0x4
 3407 0dff 08       		.byte	0x8
 3408 0e00 FF       		.byte	0xff
 3409 0e01 40       		.byte	0x40
 3410 0e02 24       		.byte	0x24
 3411 0e03 00       		.byte	0
 3412 0e04 19       		.uleb128 0x19
 3413 0e05 40010000 		.4byte	.LVL73
 3414 0e09 37140000 		.4byte	0x1437
 3415 0e0d 310E0000 		.4byte	0xe31
 3416 0e11 1A       		.uleb128 0x1a
 3417 0e12 01       		.uleb128 0x1
 3418 0e13 50       		.byte	0x50
 3419 0e14 02       		.uleb128 0x2
 3420 0e15 08       		.byte	0x8
ARM GAS  C:\Users\ANDREY~1\AppData\Local\Temp\ccuKrLyD.s 			page 67


 3421 0e16 5F       		.byte	0x5f
 3422 0e17 1A       		.uleb128 0x1a
 3423 0e18 01       		.uleb128 0x1
 3424 0e19 51       		.byte	0x51
 3425 0e1a 02       		.uleb128 0x2
 3426 0e1b 08       		.byte	0x8
 3427 0e1c B9       		.byte	0xb9
 3428 0e1d 1A       		.uleb128 0x1a
 3429 0e1e 01       		.uleb128 0x1
 3430 0e1f 52       		.byte	0x52
 3431 0e20 02       		.uleb128 0x2
 3432 0e21 08       		.byte	0x8
 3433 0e22 F0       		.byte	0xf0
 3434 0e23 1A       		.uleb128 0x1a
 3435 0e24 01       		.uleb128 0x1
 3436 0e25 53       		.byte	0x53
 3437 0e26 02       		.uleb128 0x2
 3438 0e27 08       		.byte	0x8
 3439 0e28 D7       		.byte	0xd7
 3440 0e29 1A       		.uleb128 0x1a
 3441 0e2a 02       		.uleb128 0x2
 3442 0e2b 7D       		.byte	0x7d
 3443 0e2c 00       		.sleb128 0
 3444 0e2d 02       		.uleb128 0x2
 3445 0e2e 74       		.byte	0x74
 3446 0e2f 00       		.sleb128 0
 3447 0e30 00       		.byte	0
 3448 0e31 19       		.uleb128 0x19
 3449 0e32 56010000 		.4byte	.LVL74
 3450 0e36 65140000 		.4byte	0x1465
 3451 0e3a 620E0000 		.4byte	0xe62
 3452 0e3e 1A       		.uleb128 0x1a
 3453 0e3f 01       		.uleb128 0x1
 3454 0e40 50       		.byte	0x50
 3455 0e41 02       		.uleb128 0x2
 3456 0e42 08       		.byte	0x8
 3457 0e43 64       		.byte	0x64
 3458 0e44 1A       		.uleb128 0x1a
 3459 0e45 01       		.uleb128 0x1
 3460 0e46 51       		.byte	0x51
 3461 0e47 02       		.uleb128 0x2
 3462 0e48 08       		.byte	0x8
 3463 0e49 C3       		.byte	0xc3
 3464 0e4a 1A       		.uleb128 0x1a
 3465 0e4b 01       		.uleb128 0x1
 3466 0e4c 52       		.byte	0x52
 3467 0e4d 05       		.uleb128 0x5
 3468 0e4e 03       		.byte	0x3
 3469 0e4f 84000000 		.4byte	.LC13
 3470 0e53 1A       		.uleb128 0x1a
 3471 0e54 01       		.uleb128 0x1
 3472 0e55 53       		.byte	0x53
 3473 0e56 01       		.uleb128 0x1
 3474 0e57 30       		.byte	0x30
 3475 0e58 1A       		.uleb128 0x1a
 3476 0e59 02       		.uleb128 0x2
 3477 0e5a 7D       		.byte	0x7d
ARM GAS  C:\Users\ANDREY~1\AppData\Local\Temp\ccuKrLyD.s 			page 68


 3478 0e5b 00       		.sleb128 0
 3479 0e5c 04       		.uleb128 0x4
 3480 0e5d 08       		.byte	0x8
 3481 0e5e FF       		.byte	0xff
 3482 0e5f 40       		.byte	0x40
 3483 0e60 24       		.byte	0x24
 3484 0e61 00       		.byte	0
 3485 0e62 19       		.uleb128 0x19
 3486 0e63 72010000 		.4byte	.LVL78
 3487 0e67 37140000 		.4byte	0x1437
 3488 0e6b 8F0E0000 		.4byte	0xe8f
 3489 0e6f 1A       		.uleb128 0x1a
 3490 0e70 01       		.uleb128 0x1
 3491 0e71 50       		.byte	0x50
 3492 0e72 02       		.uleb128 0x2
 3493 0e73 08       		.byte	0x8
 3494 0e74 5F       		.byte	0x5f
 3495 0e75 1A       		.uleb128 0x1a
 3496 0e76 01       		.uleb128 0x1
 3497 0e77 51       		.byte	0x51
 3498 0e78 02       		.uleb128 0x2
 3499 0e79 08       		.byte	0x8
 3500 0e7a B9       		.byte	0xb9
 3501 0e7b 1A       		.uleb128 0x1a
 3502 0e7c 01       		.uleb128 0x1
 3503 0e7d 52       		.byte	0x52
 3504 0e7e 02       		.uleb128 0x2
 3505 0e7f 08       		.byte	0x8
 3506 0e80 F0       		.byte	0xf0
 3507 0e81 1A       		.uleb128 0x1a
 3508 0e82 01       		.uleb128 0x1
 3509 0e83 53       		.byte	0x53
 3510 0e84 02       		.uleb128 0x2
 3511 0e85 08       		.byte	0x8
 3512 0e86 D7       		.byte	0xd7
 3513 0e87 1A       		.uleb128 0x1a
 3514 0e88 02       		.uleb128 0x2
 3515 0e89 7D       		.byte	0x7d
 3516 0e8a 00       		.sleb128 0
 3517 0e8b 02       		.uleb128 0x2
 3518 0e8c 74       		.byte	0x74
 3519 0e8d 00       		.sleb128 0
 3520 0e8e 00       		.byte	0
 3521 0e8f 19       		.uleb128 0x19
 3522 0e90 86010000 		.4byte	.LVL79
 3523 0e94 65140000 		.4byte	0x1465
 3524 0e98 C10E0000 		.4byte	0xec1
 3525 0e9c 1A       		.uleb128 0x1a
 3526 0e9d 01       		.uleb128 0x1
 3527 0e9e 50       		.byte	0x50
 3528 0e9f 02       		.uleb128 0x2
 3529 0ea0 08       		.byte	0x8
 3530 0ea1 64       		.byte	0x64
 3531 0ea2 1A       		.uleb128 0x1a
 3532 0ea3 01       		.uleb128 0x1
 3533 0ea4 51       		.byte	0x51
 3534 0ea5 02       		.uleb128 0x2
ARM GAS  C:\Users\ANDREY~1\AppData\Local\Temp\ccuKrLyD.s 			page 69


 3535 0ea6 08       		.byte	0x8
 3536 0ea7 C3       		.byte	0xc3
 3537 0ea8 1A       		.uleb128 0x1a
 3538 0ea9 01       		.uleb128 0x1
 3539 0eaa 52       		.byte	0x52
 3540 0eab 05       		.uleb128 0x5
 3541 0eac 03       		.byte	0x3
 3542 0ead 90000000 		.4byte	.LC14
 3543 0eb1 1A       		.uleb128 0x1a
 3544 0eb2 01       		.uleb128 0x1
 3545 0eb3 53       		.byte	0x53
 3546 0eb4 01       		.uleb128 0x1
 3547 0eb5 30       		.byte	0x30
 3548 0eb6 1A       		.uleb128 0x1a
 3549 0eb7 02       		.uleb128 0x2
 3550 0eb8 7D       		.byte	0x7d
 3551 0eb9 00       		.sleb128 0
 3552 0eba 05       		.uleb128 0x5
 3553 0ebb 0C       		.byte	0xc
 3554 0ebc 00FFFF00 		.4byte	0xffff00
 3555 0ec0 00       		.byte	0
 3556 0ec1 19       		.uleb128 0x19
 3557 0ec2 A4010000 		.4byte	.LVL83
 3558 0ec6 37140000 		.4byte	0x1437
 3559 0eca EE0E0000 		.4byte	0xeee
 3560 0ece 1A       		.uleb128 0x1a
 3561 0ecf 01       		.uleb128 0x1
 3562 0ed0 50       		.byte	0x50
 3563 0ed1 02       		.uleb128 0x2
 3564 0ed2 08       		.byte	0x8
 3565 0ed3 5F       		.byte	0x5f
 3566 0ed4 1A       		.uleb128 0x1a
 3567 0ed5 01       		.uleb128 0x1
 3568 0ed6 51       		.byte	0x51
 3569 0ed7 02       		.uleb128 0x2
 3570 0ed8 08       		.byte	0x8
 3571 0ed9 B9       		.byte	0xb9
 3572 0eda 1A       		.uleb128 0x1a
 3573 0edb 01       		.uleb128 0x1
 3574 0edc 52       		.byte	0x52
 3575 0edd 02       		.uleb128 0x2
 3576 0ede 08       		.byte	0x8
 3577 0edf F0       		.byte	0xf0
 3578 0ee0 1A       		.uleb128 0x1a
 3579 0ee1 01       		.uleb128 0x1
 3580 0ee2 53       		.byte	0x53
 3581 0ee3 02       		.uleb128 0x2
 3582 0ee4 08       		.byte	0x8
 3583 0ee5 D7       		.byte	0xd7
 3584 0ee6 1A       		.uleb128 0x1a
 3585 0ee7 02       		.uleb128 0x2
 3586 0ee8 7D       		.byte	0x7d
 3587 0ee9 00       		.sleb128 0
 3588 0eea 02       		.uleb128 0x2
 3589 0eeb 74       		.byte	0x74
 3590 0eec 00       		.sleb128 0
 3591 0eed 00       		.byte	0
ARM GAS  C:\Users\ANDREY~1\AppData\Local\Temp\ccuKrLyD.s 			page 70


 3592 0eee 1B       		.uleb128 0x1b
 3593 0eef BA010000 		.4byte	.LVL84
 3594 0ef3 65140000 		.4byte	0x1465
 3595 0ef7 1A       		.uleb128 0x1a
 3596 0ef8 01       		.uleb128 0x1
 3597 0ef9 50       		.byte	0x50
 3598 0efa 02       		.uleb128 0x2
 3599 0efb 08       		.byte	0x8
 3600 0efc 64       		.byte	0x64
 3601 0efd 1A       		.uleb128 0x1a
 3602 0efe 01       		.uleb128 0x1
 3603 0eff 51       		.byte	0x51
 3604 0f00 02       		.uleb128 0x2
 3605 0f01 08       		.byte	0x8
 3606 0f02 C3       		.byte	0xc3
 3607 0f03 1A       		.uleb128 0x1a
 3608 0f04 01       		.uleb128 0x1
 3609 0f05 52       		.byte	0x52
 3610 0f06 05       		.uleb128 0x5
 3611 0f07 03       		.byte	0x3
 3612 0f08 9C000000 		.4byte	.LC15
 3613 0f0c 1A       		.uleb128 0x1a
 3614 0f0d 01       		.uleb128 0x1
 3615 0f0e 53       		.byte	0x53
 3616 0f0f 01       		.uleb128 0x1
 3617 0f10 30       		.byte	0x30
 3618 0f11 1A       		.uleb128 0x1a
 3619 0f12 02       		.uleb128 0x2
 3620 0f13 7D       		.byte	0x7d
 3621 0f14 00       		.sleb128 0
 3622 0f15 04       		.uleb128 0x4
 3623 0f16 08       		.byte	0x8
 3624 0f17 FF       		.byte	0xff
 3625 0f18 40       		.byte	0x40
 3626 0f19 24       		.byte	0x24
 3627 0f1a 00       		.byte	0
 3628 0f1b 00       		.byte	0
 3629 0f1c 19       		.uleb128 0x19
 3630 0f1d D8010000 		.4byte	.LVL87
 3631 0f21 37140000 		.4byte	0x1437
 3632 0f25 490F0000 		.4byte	0xf49
 3633 0f29 1A       		.uleb128 0x1a
 3634 0f2a 01       		.uleb128 0x1
 3635 0f2b 50       		.byte	0x50
 3636 0f2c 02       		.uleb128 0x2
 3637 0f2d 08       		.byte	0x8
 3638 0f2e 5F       		.byte	0x5f
 3639 0f2f 1A       		.uleb128 0x1a
 3640 0f30 01       		.uleb128 0x1
 3641 0f31 51       		.byte	0x51
 3642 0f32 02       		.uleb128 0x2
 3643 0f33 08       		.byte	0x8
 3644 0f34 B9       		.byte	0xb9
 3645 0f35 1A       		.uleb128 0x1a
 3646 0f36 01       		.uleb128 0x1
 3647 0f37 52       		.byte	0x52
 3648 0f38 02       		.uleb128 0x2
ARM GAS  C:\Users\ANDREY~1\AppData\Local\Temp\ccuKrLyD.s 			page 71


 3649 0f39 08       		.byte	0x8
 3650 0f3a F0       		.byte	0xf0
 3651 0f3b 1A       		.uleb128 0x1a
 3652 0f3c 01       		.uleb128 0x1
 3653 0f3d 53       		.byte	0x53
 3654 0f3e 02       		.uleb128 0x2
 3655 0f3f 08       		.byte	0x8
 3656 0f40 D7       		.byte	0xd7
 3657 0f41 1A       		.uleb128 0x1a
 3658 0f42 02       		.uleb128 0x2
 3659 0f43 7D       		.byte	0x7d
 3660 0f44 00       		.sleb128 0
 3661 0f45 02       		.uleb128 0x2
 3662 0f46 75       		.byte	0x75
 3663 0f47 00       		.sleb128 0
 3664 0f48 00       		.byte	0
 3665 0f49 19       		.uleb128 0x19
 3666 0f4a FA010000 		.4byte	.LVL88
 3667 0f4e 65140000 		.4byte	0x1465
 3668 0f52 790F0000 		.4byte	0xf79
 3669 0f56 1A       		.uleb128 0x1a
 3670 0f57 01       		.uleb128 0x1
 3671 0f58 50       		.byte	0x50
 3672 0f59 02       		.uleb128 0x2
 3673 0f5a 08       		.byte	0x8
 3674 0f5b 64       		.byte	0x64
 3675 0f5c 1A       		.uleb128 0x1a
 3676 0f5d 01       		.uleb128 0x1
 3677 0f5e 51       		.byte	0x51
 3678 0f5f 02       		.uleb128 0x2
 3679 0f60 08       		.byte	0x8
 3680 0f61 C3       		.byte	0xc3
 3681 0f62 1A       		.uleb128 0x1a
 3682 0f63 01       		.uleb128 0x1
 3683 0f64 52       		.byte	0x52
 3684 0f65 05       		.uleb128 0x5
 3685 0f66 03       		.byte	0x3
 3686 0f67 A8000000 		.4byte	.LC16
 3687 0f6b 1A       		.uleb128 0x1a
 3688 0f6c 01       		.uleb128 0x1
 3689 0f6d 53       		.byte	0x53
 3690 0f6e 01       		.uleb128 0x1
 3691 0f6f 30       		.byte	0x30
 3692 0f70 1A       		.uleb128 0x1a
 3693 0f71 02       		.uleb128 0x2
 3694 0f72 7D       		.byte	0x7d
 3695 0f73 00       		.sleb128 0
 3696 0f74 03       		.uleb128 0x3
 3697 0f75 0A       		.byte	0xa
 3698 0f76 00FF     		.2byte	0xff00
 3699 0f78 00       		.byte	0
 3700 0f79 19       		.uleb128 0x19
 3701 0f7a 0E020000 		.4byte	.LVL89
 3702 0f7e 65140000 		.4byte	0x1465
 3703 0f82 A90F0000 		.4byte	0xfa9
 3704 0f86 1A       		.uleb128 0x1a
 3705 0f87 01       		.uleb128 0x1
ARM GAS  C:\Users\ANDREY~1\AppData\Local\Temp\ccuKrLyD.s 			page 72


 3706 0f88 50       		.byte	0x50
 3707 0f89 02       		.uleb128 0x2
 3708 0f8a 08       		.byte	0x8
 3709 0f8b 64       		.byte	0x64
 3710 0f8c 1A       		.uleb128 0x1a
 3711 0f8d 01       		.uleb128 0x1
 3712 0f8e 51       		.byte	0x51
 3713 0f8f 02       		.uleb128 0x2
 3714 0f90 08       		.byte	0x8
 3715 0f91 C3       		.byte	0xc3
 3716 0f92 1A       		.uleb128 0x1a
 3717 0f93 01       		.uleb128 0x1
 3718 0f94 52       		.byte	0x52
 3719 0f95 05       		.uleb128 0x5
 3720 0f96 03       		.byte	0x3
 3721 0f97 B4000000 		.4byte	.LC17
 3722 0f9b 1A       		.uleb128 0x1a
 3723 0f9c 01       		.uleb128 0x1
 3724 0f9d 53       		.byte	0x53
 3725 0f9e 01       		.uleb128 0x1
 3726 0f9f 30       		.byte	0x30
 3727 0fa0 1A       		.uleb128 0x1a
 3728 0fa1 02       		.uleb128 0x2
 3729 0fa2 7D       		.byte	0x7d
 3730 0fa3 00       		.sleb128 0
 3731 0fa4 03       		.uleb128 0x3
 3732 0fa5 0A       		.byte	0xa
 3733 0fa6 00FF     		.2byte	0xff00
 3734 0fa8 00       		.byte	0
 3735 0fa9 19       		.uleb128 0x19
 3736 0faa 22020000 		.4byte	.LVL90
 3737 0fae 65140000 		.4byte	0x1465
 3738 0fb2 D90F0000 		.4byte	0xfd9
 3739 0fb6 1A       		.uleb128 0x1a
 3740 0fb7 01       		.uleb128 0x1
 3741 0fb8 50       		.byte	0x50
 3742 0fb9 02       		.uleb128 0x2
 3743 0fba 08       		.byte	0x8
 3744 0fbb 64       		.byte	0x64
 3745 0fbc 1A       		.uleb128 0x1a
 3746 0fbd 01       		.uleb128 0x1
 3747 0fbe 51       		.byte	0x51
 3748 0fbf 02       		.uleb128 0x2
 3749 0fc0 08       		.byte	0x8
 3750 0fc1 C3       		.byte	0xc3
 3751 0fc2 1A       		.uleb128 0x1a
 3752 0fc3 01       		.uleb128 0x1
 3753 0fc4 52       		.byte	0x52
 3754 0fc5 05       		.uleb128 0x5
 3755 0fc6 03       		.byte	0x3
 3756 0fc7 C0000000 		.4byte	.LC18
 3757 0fcb 1A       		.uleb128 0x1a
 3758 0fcc 01       		.uleb128 0x1
 3759 0fcd 53       		.byte	0x53
 3760 0fce 01       		.uleb128 0x1
 3761 0fcf 30       		.byte	0x30
 3762 0fd0 1A       		.uleb128 0x1a
ARM GAS  C:\Users\ANDREY~1\AppData\Local\Temp\ccuKrLyD.s 			page 73


 3763 0fd1 02       		.uleb128 0x2
 3764 0fd2 7D       		.byte	0x7d
 3765 0fd3 00       		.sleb128 0
 3766 0fd4 03       		.uleb128 0x3
 3767 0fd5 0A       		.byte	0xa
 3768 0fd6 00FF     		.2byte	0xff00
 3769 0fd8 00       		.byte	0
 3770 0fd9 1B       		.uleb128 0x1b
 3771 0fda 36020000 		.4byte	.LVL91
 3772 0fde 65140000 		.4byte	0x1465
 3773 0fe2 1A       		.uleb128 0x1a
 3774 0fe3 01       		.uleb128 0x1
 3775 0fe4 50       		.byte	0x50
 3776 0fe5 02       		.uleb128 0x2
 3777 0fe6 08       		.byte	0x8
 3778 0fe7 64       		.byte	0x64
 3779 0fe8 1A       		.uleb128 0x1a
 3780 0fe9 01       		.uleb128 0x1
 3781 0fea 51       		.byte	0x51
 3782 0feb 02       		.uleb128 0x2
 3783 0fec 08       		.byte	0x8
 3784 0fed C3       		.byte	0xc3
 3785 0fee 1A       		.uleb128 0x1a
 3786 0fef 01       		.uleb128 0x1
 3787 0ff0 52       		.byte	0x52
 3788 0ff1 05       		.uleb128 0x5
 3789 0ff2 03       		.byte	0x3
 3790 0ff3 CC000000 		.4byte	.LC19
 3791 0ff7 1A       		.uleb128 0x1a
 3792 0ff8 01       		.uleb128 0x1
 3793 0ff9 53       		.byte	0x53
 3794 0ffa 01       		.uleb128 0x1
 3795 0ffb 30       		.byte	0x30
 3796 0ffc 1A       		.uleb128 0x1a
 3797 0ffd 02       		.uleb128 0x2
 3798 0ffe 7D       		.byte	0x7d
 3799 0fff 00       		.sleb128 0
 3800 1000 03       		.uleb128 0x3
 3801 1001 0A       		.byte	0xa
 3802 1002 00FF     		.2byte	0xff00
 3803 1004 00       		.byte	0
 3804 1005 00       		.byte	0
 3805 1006 1C       		.uleb128 0x1c
 3806 1007 9C020000 		.4byte	.LASF112
 3807 100b 01       		.byte	0x1
 3808 100c E1       		.byte	0xe1
 3809 100d 00000000 		.4byte	.LFB69
 3810 1011 D4000000 		.4byte	.LFE69-.LFB69
 3811 1015 01       		.uleb128 0x1
 3812 1016 9C       		.byte	0x9c
 3813 1017 C5100000 		.4byte	0x10c5
 3814 101b 1D       		.uleb128 0x1d
 3815 101c 1A030000 		.4byte	.LASF63
 3816 1020 01       		.byte	0x1
 3817 1021 E1       		.byte	0xe1
 3818 1022 FB000000 		.4byte	0xfb
 3819 1026 CA020000 		.4byte	.LLST7
ARM GAS  C:\Users\ANDREY~1\AppData\Local\Temp\ccuKrLyD.s 			page 74


 3820 102a 1E       		.uleb128 0x1e
 3821 102b 9C010000 		.4byte	.LASF106
 3822 102f 01       		.byte	0x1
 3823 1030 E5       		.byte	0xe5
 3824 1031 99030000 		.4byte	0x399
 3825 1035 F6020000 		.4byte	.LLST8
 3826 1039 20       		.uleb128 0x20
 3827 103a 08000000 		.4byte	.LASF107
 3828 103e 01       		.byte	0x1
 3829 103f F4       		.byte	0xf4
 3830 1040 C5100000 		.4byte	0x10c5
 3831 1044 02       		.uleb128 0x2
 3832 1045 91       		.byte	0x91
 3833 1046 68       		.sleb128 -24
 3834 1047 19       		.uleb128 0x19
 3835 1048 5C000000 		.4byte	.LVL96
 3836 104c 37140000 		.4byte	0x1437
 3837 1050 75100000 		.4byte	0x1075
 3838 1054 1A       		.uleb128 0x1a
 3839 1055 01       		.uleb128 0x1
 3840 1056 50       		.byte	0x50
 3841 1057 02       		.uleb128 0x2
 3842 1058 08       		.byte	0x8
 3843 1059 5F       		.byte	0x5f
 3844 105a 1A       		.uleb128 0x1a
 3845 105b 01       		.uleb128 0x1
 3846 105c 51       		.byte	0x51
 3847 105d 02       		.uleb128 0x2
 3848 105e 08       		.byte	0x8
 3849 105f E6       		.byte	0xe6
 3850 1060 1A       		.uleb128 0x1a
 3851 1061 01       		.uleb128 0x1
 3852 1062 52       		.byte	0x52
 3853 1063 02       		.uleb128 0x2
 3854 1064 08       		.byte	0x8
 3855 1065 B6       		.byte	0xb6
 3856 1066 1A       		.uleb128 0x1a
 3857 1067 01       		.uleb128 0x1
 3858 1068 53       		.byte	0x53
 3859 1069 03       		.uleb128 0x3
 3860 106a 0A       		.byte	0xa
 3861 106b 0401     		.2byte	0x104
 3862 106d 1A       		.uleb128 0x1a
 3863 106e 02       		.uleb128 0x2
 3864 106f 7D       		.byte	0x7d
 3865 1070 00       		.sleb128 0
 3866 1071 02       		.uleb128 0x2
 3867 1072 75       		.byte	0x75
 3868 1073 00       		.sleb128 0
 3869 1074 00       		.byte	0
 3870 1075 19       		.uleb128 0x19
 3871 1076 6A000000 		.4byte	.LVL97
 3872 107a 5A140000 		.4byte	0x145a
 3873 107e 9C100000 		.4byte	0x109c
 3874 1082 1A       		.uleb128 0x1a
 3875 1083 01       		.uleb128 0x1
 3876 1084 50       		.byte	0x50
ARM GAS  C:\Users\ANDREY~1\AppData\Local\Temp\ccuKrLyD.s 			page 75


 3877 1085 02       		.uleb128 0x2
 3878 1086 91       		.byte	0x91
 3879 1087 68       		.sleb128 -24
 3880 1088 1A       		.uleb128 0x1a
 3881 1089 01       		.uleb128 0x1
 3882 108a 51       		.byte	0x51
 3883 108b 05       		.uleb128 0x5
 3884 108c 03       		.byte	0x3
 3885 108d 44000000 		.4byte	.LC7
 3886 1091 1A       		.uleb128 0x1a
 3887 1092 01       		.uleb128 0x1
 3888 1093 52       		.byte	0x52
 3889 1094 06       		.uleb128 0x6
 3890 1095 74       		.byte	0x74
 3891 1096 00       		.sleb128 0
 3892 1097 0A       		.byte	0xa
 3893 1098 FFFF     		.2byte	0xffff
 3894 109a 1A       		.byte	0x1a
 3895 109b 00       		.byte	0
 3896 109c 1B       		.uleb128 0x1b
 3897 109d BC000000 		.4byte	.LVL98
 3898 10a1 65140000 		.4byte	0x1465
 3899 10a5 1A       		.uleb128 0x1a
 3900 10a6 01       		.uleb128 0x1
 3901 10a7 50       		.byte	0x50
 3902 10a8 02       		.uleb128 0x2
 3903 10a9 08       		.byte	0x8
 3904 10aa 64       		.byte	0x64
 3905 10ab 1A       		.uleb128 0x1a
 3906 10ac 01       		.uleb128 0x1
 3907 10ad 51       		.byte	0x51
 3908 10ae 02       		.uleb128 0x2
 3909 10af 08       		.byte	0x8
 3910 10b0 F0       		.byte	0xf0
 3911 10b1 1A       		.uleb128 0x1a
 3912 10b2 01       		.uleb128 0x1
 3913 10b3 52       		.byte	0x52
 3914 10b4 02       		.uleb128 0x2
 3915 10b5 91       		.byte	0x91
 3916 10b6 68       		.sleb128 -24
 3917 10b7 1A       		.uleb128 0x1a
 3918 10b8 01       		.uleb128 0x1
 3919 10b9 53       		.byte	0x53
 3920 10ba 01       		.uleb128 0x1
 3921 10bb 30       		.byte	0x30
 3922 10bc 1A       		.uleb128 0x1a
 3923 10bd 02       		.uleb128 0x2
 3924 10be 7D       		.byte	0x7d
 3925 10bf 00       		.sleb128 0
 3926 10c0 02       		.uleb128 0x2
 3927 10c1 75       		.byte	0x75
 3928 10c2 00       		.sleb128 0
 3929 10c3 00       		.byte	0
 3930 10c4 00       		.byte	0
 3931 10c5 16       		.uleb128 0x16
 3932 10c6 15010000 		.4byte	0x115
 3933 10ca D5100000 		.4byte	0x10d5
ARM GAS  C:\Users\ANDREY~1\AppData\Local\Temp\ccuKrLyD.s 			page 76


 3934 10ce 17       		.uleb128 0x17
 3935 10cf 23010000 		.4byte	0x123
 3936 10d3 06       		.byte	0x6
 3937 10d4 00       		.byte	0
 3938 10d5 22       		.uleb128 0x22
 3939 10d6 F1040000 		.4byte	.LASF113
 3940 10da 01       		.byte	0x1
 3941 10db 0701     		.2byte	0x107
 3942 10dd 00000000 		.4byte	.LFB70
 3943 10e1 88000000 		.4byte	.LFE70-.LFB70
 3944 10e5 01       		.uleb128 0x1
 3945 10e6 9C       		.byte	0x9c
 3946 10e7 28120000 		.4byte	0x1228
 3947 10eb 23       		.uleb128 0x23
 3948 10ec 1A030000 		.4byte	.LASF63
 3949 10f0 01       		.byte	0x1
 3950 10f1 0701     		.2byte	0x107
 3951 10f3 FB000000 		.4byte	0xfb
 3952 10f7 09030000 		.4byte	.LLST9
 3953 10fb 1F       		.uleb128 0x1f
 3954 10fc 0A000000 		.4byte	.LBB4
 3955 1100 3A000000 		.4byte	.LBE4-.LBB4
 3956 1104 93110000 		.4byte	0x1193
 3957 1108 24       		.uleb128 0x24
 3958 1109 08000000 		.4byte	.LASF107
 3959 110d 01       		.byte	0x1
 3960 110e 0B01     		.2byte	0x10b
 3961 1110 28120000 		.4byte	0x1228
 3962 1114 02       		.uleb128 0x2
 3963 1115 91       		.byte	0x91
 3964 1116 68       		.sleb128 -24
 3965 1117 19       		.uleb128 0x19
 3966 1118 20000000 		.4byte	.LVL102
 3967 111c 37140000 		.4byte	0x1437
 3968 1120 46110000 		.4byte	0x1146
 3969 1124 1A       		.uleb128 0x1a
 3970 1125 01       		.uleb128 0x1
 3971 1126 50       		.byte	0x50
 3972 1127 03       		.uleb128 0x3
 3973 1128 0A       		.byte	0xa
 3974 1129 9A01     		.2byte	0x19a
 3975 112b 1A       		.uleb128 0x1a
 3976 112c 01       		.uleb128 0x1
 3977 112d 51       		.byte	0x51
 3978 112e 02       		.uleb128 0x2
 3979 112f 08       		.byte	0x8
 3980 1130 B9       		.byte	0xb9
 3981 1131 1A       		.uleb128 0x1a
 3982 1132 01       		.uleb128 0x1
 3983 1133 52       		.byte	0x52
 3984 1134 03       		.uleb128 0x3
 3985 1135 0A       		.byte	0xa
 3986 1136 D601     		.2byte	0x1d6
 3987 1138 1A       		.uleb128 0x1a
 3988 1139 01       		.uleb128 0x1
 3989 113a 53       		.byte	0x53
 3990 113b 02       		.uleb128 0x2
ARM GAS  C:\Users\ANDREY~1\AppData\Local\Temp\ccuKrLyD.s 			page 77


 3991 113c 08       		.byte	0x8
 3992 113d D7       		.byte	0xd7
 3993 113e 1A       		.uleb128 0x1a
 3994 113f 02       		.uleb128 0x2
 3995 1140 7D       		.byte	0x7d
 3996 1141 00       		.sleb128 0
 3997 1142 02       		.uleb128 0x2
 3998 1143 75       		.byte	0x75
 3999 1144 00       		.sleb128 0
 4000 1145 00       		.byte	0
 4001 1146 19       		.uleb128 0x19
 4002 1147 2A000000 		.4byte	.LVL103
 4003 114b 5A140000 		.4byte	0x145a
 4004 114f 69110000 		.4byte	0x1169
 4005 1153 1A       		.uleb128 0x1a
 4006 1154 01       		.uleb128 0x1
 4007 1155 50       		.byte	0x50
 4008 1156 02       		.uleb128 0x2
 4009 1157 91       		.byte	0x91
 4010 1158 68       		.sleb128 -24
 4011 1159 1A       		.uleb128 0x1a
 4012 115a 01       		.uleb128 0x1
 4013 115b 51       		.byte	0x51
 4014 115c 05       		.uleb128 0x5
 4015 115d 03       		.byte	0x3
 4016 115e 44000000 		.4byte	.LC7
 4017 1162 1A       		.uleb128 0x1a
 4018 1163 01       		.uleb128 0x1
 4019 1164 52       		.byte	0x52
 4020 1165 02       		.uleb128 0x2
 4021 1166 74       		.byte	0x74
 4022 1167 00       		.sleb128 0
 4023 1168 00       		.byte	0
 4024 1169 1B       		.uleb128 0x1b
 4025 116a 44000000 		.4byte	.LVL104
 4026 116e 65140000 		.4byte	0x1465
 4027 1172 1A       		.uleb128 0x1a
 4028 1173 01       		.uleb128 0x1
 4029 1174 50       		.byte	0x50
 4030 1175 03       		.uleb128 0x3
 4031 1176 0A       		.byte	0xa
 4032 1177 9F01     		.2byte	0x19f
 4033 1179 1A       		.uleb128 0x1a
 4034 117a 01       		.uleb128 0x1
 4035 117b 51       		.byte	0x51
 4036 117c 02       		.uleb128 0x2
 4037 117d 08       		.byte	0x8
 4038 117e C3       		.byte	0xc3
 4039 117f 1A       		.uleb128 0x1a
 4040 1180 01       		.uleb128 0x1
 4041 1181 52       		.byte	0x52
 4042 1182 02       		.uleb128 0x2
 4043 1183 91       		.byte	0x91
 4044 1184 68       		.sleb128 -24
 4045 1185 1A       		.uleb128 0x1a
 4046 1186 01       		.uleb128 0x1
 4047 1187 53       		.byte	0x53
ARM GAS  C:\Users\ANDREY~1\AppData\Local\Temp\ccuKrLyD.s 			page 78


 4048 1188 01       		.uleb128 0x1
 4049 1189 30       		.byte	0x30
 4050 118a 1A       		.uleb128 0x1a
 4051 118b 02       		.uleb128 0x2
 4052 118c 7D       		.byte	0x7d
 4053 118d 00       		.sleb128 0
 4054 118e 02       		.uleb128 0x2
 4055 118f 75       		.byte	0x75
 4056 1190 00       		.sleb128 0
 4057 1191 00       		.byte	0
 4058 1192 00       		.byte	0
 4059 1193 25       		.uleb128 0x25
 4060 1194 46000000 		.4byte	.LBB5
 4061 1198 3A000000 		.4byte	.LBE5-.LBB5
 4062 119c 24       		.uleb128 0x24
 4063 119d 08000000 		.4byte	.LASF107
 4064 11a1 01       		.byte	0x1
 4065 11a2 1301     		.2byte	0x113
 4066 11a4 9E0A0000 		.4byte	0xa9e
 4067 11a8 02       		.uleb128 0x2
 4068 11a9 91       		.byte	0x91
 4069 11aa 68       		.sleb128 -24
 4070 11ab 19       		.uleb128 0x19
 4071 11ac 5C000000 		.4byte	.LVL107
 4072 11b0 37140000 		.4byte	0x1437
 4073 11b4 DA110000 		.4byte	0x11da
 4074 11b8 1A       		.uleb128 0x1a
 4075 11b9 01       		.uleb128 0x1
 4076 11ba 50       		.byte	0x50
 4077 11bb 03       		.uleb128 0x3
 4078 11bc 0A       		.byte	0xa
 4079 11bd 9A01     		.2byte	0x19a
 4080 11bf 1A       		.uleb128 0x1a
 4081 11c0 01       		.uleb128 0x1
 4082 11c1 51       		.byte	0x51
 4083 11c2 02       		.uleb128 0x2
 4084 11c3 08       		.byte	0x8
 4085 11c4 B9       		.byte	0xb9
 4086 11c5 1A       		.uleb128 0x1a
 4087 11c6 01       		.uleb128 0x1
 4088 11c7 52       		.byte	0x52
 4089 11c8 03       		.uleb128 0x3
 4090 11c9 0A       		.byte	0xa
 4091 11ca D601     		.2byte	0x1d6
 4092 11cc 1A       		.uleb128 0x1a
 4093 11cd 01       		.uleb128 0x1
 4094 11ce 53       		.byte	0x53
 4095 11cf 02       		.uleb128 0x2
 4096 11d0 08       		.byte	0x8
 4097 11d1 D7       		.byte	0xd7
 4098 11d2 1A       		.uleb128 0x1a
 4099 11d3 02       		.uleb128 0x2
 4100 11d4 7D       		.byte	0x7d
 4101 11d5 00       		.sleb128 0
 4102 11d6 02       		.uleb128 0x2
 4103 11d7 75       		.byte	0x75
 4104 11d8 00       		.sleb128 0
ARM GAS  C:\Users\ANDREY~1\AppData\Local\Temp\ccuKrLyD.s 			page 79


 4105 11d9 00       		.byte	0
 4106 11da 19       		.uleb128 0x19
 4107 11db 66000000 		.4byte	.LVL108
 4108 11df 5A140000 		.4byte	0x145a
 4109 11e3 FD110000 		.4byte	0x11fd
 4110 11e7 1A       		.uleb128 0x1a
 4111 11e8 01       		.uleb128 0x1
 4112 11e9 50       		.byte	0x50
 4113 11ea 02       		.uleb128 0x2
 4114 11eb 91       		.byte	0x91
 4115 11ec 68       		.sleb128 -24
 4116 11ed 1A       		.uleb128 0x1a
 4117 11ee 01       		.uleb128 0x1
 4118 11ef 51       		.byte	0x51
 4119 11f0 05       		.uleb128 0x5
 4120 11f1 03       		.byte	0x3
 4121 11f2 44000000 		.4byte	.LC7
 4122 11f6 1A       		.uleb128 0x1a
 4123 11f7 01       		.uleb128 0x1
 4124 11f8 52       		.byte	0x52
 4125 11f9 02       		.uleb128 0x2
 4126 11fa 74       		.byte	0x74
 4127 11fb 00       		.sleb128 0
 4128 11fc 00       		.byte	0
 4129 11fd 1B       		.uleb128 0x1b
 4130 11fe 80000000 		.4byte	.LVL109
 4131 1202 65140000 		.4byte	0x1465
 4132 1206 1A       		.uleb128 0x1a
 4133 1207 01       		.uleb128 0x1
 4134 1208 50       		.byte	0x50
 4135 1209 03       		.uleb128 0x3
 4136 120a 0A       		.byte	0xa
 4137 120b A601     		.2byte	0x1a6
 4138 120d 1A       		.uleb128 0x1a
 4139 120e 01       		.uleb128 0x1
 4140 120f 51       		.byte	0x51
 4141 1210 02       		.uleb128 0x2
 4142 1211 08       		.byte	0x8
 4143 1212 C3       		.byte	0xc3
 4144 1213 1A       		.uleb128 0x1a
 4145 1214 01       		.uleb128 0x1
 4146 1215 52       		.byte	0x52
 4147 1216 02       		.uleb128 0x2
 4148 1217 91       		.byte	0x91
 4149 1218 68       		.sleb128 -24
 4150 1219 1A       		.uleb128 0x1a
 4151 121a 01       		.uleb128 0x1
 4152 121b 53       		.byte	0x53
 4153 121c 01       		.uleb128 0x1
 4154 121d 30       		.byte	0x30
 4155 121e 1A       		.uleb128 0x1a
 4156 121f 02       		.uleb128 0x2
 4157 1220 7D       		.byte	0x7d
 4158 1221 00       		.sleb128 0
 4159 1222 02       		.uleb128 0x2
 4160 1223 75       		.byte	0x75
 4161 1224 00       		.sleb128 0
ARM GAS  C:\Users\ANDREY~1\AppData\Local\Temp\ccuKrLyD.s 			page 80


 4162 1225 00       		.byte	0
 4163 1226 00       		.byte	0
 4164 1227 00       		.byte	0
 4165 1228 16       		.uleb128 0x16
 4166 1229 15010000 		.4byte	0x115
 4167 122d 38120000 		.4byte	0x1238
 4168 1231 17       		.uleb128 0x17
 4169 1232 23010000 		.4byte	0x123
 4170 1236 04       		.byte	0x4
 4171 1237 00       		.byte	0
 4172 1238 22       		.uleb128 0x22
 4173 1239 95040000 		.4byte	.LASF114
 4174 123d 01       		.byte	0x1
 4175 123e 1B01     		.2byte	0x11b
 4176 1240 00000000 		.4byte	.LFB71
 4177 1244 8C000000 		.4byte	.LFE71-.LFB71
 4178 1248 01       		.uleb128 0x1
 4179 1249 9C       		.byte	0x9c
 4180 124a 8D130000 		.4byte	0x138d
 4181 124e 23       		.uleb128 0x23
 4182 124f 1A030000 		.4byte	.LASF63
 4183 1253 01       		.byte	0x1
 4184 1254 1B01     		.2byte	0x11b
 4185 1256 FB000000 		.4byte	0xfb
 4186 125a 43030000 		.4byte	.LLST10
 4187 125e 1F       		.uleb128 0x1f
 4188 125f 0A000000 		.4byte	.LBB6
 4189 1263 3C000000 		.4byte	.LBE6-.LBB6
 4190 1267 F7120000 		.4byte	0x12f7
 4191 126b 24       		.uleb128 0x24
 4192 126c 08000000 		.4byte	.LASF107
 4193 1270 01       		.byte	0x1
 4194 1271 1F01     		.2byte	0x11f
 4195 1273 28120000 		.4byte	0x1228
 4196 1277 02       		.uleb128 0x2
 4197 1278 91       		.byte	0x91
 4198 1279 68       		.sleb128 -24
 4199 127a 19       		.uleb128 0x19
 4200 127b 22000000 		.4byte	.LVL112
 4201 127f 37140000 		.4byte	0x1437
 4202 1283 AA120000 		.4byte	0x12aa
 4203 1287 1A       		.uleb128 0x1a
 4204 1288 01       		.uleb128 0x1
 4205 1289 50       		.byte	0x50
 4206 128a 03       		.uleb128 0x3
 4207 128b 0A       		.byte	0xa
 4208 128c 9A01     		.2byte	0x19a
 4209 128e 1A       		.uleb128 0x1a
 4210 128f 01       		.uleb128 0x1
 4211 1290 51       		.byte	0x51
 4212 1291 02       		.uleb128 0x2
 4213 1292 08       		.byte	0x8
 4214 1293 E6       		.byte	0xe6
 4215 1294 1A       		.uleb128 0x1a
 4216 1295 01       		.uleb128 0x1
 4217 1296 52       		.byte	0x52
 4218 1297 03       		.uleb128 0x3
ARM GAS  C:\Users\ANDREY~1\AppData\Local\Temp\ccuKrLyD.s 			page 81


 4219 1298 0A       		.byte	0xa
 4220 1299 D601     		.2byte	0x1d6
 4221 129b 1A       		.uleb128 0x1a
 4222 129c 01       		.uleb128 0x1
 4223 129d 53       		.byte	0x53
 4224 129e 03       		.uleb128 0x3
 4225 129f 0A       		.byte	0xa
 4226 12a0 0401     		.2byte	0x104
 4227 12a2 1A       		.uleb128 0x1a
 4228 12a3 02       		.uleb128 0x2
 4229 12a4 7D       		.byte	0x7d
 4230 12a5 00       		.sleb128 0
 4231 12a6 02       		.uleb128 0x2
 4232 12a7 75       		.byte	0x75
 4233 12a8 00       		.sleb128 0
 4234 12a9 00       		.byte	0
 4235 12aa 19       		.uleb128 0x19
 4236 12ab 2C000000 		.4byte	.LVL113
 4237 12af 5A140000 		.4byte	0x145a
 4238 12b3 CD120000 		.4byte	0x12cd
 4239 12b7 1A       		.uleb128 0x1a
 4240 12b8 01       		.uleb128 0x1
 4241 12b9 50       		.byte	0x50
 4242 12ba 02       		.uleb128 0x2
 4243 12bb 91       		.byte	0x91
 4244 12bc 68       		.sleb128 -24
 4245 12bd 1A       		.uleb128 0x1a
 4246 12be 01       		.uleb128 0x1
 4247 12bf 51       		.byte	0x51
 4248 12c0 05       		.uleb128 0x5
 4249 12c1 03       		.byte	0x3
 4250 12c2 44000000 		.4byte	.LC7
 4251 12c6 1A       		.uleb128 0x1a
 4252 12c7 01       		.uleb128 0x1
 4253 12c8 52       		.byte	0x52
 4254 12c9 02       		.uleb128 0x2
 4255 12ca 74       		.byte	0x74
 4256 12cb 00       		.sleb128 0
 4257 12cc 00       		.byte	0
 4258 12cd 1B       		.uleb128 0x1b
 4259 12ce 46000000 		.4byte	.LVL114
 4260 12d2 65140000 		.4byte	0x1465
 4261 12d6 1A       		.uleb128 0x1a
 4262 12d7 01       		.uleb128 0x1
 4263 12d8 50       		.byte	0x50
 4264 12d9 03       		.uleb128 0x3
 4265 12da 0A       		.byte	0xa
 4266 12db 9F01     		.2byte	0x19f
 4267 12dd 1A       		.uleb128 0x1a
 4268 12de 01       		.uleb128 0x1
 4269 12df 51       		.byte	0x51
 4270 12e0 02       		.uleb128 0x2
 4271 12e1 08       		.byte	0x8
 4272 12e2 F0       		.byte	0xf0
 4273 12e3 1A       		.uleb128 0x1a
 4274 12e4 01       		.uleb128 0x1
 4275 12e5 52       		.byte	0x52
ARM GAS  C:\Users\ANDREY~1\AppData\Local\Temp\ccuKrLyD.s 			page 82


 4276 12e6 02       		.uleb128 0x2
 4277 12e7 91       		.byte	0x91
 4278 12e8 68       		.sleb128 -24
 4279 12e9 1A       		.uleb128 0x1a
 4280 12ea 01       		.uleb128 0x1
 4281 12eb 53       		.byte	0x53
 4282 12ec 01       		.uleb128 0x1
 4283 12ed 30       		.byte	0x30
 4284 12ee 1A       		.uleb128 0x1a
 4285 12ef 02       		.uleb128 0x2
 4286 12f0 7D       		.byte	0x7d
 4287 12f1 00       		.sleb128 0
 4288 12f2 02       		.uleb128 0x2
 4289 12f3 75       		.byte	0x75
 4290 12f4 00       		.sleb128 0
 4291 12f5 00       		.byte	0
 4292 12f6 00       		.byte	0
 4293 12f7 25       		.uleb128 0x25
 4294 12f8 48000000 		.4byte	.LBB7
 4295 12fc 3C000000 		.4byte	.LBE7-.LBB7
 4296 1300 24       		.uleb128 0x24
 4297 1301 08000000 		.4byte	.LASF107
 4298 1305 01       		.byte	0x1
 4299 1306 2701     		.2byte	0x127
 4300 1308 9E0A0000 		.4byte	0xa9e
 4301 130c 02       		.uleb128 0x2
 4302 130d 91       		.byte	0x91
 4303 130e 68       		.sleb128 -24
 4304 130f 19       		.uleb128 0x19
 4305 1310 60000000 		.4byte	.LVL117
 4306 1314 37140000 		.4byte	0x1437
 4307 1318 3F130000 		.4byte	0x133f
 4308 131c 1A       		.uleb128 0x1a
 4309 131d 01       		.uleb128 0x1
 4310 131e 50       		.byte	0x50
 4311 131f 03       		.uleb128 0x3
 4312 1320 0A       		.byte	0xa
 4313 1321 9A01     		.2byte	0x19a
 4314 1323 1A       		.uleb128 0x1a
 4315 1324 01       		.uleb128 0x1
 4316 1325 51       		.byte	0x51
 4317 1326 02       		.uleb128 0x2
 4318 1327 08       		.byte	0x8
 4319 1328 E6       		.byte	0xe6
 4320 1329 1A       		.uleb128 0x1a
 4321 132a 01       		.uleb128 0x1
 4322 132b 52       		.byte	0x52
 4323 132c 03       		.uleb128 0x3
 4324 132d 0A       		.byte	0xa
 4325 132e D601     		.2byte	0x1d6
 4326 1330 1A       		.uleb128 0x1a
 4327 1331 01       		.uleb128 0x1
 4328 1332 53       		.byte	0x53
 4329 1333 03       		.uleb128 0x3
 4330 1334 0A       		.byte	0xa
 4331 1335 0401     		.2byte	0x104
 4332 1337 1A       		.uleb128 0x1a
ARM GAS  C:\Users\ANDREY~1\AppData\Local\Temp\ccuKrLyD.s 			page 83


 4333 1338 02       		.uleb128 0x2
 4334 1339 7D       		.byte	0x7d
 4335 133a 00       		.sleb128 0
 4336 133b 02       		.uleb128 0x2
 4337 133c 75       		.byte	0x75
 4338 133d 00       		.sleb128 0
 4339 133e 00       		.byte	0
 4340 133f 19       		.uleb128 0x19
 4341 1340 6A000000 		.4byte	.LVL118
 4342 1344 5A140000 		.4byte	0x145a
 4343 1348 62130000 		.4byte	0x1362
 4344 134c 1A       		.uleb128 0x1a
 4345 134d 01       		.uleb128 0x1
 4346 134e 50       		.byte	0x50
 4347 134f 02       		.uleb128 0x2
 4348 1350 91       		.byte	0x91
 4349 1351 68       		.sleb128 -24
 4350 1352 1A       		.uleb128 0x1a
 4351 1353 01       		.uleb128 0x1
 4352 1354 51       		.byte	0x51
 4353 1355 05       		.uleb128 0x5
 4354 1356 03       		.byte	0x3
 4355 1357 44000000 		.4byte	.LC7
 4356 135b 1A       		.uleb128 0x1a
 4357 135c 01       		.uleb128 0x1
 4358 135d 52       		.byte	0x52
 4359 135e 02       		.uleb128 0x2
 4360 135f 74       		.byte	0x74
 4361 1360 00       		.sleb128 0
 4362 1361 00       		.byte	0
 4363 1362 1B       		.uleb128 0x1b
 4364 1363 84000000 		.4byte	.LVL119
 4365 1367 65140000 		.4byte	0x1465
 4366 136b 1A       		.uleb128 0x1a
 4367 136c 01       		.uleb128 0x1
 4368 136d 50       		.byte	0x50
 4369 136e 03       		.uleb128 0x3
 4370 136f 0A       		.byte	0xa
 4371 1370 A601     		.2byte	0x1a6
 4372 1372 1A       		.uleb128 0x1a
 4373 1373 01       		.uleb128 0x1
 4374 1374 51       		.byte	0x51
 4375 1375 02       		.uleb128 0x2
 4376 1376 08       		.byte	0x8
 4377 1377 F0       		.byte	0xf0
 4378 1378 1A       		.uleb128 0x1a
 4379 1379 01       		.uleb128 0x1
 4380 137a 52       		.byte	0x52
 4381 137b 02       		.uleb128 0x2
 4382 137c 91       		.byte	0x91
 4383 137d 68       		.sleb128 -24
 4384 137e 1A       		.uleb128 0x1a
 4385 137f 01       		.uleb128 0x1
 4386 1380 53       		.byte	0x53
 4387 1381 01       		.uleb128 0x1
 4388 1382 30       		.byte	0x30
 4389 1383 1A       		.uleb128 0x1a
ARM GAS  C:\Users\ANDREY~1\AppData\Local\Temp\ccuKrLyD.s 			page 84


 4390 1384 02       		.uleb128 0x2
 4391 1385 7D       		.byte	0x7d
 4392 1386 00       		.sleb128 0
 4393 1387 02       		.uleb128 0x2
 4394 1388 75       		.byte	0x75
 4395 1389 00       		.sleb128 0
 4396 138a 00       		.byte	0
 4397 138b 00       		.byte	0
 4398 138c 00       		.byte	0
 4399 138d 26       		.uleb128 0x26
 4400 138e 88040000 		.4byte	.LASF115
 4401 1392 08       		.byte	0x8
 4402 1393 5506     		.2byte	0x655
 4403 1395 99130000 		.4byte	0x1399
 4404 1399 27       		.uleb128 0x27
 4405 139a D9000000 		.4byte	0xd9
 4406 139e 28       		.uleb128 0x28
 4407 139f 32010000 		.4byte	.LASF116
 4408 13a3 07       		.byte	0x7
 4409 13a4 51       		.byte	0x51
 4410 13a5 EA030000 		.4byte	0x3ea
 4411 13a9 28       		.uleb128 0x28
 4412 13aa FE040000 		.4byte	.LASF117
 4413 13ae 07       		.byte	0x7
 4414 13af 60       		.byte	0x60
 4415 13b0 EA030000 		.4byte	0x3ea
 4416 13b4 29       		.uleb128 0x29
 4417 13b5 2D040000 		.4byte	.LASF118
 4418 13b9 09       		.byte	0x9
 4419 13ba 33       		.byte	0x33
 4420 13bb EA060000 		.4byte	0x6ea
 4421 13bf 05       		.uleb128 0x5
 4422 13c0 03       		.byte	0x3
 4423 13c1 00000000 		.4byte	gui1963
 4424 13c5 29       		.uleb128 0x29
 4425 13c6 62020000 		.4byte	.LASF119
 4426 13ca 0A       		.byte	0xa
 4427 13cb 0F       		.byte	0xf
 4428 13cc 99030000 		.4byte	0x399
 4429 13d0 05       		.uleb128 0x5
 4430 13d1 03       		.byte	0x3
 4431 13d2 00000000 		.4byte	last_SOC_color
 4432 13d6 29       		.uleb128 0x29
 4433 13d7 4E030000 		.4byte	.LASF120
 4434 13db 0A       		.byte	0xa
 4435 13dc 10       		.byte	0x10
 4436 13dd 99030000 		.4byte	0x399
 4437 13e1 05       		.uleb128 0x5
 4438 13e2 03       		.byte	0x3
 4439 13e3 00000000 		.4byte	last_max_pack_temp_color
 4440 13e7 29       		.uleb128 0x29
 4441 13e8 64040000 		.4byte	.LASF121
 4442 13ec 0A       		.byte	0xa
 4443 13ed 11       		.byte	0x11
 4444 13ee 99030000 		.4byte	0x399
 4445 13f2 05       		.uleb128 0x5
 4446 13f3 03       		.byte	0x3
ARM GAS  C:\Users\ANDREY~1\AppData\Local\Temp\ccuKrLyD.s 			page 85


 4447 13f4 00000000 		.4byte	last_state_color
 4448 13f8 29       		.uleb128 0x29
 4449 13f9 24050000 		.4byte	.LASF122
 4450 13fd 0A       		.byte	0xa
 4451 13fe 12       		.byte	0x12
 4452 13ff 99030000 		.4byte	0x399
 4453 1403 05       		.uleb128 0x5
 4454 1404 03       		.byte	0x3
 4455 1405 00000000 		.4byte	last_glv_v_color
 4456 1409 29       		.uleb128 0x29
 4457 140a 7A050000 		.4byte	.LASF123
 4458 140e 0A       		.byte	0xa
 4459 140f 13       		.byte	0x13
 4460 1410 99030000 		.4byte	0x399
 4461 1414 05       		.uleb128 0x5
 4462 1415 03       		.byte	0x3
 4463 1416 00000000 		.4byte	last_mc_temp_color
 4464 141a 29       		.uleb128 0x29
 4465 141b A7020000 		.4byte	.LASF124
 4466 141f 0A       		.byte	0xa
 4467 1420 14       		.byte	0x14
 4468 1421 99030000 		.4byte	0x399
 4469 1425 05       		.uleb128 0x5
 4470 1426 03       		.byte	0x3
 4471 1427 00000000 		.4byte	last_motor_temp_color
 4472 142b 2A       		.uleb128 0x2a
 4473 142c 54020000 		.4byte	.LASF125
 4474 1430 54020000 		.4byte	.LASF125
 4475 1434 07       		.byte	0x7
 4476 1435 EC02     		.2byte	0x2ec
 4477 1437 2A       		.uleb128 0x2a
 4478 1438 BE000000 		.4byte	.LASF126
 4479 143c BE000000 		.4byte	.LASF126
 4480 1440 07       		.byte	0x7
 4481 1441 ED02     		.2byte	0x2ed
 4482 1443 2B       		.uleb128 0x2b
 4483 1444 00000000 		.4byte	.LASF127
 4484 1448 00000000 		.4byte	.LASF127
 4485 144c 0B       		.byte	0xb
 4486 144d 77       		.byte	0x77
 4487 144e 2A       		.uleb128 0x2a
 4488 144f C3030000 		.4byte	.LASF128
 4489 1453 C3030000 		.4byte	.LASF128
 4490 1457 07       		.byte	0x7
 4491 1458 F702     		.2byte	0x2f7
 4492 145a 2B       		.uleb128 0x2b
 4493 145b 99030000 		.4byte	.LASF129
 4494 145f 99030000 		.4byte	.LASF129
 4495 1463 0C       		.byte	0xc
 4496 1464 E7       		.byte	0xe7
 4497 1465 2A       		.uleb128 0x2a
 4498 1466 30020000 		.4byte	.LASF130
 4499 146a 30020000 		.4byte	.LASF130
 4500 146e 07       		.byte	0x7
 4501 146f F802     		.2byte	0x2f8
 4502 1471 2A       		.uleb128 0x2a
 4503 1472 F4050000 		.4byte	.LASF131
ARM GAS  C:\Users\ANDREY~1\AppData\Local\Temp\ccuKrLyD.s 			page 86


 4504 1476 F4050000 		.4byte	.LASF131
 4505 147a 07       		.byte	0x7
 4506 147b EB02     		.2byte	0x2eb
 4507 147d 00       		.byte	0
 4508              		.section	.debug_abbrev,"",%progbits
 4509              	.Ldebug_abbrev0:
 4510 0000 01       		.uleb128 0x1
 4511 0001 11       		.uleb128 0x11
 4512 0002 01       		.byte	0x1
 4513 0003 25       		.uleb128 0x25
 4514 0004 0E       		.uleb128 0xe
 4515 0005 13       		.uleb128 0x13
 4516 0006 0B       		.uleb128 0xb
 4517 0007 03       		.uleb128 0x3
 4518 0008 0E       		.uleb128 0xe
 4519 0009 1B       		.uleb128 0x1b
 4520 000a 0E       		.uleb128 0xe
 4521 000b 55       		.uleb128 0x55
 4522 000c 17       		.uleb128 0x17
 4523 000d 11       		.uleb128 0x11
 4524 000e 01       		.uleb128 0x1
 4525 000f 10       		.uleb128 0x10
 4526 0010 17       		.uleb128 0x17
 4527 0011 00       		.byte	0
 4528 0012 00       		.byte	0
 4529 0013 02       		.uleb128 0x2
 4530 0014 16       		.uleb128 0x16
 4531 0015 00       		.byte	0
 4532 0016 03       		.uleb128 0x3
 4533 0017 0E       		.uleb128 0xe
 4534 0018 3A       		.uleb128 0x3a
 4535 0019 0B       		.uleb128 0xb
 4536 001a 3B       		.uleb128 0x3b
 4537 001b 0B       		.uleb128 0xb
 4538 001c 49       		.uleb128 0x49
 4539 001d 13       		.uleb128 0x13
 4540 001e 00       		.byte	0
 4541 001f 00       		.byte	0
 4542 0020 03       		.uleb128 0x3
 4543 0021 24       		.uleb128 0x24
 4544 0022 00       		.byte	0
 4545 0023 0B       		.uleb128 0xb
 4546 0024 0B       		.uleb128 0xb
 4547 0025 3E       		.uleb128 0x3e
 4548 0026 0B       		.uleb128 0xb
 4549 0027 03       		.uleb128 0x3
 4550 0028 0E       		.uleb128 0xe
 4551 0029 00       		.byte	0
 4552 002a 00       		.byte	0
 4553 002b 04       		.uleb128 0x4
 4554 002c 24       		.uleb128 0x24
 4555 002d 00       		.byte	0
 4556 002e 0B       		.uleb128 0xb
 4557 002f 0B       		.uleb128 0xb
 4558 0030 3E       		.uleb128 0x3e
 4559 0031 0B       		.uleb128 0xb
 4560 0032 03       		.uleb128 0x3
ARM GAS  C:\Users\ANDREY~1\AppData\Local\Temp\ccuKrLyD.s 			page 87


 4561 0033 08       		.uleb128 0x8
 4562 0034 00       		.byte	0
 4563 0035 00       		.byte	0
 4564 0036 05       		.uleb128 0x5
 4565 0037 16       		.uleb128 0x16
 4566 0038 00       		.byte	0
 4567 0039 03       		.uleb128 0x3
 4568 003a 0E       		.uleb128 0xe
 4569 003b 3A       		.uleb128 0x3a
 4570 003c 0B       		.uleb128 0xb
 4571 003d 3B       		.uleb128 0x3b
 4572 003e 05       		.uleb128 0x5
 4573 003f 49       		.uleb128 0x49
 4574 0040 13       		.uleb128 0x13
 4575 0041 00       		.byte	0
 4576 0042 00       		.byte	0
 4577 0043 06       		.uleb128 0x6
 4578 0044 0F       		.uleb128 0xf
 4579 0045 00       		.byte	0
 4580 0046 0B       		.uleb128 0xb
 4581 0047 0B       		.uleb128 0xb
 4582 0048 00       		.byte	0
 4583 0049 00       		.byte	0
 4584 004a 07       		.uleb128 0x7
 4585 004b 0F       		.uleb128 0xf
 4586 004c 00       		.byte	0
 4587 004d 0B       		.uleb128 0xb
 4588 004e 0B       		.uleb128 0xb
 4589 004f 49       		.uleb128 0x49
 4590 0050 13       		.uleb128 0x13
 4591 0051 00       		.byte	0
 4592 0052 00       		.byte	0
 4593 0053 08       		.uleb128 0x8
 4594 0054 04       		.uleb128 0x4
 4595 0055 01       		.byte	0x1
 4596 0056 0B       		.uleb128 0xb
 4597 0057 0B       		.uleb128 0xb
 4598 0058 49       		.uleb128 0x49
 4599 0059 13       		.uleb128 0x13
 4600 005a 3A       		.uleb128 0x3a
 4601 005b 0B       		.uleb128 0xb
 4602 005c 3B       		.uleb128 0x3b
 4603 005d 0B       		.uleb128 0xb
 4604 005e 01       		.uleb128 0x1
 4605 005f 13       		.uleb128 0x13
 4606 0060 00       		.byte	0
 4607 0061 00       		.byte	0
 4608 0062 09       		.uleb128 0x9
 4609 0063 28       		.uleb128 0x28
 4610 0064 00       		.byte	0
 4611 0065 03       		.uleb128 0x3
 4612 0066 08       		.uleb128 0x8
 4613 0067 1C       		.uleb128 0x1c
 4614 0068 0B       		.uleb128 0xb
 4615 0069 00       		.byte	0
 4616 006a 00       		.byte	0
 4617 006b 0A       		.uleb128 0xa
ARM GAS  C:\Users\ANDREY~1\AppData\Local\Temp\ccuKrLyD.s 			page 88


 4618 006c 28       		.uleb128 0x28
 4619 006d 00       		.byte	0
 4620 006e 03       		.uleb128 0x3
 4621 006f 0E       		.uleb128 0xe
 4622 0070 1C       		.uleb128 0x1c
 4623 0071 0B       		.uleb128 0xb
 4624 0072 00       		.byte	0
 4625 0073 00       		.byte	0
 4626 0074 0B       		.uleb128 0xb
 4627 0075 13       		.uleb128 0x13
 4628 0076 01       		.byte	0x1
 4629 0077 0B       		.uleb128 0xb
 4630 0078 0B       		.uleb128 0xb
 4631 0079 3A       		.uleb128 0x3a
 4632 007a 0B       		.uleb128 0xb
 4633 007b 3B       		.uleb128 0x3b
 4634 007c 0B       		.uleb128 0xb
 4635 007d 01       		.uleb128 0x1
 4636 007e 13       		.uleb128 0x13
 4637 007f 00       		.byte	0
 4638 0080 00       		.byte	0
 4639 0081 0C       		.uleb128 0xc
 4640 0082 0D       		.uleb128 0xd
 4641 0083 00       		.byte	0
 4642 0084 03       		.uleb128 0x3
 4643 0085 08       		.uleb128 0x8
 4644 0086 3A       		.uleb128 0x3a
 4645 0087 0B       		.uleb128 0xb
 4646 0088 3B       		.uleb128 0x3b
 4647 0089 0B       		.uleb128 0xb
 4648 008a 49       		.uleb128 0x49
 4649 008b 13       		.uleb128 0x13
 4650 008c 38       		.uleb128 0x38
 4651 008d 0B       		.uleb128 0xb
 4652 008e 00       		.byte	0
 4653 008f 00       		.byte	0
 4654 0090 0D       		.uleb128 0xd
 4655 0091 0D       		.uleb128 0xd
 4656 0092 00       		.byte	0
 4657 0093 03       		.uleb128 0x3
 4658 0094 0E       		.uleb128 0xe
 4659 0095 3A       		.uleb128 0x3a
 4660 0096 0B       		.uleb128 0xb
 4661 0097 3B       		.uleb128 0x3b
 4662 0098 0B       		.uleb128 0xb
 4663 0099 49       		.uleb128 0x49
 4664 009a 13       		.uleb128 0x13
 4665 009b 38       		.uleb128 0x38
 4666 009c 0B       		.uleb128 0xb
 4667 009d 00       		.byte	0
 4668 009e 00       		.byte	0
 4669 009f 0E       		.uleb128 0xe
 4670 00a0 13       		.uleb128 0x13
 4671 00a1 01       		.byte	0x1
 4672 00a2 03       		.uleb128 0x3
 4673 00a3 0E       		.uleb128 0xe
 4674 00a4 0B       		.uleb128 0xb
ARM GAS  C:\Users\ANDREY~1\AppData\Local\Temp\ccuKrLyD.s 			page 89


 4675 00a5 0B       		.uleb128 0xb
 4676 00a6 3A       		.uleb128 0x3a
 4677 00a7 0B       		.uleb128 0xb
 4678 00a8 3B       		.uleb128 0x3b
 4679 00a9 0B       		.uleb128 0xb
 4680 00aa 01       		.uleb128 0x1
 4681 00ab 13       		.uleb128 0x13
 4682 00ac 00       		.byte	0
 4683 00ad 00       		.byte	0
 4684 00ae 0F       		.uleb128 0xf
 4685 00af 0D       		.uleb128 0xd
 4686 00b0 00       		.byte	0
 4687 00b1 03       		.uleb128 0x3
 4688 00b2 0E       		.uleb128 0xe
 4689 00b3 3A       		.uleb128 0x3a
 4690 00b4 0B       		.uleb128 0xb
 4691 00b5 3B       		.uleb128 0x3b
 4692 00b6 05       		.uleb128 0x5
 4693 00b7 49       		.uleb128 0x49
 4694 00b8 13       		.uleb128 0x13
 4695 00b9 38       		.uleb128 0x38
 4696 00ba 0B       		.uleb128 0xb
 4697 00bb 00       		.byte	0
 4698 00bc 00       		.byte	0
 4699 00bd 10       		.uleb128 0x10
 4700 00be 13       		.uleb128 0x13
 4701 00bf 01       		.byte	0x1
 4702 00c0 03       		.uleb128 0x3
 4703 00c1 0E       		.uleb128 0xe
 4704 00c2 0B       		.uleb128 0xb
 4705 00c3 0B       		.uleb128 0xb
 4706 00c4 3A       		.uleb128 0x3a
 4707 00c5 0B       		.uleb128 0xb
 4708 00c6 3B       		.uleb128 0x3b
 4709 00c7 05       		.uleb128 0x5
 4710 00c8 01       		.uleb128 0x1
 4711 00c9 13       		.uleb128 0x13
 4712 00ca 00       		.byte	0
 4713 00cb 00       		.byte	0
 4714 00cc 11       		.uleb128 0x11
 4715 00cd 0D       		.uleb128 0xd
 4716 00ce 00       		.byte	0
 4717 00cf 03       		.uleb128 0x3
 4718 00d0 08       		.uleb128 0x8
 4719 00d1 3A       		.uleb128 0x3a
 4720 00d2 0B       		.uleb128 0xb
 4721 00d3 3B       		.uleb128 0x3b
 4722 00d4 05       		.uleb128 0x5
 4723 00d5 49       		.uleb128 0x49
 4724 00d6 13       		.uleb128 0x13
 4725 00d7 38       		.uleb128 0x38
 4726 00d8 0B       		.uleb128 0xb
 4727 00d9 00       		.byte	0
 4728 00da 00       		.byte	0
 4729 00db 12       		.uleb128 0x12
 4730 00dc 26       		.uleb128 0x26
 4731 00dd 00       		.byte	0
ARM GAS  C:\Users\ANDREY~1\AppData\Local\Temp\ccuKrLyD.s 			page 90


 4732 00de 49       		.uleb128 0x49
 4733 00df 13       		.uleb128 0x13
 4734 00e0 00       		.byte	0
 4735 00e1 00       		.byte	0
 4736 00e2 13       		.uleb128 0x13
 4737 00e3 15       		.uleb128 0x15
 4738 00e4 01       		.byte	0x1
 4739 00e5 27       		.uleb128 0x27
 4740 00e6 19       		.uleb128 0x19
 4741 00e7 01       		.uleb128 0x1
 4742 00e8 13       		.uleb128 0x13
 4743 00e9 00       		.byte	0
 4744 00ea 00       		.byte	0
 4745 00eb 14       		.uleb128 0x14
 4746 00ec 05       		.uleb128 0x5
 4747 00ed 00       		.byte	0
 4748 00ee 49       		.uleb128 0x49
 4749 00ef 13       		.uleb128 0x13
 4750 00f0 00       		.byte	0
 4751 00f1 00       		.byte	0
 4752 00f2 15       		.uleb128 0x15
 4753 00f3 13       		.uleb128 0x13
 4754 00f4 01       		.byte	0x1
 4755 00f5 0B       		.uleb128 0xb
 4756 00f6 0B       		.uleb128 0xb
 4757 00f7 3A       		.uleb128 0x3a
 4758 00f8 0B       		.uleb128 0xb
 4759 00f9 3B       		.uleb128 0x3b
 4760 00fa 05       		.uleb128 0x5
 4761 00fb 01       		.uleb128 0x1
 4762 00fc 13       		.uleb128 0x13
 4763 00fd 00       		.byte	0
 4764 00fe 00       		.byte	0
 4765 00ff 16       		.uleb128 0x16
 4766 0100 01       		.uleb128 0x1
 4767 0101 01       		.byte	0x1
 4768 0102 49       		.uleb128 0x49
 4769 0103 13       		.uleb128 0x13
 4770 0104 01       		.uleb128 0x1
 4771 0105 13       		.uleb128 0x13
 4772 0106 00       		.byte	0
 4773 0107 00       		.byte	0
 4774 0108 17       		.uleb128 0x17
 4775 0109 21       		.uleb128 0x21
 4776 010a 00       		.byte	0
 4777 010b 49       		.uleb128 0x49
 4778 010c 13       		.uleb128 0x13
 4779 010d 2F       		.uleb128 0x2f
 4780 010e 0B       		.uleb128 0xb
 4781 010f 00       		.byte	0
 4782 0110 00       		.byte	0
 4783 0111 18       		.uleb128 0x18
 4784 0112 2E       		.uleb128 0x2e
 4785 0113 01       		.byte	0x1
 4786 0114 3F       		.uleb128 0x3f
 4787 0115 19       		.uleb128 0x19
 4788 0116 03       		.uleb128 0x3
ARM GAS  C:\Users\ANDREY~1\AppData\Local\Temp\ccuKrLyD.s 			page 91


 4789 0117 0E       		.uleb128 0xe
 4790 0118 3A       		.uleb128 0x3a
 4791 0119 0B       		.uleb128 0xb
 4792 011a 3B       		.uleb128 0x3b
 4793 011b 0B       		.uleb128 0xb
 4794 011c 11       		.uleb128 0x11
 4795 011d 01       		.uleb128 0x1
 4796 011e 12       		.uleb128 0x12
 4797 011f 06       		.uleb128 0x6
 4798 0120 40       		.uleb128 0x40
 4799 0121 18       		.uleb128 0x18
 4800 0122 9742     		.uleb128 0x2117
 4801 0124 19       		.uleb128 0x19
 4802 0125 01       		.uleb128 0x1
 4803 0126 13       		.uleb128 0x13
 4804 0127 00       		.byte	0
 4805 0128 00       		.byte	0
 4806 0129 19       		.uleb128 0x19
 4807 012a 898201   		.uleb128 0x4109
 4808 012d 01       		.byte	0x1
 4809 012e 11       		.uleb128 0x11
 4810 012f 01       		.uleb128 0x1
 4811 0130 31       		.uleb128 0x31
 4812 0131 13       		.uleb128 0x13
 4813 0132 01       		.uleb128 0x1
 4814 0133 13       		.uleb128 0x13
 4815 0134 00       		.byte	0
 4816 0135 00       		.byte	0
 4817 0136 1A       		.uleb128 0x1a
 4818 0137 8A8201   		.uleb128 0x410a
 4819 013a 00       		.byte	0
 4820 013b 02       		.uleb128 0x2
 4821 013c 18       		.uleb128 0x18
 4822 013d 9142     		.uleb128 0x2111
 4823 013f 18       		.uleb128 0x18
 4824 0140 00       		.byte	0
 4825 0141 00       		.byte	0
 4826 0142 1B       		.uleb128 0x1b
 4827 0143 898201   		.uleb128 0x4109
 4828 0146 01       		.byte	0x1
 4829 0147 11       		.uleb128 0x11
 4830 0148 01       		.uleb128 0x1
 4831 0149 31       		.uleb128 0x31
 4832 014a 13       		.uleb128 0x13
 4833 014b 00       		.byte	0
 4834 014c 00       		.byte	0
 4835 014d 1C       		.uleb128 0x1c
 4836 014e 2E       		.uleb128 0x2e
 4837 014f 01       		.byte	0x1
 4838 0150 3F       		.uleb128 0x3f
 4839 0151 19       		.uleb128 0x19
 4840 0152 03       		.uleb128 0x3
 4841 0153 0E       		.uleb128 0xe
 4842 0154 3A       		.uleb128 0x3a
 4843 0155 0B       		.uleb128 0xb
 4844 0156 3B       		.uleb128 0x3b
 4845 0157 0B       		.uleb128 0xb
ARM GAS  C:\Users\ANDREY~1\AppData\Local\Temp\ccuKrLyD.s 			page 92


 4846 0158 27       		.uleb128 0x27
 4847 0159 19       		.uleb128 0x19
 4848 015a 11       		.uleb128 0x11
 4849 015b 01       		.uleb128 0x1
 4850 015c 12       		.uleb128 0x12
 4851 015d 06       		.uleb128 0x6
 4852 015e 40       		.uleb128 0x40
 4853 015f 18       		.uleb128 0x18
 4854 0160 9742     		.uleb128 0x2117
 4855 0162 19       		.uleb128 0x19
 4856 0163 01       		.uleb128 0x1
 4857 0164 13       		.uleb128 0x13
 4858 0165 00       		.byte	0
 4859 0166 00       		.byte	0
 4860 0167 1D       		.uleb128 0x1d
 4861 0168 05       		.uleb128 0x5
 4862 0169 00       		.byte	0
 4863 016a 03       		.uleb128 0x3
 4864 016b 0E       		.uleb128 0xe
 4865 016c 3A       		.uleb128 0x3a
 4866 016d 0B       		.uleb128 0xb
 4867 016e 3B       		.uleb128 0x3b
 4868 016f 0B       		.uleb128 0xb
 4869 0170 49       		.uleb128 0x49
 4870 0171 13       		.uleb128 0x13
 4871 0172 02       		.uleb128 0x2
 4872 0173 17       		.uleb128 0x17
 4873 0174 00       		.byte	0
 4874 0175 00       		.byte	0
 4875 0176 1E       		.uleb128 0x1e
 4876 0177 34       		.uleb128 0x34
 4877 0178 00       		.byte	0
 4878 0179 03       		.uleb128 0x3
 4879 017a 0E       		.uleb128 0xe
 4880 017b 3A       		.uleb128 0x3a
 4881 017c 0B       		.uleb128 0xb
 4882 017d 3B       		.uleb128 0x3b
 4883 017e 0B       		.uleb128 0xb
 4884 017f 49       		.uleb128 0x49
 4885 0180 13       		.uleb128 0x13
 4886 0181 02       		.uleb128 0x2
 4887 0182 17       		.uleb128 0x17
 4888 0183 00       		.byte	0
 4889 0184 00       		.byte	0
 4890 0185 1F       		.uleb128 0x1f
 4891 0186 0B       		.uleb128 0xb
 4892 0187 01       		.byte	0x1
 4893 0188 11       		.uleb128 0x11
 4894 0189 01       		.uleb128 0x1
 4895 018a 12       		.uleb128 0x12
 4896 018b 06       		.uleb128 0x6
 4897 018c 01       		.uleb128 0x1
 4898 018d 13       		.uleb128 0x13
 4899 018e 00       		.byte	0
 4900 018f 00       		.byte	0
 4901 0190 20       		.uleb128 0x20
 4902 0191 34       		.uleb128 0x34
ARM GAS  C:\Users\ANDREY~1\AppData\Local\Temp\ccuKrLyD.s 			page 93


 4903 0192 00       		.byte	0
 4904 0193 03       		.uleb128 0x3
 4905 0194 0E       		.uleb128 0xe
 4906 0195 3A       		.uleb128 0x3a
 4907 0196 0B       		.uleb128 0xb
 4908 0197 3B       		.uleb128 0x3b
 4909 0198 0B       		.uleb128 0xb
 4910 0199 49       		.uleb128 0x49
 4911 019a 13       		.uleb128 0x13
 4912 019b 02       		.uleb128 0x2
 4913 019c 18       		.uleb128 0x18
 4914 019d 00       		.byte	0
 4915 019e 00       		.byte	0
 4916 019f 21       		.uleb128 0x21
 4917 01a0 898201   		.uleb128 0x4109
 4918 01a3 00       		.byte	0
 4919 01a4 11       		.uleb128 0x11
 4920 01a5 01       		.uleb128 0x1
 4921 01a6 31       		.uleb128 0x31
 4922 01a7 13       		.uleb128 0x13
 4923 01a8 00       		.byte	0
 4924 01a9 00       		.byte	0
 4925 01aa 22       		.uleb128 0x22
 4926 01ab 2E       		.uleb128 0x2e
 4927 01ac 01       		.byte	0x1
 4928 01ad 3F       		.uleb128 0x3f
 4929 01ae 19       		.uleb128 0x19
 4930 01af 03       		.uleb128 0x3
 4931 01b0 0E       		.uleb128 0xe
 4932 01b1 3A       		.uleb128 0x3a
 4933 01b2 0B       		.uleb128 0xb
 4934 01b3 3B       		.uleb128 0x3b
 4935 01b4 05       		.uleb128 0x5
 4936 01b5 27       		.uleb128 0x27
 4937 01b6 19       		.uleb128 0x19
 4938 01b7 11       		.uleb128 0x11
 4939 01b8 01       		.uleb128 0x1
 4940 01b9 12       		.uleb128 0x12
 4941 01ba 06       		.uleb128 0x6
 4942 01bb 40       		.uleb128 0x40
 4943 01bc 18       		.uleb128 0x18
 4944 01bd 9742     		.uleb128 0x2117
 4945 01bf 19       		.uleb128 0x19
 4946 01c0 01       		.uleb128 0x1
 4947 01c1 13       		.uleb128 0x13
 4948 01c2 00       		.byte	0
 4949 01c3 00       		.byte	0
 4950 01c4 23       		.uleb128 0x23
 4951 01c5 05       		.uleb128 0x5
 4952 01c6 00       		.byte	0
 4953 01c7 03       		.uleb128 0x3
 4954 01c8 0E       		.uleb128 0xe
 4955 01c9 3A       		.uleb128 0x3a
 4956 01ca 0B       		.uleb128 0xb
 4957 01cb 3B       		.uleb128 0x3b
 4958 01cc 05       		.uleb128 0x5
 4959 01cd 49       		.uleb128 0x49
ARM GAS  C:\Users\ANDREY~1\AppData\Local\Temp\ccuKrLyD.s 			page 94


 4960 01ce 13       		.uleb128 0x13
 4961 01cf 02       		.uleb128 0x2
 4962 01d0 17       		.uleb128 0x17
 4963 01d1 00       		.byte	0
 4964 01d2 00       		.byte	0
 4965 01d3 24       		.uleb128 0x24
 4966 01d4 34       		.uleb128 0x34
 4967 01d5 00       		.byte	0
 4968 01d6 03       		.uleb128 0x3
 4969 01d7 0E       		.uleb128 0xe
 4970 01d8 3A       		.uleb128 0x3a
 4971 01d9 0B       		.uleb128 0xb
 4972 01da 3B       		.uleb128 0x3b
 4973 01db 05       		.uleb128 0x5
 4974 01dc 49       		.uleb128 0x49
 4975 01dd 13       		.uleb128 0x13
 4976 01de 02       		.uleb128 0x2
 4977 01df 18       		.uleb128 0x18
 4978 01e0 00       		.byte	0
 4979 01e1 00       		.byte	0
 4980 01e2 25       		.uleb128 0x25
 4981 01e3 0B       		.uleb128 0xb
 4982 01e4 01       		.byte	0x1
 4983 01e5 11       		.uleb128 0x11
 4984 01e6 01       		.uleb128 0x1
 4985 01e7 12       		.uleb128 0x12
 4986 01e8 06       		.uleb128 0x6
 4987 01e9 00       		.byte	0
 4988 01ea 00       		.byte	0
 4989 01eb 26       		.uleb128 0x26
 4990 01ec 34       		.uleb128 0x34
 4991 01ed 00       		.byte	0
 4992 01ee 03       		.uleb128 0x3
 4993 01ef 0E       		.uleb128 0xe
 4994 01f0 3A       		.uleb128 0x3a
 4995 01f1 0B       		.uleb128 0xb
 4996 01f2 3B       		.uleb128 0x3b
 4997 01f3 05       		.uleb128 0x5
 4998 01f4 49       		.uleb128 0x49
 4999 01f5 13       		.uleb128 0x13
 5000 01f6 3F       		.uleb128 0x3f
 5001 01f7 19       		.uleb128 0x19
 5002 01f8 3C       		.uleb128 0x3c
 5003 01f9 19       		.uleb128 0x19
 5004 01fa 00       		.byte	0
 5005 01fb 00       		.byte	0
 5006 01fc 27       		.uleb128 0x27
 5007 01fd 35       		.uleb128 0x35
 5008 01fe 00       		.byte	0
 5009 01ff 49       		.uleb128 0x49
 5010 0200 13       		.uleb128 0x13
 5011 0201 00       		.byte	0
 5012 0202 00       		.byte	0
 5013 0203 28       		.uleb128 0x28
 5014 0204 34       		.uleb128 0x34
 5015 0205 00       		.byte	0
 5016 0206 03       		.uleb128 0x3
ARM GAS  C:\Users\ANDREY~1\AppData\Local\Temp\ccuKrLyD.s 			page 95


 5017 0207 0E       		.uleb128 0xe
 5018 0208 3A       		.uleb128 0x3a
 5019 0209 0B       		.uleb128 0xb
 5020 020a 3B       		.uleb128 0x3b
 5021 020b 0B       		.uleb128 0xb
 5022 020c 49       		.uleb128 0x49
 5023 020d 13       		.uleb128 0x13
 5024 020e 3F       		.uleb128 0x3f
 5025 020f 19       		.uleb128 0x19
 5026 0210 3C       		.uleb128 0x3c
 5027 0211 19       		.uleb128 0x19
 5028 0212 00       		.byte	0
 5029 0213 00       		.byte	0
 5030 0214 29       		.uleb128 0x29
 5031 0215 34       		.uleb128 0x34
 5032 0216 00       		.byte	0
 5033 0217 03       		.uleb128 0x3
 5034 0218 0E       		.uleb128 0xe
 5035 0219 3A       		.uleb128 0x3a
 5036 021a 0B       		.uleb128 0xb
 5037 021b 3B       		.uleb128 0x3b
 5038 021c 0B       		.uleb128 0xb
 5039 021d 49       		.uleb128 0x49
 5040 021e 13       		.uleb128 0x13
 5041 021f 3F       		.uleb128 0x3f
 5042 0220 19       		.uleb128 0x19
 5043 0221 02       		.uleb128 0x2
 5044 0222 18       		.uleb128 0x18
 5045 0223 00       		.byte	0
 5046 0224 00       		.byte	0
 5047 0225 2A       		.uleb128 0x2a
 5048 0226 2E       		.uleb128 0x2e
 5049 0227 00       		.byte	0
 5050 0228 3F       		.uleb128 0x3f
 5051 0229 19       		.uleb128 0x19
 5052 022a 3C       		.uleb128 0x3c
 5053 022b 19       		.uleb128 0x19
 5054 022c 6E       		.uleb128 0x6e
 5055 022d 0E       		.uleb128 0xe
 5056 022e 03       		.uleb128 0x3
 5057 022f 0E       		.uleb128 0xe
 5058 0230 3A       		.uleb128 0x3a
 5059 0231 0B       		.uleb128 0xb
 5060 0232 3B       		.uleb128 0x3b
 5061 0233 05       		.uleb128 0x5
 5062 0234 00       		.byte	0
 5063 0235 00       		.byte	0
 5064 0236 2B       		.uleb128 0x2b
 5065 0237 2E       		.uleb128 0x2e
 5066 0238 00       		.byte	0
 5067 0239 3F       		.uleb128 0x3f
 5068 023a 19       		.uleb128 0x19
 5069 023b 3C       		.uleb128 0x3c
 5070 023c 19       		.uleb128 0x19
 5071 023d 6E       		.uleb128 0x6e
 5072 023e 0E       		.uleb128 0xe
 5073 023f 03       		.uleb128 0x3
ARM GAS  C:\Users\ANDREY~1\AppData\Local\Temp\ccuKrLyD.s 			page 96


 5074 0240 0E       		.uleb128 0xe
 5075 0241 3A       		.uleb128 0x3a
 5076 0242 0B       		.uleb128 0xb
 5077 0243 3B       		.uleb128 0x3b
 5078 0244 0B       		.uleb128 0xb
 5079 0245 00       		.byte	0
 5080 0246 00       		.byte	0
 5081 0247 00       		.byte	0
 5082              		.section	.debug_loc,"",%progbits
 5083              	.Ldebug_loc0:
 5084              	.LLST0:
 5085 0000 00000000 		.4byte	.LVL13
 5086 0004 08000000 		.4byte	.LVL14
 5087 0008 0100     		.2byte	0x1
 5088 000a 50       		.byte	0x50
 5089 000b 08000000 		.4byte	.LVL14
 5090 000f 08010000 		.4byte	.LFE66
 5091 0013 0400     		.2byte	0x4
 5092 0015 F3       		.byte	0xf3
 5093 0016 01       		.uleb128 0x1
 5094 0017 50       		.byte	0x50
 5095 0018 9F       		.byte	0x9f
 5096 0019 00000000 		.4byte	0
 5097 001d 00000000 		.4byte	0
 5098              	.LLST1:
 5099 0021 10000000 		.4byte	.LVL16
 5100 0025 44000000 		.4byte	.LVL19
 5101 0029 0400     		.2byte	0x4
 5102 002b 0A       		.byte	0xa
 5103 002c 00FF     		.2byte	0xff00
 5104 002e 9F       		.byte	0x9f
 5105 002f 70000000 		.4byte	.LVL21
 5106 0033 A6000000 		.4byte	.LVL24
 5107 0037 0100     		.2byte	0x1
 5108 0039 54       		.byte	0x54
 5109 003a B2000000 		.4byte	.LVL25
 5110 003e E0000000 		.4byte	.LVL28
 5111 0042 0500     		.2byte	0x5
 5112 0044 08       		.byte	0x8
 5113 0045 FF       		.byte	0xff
 5114 0046 40       		.byte	0x40
 5115 0047 24       		.byte	0x24
 5116 0048 9F       		.byte	0x9f
 5117 0049 00000000 		.4byte	0
 5118 004d 00000000 		.4byte	0
 5119              	.LLST2:
 5120 0051 00000000 		.4byte	.LVL30
 5121 0055 22000000 		.4byte	.LVL32
 5122 0059 0100     		.2byte	0x1
 5123 005b 50       		.byte	0x50
 5124 005c 22000000 		.4byte	.LVL32
 5125 0060 3E000000 		.4byte	.LVL35
 5126 0064 0400     		.2byte	0x4
 5127 0066 F3       		.byte	0xf3
 5128 0067 01       		.uleb128 0x1
 5129 0068 50       		.byte	0x50
 5130 0069 9F       		.byte	0x9f
ARM GAS  C:\Users\ANDREY~1\AppData\Local\Temp\ccuKrLyD.s 			page 97


 5131 006a 3E000000 		.4byte	.LVL35
 5132 006e 4A000000 		.4byte	.LVL36
 5133 0072 0100     		.2byte	0x1
 5134 0074 50       		.byte	0x50
 5135 0075 4A000000 		.4byte	.LVL36
 5136 0079 B4000000 		.4byte	.LFE67
 5137 007d 0400     		.2byte	0x4
 5138 007f F3       		.byte	0xf3
 5139 0080 01       		.uleb128 0x1
 5140 0081 50       		.byte	0x50
 5141 0082 9F       		.byte	0x9f
 5142 0083 00000000 		.4byte	0
 5143 0087 00000000 		.4byte	0
 5144              	.LLST3:
 5145 008b 12000000 		.4byte	.LVL31
 5146 008f 3E000000 		.4byte	.LVL35
 5147 0093 0500     		.2byte	0x5
 5148 0095 08       		.byte	0x8
 5149 0096 FF       		.byte	0xff
 5150 0097 40       		.byte	0x40
 5151 0098 24       		.byte	0x24
 5152 0099 9F       		.byte	0x9f
 5153 009a 4A000000 		.4byte	.LVL36
 5154 009e 9C000000 		.4byte	.LVL42
 5155 00a2 0100     		.2byte	0x1
 5156 00a4 54       		.byte	0x54
 5157 00a5 00000000 		.4byte	0
 5158 00a9 00000000 		.4byte	0
 5159              	.LLST4:
 5160 00ad 00000000 		.4byte	.LVL43
 5161 00b1 3A000000 		.4byte	.LVL47
 5162 00b5 0100     		.2byte	0x1
 5163 00b7 50       		.byte	0x50
 5164 00b8 3A000000 		.4byte	.LVL47
 5165 00bc 54000000 		.4byte	.LVL50
 5166 00c0 0400     		.2byte	0x4
 5167 00c2 F3       		.byte	0xf3
 5168 00c3 01       		.uleb128 0x1
 5169 00c4 50       		.byte	0x50
 5170 00c5 9F       		.byte	0x9f
 5171 00c6 54000000 		.4byte	.LVL50
 5172 00ca 6C000000 		.4byte	.LVL52
 5173 00ce 0100     		.2byte	0x1
 5174 00d0 50       		.byte	0x50
 5175 00d1 6C000000 		.4byte	.LVL52
 5176 00d5 88000000 		.4byte	.LVL55
 5177 00d9 0400     		.2byte	0x4
 5178 00db F3       		.byte	0xf3
 5179 00dc 01       		.uleb128 0x1
 5180 00dd 50       		.byte	0x50
 5181 00de 9F       		.byte	0x9f
 5182 00df 88000000 		.4byte	.LVL55
 5183 00e3 A0000000 		.4byte	.LVL57
 5184 00e7 0100     		.2byte	0x1
 5185 00e9 50       		.byte	0x50
 5186 00ea A0000000 		.4byte	.LVL57
 5187 00ee BC000000 		.4byte	.LVL60
ARM GAS  C:\Users\ANDREY~1\AppData\Local\Temp\ccuKrLyD.s 			page 98


 5188 00f2 0400     		.2byte	0x4
 5189 00f4 F3       		.byte	0xf3
 5190 00f5 01       		.uleb128 0x1
 5191 00f6 50       		.byte	0x50
 5192 00f7 9F       		.byte	0x9f
 5193 00f8 BC000000 		.4byte	.LVL60
 5194 00fc D4000000 		.4byte	.LVL62
 5195 0100 0100     		.2byte	0x1
 5196 0102 50       		.byte	0x50
 5197 0103 D4000000 		.4byte	.LVL62
 5198 0107 F0000000 		.4byte	.LVL65
 5199 010b 0400     		.2byte	0x4
 5200 010d F3       		.byte	0xf3
 5201 010e 01       		.uleb128 0x1
 5202 010f 50       		.byte	0x50
 5203 0110 9F       		.byte	0x9f
 5204 0111 F0000000 		.4byte	.LVL65
 5205 0115 08010000 		.4byte	.LVL67
 5206 0119 0100     		.2byte	0x1
 5207 011b 50       		.byte	0x50
 5208 011c 08010000 		.4byte	.LVL67
 5209 0120 24010000 		.4byte	.LVL70
 5210 0124 0400     		.2byte	0x4
 5211 0126 F3       		.byte	0xf3
 5212 0127 01       		.uleb128 0x1
 5213 0128 50       		.byte	0x50
 5214 0129 9F       		.byte	0x9f
 5215 012a 24010000 		.4byte	.LVL70
 5216 012e 3C010000 		.4byte	.LVL72
 5217 0132 0100     		.2byte	0x1
 5218 0134 50       		.byte	0x50
 5219 0135 3C010000 		.4byte	.LVL72
 5220 0139 58010000 		.4byte	.LVL75
 5221 013d 0400     		.2byte	0x4
 5222 013f F3       		.byte	0xf3
 5223 0140 01       		.uleb128 0x1
 5224 0141 50       		.byte	0x50
 5225 0142 9F       		.byte	0x9f
 5226 0143 58010000 		.4byte	.LVL75
 5227 0147 6E010000 		.4byte	.LVL77
 5228 014b 0100     		.2byte	0x1
 5229 014d 50       		.byte	0x50
 5230 014e 6E010000 		.4byte	.LVL77
 5231 0152 88010000 		.4byte	.LVL80
 5232 0156 0400     		.2byte	0x4
 5233 0158 F3       		.byte	0xf3
 5234 0159 01       		.uleb128 0x1
 5235 015a 50       		.byte	0x50
 5236 015b 9F       		.byte	0x9f
 5237 015c 88010000 		.4byte	.LVL80
 5238 0160 A0010000 		.4byte	.LVL82
 5239 0164 0100     		.2byte	0x1
 5240 0166 50       		.byte	0x50
 5241 0167 A0010000 		.4byte	.LVL82
 5242 016b BC010000 		.4byte	.LVL85
 5243 016f 0400     		.2byte	0x4
 5244 0171 F3       		.byte	0xf3
ARM GAS  C:\Users\ANDREY~1\AppData\Local\Temp\ccuKrLyD.s 			page 99


 5245 0172 01       		.uleb128 0x1
 5246 0173 50       		.byte	0x50
 5247 0174 9F       		.byte	0x9f
 5248 0175 BC010000 		.4byte	.LVL85
 5249 0179 D4010000 		.4byte	.LVL86
 5250 017d 0100     		.2byte	0x1
 5251 017f 50       		.byte	0x50
 5252 0180 D4010000 		.4byte	.LVL86
 5253 0184 74020000 		.4byte	.LFE68
 5254 0188 0400     		.2byte	0x4
 5255 018a F3       		.byte	0xf3
 5256 018b 01       		.uleb128 0x1
 5257 018c 50       		.byte	0x50
 5258 018d 9F       		.byte	0x9f
 5259 018e 00000000 		.4byte	0
 5260 0192 00000000 		.4byte	0
 5261              	.LLST5:
 5262 0196 24000000 		.4byte	.LVL45
 5263 019a 54000000 		.4byte	.LVL50
 5264 019e 0600     		.2byte	0x6
 5265 01a0 0C       		.byte	0xc
 5266 01a1 00FFFF00 		.4byte	0xffff00
 5267 01a5 9F       		.byte	0x9f
 5268 01a6 54000000 		.4byte	.LVL50
 5269 01aa 58010000 		.4byte	.LVL75
 5270 01ae 0500     		.2byte	0x5
 5271 01b0 08       		.byte	0x8
 5272 01b1 FF       		.byte	0xff
 5273 01b2 40       		.byte	0x40
 5274 01b3 24       		.byte	0x24
 5275 01b4 9F       		.byte	0x9f
 5276 01b5 58010000 		.4byte	.LVL75
 5277 01b9 88010000 		.4byte	.LVL80
 5278 01bd 0600     		.2byte	0x6
 5279 01bf 0C       		.byte	0xc
 5280 01c0 00FFFF00 		.4byte	0xffff00
 5281 01c4 9F       		.byte	0x9f
 5282 01c5 88010000 		.4byte	.LVL80
 5283 01c9 BC010000 		.4byte	.LVL85
 5284 01cd 0500     		.2byte	0x5
 5285 01cf 08       		.byte	0x8
 5286 01d0 FF       		.byte	0xff
 5287 01d1 40       		.byte	0x40
 5288 01d2 24       		.byte	0x24
 5289 01d3 9F       		.byte	0x9f
 5290 01d4 BC010000 		.4byte	.LVL85
 5291 01d8 36020000 		.4byte	.LVL91
 5292 01dc 0400     		.2byte	0x4
 5293 01de 0A       		.byte	0xa
 5294 01df 00FF     		.2byte	0xff00
 5295 01e1 9F       		.byte	0x9f
 5296 01e2 00000000 		.4byte	0
 5297 01e6 00000000 		.4byte	0
 5298              	.LLST6:
 5299 01ea 12000000 		.4byte	.LVL44
 5300 01ee 30000000 		.4byte	.LVL46
 5301 01f2 0100     		.2byte	0x1
ARM GAS  C:\Users\ANDREY~1\AppData\Local\Temp\ccuKrLyD.s 			page 100


 5302 01f4 54       		.byte	0x54
 5303 01f5 30000000 		.4byte	.LVL46
 5304 01f9 3A000000 		.4byte	.LVL47
 5305 01fd 0600     		.2byte	0x6
 5306 01ff 70       		.byte	0x70
 5307 0200 00       		.sleb128 0
 5308 0201 08       		.byte	0x8
 5309 0202 7F       		.byte	0x7f
 5310 0203 1A       		.byte	0x1a
 5311 0204 9F       		.byte	0x9f
 5312 0205 54000000 		.4byte	.LVL50
 5313 0209 62000000 		.4byte	.LVL51
 5314 020d 0100     		.2byte	0x1
 5315 020f 54       		.byte	0x54
 5316 0210 62000000 		.4byte	.LVL51
 5317 0214 6C000000 		.4byte	.LVL52
 5318 0218 0600     		.2byte	0x6
 5319 021a 70       		.byte	0x70
 5320 021b 00       		.sleb128 0
 5321 021c 08       		.byte	0x8
 5322 021d 7F       		.byte	0x7f
 5323 021e 1A       		.byte	0x1a
 5324 021f 9F       		.byte	0x9f
 5325 0220 88000000 		.4byte	.LVL55
 5326 0224 96000000 		.4byte	.LVL56
 5327 0228 0100     		.2byte	0x1
 5328 022a 54       		.byte	0x54
 5329 022b 96000000 		.4byte	.LVL56
 5330 022f A0000000 		.4byte	.LVL57
 5331 0233 0600     		.2byte	0x6
 5332 0235 70       		.byte	0x70
 5333 0236 00       		.sleb128 0
 5334 0237 08       		.byte	0x8
 5335 0238 7F       		.byte	0x7f
 5336 0239 1A       		.byte	0x1a
 5337 023a 9F       		.byte	0x9f
 5338 023b BC000000 		.4byte	.LVL60
 5339 023f CA000000 		.4byte	.LVL61
 5340 0243 0100     		.2byte	0x1
 5341 0245 54       		.byte	0x54
 5342 0246 CA000000 		.4byte	.LVL61
 5343 024a D4000000 		.4byte	.LVL62
 5344 024e 0600     		.2byte	0x6
 5345 0250 70       		.byte	0x70
 5346 0251 00       		.sleb128 0
 5347 0252 08       		.byte	0x8
 5348 0253 7F       		.byte	0x7f
 5349 0254 1A       		.byte	0x1a
 5350 0255 9F       		.byte	0x9f
 5351 0256 F0000000 		.4byte	.LVL65
 5352 025a FE000000 		.4byte	.LVL66
 5353 025e 0100     		.2byte	0x1
 5354 0260 54       		.byte	0x54
 5355 0261 FE000000 		.4byte	.LVL66
 5356 0265 08010000 		.4byte	.LVL67
 5357 0269 0600     		.2byte	0x6
 5358 026b 70       		.byte	0x70
ARM GAS  C:\Users\ANDREY~1\AppData\Local\Temp\ccuKrLyD.s 			page 101


 5359 026c 00       		.sleb128 0
 5360 026d 08       		.byte	0x8
 5361 026e 7F       		.byte	0x7f
 5362 026f 1A       		.byte	0x1a
 5363 0270 9F       		.byte	0x9f
 5364 0271 24010000 		.4byte	.LVL70
 5365 0275 32010000 		.4byte	.LVL71
 5366 0279 0100     		.2byte	0x1
 5367 027b 54       		.byte	0x54
 5368 027c 32010000 		.4byte	.LVL71
 5369 0280 3C010000 		.4byte	.LVL72
 5370 0284 0600     		.2byte	0x6
 5371 0286 70       		.byte	0x70
 5372 0287 00       		.sleb128 0
 5373 0288 08       		.byte	0x8
 5374 0289 7F       		.byte	0x7f
 5375 028a 1A       		.byte	0x1a
 5376 028b 9F       		.byte	0x9f
 5377 028c 58010000 		.4byte	.LVL75
 5378 0290 64010000 		.4byte	.LVL76
 5379 0294 0100     		.2byte	0x1
 5380 0296 54       		.byte	0x54
 5381 0297 64010000 		.4byte	.LVL76
 5382 029b 6E010000 		.4byte	.LVL77
 5383 029f 0600     		.2byte	0x6
 5384 02a1 70       		.byte	0x70
 5385 02a2 00       		.sleb128 0
 5386 02a3 08       		.byte	0x8
 5387 02a4 7F       		.byte	0x7f
 5388 02a5 1A       		.byte	0x1a
 5389 02a6 9F       		.byte	0x9f
 5390 02a7 88010000 		.4byte	.LVL80
 5391 02ab 96010000 		.4byte	.LVL81
 5392 02af 0100     		.2byte	0x1
 5393 02b1 54       		.byte	0x54
 5394 02b2 96010000 		.4byte	.LVL81
 5395 02b6 A0010000 		.4byte	.LVL82
 5396 02ba 0600     		.2byte	0x6
 5397 02bc 70       		.byte	0x70
 5398 02bd 00       		.sleb128 0
 5399 02be 08       		.byte	0x8
 5400 02bf 7F       		.byte	0x7f
 5401 02c0 1A       		.byte	0x1a
 5402 02c1 9F       		.byte	0x9f
 5403 02c2 00000000 		.4byte	0
 5404 02c6 00000000 		.4byte	0
 5405              	.LLST7:
 5406 02ca 00000000 		.4byte	.LVL92
 5407 02ce 0A000000 		.4byte	.LVL93
 5408 02d2 0100     		.2byte	0x1
 5409 02d4 50       		.byte	0x50
 5410 02d5 0A000000 		.4byte	.LVL93
 5411 02d9 1A000000 		.4byte	.LVL94
 5412 02dd 0400     		.2byte	0x4
 5413 02df F3       		.byte	0xf3
 5414 02e0 01       		.uleb128 0x1
 5415 02e1 50       		.byte	0x50
ARM GAS  C:\Users\ANDREY~1\AppData\Local\Temp\ccuKrLyD.s 			page 102


 5416 02e2 9F       		.byte	0x9f
 5417 02e3 1A000000 		.4byte	.LVL94
 5418 02e7 C0000000 		.4byte	.LVL99
 5419 02eb 0100     		.2byte	0x1
 5420 02ed 56       		.byte	0x56
 5421 02ee 00000000 		.4byte	0
 5422 02f2 00000000 		.4byte	0
 5423              	.LLST8:
 5424 02f6 44000000 		.4byte	.LVL95
 5425 02fa C0000000 		.4byte	.LVL99
 5426 02fe 0100     		.2byte	0x1
 5427 0300 55       		.byte	0x55
 5428 0301 00000000 		.4byte	0
 5429 0305 00000000 		.4byte	0
 5430              	.LLST9:
 5431 0309 00000000 		.4byte	.LVL100
 5432 030d 1C000000 		.4byte	.LVL101
 5433 0311 0100     		.2byte	0x1
 5434 0313 50       		.byte	0x50
 5435 0314 1C000000 		.4byte	.LVL101
 5436 0318 46000000 		.4byte	.LVL105
 5437 031c 0400     		.2byte	0x4
 5438 031e F3       		.byte	0xf3
 5439 031f 01       		.uleb128 0x1
 5440 0320 50       		.byte	0x50
 5441 0321 9F       		.byte	0x9f
 5442 0322 46000000 		.4byte	.LVL105
 5443 0326 58000000 		.4byte	.LVL106
 5444 032a 0100     		.2byte	0x1
 5445 032c 50       		.byte	0x50
 5446 032d 58000000 		.4byte	.LVL106
 5447 0331 88000000 		.4byte	.LFE70
 5448 0335 0400     		.2byte	0x4
 5449 0337 F3       		.byte	0xf3
 5450 0338 01       		.uleb128 0x1
 5451 0339 50       		.byte	0x50
 5452 033a 9F       		.byte	0x9f
 5453 033b 00000000 		.4byte	0
 5454 033f 00000000 		.4byte	0
 5455              	.LLST10:
 5456 0343 00000000 		.4byte	.LVL110
 5457 0347 1E000000 		.4byte	.LVL111
 5458 034b 0100     		.2byte	0x1
 5459 034d 50       		.byte	0x50
 5460 034e 1E000000 		.4byte	.LVL111
 5461 0352 48000000 		.4byte	.LVL115
 5462 0356 0400     		.2byte	0x4
 5463 0358 F3       		.byte	0xf3
 5464 0359 01       		.uleb128 0x1
 5465 035a 50       		.byte	0x50
 5466 035b 9F       		.byte	0x9f
 5467 035c 48000000 		.4byte	.LVL115
 5468 0360 5C000000 		.4byte	.LVL116
 5469 0364 0100     		.2byte	0x1
 5470 0366 50       		.byte	0x50
 5471 0367 5C000000 		.4byte	.LVL116
 5472 036b 8C000000 		.4byte	.LFE71
ARM GAS  C:\Users\ANDREY~1\AppData\Local\Temp\ccuKrLyD.s 			page 103


 5473 036f 0400     		.2byte	0x4
 5474 0371 F3       		.byte	0xf3
 5475 0372 01       		.uleb128 0x1
 5476 0373 50       		.byte	0x50
 5477 0374 9F       		.byte	0x9f
 5478 0375 00000000 		.4byte	0
 5479 0379 00000000 		.4byte	0
 5480              		.section	.debug_aranges,"",%progbits
 5481 0000 54000000 		.4byte	0x54
 5482 0004 0200     		.2byte	0x2
 5483 0006 00000000 		.4byte	.Ldebug_info0
 5484 000a 04       		.byte	0x4
 5485 000b 00       		.byte	0
 5486 000c 0000     		.2byte	0
 5487 000e 0000     		.2byte	0
 5488 0010 00000000 		.4byte	.LFB64
 5489 0014 74000000 		.4byte	.LFE64-.LFB64
 5490 0018 00000000 		.4byte	.LFB65
 5491 001c 64000000 		.4byte	.LFE65-.LFB65
 5492 0020 00000000 		.4byte	.LFB66
 5493 0024 08010000 		.4byte	.LFE66-.LFB66
 5494 0028 00000000 		.4byte	.LFB67
 5495 002c B4000000 		.4byte	.LFE67-.LFB67
 5496 0030 00000000 		.4byte	.LFB68
 5497 0034 74020000 		.4byte	.LFE68-.LFB68
 5498 0038 00000000 		.4byte	.LFB69
 5499 003c D4000000 		.4byte	.LFE69-.LFB69
 5500 0040 00000000 		.4byte	.LFB70
 5501 0044 88000000 		.4byte	.LFE70-.LFB70
 5502 0048 00000000 		.4byte	.LFB71
 5503 004c 8C000000 		.4byte	.LFE71-.LFB71
 5504 0050 00000000 		.4byte	0
 5505 0054 00000000 		.4byte	0
 5506              		.section	.debug_ranges,"",%progbits
 5507              	.Ldebug_ranges0:
 5508 0000 00000000 		.4byte	.LFB64
 5509 0004 74000000 		.4byte	.LFE64
 5510 0008 00000000 		.4byte	.LFB65
 5511 000c 64000000 		.4byte	.LFE65
 5512 0010 00000000 		.4byte	.LFB66
 5513 0014 08010000 		.4byte	.LFE66
 5514 0018 00000000 		.4byte	.LFB67
 5515 001c B4000000 		.4byte	.LFE67
 5516 0020 00000000 		.4byte	.LFB68
 5517 0024 74020000 		.4byte	.LFE68
 5518 0028 00000000 		.4byte	.LFB69
 5519 002c D4000000 		.4byte	.LFE69
 5520 0030 00000000 		.4byte	.LFB70
 5521 0034 88000000 		.4byte	.LFE70
 5522 0038 00000000 		.4byte	.LFB71
 5523 003c 8C000000 		.4byte	.LFE71
 5524 0040 00000000 		.4byte	0
 5525 0044 00000000 		.4byte	0
 5526              		.section	.debug_line,"",%progbits
 5527              	.Ldebug_line0:
 5528 0000 44030000 		.section	.debug_str,"MS",%progbits,1
 5528      02001D02 
ARM GAS  C:\Users\ANDREY~1\AppData\Local\Temp\ccuKrLyD.s 			page 104


 5528      00000201 
 5528      FB0E0D00 
 5528      01010101 
 5529              	.LASF127:
 5530 0000 43794465 		.ascii	"CyDelay\000"
 5530      6C617900 
 5531              	.LASF107:
 5532 0008 64617461 		.ascii	"data_s\000"
 5532      5F7300
 5533              	.LASF46:
 5534 000f 464F4E54 		.ascii	"FONT_TYPE_8BPP\000"
 5534      5F545950 
 5534      455F3842 
 5534      505000
 5535              	.LASF102:
 5536 001e 6465736B 		.ascii	"desktop_color\000"
 5536      746F705F 
 5536      636F6C6F 
 5536      7200
 5537              	.LASF57:
 5538 002c 746F7563 		.ascii	"touch_state\000"
 5538      685F7374 
 5538      61746500 
 5539              	.LASF71:
 5540 0038 55475F43 		.ascii	"UG_COLOR\000"
 5540      4F4C4F52 
 5540      00
 5541              	.LASF42:
 5542 0041 55475F55 		.ascii	"UG_U16\000"
 5542      313600
 5543              	.LASF14:
 5544 0048 756E7369 		.ascii	"unsigned int\000"
 5544      676E6564 
 5544      20696E74 
 5544      00
 5545              	.LASF101:
 5546 0055 63686172 		.ascii	"char_v_space\000"
 5546      5F765F73 
 5546      70616365 
 5546      00
 5547              	.LASF32:
 5548 0062 4E4F4E45 		.ascii	"NONE\000"
 5548      00
 5549              	.LASF8:
 5550 0067 5F5F696E 		.ascii	"__int32_t\000"
 5550      7433325F 
 5550      7400
 5551              	.LASF99:
 5552 0071 636F6E73 		.ascii	"console\000"
 5552      6F6C6500 
 5553              	.LASF66:
 5554 0079 535F5749 		.ascii	"S_WINDOW\000"
 5554      4E444F57 
 5554      00
 5555              	.LASF37:
 5556 0082 53454E53 		.ascii	"SENSOR_DISCREPANCY\000"
 5556      4F525F44 
ARM GAS  C:\Users\ANDREY~1\AppData\Local\Temp\ccuKrLyD.s 			page 105


 5556      49534352 
 5556      4550414E 
 5556      435900
 5557              	.LASF58:
 5558 0095 75706461 		.ascii	"update\000"
 5558      746500
 5559              	.LASF94:
 5560 009c 795F6469 		.ascii	"y_dim\000"
 5560      6D00
 5561              	.LASF47:
 5562 00a2 464F4E54 		.ascii	"FONT_TYPE\000"
 5562      5F545950 
 5562      4500
 5563              	.LASF38:
 5564 00ac 4252414B 		.ascii	"BRAKE_IMPLAUSIBLE\000"
 5564      455F494D 
 5564      504C4155 
 5564      5349424C 
 5564      4500
 5565              	.LASF126:
 5566 00be 55475F46 		.ascii	"UG_FillFrame\000"
 5566      696C6C46 
 5566      72616D65 
 5566      00
 5567              	.LASF68:
 5568 00cb 6F626A6C 		.ascii	"objlst\000"
 5568      737400
 5569              	.LASF96:
 5570 00d2 6E657874 		.ascii	"next_window\000"
 5570      5F77696E 
 5570      646F7700 
 5571              	.LASF70:
 5572 00de 7469746C 		.ascii	"title\000"
 5572      6500
 5573              	.LASF20:
 5574 00e4 75696E74 		.ascii	"uint32_t\000"
 5574      33325F74 
 5574      00
 5575              	.LASF15:
 5576 00ed 696E7438 		.ascii	"int8_t\000"
 5576      5F7400
 5577              	.LASF44:
 5578 00f4 55475F55 		.ascii	"UG_U32\000"
 5578      333200
 5579              	.LASF88:
 5580 00fb 785F656E 		.ascii	"x_end\000"
 5580      6400
 5581              	.LASF23:
 5582 0101 666C6F61 		.ascii	"float\000"
 5582      7400
 5583              	.LASF62:
 5584 0107 6576656E 		.ascii	"event\000"
 5584      7400
 5585              	.LASF98:
 5586 010d 6C617374 		.ascii	"last_window\000"
 5586      5F77696E 
 5586      646F7700 
ARM GAS  C:\Users\ANDREY~1\AppData\Local\Temp\ccuKrLyD.s 			page 106


 5587              	.LASF91:
 5588 0119 6261636B 		.ascii	"back_color\000"
 5588      5F636F6C 
 5588      6F7200
 5589              	.LASF30:
 5590 0124 44524956 		.ascii	"DRIVE\000"
 5590      4500
 5591              	.LASF17:
 5592 012a 696E7431 		.ascii	"int16_t\000"
 5592      365F7400 
 5593              	.LASF116:
 5594 0132 464F4E54 		.ascii	"FONT_12X16\000"
 5594      5F313258 
 5594      313600
 5595              	.LASF13:
 5596 013d 6C6F6E67 		.ascii	"long long unsigned int\000"
 5596      206C6F6E 
 5596      6720756E 
 5596      7369676E 
 5596      65642069 
 5597              	.LASF104:
 5598 0154 63616C69 		.ascii	"calibrateScreen\000"
 5598      62726174 
 5598      65536372 
 5598      65656E00 
 5599              	.LASF6:
 5600 0164 5F5F7569 		.ascii	"__uint16_t\000"
 5600      6E743136 
 5600      5F7400
 5601              	.LASF97:
 5602 016f 61637469 		.ascii	"active_window\000"
 5602      76655F77 
 5602      696E646F 
 5602      7700
 5603              	.LASF67:
 5604 017d 6F626A63 		.ascii	"objcnt\000"
 5604      6E7400
 5605              	.LASF43:
 5606 0184 55475F53 		.ascii	"UG_S16\000"
 5606      313600
 5607              	.LASF90:
 5608 018b 666F7265 		.ascii	"fore_color\000"
 5608      5F636F6C 
 5608      6F7200
 5609              	.LASF85:
 5610 0196 795F706F 		.ascii	"y_pos\000"
 5610      7300
 5611              	.LASF106:
 5612 019c 636F6C6F 		.ascii	"color\000"
 5612      7200
 5613              	.LASF132:
 5614 01a2 474E5520 		.ascii	"GNU C11 5.4.1 20160609 (release) [ARM/embedded-5-br"
 5614      43313120 
 5614      352E342E 
 5614      31203230 
 5614      31363036 
 5615 01d5 616E6368 		.ascii	"anch revision 237715] -mcpu=cortex-m3 -mthumb -g -O"
ARM GAS  C:\Users\ANDREY~1\AppData\Local\Temp\ccuKrLyD.s 			page 107


 5615      20726576 
 5615      6973696F 
 5615      6E203233 
 5615      37373135 
 5616 0208 67202D66 		.ascii	"g -ffunction-sections -ffat-lto-objects\000"
 5616      66756E63 
 5616      74696F6E 
 5616      2D736563 
 5616      74696F6E 
 5617              	.LASF130:
 5618 0230 55475F50 		.ascii	"UG_PutColorString\000"
 5618      7574436F 
 5618      6C6F7253 
 5618      7472696E 
 5618      6700
 5619              	.LASF35:
 5620 0242 4252414B 		.ascii	"BRAKE_NOT_PRESSED\000"
 5620      455F4E4F 
 5620      545F5052 
 5620      45535345 
 5620      4400
 5621              	.LASF125:
 5622 0254 55475F46 		.ascii	"UG_FillScreen\000"
 5622      696C6C53 
 5622      63726565 
 5622      6E00
 5623              	.LASF119:
 5624 0262 6C617374 		.ascii	"last_SOC_color\000"
 5624      5F534F43 
 5624      5F636F6C 
 5624      6F7200
 5625              	.LASF49:
 5626 0271 63686172 		.ascii	"char_width\000"
 5626      5F776964 
 5626      746800
 5627              	.LASF36:
 5628 027c 48565F44 		.ascii	"HV_DISABLED_WHILE_DRIVING\000"
 5628      49534142 
 5628      4C45445F 
 5628      5748494C 
 5628      455F4452 
 5629              	.LASF39:
 5630 0296 4553544F 		.ascii	"ESTOP\000"
 5630      5000
 5631              	.LASF112:
 5632 029c 64697370 		.ascii	"disp_glv_v\000"
 5632      5F676C76 
 5632      5F7600
 5633              	.LASF124:
 5634 02a7 6C617374 		.ascii	"last_motor_temp_color\000"
 5634      5F6D6F74 
 5634      6F725F74 
 5634      656D705F 
 5634      636F6C6F 
 5635              	.LASF29:
 5636 02bd 48565F45 		.ascii	"HV_ENABLED\000"
 5636      4E41424C 
ARM GAS  C:\Users\ANDREY~1\AppData\Local\Temp\ccuKrLyD.s 			page 108


 5636      454400
 5637              	.LASF87:
 5638 02c8 795F7374 		.ascii	"y_start\000"
 5638      61727400 
 5639              	.LASF78:
 5640 02d0 765F7370 		.ascii	"v_space\000"
 5640      61636500 
 5641              	.LASF25:
 5642 02d8 63686172 		.ascii	"char\000"
 5642      00
 5643              	.LASF34:
 5644 02dd 434F4E53 		.ascii	"CONSERVATIVE_TIMER_MAXED\000"
 5644      45525641 
 5644      54495645 
 5644      5F54494D 
 5644      45525F4D 
 5645              	.LASF48:
 5646 02f6 666F6E74 		.ascii	"font_type\000"
 5646      5F747970 
 5646      6500
 5647              	.LASF72:
 5648 0300 55475F41 		.ascii	"UG_AREA\000"
 5648      52454100 
 5649              	.LASF74:
 5650 0308 55475F4D 		.ascii	"UG_MESSAGE\000"
 5650      45535341 
 5650      474500
 5651              	.LASF22:
 5652 0313 75696E74 		.ascii	"uint16\000"
 5652      313600
 5653              	.LASF63:
 5654 031a 64617461 		.ascii	"data\000"
 5654      00
 5655              	.LASF16:
 5656 031f 75696E74 		.ascii	"uint8_t\000"
 5656      385F7400 
 5657              	.LASF95:
 5658 0327 746F7563 		.ascii	"touch\000"
 5658      6800
 5659              	.LASF82:
 5660 032d 64726976 		.ascii	"driver\000"
 5660      657200
 5661              	.LASF41:
 5662 0334 55475F53 		.ascii	"UG_S8\000"
 5662      3800
 5663              	.LASF93:
 5664 033a 785F6469 		.ascii	"x_dim\000"
 5664      6D00
 5665              	.LASF12:
 5666 0340 6C6F6E67 		.ascii	"long long int\000"
 5666      206C6F6E 
 5666      6720696E 
 5666      7400
 5667              	.LASF120:
 5668 034e 6C617374 		.ascii	"last_max_pack_temp_color\000"
 5668      5F6D6178 
 5668      5F706163 
ARM GAS  C:\Users\ANDREY~1\AppData\Local\Temp\ccuKrLyD.s 			page 109


 5668      6B5F7465 
 5668      6D705F63 
 5669              	.LASF4:
 5670 0367 5F5F696E 		.ascii	"__int16_t\000"
 5670      7431365F 
 5670      7400
 5671              	.LASF55:
 5672 0371 55475F4F 		.ascii	"UG_OBJECT\000"
 5672      424A4543 
 5672      5400
 5673              	.LASF92:
 5674 037b 70736574 		.ascii	"pset\000"
 5674      00
 5675              	.LASF73:
 5676 0380 7375625F 		.ascii	"sub_id\000"
 5676      696400
 5677              	.LASF80:
 5678 0387 68656967 		.ascii	"height\000"
 5678      687400
 5679              	.LASF51:
 5680 038e 73746172 		.ascii	"start_char\000"
 5680      745F6368 
 5680      617200
 5681              	.LASF129:
 5682 0399 73707269 		.ascii	"sprintf\000"
 5682      6E746600 
 5683              	.LASF28:
 5684 03a1 50524543 		.ascii	"PRECHARGING\000"
 5684      48415247 
 5684      494E4700 
 5685              	.LASF40:
 5686 03ad 55475F55 		.ascii	"UG_U8\000"
 5686      3800
 5687              	.LASF0:
 5688 03b3 5F5F696E 		.ascii	"__int8_t\000"
 5688      74385F74 
 5688      00
 5689              	.LASF53:
 5690 03bc 77696474 		.ascii	"widths\000"
 5690      687300
 5691              	.LASF128:
 5692 03c3 55475F50 		.ascii	"UG_PutString\000"
 5692      75745374 
 5692      72696E67 
 5692      00
 5693              	.LASF26:
 5694 03d0 6C6F6E67 		.ascii	"long double\000"
 5694      20646F75 
 5694      626C6500 
 5695              	.LASF134:
 5696 03dc 5A3A5C44 		.ascii	"Z:\\Documents\\UCD\\FRUCD\\Dashboard-Firmware-FE9-F"
 5696      6F63756D 
 5696      656E7473 
 5696      5C554344 
 5696      5C465255 
 5697 040b 45372D42 		.ascii	"E7-Board\\Dashboard.cydsn\000"
 5697      6F617264 
ARM GAS  C:\Users\ANDREY~1\AppData\Local\Temp\ccuKrLyD.s 			page 110


 5697      5C446173 
 5697      68626F61 
 5697      72642E63 
 5698              	.LASF18:
 5699 0424 75696E74 		.ascii	"uint16_t\000"
 5699      31365F74 
 5699      00
 5700              	.LASF118:
 5701 042d 67756931 		.ascii	"gui1963\000"
 5701      39363300 
 5702              	.LASF81:
 5703 0435 55475F54 		.ascii	"UG_TITLE\000"
 5703      49544C45 
 5703      00
 5704              	.LASF83:
 5705 043e 55475F44 		.ascii	"UG_DRIVER\000"
 5705      52495645 
 5705      5200
 5706              	.LASF84:
 5707 0448 785F706F 		.ascii	"x_pos\000"
 5707      7300
 5708              	.LASF50:
 5709 044e 63686172 		.ascii	"char_height\000"
 5709      5F686569 
 5709      67687400 
 5710              	.LASF5:
 5711 045a 73686F72 		.ascii	"short int\000"
 5711      7420696E 
 5711      7400
 5712              	.LASF121:
 5713 0464 6C617374 		.ascii	"last_state_color\000"
 5713      5F737461 
 5713      74655F63 
 5713      6F6C6F72 
 5713      00
 5714              	.LASF9:
 5715 0475 6C6F6E67 		.ascii	"long int\000"
 5715      20696E74 
 5715      00
 5716              	.LASF64:
 5717 047e 55475F57 		.ascii	"UG_WINDOW\000"
 5717      494E444F 
 5717      5700
 5718              	.LASF115:
 5719 0488 49544D5F 		.ascii	"ITM_RxBuffer\000"
 5719      52784275 
 5719      66666572 
 5719      00
 5720              	.LASF114:
 5721 0495 64697370 		.ascii	"disp_motor_temp\000"
 5721      5F6D6F74 
 5721      6F725F74 
 5721      656D7000 
 5722              	.LASF52:
 5723 04a5 656E645F 		.ascii	"end_char\000"
 5723      63686172 
 5723      00
ARM GAS  C:\Users\ANDREY~1\AppData\Local\Temp\ccuKrLyD.s 			page 111


 5724              	.LASF54:
 5725 04ae 55475F46 		.ascii	"UG_FONT\000"
 5725      4F4E5400 
 5726              	.LASF1:
 5727 04b6 5F5F7569 		.ascii	"__uint8_t\000"
 5727      6E74385F 
 5727      7400
 5728              	.LASF76:
 5729 04c0 666F6E74 		.ascii	"font\000"
 5729      00
 5730              	.LASF27:
 5731 04c5 73697A65 		.ascii	"sizetype\000"
 5731      74797065 
 5731      00
 5732              	.LASF105:
 5733 04ce 696E6974 		.ascii	"initDashTemplate\000"
 5733      44617368 
 5733      54656D70 
 5733      6C617465 
 5733      00
 5734              	.LASF11:
 5735 04df 6C6F6E67 		.ascii	"long unsigned int\000"
 5735      20756E73 
 5735      69676E65 
 5735      6420696E 
 5735      7400
 5736              	.LASF113:
 5737 04f1 64697370 		.ascii	"disp_mc_temp\000"
 5737      5F6D635F 
 5737      74656D70 
 5737      00
 5738              	.LASF117:
 5739 04fe 464F4E54 		.ascii	"FONT_32X53\000"
 5739      5F333258 
 5739      353300
 5740              	.LASF19:
 5741 0509 696E7433 		.ascii	"int32_t\000"
 5741      325F7400 
 5742              	.LASF109:
 5743 0511 64697370 		.ascii	"disp_max_pack_temp\000"
 5743      5F6D6178 
 5743      5F706163 
 5743      6B5F7465 
 5743      6D7000
 5744              	.LASF122:
 5745 0524 6C617374 		.ascii	"last_glv_v_color\000"
 5745      5F676C76 
 5745      5F765F63 
 5745      6F6C6F72 
 5745      00
 5746              	.LASF61:
 5747 0535 74797065 		.ascii	"type\000"
 5747      00
 5748              	.LASF3:
 5749 053a 756E7369 		.ascii	"unsigned char\000"
 5749      676E6564 
 5749      20636861 
ARM GAS  C:\Users\ANDREY~1\AppData\Local\Temp\ccuKrLyD.s 			page 112


 5749      7200
 5750              	.LASF10:
 5751 0548 5F5F7569 		.ascii	"__uint32_t\000"
 5751      6E743332 
 5751      5F7400
 5752              	.LASF77:
 5753 0553 685F7370 		.ascii	"h_space\000"
 5753      61636500 
 5754              	.LASF110:
 5755 055b 64697370 		.ascii	"disp_state\000"
 5755      5F737461 
 5755      746500
 5756              	.LASF86:
 5757 0566 785F7374 		.ascii	"x_start\000"
 5757      61727400 
 5758              	.LASF31:
 5759 056e 4641554C 		.ascii	"FAULT\000"
 5759      5400
 5760              	.LASF89:
 5761 0574 795F656E 		.ascii	"y_end\000"
 5761      6400
 5762              	.LASF123:
 5763 057a 6C617374 		.ascii	"last_mc_temp_color\000"
 5763      5F6D635F 
 5763      74656D70 
 5763      5F636F6C 
 5763      6F7200
 5764              	.LASF69:
 5765 058d 7374796C 		.ascii	"style\000"
 5765      6500
 5766              	.LASF56:
 5767 0593 73746174 		.ascii	"state\000"
 5767      6500
 5768              	.LASF108:
 5769 0599 64697370 		.ascii	"disp_SOC\000"
 5769      5F534F43 
 5769      00
 5770              	.LASF103:
 5771 05a2 55475F47 		.ascii	"UG_GUI\000"
 5771      554900
 5772              	.LASF60:
 5773 05a9 615F7265 		.ascii	"a_rel\000"
 5773      6C00
 5774              	.LASF75:
 5775 05af 55475F54 		.ascii	"UG_TOUCH\000"
 5775      4F554348 
 5775      00
 5776              	.LASF2:
 5777 05b8 7369676E 		.ascii	"signed char\000"
 5777      65642063 
 5777      68617200 
 5778              	.LASF7:
 5779 05c4 73686F72 		.ascii	"short unsigned int\000"
 5779      7420756E 
 5779      7369676E 
 5779      65642069 
 5779      6E7400
ARM GAS  C:\Users\ANDREY~1\AppData\Local\Temp\ccuKrLyD.s 			page 113


 5780              	.LASF133:
 5781 05d7 66727563 		.ascii	"frucd_display.c\000"
 5781      645F6469 
 5781      73706C61 
 5781      792E6300 
 5782              	.LASF21:
 5783 05e7 75696E74 		.ascii	"uint8\000"
 5783      3800
 5784              	.LASF24:
 5785 05ed 646F7562 		.ascii	"double\000"
 5785      6C6500
 5786              	.LASF131:
 5787 05f4 55475F46 		.ascii	"UG_FontSelect\000"
 5787      6F6E7453 
 5787      656C6563 
 5787      7400
 5788              	.LASF33:
 5789 0602 44524956 		.ascii	"DRIVE_REQUEST_FROM_LV\000"
 5789      455F5245 
 5789      51554553 
 5789      545F4652 
 5789      4F4D5F4C 
 5790              	.LASF65:
 5791 0618 535F4F42 		.ascii	"S_OBJECT\000"
 5791      4A454354 
 5791      00
 5792              	.LASF79:
 5793 0621 616C6967 		.ascii	"align\000"
 5793      6E00
 5794              	.LASF59:
 5795 0627 615F6162 		.ascii	"a_abs\000"
 5795      7300
 5796              	.LASF111:
 5797 062d 6661756C 		.ascii	"fault\000"
 5797      7400
 5798              	.LASF45:
 5799 0633 464F4E54 		.ascii	"FONT_TYPE_1BPP\000"
 5799      5F545950 
 5799      455F3142 
 5799      505000
 5800              	.LASF100:
 5801 0642 63686172 		.ascii	"char_h_space\000"
 5801      5F685F73 
 5801      70616365 
 5801      00
 5802              		.ident	"GCC: (GNU Tools for ARM Embedded Processors) 5.4.1 20160609 (release) [ARM/embedded-5-bran
