ARM GAS  C:\Users\ANDREY~1\AppData\Local\Temp\cccBEslX.s 			page 1


   1              		.syntax unified
   2              		.cpu cortex-m3
   3              		.fpu softvfp
   4              		.eabi_attribute 20, 1
   5              		.eabi_attribute 21, 1
   6              		.eabi_attribute 23, 3
   7              		.eabi_attribute 24, 1
   8              		.eabi_attribute 25, 1
   9              		.eabi_attribute 26, 1
  10              		.eabi_attribute 30, 1
  11              		.eabi_attribute 34, 1
  12              		.eabi_attribute 18, 4
  13              		.thumb
  14              		.syntax unified
  15              		.file	"GraphicLCDIntf_PM.c"
  16              		.text
  17              	.Ltext0:
  18              		.cfi_sections	.debug_frame
  19              		.section	.text.GraphicLCDIntf_SaveConfig,"ax",%progbits
  20              		.align	2
  21              		.global	GraphicLCDIntf_SaveConfig
  22              		.thumb
  23              		.thumb_func
  24              		.type	GraphicLCDIntf_SaveConfig, %function
  25              	GraphicLCDIntf_SaveConfig:
  26              	.LFB0:
  27              		.file 1 "Generated_Source\\PSoC5\\GraphicLCDIntf_PM.c"
   1:Generated_Source\PSoC5/GraphicLCDIntf_PM.c **** /*******************************************************************************
   2:Generated_Source\PSoC5/GraphicLCDIntf_PM.c **** * File Name: GraphicLCDIntf_PM.c
   3:Generated_Source\PSoC5/GraphicLCDIntf_PM.c **** * Version 1.80
   4:Generated_Source\PSoC5/GraphicLCDIntf_PM.c **** *
   5:Generated_Source\PSoC5/GraphicLCDIntf_PM.c **** * Description:
   6:Generated_Source\PSoC5/GraphicLCDIntf_PM.c **** *  This file contains the setup, control and status commands to support 
   7:Generated_Source\PSoC5/GraphicLCDIntf_PM.c **** *  the component operations in Low-power mode.  
   8:Generated_Source\PSoC5/GraphicLCDIntf_PM.c **** *
   9:Generated_Source\PSoC5/GraphicLCDIntf_PM.c **** ********************************************************************************
  10:Generated_Source\PSoC5/GraphicLCDIntf_PM.c **** * Copyright 2008-2018, Cypress Semiconductor Corporation.  All rights reserved.
  11:Generated_Source\PSoC5/GraphicLCDIntf_PM.c **** * You may use this file only in accordance with the license, terms, conditions,
  12:Generated_Source\PSoC5/GraphicLCDIntf_PM.c **** * disclaimers, and limitations in the end user license agreement accompanying
  13:Generated_Source\PSoC5/GraphicLCDIntf_PM.c **** * the software package with which this file was provided.
  14:Generated_Source\PSoC5/GraphicLCDIntf_PM.c **** *******************************************************************************/
  15:Generated_Source\PSoC5/GraphicLCDIntf_PM.c **** 
  16:Generated_Source\PSoC5/GraphicLCDIntf_PM.c **** #include "GraphicLCDIntf.h" 
  17:Generated_Source\PSoC5/GraphicLCDIntf_PM.c **** 
  18:Generated_Source\PSoC5/GraphicLCDIntf_PM.c **** 
  19:Generated_Source\PSoC5/GraphicLCDIntf_PM.c **** /*******************************************************************************
  20:Generated_Source\PSoC5/GraphicLCDIntf_PM.c **** * Function Name: GraphicLCDIntf_SaveConfig
  21:Generated_Source\PSoC5/GraphicLCDIntf_PM.c **** ********************************************************************************
  22:Generated_Source\PSoC5/GraphicLCDIntf_PM.c **** *
  23:Generated_Source\PSoC5/GraphicLCDIntf_PM.c **** * Summary:
  24:Generated_Source\PSoC5/GraphicLCDIntf_PM.c **** *  All configuration registers are retention. Nothing to save here.
  25:Generated_Source\PSoC5/GraphicLCDIntf_PM.c **** *
  26:Generated_Source\PSoC5/GraphicLCDIntf_PM.c **** *******************************************************************************/
  27:Generated_Source\PSoC5/GraphicLCDIntf_PM.c **** void GraphicLCDIntf_SaveConfig(void) 
  28:Generated_Source\PSoC5/GraphicLCDIntf_PM.c **** {   
  28              		.loc 1 28 0
  29              		.cfi_startproc
ARM GAS  C:\Users\ANDREY~1\AppData\Local\Temp\cccBEslX.s 			page 2


  30              		@ args = 0, pretend = 0, frame = 0
  31              		@ frame_needed = 0, uses_anonymous_args = 0
  32              		@ link register save eliminated.
  33 0000 7047     		bx	lr
  34              		.cfi_endproc
  35              	.LFE0:
  36              		.size	GraphicLCDIntf_SaveConfig, .-GraphicLCDIntf_SaveConfig
  37 0002 00BF     		.section	.text.GraphicLCDIntf_RestoreConfig,"ax",%progbits
  38              		.align	2
  39              		.global	GraphicLCDIntf_RestoreConfig
  40              		.thumb
  41              		.thumb_func
  42              		.type	GraphicLCDIntf_RestoreConfig, %function
  43              	GraphicLCDIntf_RestoreConfig:
  44              	.LFB1:
  29:Generated_Source\PSoC5/GraphicLCDIntf_PM.c ****     
  30:Generated_Source\PSoC5/GraphicLCDIntf_PM.c **** }
  31:Generated_Source\PSoC5/GraphicLCDIntf_PM.c **** 
  32:Generated_Source\PSoC5/GraphicLCDIntf_PM.c **** 
  33:Generated_Source\PSoC5/GraphicLCDIntf_PM.c **** /*******************************************************************************
  34:Generated_Source\PSoC5/GraphicLCDIntf_PM.c **** * Function Name: GraphicLCDIntf_RestoreConfig
  35:Generated_Source\PSoC5/GraphicLCDIntf_PM.c **** ********************************************************************************
  36:Generated_Source\PSoC5/GraphicLCDIntf_PM.c **** *
  37:Generated_Source\PSoC5/GraphicLCDIntf_PM.c **** * Summary:
  38:Generated_Source\PSoC5/GraphicLCDIntf_PM.c **** *  All configuration registers are retention. Nothing to restore here.
  39:Generated_Source\PSoC5/GraphicLCDIntf_PM.c **** *
  40:Generated_Source\PSoC5/GraphicLCDIntf_PM.c **** *******************************************************************************/
  41:Generated_Source\PSoC5/GraphicLCDIntf_PM.c **** void GraphicLCDIntf_RestoreConfig(void) 
  42:Generated_Source\PSoC5/GraphicLCDIntf_PM.c **** {    
  45              		.loc 1 42 0
  46              		.cfi_startproc
  47              		@ args = 0, pretend = 0, frame = 0
  48              		@ frame_needed = 0, uses_anonymous_args = 0
  49              		@ link register save eliminated.
  50 0000 7047     		bx	lr
  51              		.cfi_endproc
  52              	.LFE1:
  53              		.size	GraphicLCDIntf_RestoreConfig, .-GraphicLCDIntf_RestoreConfig
  54 0002 00BF     		.section	.text.GraphicLCDIntf_Sleep,"ax",%progbits
  55              		.align	2
  56              		.global	GraphicLCDIntf_Sleep
  57              		.thumb
  58              		.thumb_func
  59              		.type	GraphicLCDIntf_Sleep, %function
  60              	GraphicLCDIntf_Sleep:
  61              	.LFB2:
  43:Generated_Source\PSoC5/GraphicLCDIntf_PM.c ****     
  44:Generated_Source\PSoC5/GraphicLCDIntf_PM.c **** }
  45:Generated_Source\PSoC5/GraphicLCDIntf_PM.c **** 
  46:Generated_Source\PSoC5/GraphicLCDIntf_PM.c **** 
  47:Generated_Source\PSoC5/GraphicLCDIntf_PM.c **** /*******************************************************************************
  48:Generated_Source\PSoC5/GraphicLCDIntf_PM.c **** * Function Name: GraphicLCDIntf_Sleep
  49:Generated_Source\PSoC5/GraphicLCDIntf_PM.c **** ********************************************************************************
  50:Generated_Source\PSoC5/GraphicLCDIntf_PM.c **** *
  51:Generated_Source\PSoC5/GraphicLCDIntf_PM.c **** * Summary:
  52:Generated_Source\PSoC5/GraphicLCDIntf_PM.c **** *  Disables block's operation and saves its configuration. Should be called 
  53:Generated_Source\PSoC5/GraphicLCDIntf_PM.c **** *  prior to entering Sleep.
ARM GAS  C:\Users\ANDREY~1\AppData\Local\Temp\cccBEslX.s 			page 3


  54:Generated_Source\PSoC5/GraphicLCDIntf_PM.c **** *
  55:Generated_Source\PSoC5/GraphicLCDIntf_PM.c **** *******************************************************************************/
  56:Generated_Source\PSoC5/GraphicLCDIntf_PM.c **** void GraphicLCDIntf_Sleep(void) 
  57:Generated_Source\PSoC5/GraphicLCDIntf_PM.c **** {
  62              		.loc 1 57 0
  63              		.cfi_startproc
  64              		@ args = 0, pretend = 0, frame = 0
  65              		@ frame_needed = 0, uses_anonymous_args = 0
  66              		.loc 1 57 0
  67 0000 08B5     		push	{r3, lr}
  68              		.cfi_def_cfa_offset 8
  69              		.cfi_offset 3, -8
  70              		.cfi_offset 14, -4
  58:Generated_Source\PSoC5/GraphicLCDIntf_PM.c ****     GraphicLCDIntf_Stop();
  71              		.loc 1 58 0
  72 0002 FFF7FEFF 		bl	GraphicLCDIntf_Stop
  73              	.LVL0:
  74 0006 08BD     		pop	{r3, pc}
  75              		.cfi_endproc
  76              	.LFE2:
  77              		.size	GraphicLCDIntf_Sleep, .-GraphicLCDIntf_Sleep
  78              		.section	.text.GraphicLCDIntf_Wakeup,"ax",%progbits
  79              		.align	2
  80              		.global	GraphicLCDIntf_Wakeup
  81              		.thumb
  82              		.thumb_func
  83              		.type	GraphicLCDIntf_Wakeup, %function
  84              	GraphicLCDIntf_Wakeup:
  85              	.LFB3:
  59:Generated_Source\PSoC5/GraphicLCDIntf_PM.c **** }
  60:Generated_Source\PSoC5/GraphicLCDIntf_PM.c **** 
  61:Generated_Source\PSoC5/GraphicLCDIntf_PM.c **** 
  62:Generated_Source\PSoC5/GraphicLCDIntf_PM.c **** /*******************************************************************************
  63:Generated_Source\PSoC5/GraphicLCDIntf_PM.c **** * Function Name: GraphicLCDIntf_Wakeup
  64:Generated_Source\PSoC5/GraphicLCDIntf_PM.c **** ********************************************************************************
  65:Generated_Source\PSoC5/GraphicLCDIntf_PM.c **** *
  66:Generated_Source\PSoC5/GraphicLCDIntf_PM.c **** * Summary:
  67:Generated_Source\PSoC5/GraphicLCDIntf_PM.c **** *  Enables block's operation and restores its configuration. Should be called
  68:Generated_Source\PSoC5/GraphicLCDIntf_PM.c **** *  after awaking from Sleep.
  69:Generated_Source\PSoC5/GraphicLCDIntf_PM.c **** *
  70:Generated_Source\PSoC5/GraphicLCDIntf_PM.c **** *******************************************************************************/
  71:Generated_Source\PSoC5/GraphicLCDIntf_PM.c **** void GraphicLCDIntf_Wakeup(void) 
  72:Generated_Source\PSoC5/GraphicLCDIntf_PM.c **** {
  86              		.loc 1 72 0
  87              		.cfi_startproc
  88              		@ args = 0, pretend = 0, frame = 0
  89              		@ frame_needed = 0, uses_anonymous_args = 0
  90 0000 08B5     		push	{r3, lr}
  91              		.cfi_def_cfa_offset 8
  92              		.cfi_offset 3, -8
  93              		.cfi_offset 14, -4
  73:Generated_Source\PSoC5/GraphicLCDIntf_PM.c ****     GraphicLCDIntf_Enable();
  94              		.loc 1 73 0
  95 0002 FFF7FEFF 		bl	GraphicLCDIntf_Enable
  96              	.LVL1:
  97 0006 08BD     		pop	{r3, pc}
  98              		.cfi_endproc
ARM GAS  C:\Users\ANDREY~1\AppData\Local\Temp\cccBEslX.s 			page 4


  99              	.LFE3:
 100              		.size	GraphicLCDIntf_Wakeup, .-GraphicLCDIntf_Wakeup
 101              		.text
 102              	.Letext0:
 103              		.file 2 "Generated_Source\\PSoC5\\GraphicLCDIntf.h"