ARM GAS  C:\Users\leoja\AppData\Local\Temp\ccytvroa.s 			page 1


   1              		.syntax unified
   2              		.cpu cortex-m3
   3              		.fpu softvfp
   4              		.eabi_attribute 20, 1
   5              		.eabi_attribute 21, 1
   6              		.eabi_attribute 23, 3
   7              		.eabi_attribute 24, 1
   8              		.eabi_attribute 25, 1
   9              		.eabi_attribute 26, 1
  10              		.eabi_attribute 30, 1
  11              		.eabi_attribute 34, 1
  12              		.eabi_attribute 18, 4
  13              		.thumb
  14              		.syntax unified
  15              		.file	"GraphicLCDIntf.c"
  16              		.text
  17              	.Ltext0:
  18              		.cfi_sections	.debug_frame
  19              		.section	.text.GraphicLCDIntf_Enable,"ax",%progbits
  20              		.align	2
  21              		.global	GraphicLCDIntf_Enable
  22              		.thumb
  23              		.thumb_func
  24              		.type	GraphicLCDIntf_Enable, %function
  25              	GraphicLCDIntf_Enable:
  26              	.LFB0:
  27              		.file 1 "Generated_Source\\PSoC5\\GraphicLCDIntf.c"
   1:Generated_Source\PSoC5/GraphicLCDIntf.c **** /*******************************************************************************
   2:Generated_Source\PSoC5/GraphicLCDIntf.c **** * File Name: GraphicLCDIntf.c  
   3:Generated_Source\PSoC5/GraphicLCDIntf.c **** * Version 1.80
   4:Generated_Source\PSoC5/GraphicLCDIntf.c **** *
   5:Generated_Source\PSoC5/GraphicLCDIntf.c **** * Description:
   6:Generated_Source\PSoC5/GraphicLCDIntf.c **** *  This file contains the setup, control and status commands for the 
   7:Generated_Source\PSoC5/GraphicLCDIntf.c **** *  GraphicLCDIntf component.   
   8:Generated_Source\PSoC5/GraphicLCDIntf.c **** *
   9:Generated_Source\PSoC5/GraphicLCDIntf.c **** *******************************************************************************
  10:Generated_Source\PSoC5/GraphicLCDIntf.c **** * Copyright 2008-2018, Cypress Semiconductor Corporation.  All rights reserved.
  11:Generated_Source\PSoC5/GraphicLCDIntf.c **** * You may use this file only in accordance with the license, terms, conditions, 
  12:Generated_Source\PSoC5/GraphicLCDIntf.c **** * disclaimers, and limitations in the end user license agreement accompanying 
  13:Generated_Source\PSoC5/GraphicLCDIntf.c **** * the software package with which this file was provided.
  14:Generated_Source\PSoC5/GraphicLCDIntf.c **** ********************************************************************************/
  15:Generated_Source\PSoC5/GraphicLCDIntf.c **** 
  16:Generated_Source\PSoC5/GraphicLCDIntf.c **** #include "GraphicLCDIntf.h"  
  17:Generated_Source\PSoC5/GraphicLCDIntf.c **** 
  18:Generated_Source\PSoC5/GraphicLCDIntf.c **** uint8 GraphicLCDIntf_initVar = 0u;
  19:Generated_Source\PSoC5/GraphicLCDIntf.c **** 
  20:Generated_Source\PSoC5/GraphicLCDIntf.c **** 
  21:Generated_Source\PSoC5/GraphicLCDIntf.c **** /*******************************************************************************
  22:Generated_Source\PSoC5/GraphicLCDIntf.c **** * Function Name: GraphicLCDIntf_Enable
  23:Generated_Source\PSoC5/GraphicLCDIntf.c **** ********************************************************************************
  24:Generated_Source\PSoC5/GraphicLCDIntf.c **** *
  25:Generated_Source\PSoC5/GraphicLCDIntf.c **** * Summary:
  26:Generated_Source\PSoC5/GraphicLCDIntf.c **** *  There is no need to reset or enable this component.  This component is 
  27:Generated_Source\PSoC5/GraphicLCDIntf.c **** *  naturally a slave that waits for the API calls to perform any 
  28:Generated_Source\PSoC5/GraphicLCDIntf.c **** *  function and after a request is made that request will always complete in 
  29:Generated_Source\PSoC5/GraphicLCDIntf.c **** *  finite time as long as a clock is provided. The only thing provided
  30:Generated_Source\PSoC5/GraphicLCDIntf.c **** *  by this API is setting the Command FIFO to drive at least the half-empty status
ARM GAS  C:\Users\leoja\AppData\Local\Temp\ccytvroa.s 			page 2


  31:Generated_Source\PSoC5/GraphicLCDIntf.c **** *  from the FIFO.
  32:Generated_Source\PSoC5/GraphicLCDIntf.c **** *
  33:Generated_Source\PSoC5/GraphicLCDIntf.c **** *******************************************************************************/
  34:Generated_Source\PSoC5/GraphicLCDIntf.c **** void GraphicLCDIntf_Enable(void) 
  35:Generated_Source\PSoC5/GraphicLCDIntf.c **** {   
  28              		.loc 1 35 0
  29              		.cfi_startproc
  30              		@ args = 0, pretend = 0, frame = 0
  31              		@ frame_needed = 0, uses_anonymous_args = 0
  32              		@ link register save eliminated.
  33 0000 7047     		bx	lr
  34              		.cfi_endproc
  35              	.LFE0:
  36              		.size	GraphicLCDIntf_Enable, .-GraphicLCDIntf_Enable
  37 0002 00BF     		.section	.text.GraphicLCDIntf_Init,"ax",%progbits
  38              		.align	2
  39              		.global	GraphicLCDIntf_Init
  40              		.thumb
  41              		.thumb_func
  42              		.type	GraphicLCDIntf_Init, %function
  43              	GraphicLCDIntf_Init:
  44              	.LFB1:
  36:Generated_Source\PSoC5/GraphicLCDIntf.c ****     /* Nothing to enable */
  37:Generated_Source\PSoC5/GraphicLCDIntf.c **** }
  38:Generated_Source\PSoC5/GraphicLCDIntf.c **** 
  39:Generated_Source\PSoC5/GraphicLCDIntf.c **** 
  40:Generated_Source\PSoC5/GraphicLCDIntf.c **** /*******************************************************************************
  41:Generated_Source\PSoC5/GraphicLCDIntf.c **** * Function Name: GraphicLCDIntf_Init
  42:Generated_Source\PSoC5/GraphicLCDIntf.c **** ********************************************************************************
  43:Generated_Source\PSoC5/GraphicLCDIntf.c **** *
  44:Generated_Source\PSoC5/GraphicLCDIntf.c **** * Summary:
  45:Generated_Source\PSoC5/GraphicLCDIntf.c **** *  Inits/Restores default GraphicLCDIntf configuration provided with the customizer.
  46:Generated_Source\PSoC5/GraphicLCDIntf.c **** * 
  47:Generated_Source\PSoC5/GraphicLCDIntf.c **** *******************************************************************************/
  48:Generated_Source\PSoC5/GraphicLCDIntf.c **** void GraphicLCDIntf_Init(void) 
  49:Generated_Source\PSoC5/GraphicLCDIntf.c **** {
  45              		.loc 1 49 0
  46              		.cfi_startproc
  47              		@ args = 0, pretend = 0, frame = 0
  48              		@ frame_needed = 0, uses_anonymous_args = 0
  49              		@ link register save eliminated.
  50:Generated_Source\PSoC5/GraphicLCDIntf.c ****     /* Set low and high pulse widths for a read transaction */
  51:Generated_Source\PSoC5/GraphicLCDIntf.c ****     GraphicLCDIntf_READ_LO_PULSE_REG = GraphicLCDIntf_READ_LOW_PULSE;
  50              		.loc 1 51 0
  51 0000 0822     		movs	r2, #8
  52 0002 034B     		ldr	r3, .L3
  53 0004 1A70     		strb	r2, [r3]
  52:Generated_Source\PSoC5/GraphicLCDIntf.c ****     GraphicLCDIntf_READ_HI_PULSE_REG = GraphicLCDIntf_READ_HIGH_PULSE;
  54              		.loc 1 52 0
  55 0006 0922     		movs	r2, #9
  56 0008 1033     		adds	r3, r3, #16
  57 000a 1A70     		strb	r2, [r3]
  58 000c 7047     		bx	lr
  59              	.L4:
  60 000e 00BF     		.align	2
  61              	.L3:
  62 0010 22640040 		.word	1073767458
ARM GAS  C:\Users\leoja\AppData\Local\Temp\ccytvroa.s 			page 3


  63              		.cfi_endproc
  64              	.LFE1:
  65              		.size	GraphicLCDIntf_Init, .-GraphicLCDIntf_Init
  66              		.section	.text.GraphicLCDIntf_Start,"ax",%progbits
  67              		.align	2
  68              		.global	GraphicLCDIntf_Start
  69              		.thumb
  70              		.thumb_func
  71              		.type	GraphicLCDIntf_Start, %function
  72              	GraphicLCDIntf_Start:
  73              	.LFB2:
  53:Generated_Source\PSoC5/GraphicLCDIntf.c **** }
  54:Generated_Source\PSoC5/GraphicLCDIntf.c **** 
  55:Generated_Source\PSoC5/GraphicLCDIntf.c **** 
  56:Generated_Source\PSoC5/GraphicLCDIntf.c **** /*******************************************************************************
  57:Generated_Source\PSoC5/GraphicLCDIntf.c **** * Function Name: GraphicLCDIntf_Start
  58:Generated_Source\PSoC5/GraphicLCDIntf.c **** ********************************************************************************
  59:Generated_Source\PSoC5/GraphicLCDIntf.c **** *
  60:Generated_Source\PSoC5/GraphicLCDIntf.c **** * Summary:
  61:Generated_Source\PSoC5/GraphicLCDIntf.c **** *  Starts the GraphicLCDIntf interface.
  62:Generated_Source\PSoC5/GraphicLCDIntf.c **** *
  63:Generated_Source\PSoC5/GraphicLCDIntf.c **** * Global Variables:
  64:Generated_Source\PSoC5/GraphicLCDIntf.c **** *  GraphicLCDIntf_initVar - Used to check the initial configuration, modified on 
  65:Generated_Source\PSoC5/GraphicLCDIntf.c **** *  the first function call.
  66:Generated_Source\PSoC5/GraphicLCDIntf.c **** *
  67:Generated_Source\PSoC5/GraphicLCDIntf.c **** *******************************************************************************/
  68:Generated_Source\PSoC5/GraphicLCDIntf.c **** void GraphicLCDIntf_Start(void) 
  69:Generated_Source\PSoC5/GraphicLCDIntf.c **** {
  74              		.loc 1 69 0
  75              		.cfi_startproc
  76              		@ args = 0, pretend = 0, frame = 0
  77              		@ frame_needed = 0, uses_anonymous_args = 0
  78 0000 08B5     		push	{r3, lr}
  79              		.cfi_def_cfa_offset 8
  80              		.cfi_offset 3, -8
  81              		.cfi_offset 14, -4
  70:Generated_Source\PSoC5/GraphicLCDIntf.c ****     if (GraphicLCDIntf_initVar == 0u)
  82              		.loc 1 70 0
  83 0002 044B     		ldr	r3, .L8
  84 0004 1B78     		ldrb	r3, [r3]	@ zero_extendqisi2
  85 0006 23B9     		cbnz	r3, .L5
  71:Generated_Source\PSoC5/GraphicLCDIntf.c ****     {
  72:Generated_Source\PSoC5/GraphicLCDIntf.c ****         GraphicLCDIntf_Init();
  86              		.loc 1 72 0
  87 0008 FFF7FEFF 		bl	GraphicLCDIntf_Init
  88              	.LVL0:
  73:Generated_Source\PSoC5/GraphicLCDIntf.c ****         GraphicLCDIntf_initVar = 1u;
  89              		.loc 1 73 0
  90 000c 0122     		movs	r2, #1
  91 000e 014B     		ldr	r3, .L8
  92 0010 1A70     		strb	r2, [r3]
  93              	.L5:
  94 0012 08BD     		pop	{r3, pc}
  95              	.L9:
  96              		.align	2
  97              	.L8:
  98 0014 00000000 		.word	.LANCHOR0
ARM GAS  C:\Users\leoja\AppData\Local\Temp\ccytvroa.s 			page 4


  99              		.cfi_endproc
 100              	.LFE2:
 101              		.size	GraphicLCDIntf_Start, .-GraphicLCDIntf_Start
 102              		.section	.text.GraphicLCDIntf_Stop,"ax",%progbits
 103              		.align	2
 104              		.global	GraphicLCDIntf_Stop
 105              		.thumb
 106              		.thumb_func
 107              		.type	GraphicLCDIntf_Stop, %function
 108              	GraphicLCDIntf_Stop:
 109              	.LFB3:
  74:Generated_Source\PSoC5/GraphicLCDIntf.c ****     }
  75:Generated_Source\PSoC5/GraphicLCDIntf.c ****       
  76:Generated_Source\PSoC5/GraphicLCDIntf.c ****     GraphicLCDIntf_Enable();
  77:Generated_Source\PSoC5/GraphicLCDIntf.c **** }
  78:Generated_Source\PSoC5/GraphicLCDIntf.c **** 
  79:Generated_Source\PSoC5/GraphicLCDIntf.c **** 
  80:Generated_Source\PSoC5/GraphicLCDIntf.c **** /*******************************************************************************
  81:Generated_Source\PSoC5/GraphicLCDIntf.c **** * Function Name: GraphicLCDIntf_Stop
  82:Generated_Source\PSoC5/GraphicLCDIntf.c **** ********************************************************************************
  83:Generated_Source\PSoC5/GraphicLCDIntf.c **** *
  84:Generated_Source\PSoC5/GraphicLCDIntf.c **** * Summary:
  85:Generated_Source\PSoC5/GraphicLCDIntf.c **** *  Disables the GraphicLCDIntf interface.
  86:Generated_Source\PSoC5/GraphicLCDIntf.c **** *
  87:Generated_Source\PSoC5/GraphicLCDIntf.c **** *******************************************************************************/
  88:Generated_Source\PSoC5/GraphicLCDIntf.c **** void GraphicLCDIntf_Stop(void) 
  89:Generated_Source\PSoC5/GraphicLCDIntf.c **** {
 110              		.loc 1 89 0
 111              		.cfi_startproc
 112              		@ args = 0, pretend = 0, frame = 0
 113              		@ frame_needed = 0, uses_anonymous_args = 0
 114              		@ link register save eliminated.
 115 0000 7047     		bx	lr
 116              		.cfi_endproc
 117              	.LFE3:
 118              		.size	GraphicLCDIntf_Stop, .-GraphicLCDIntf_Stop
 119 0002 00BF     		.section	.text.GraphicLCDIntf_Write8,"ax",%progbits
 120              		.align	2
 121              		.global	GraphicLCDIntf_Write8
 122              		.thumb
 123              		.thumb_func
 124              		.type	GraphicLCDIntf_Write8, %function
 125              	GraphicLCDIntf_Write8:
 126              	.LFB4:
  90:Generated_Source\PSoC5/GraphicLCDIntf.c ****     /* Nothing to stop */
  91:Generated_Source\PSoC5/GraphicLCDIntf.c **** }
  92:Generated_Source\PSoC5/GraphicLCDIntf.c **** 
  93:Generated_Source\PSoC5/GraphicLCDIntf.c **** 
  94:Generated_Source\PSoC5/GraphicLCDIntf.c **** /*******************************************************************************
  95:Generated_Source\PSoC5/GraphicLCDIntf.c **** * Function Name: GraphicLCDIntf_Write8
  96:Generated_Source\PSoC5/GraphicLCDIntf.c **** ********************************************************************************
  97:Generated_Source\PSoC5/GraphicLCDIntf.c **** *
  98:Generated_Source\PSoC5/GraphicLCDIntf.c **** * Summary:
  99:Generated_Source\PSoC5/GraphicLCDIntf.c **** *  Initiates a write transaction on the 8-bit parallel
 100:Generated_Source\PSoC5/GraphicLCDIntf.c **** *  interface.
 101:Generated_Source\PSoC5/GraphicLCDIntf.c **** *  The write is a posted write, so this function will return before the write 
 102:Generated_Source\PSoC5/GraphicLCDIntf.c **** *  has actually completed on the interface. If the command queue is full, this 
ARM GAS  C:\Users\leoja\AppData\Local\Temp\ccytvroa.s 			page 5


 103:Generated_Source\PSoC5/GraphicLCDIntf.c **** *  function will not return until space is available to queue this write request.
 104:Generated_Source\PSoC5/GraphicLCDIntf.c **** *
 105:Generated_Source\PSoC5/GraphicLCDIntf.c **** * Parameters:
 106:Generated_Source\PSoC5/GraphicLCDIntf.c **** *  d_c:  Data(1) or Command(0) indication. Passed to the d_c pin.
 107:Generated_Source\PSoC5/GraphicLCDIntf.c **** *
 108:Generated_Source\PSoC5/GraphicLCDIntf.c **** *  wrData: Data sent to the do_msb[7:0] (most significant byte) 
 109:Generated_Source\PSoC5/GraphicLCDIntf.c **** *          and do_lsb[7:0] (least significant byte) pins. do_msb[7:0]
 110:Generated_Source\PSoC5/GraphicLCDIntf.c **** *          presents only for the 16-bit interface.
 111:Generated_Source\PSoC5/GraphicLCDIntf.c **** *
 112:Generated_Source\PSoC5/GraphicLCDIntf.c **** *******************************************************************************/
 113:Generated_Source\PSoC5/GraphicLCDIntf.c **** void GraphicLCDIntf_Write8(uint8 d_c, uint8 wrData) 
 114:Generated_Source\PSoC5/GraphicLCDIntf.c **** {
 127              		.loc 1 114 0
 128              		.cfi_startproc
 129              		@ args = 0, pretend = 0, frame = 0
 130              		@ frame_needed = 0, uses_anonymous_args = 0
 131              		@ link register save eliminated.
 132              	.LVL1:
 133              	.L12:
 115:Generated_Source\PSoC5/GraphicLCDIntf.c ****     while((GraphicLCDIntf_STATUS_REG & GraphicLCDIntf_CMD_QUEUE_FULL) != 0u)
 134              		.loc 1 115 0 discriminator 1
 135 0000 044B     		ldr	r3, .L13
 136 0002 1B78     		ldrb	r3, [r3]	@ zero_extendqisi2
 137 0004 13F0010F 		tst	r3, #1
 138 0008 FAD1     		bne	.L12
 116:Generated_Source\PSoC5/GraphicLCDIntf.c ****     {
 117:Generated_Source\PSoC5/GraphicLCDIntf.c ****         /* The command queue is full */
 118:Generated_Source\PSoC5/GraphicLCDIntf.c ****     }   
 119:Generated_Source\PSoC5/GraphicLCDIntf.c ****     GraphicLCDIntf_CMD_FIFO_REG = d_c;
 139              		.loc 1 119 0
 140 000a 034B     		ldr	r3, .L13+4
 141 000c 1870     		strb	r0, [r3]
 120:Generated_Source\PSoC5/GraphicLCDIntf.c ****     #if (GraphicLCDIntf_BUS_WIDTH == 16u)
 121:Generated_Source\PSoC5/GraphicLCDIntf.c ****         CY_SET_REG16(GraphicLCDIntf_DATA_FIFO_PTR, wrData);
 122:Generated_Source\PSoC5/GraphicLCDIntf.c ****     #else /* 8-bit interface */
 123:Generated_Source\PSoC5/GraphicLCDIntf.c ****         GraphicLCDIntf_DATA_FIFO_REG = wrData;
 142              		.loc 1 123 0
 143 000e 1033     		adds	r3, r3, #16
 144 0010 1970     		strb	r1, [r3]
 145 0012 7047     		bx	lr
 146              	.L14:
 147              		.align	2
 148              	.L13:
 149 0014 63640040 		.word	1073767523
 150 0018 42640040 		.word	1073767490
 151              		.cfi_endproc
 152              	.LFE4:
 153              		.size	GraphicLCDIntf_Write8, .-GraphicLCDIntf_Write8
 154              		.section	.text.GraphicLCDIntf_WriteM8,"ax",%progbits
 155              		.align	2
 156              		.global	GraphicLCDIntf_WriteM8
 157              		.thumb
 158              		.thumb_func
 159              		.type	GraphicLCDIntf_WriteM8, %function
 160              	GraphicLCDIntf_WriteM8:
 161              	.LFB5:
 124:Generated_Source\PSoC5/GraphicLCDIntf.c ****     #endif /* GraphicLCDIntf_BUS_WIDTH == 16u */
ARM GAS  C:\Users\leoja\AppData\Local\Temp\ccytvroa.s 			page 6


 125:Generated_Source\PSoC5/GraphicLCDIntf.c **** }
 126:Generated_Source\PSoC5/GraphicLCDIntf.c **** 	
 127:Generated_Source\PSoC5/GraphicLCDIntf.c **** 
 128:Generated_Source\PSoC5/GraphicLCDIntf.c **** /*******************************************************************************
 129:Generated_Source\PSoC5/GraphicLCDIntf.c **** * Function Name: GraphicLCDIntf_WriteM8
 130:Generated_Source\PSoC5/GraphicLCDIntf.c **** ********************************************************************************
 131:Generated_Source\PSoC5/GraphicLCDIntf.c **** *
 132:Generated_Source\PSoC5/GraphicLCDIntf.c **** * Summary:
 133:Generated_Source\PSoC5/GraphicLCDIntf.c **** *  Initiates multiple write transactions on the 8-bit 
 134:Generated_Source\PSoC5/GraphicLCDIntf.c **** *  parallel interface. The write is a posted write, so this function will return
 135:Generated_Source\PSoC5/GraphicLCDIntf.c **** *  before the write has actually completed on the interface. If the command 
 136:Generated_Source\PSoC5/GraphicLCDIntf.c **** *  queue is full, this function will not return until space is available to queue
 137:Generated_Source\PSoC5/GraphicLCDIntf.c **** *  this write request.
 138:Generated_Source\PSoC5/GraphicLCDIntf.c **** *
 139:Generated_Source\PSoC5/GraphicLCDIntf.c **** * Parameters:
 140:Generated_Source\PSoC5/GraphicLCDIntf.c **** *  d_c:    The Data(1) or Command(0) indication. Passed to the d_c pin.
 141:Generated_Source\PSoC5/GraphicLCDIntf.c **** *
 142:Generated_Source\PSoC5/GraphicLCDIntf.c **** *  wrData: The pointer to the the first element of a data buffer sent to the do_msb[7:0]
 143:Generated_Source\PSoC5/GraphicLCDIntf.c **** *          (most significant byte) and do_lsb[7:0] (least significant byte) pins. 
 144:Generated_Source\PSoC5/GraphicLCDIntf.c **** *          do_msb[7:0] presents only for the 16-bit interface.
 145:Generated_Source\PSoC5/GraphicLCDIntf.c **** *
 146:Generated_Source\PSoC5/GraphicLCDIntf.c **** *  num:    The number of words/bytes to write.
 147:Generated_Source\PSoC5/GraphicLCDIntf.c **** *
 148:Generated_Source\PSoC5/GraphicLCDIntf.c **** *******************************************************************************/
 149:Generated_Source\PSoC5/GraphicLCDIntf.c **** void GraphicLCDIntf_WriteM8(uint8 d_c, uint8 wrData[], uint16 num) 
 150:Generated_Source\PSoC5/GraphicLCDIntf.c **** {
 162              		.loc 1 150 0
 163              		.cfi_startproc
 164              		@ args = 0, pretend = 0, frame = 0
 165              		@ frame_needed = 0, uses_anonymous_args = 0
 166              		@ link register save eliminated.
 167              	.LVL2:
 168 0000 30B4     		push	{r4, r5}
 169              		.cfi_def_cfa_offset 8
 170              		.cfi_offset 4, -8
 171              		.cfi_offset 5, -4
 172              	.LVL3:
 151:Generated_Source\PSoC5/GraphicLCDIntf.c ****     uint32 i;
 152:Generated_Source\PSoC5/GraphicLCDIntf.c ****     
 153:Generated_Source\PSoC5/GraphicLCDIntf.c ****     for(i = 0u; i < num; i++)
 173              		.loc 1 153 0
 174 0002 0024     		movs	r4, #0
 175 0004 0AE0     		b	.L16
 176              	.LVL4:
 177              	.L17:
 154:Generated_Source\PSoC5/GraphicLCDIntf.c ****     {
 155:Generated_Source\PSoC5/GraphicLCDIntf.c ****         while((GraphicLCDIntf_STATUS_REG & GraphicLCDIntf_CMD_QUEUE_FULL) != 0u)
 178              		.loc 1 155 0 discriminator 1
 179 0006 074B     		ldr	r3, .L19
 180 0008 1B78     		ldrb	r3, [r3]	@ zero_extendqisi2
 181 000a 13F0010F 		tst	r3, #1
 182 000e FAD1     		bne	.L17
 156:Generated_Source\PSoC5/GraphicLCDIntf.c ****         {
 157:Generated_Source\PSoC5/GraphicLCDIntf.c ****             /* The command queue is full */
 158:Generated_Source\PSoC5/GraphicLCDIntf.c ****         }   
 159:Generated_Source\PSoC5/GraphicLCDIntf.c ****         GraphicLCDIntf_CMD_FIFO_REG = d_c;  
 183              		.loc 1 159 0 discriminator 2
ARM GAS  C:\Users\leoja\AppData\Local\Temp\ccytvroa.s 			page 7


 184 0010 054B     		ldr	r3, .L19+4
 185 0012 1870     		strb	r0, [r3]
 160:Generated_Source\PSoC5/GraphicLCDIntf.c ****  
 161:Generated_Source\PSoC5/GraphicLCDIntf.c ****         #if (GraphicLCDIntf_BUS_WIDTH == 16u)
 162:Generated_Source\PSoC5/GraphicLCDIntf.c ****             CY_SET_REG16(GraphicLCDIntf_DATA_FIFO_PTR, wrData[i]);
 163:Generated_Source\PSoC5/GraphicLCDIntf.c ****         #else /* 8-bit interface */
 164:Generated_Source\PSoC5/GraphicLCDIntf.c ****             GraphicLCDIntf_DATA_FIFO_REG = wrData[i];
 186              		.loc 1 164 0 discriminator 2
 187 0014 0D5D     		ldrb	r5, [r1, r4]	@ zero_extendqisi2
 188 0016 1033     		adds	r3, r3, #16
 189 0018 1D70     		strb	r5, [r3]
 153:Generated_Source\PSoC5/GraphicLCDIntf.c ****     {
 190              		.loc 1 153 0 discriminator 2
 191 001a 0134     		adds	r4, r4, #1
 192              	.LVL5:
 193              	.L16:
 153:Generated_Source\PSoC5/GraphicLCDIntf.c ****     {
 194              		.loc 1 153 0 is_stmt 0 discriminator 1
 195 001c 9442     		cmp	r4, r2
 196 001e F2D3     		bcc	.L17
 165:Generated_Source\PSoC5/GraphicLCDIntf.c ****         #endif /* GraphicLCDIntf_BUS_WIDTH == 16u */
 166:Generated_Source\PSoC5/GraphicLCDIntf.c ****     }
 167:Generated_Source\PSoC5/GraphicLCDIntf.c **** }
 197              		.loc 1 167 0 is_stmt 1
 198 0020 30BC     		pop	{r4, r5}
 199              		.cfi_restore 5
 200              		.cfi_restore 4
 201              		.cfi_def_cfa_offset 0
 202              	.LVL6:
 203 0022 7047     		bx	lr
 204              	.L20:
 205              		.align	2
 206              	.L19:
 207 0024 63640040 		.word	1073767523
 208 0028 42640040 		.word	1073767490
 209              		.cfi_endproc
 210              	.LFE5:
 211              		.size	GraphicLCDIntf_WriteM8, .-GraphicLCDIntf_WriteM8
 212              		.section	.text.GraphicLCDIntf_WriteM8_Compressed,"ax",%progbits
 213              		.align	2
 214              		.global	GraphicLCDIntf_WriteM8_Compressed
 215              		.thumb
 216              		.thumb_func
 217              		.type	GraphicLCDIntf_WriteM8_Compressed, %function
 218              	GraphicLCDIntf_WriteM8_Compressed:
 219              	.LFB6:
 168:Generated_Source\PSoC5/GraphicLCDIntf.c **** 
 169:Generated_Source\PSoC5/GraphicLCDIntf.c **** void GraphicLCDIntf_WriteM8_Compressed(uint8 d_c, uint8 wrData[], uint16 num) 
 170:Generated_Source\PSoC5/GraphicLCDIntf.c **** {
 220              		.loc 1 170 0
 221              		.cfi_startproc
 222              		@ args = 0, pretend = 0, frame = 16
 223              		@ frame_needed = 0, uses_anonymous_args = 0
 224              	.LVL7:
 225 0000 F0B5     		push	{r4, r5, r6, r7, lr}
 226              		.cfi_def_cfa_offset 20
 227              		.cfi_offset 4, -20
ARM GAS  C:\Users\leoja\AppData\Local\Temp\ccytvroa.s 			page 8


 228              		.cfi_offset 5, -16
 229              		.cfi_offset 6, -12
 230              		.cfi_offset 7, -8
 231              		.cfi_offset 14, -4
 232 0002 85B0     		sub	sp, sp, #20
 233              		.cfi_def_cfa_offset 40
 171:Generated_Source\PSoC5/GraphicLCDIntf.c ****     uint32 i;
 172:Generated_Source\PSoC5/GraphicLCDIntf.c ****     uint8 j;
 173:Generated_Source\PSoC5/GraphicLCDIntf.c ****     uint8 k;
 174:Generated_Source\PSoC5/GraphicLCDIntf.c ****     uint8 l;
 175:Generated_Source\PSoC5/GraphicLCDIntf.c **** 
 176:Generated_Source\PSoC5/GraphicLCDIntf.c ****     uint8_t* color;
 177:Generated_Source\PSoC5/GraphicLCDIntf.c ****     
 178:Generated_Source\PSoC5/GraphicLCDIntf.c ****     uint8_t BLUE[] = {0x02, 0x28, 0x51};
 234              		.loc 1 178 0
 235 0004 224B     		ldr	r3, .L33
 236 0006 1D88     		ldrh	r5, [r3]	@ unaligned
 237 0008 9C78     		ldrb	r4, [r3, #2]	@ zero_extendqisi2
 238 000a ADF80C50 		strh	r5, [sp, #12]	@ unaligned
 239 000e 8DF80E40 		strb	r4, [sp, #14]
 179:Generated_Source\PSoC5/GraphicLCDIntf.c ****     uint8_t GOLD[] = {0xFF, 0xBF, 0x00};
 240              		.loc 1 179 0
 241 0012 1C46     		mov	r4, r3
 242 0014 34F8045F 		ldrh	r5, [r4, #4]!	@ unaligned
 243 0018 A478     		ldrb	r4, [r4, #2]	@ zero_extendqisi2
 244 001a ADF80850 		strh	r5, [sp, #8]	@ unaligned
 245 001e 8DF80A40 		strb	r4, [sp, #10]
 180:Generated_Source\PSoC5/GraphicLCDIntf.c ****     uint8_t WHITE[] = {0xFF, 0xFF, 0xFF};
 246              		.loc 1 180 0
 247 0022 33F8084F 		ldrh	r4, [r3, #8]!	@ unaligned
 248 0026 9B78     		ldrb	r3, [r3, #2]	@ zero_extendqisi2
 249 0028 ADF80440 		strh	r4, [sp, #4]	@ unaligned
 250 002c 8DF80630 		strb	r3, [sp, #6]
 251              	.LVL8:
 181:Generated_Source\PSoC5/GraphicLCDIntf.c ****     
 182:Generated_Source\PSoC5/GraphicLCDIntf.c ****     for(i = 0u; i < num; i++)
 252              		.loc 1 182 0
 253 0030 4FF0000C 		mov	ip, #0
 254 0034 28E0     		b	.L22
 255              	.LVL9:
 256              	.L29:
 183:Generated_Source\PSoC5/GraphicLCDIntf.c ****     {
 184:Generated_Source\PSoC5/GraphicLCDIntf.c ****         
 185:Generated_Source\PSoC5/GraphicLCDIntf.c ****         if(wrData[i]&0x80){
 257              		.loc 1 185 0
 258 0036 11F80CE0 		ldrb	lr, [r1, ip]	@ zero_extendqisi2
 259 003a 1EF0800F 		tst	lr, #128
 260 003e 03D0     		beq	.L23
 261              	.LVL10:
 186:Generated_Source\PSoC5/GraphicLCDIntf.c ****             color = WHITE;
 187:Generated_Source\PSoC5/GraphicLCDIntf.c ****             k = wrData[i]&0x7F;
 262              		.loc 1 187 0
 263 0040 0EF07F0E 		and	lr, lr, #127
 264              	.LVL11:
 186:Generated_Source\PSoC5/GraphicLCDIntf.c ****             color = WHITE;
 265              		.loc 1 186 0
 266 0044 01AF     		add	r7, sp, #4
ARM GAS  C:\Users\leoja\AppData\Local\Temp\ccytvroa.s 			page 9


 267              	.LVL12:
 268 0046 07E0     		b	.L24
 269              	.LVL13:
 270              	.L23:
 188:Generated_Source\PSoC5/GraphicLCDIntf.c ****         } else {
 189:Generated_Source\PSoC5/GraphicLCDIntf.c ****             if(wrData[i]&0x40)
 271              		.loc 1 189 0
 272 0048 1EF0400F 		tst	lr, #64
 273 004c 01D0     		beq	.L30
 190:Generated_Source\PSoC5/GraphicLCDIntf.c ****                 color = BLUE;
 274              		.loc 1 190 0
 275 004e 03AF     		add	r7, sp, #12
 276 0050 00E0     		b	.L25
 277              	.L30:
 191:Generated_Source\PSoC5/GraphicLCDIntf.c ****             else 
 192:Generated_Source\PSoC5/GraphicLCDIntf.c ****                 color = GOLD;
 278              		.loc 1 192 0
 279 0052 02AF     		add	r7, sp, #8
 280              	.L25:
 281              	.LVL14:
 193:Generated_Source\PSoC5/GraphicLCDIntf.c ****             
 194:Generated_Source\PSoC5/GraphicLCDIntf.c ****             k = wrData[i]&0x3F;
 282              		.loc 1 194 0
 283 0054 0EF03F0E 		and	lr, lr, #63
 284              	.LVL15:
 285              	.L24:
 195:Generated_Source\PSoC5/GraphicLCDIntf.c ****         }
 196:Generated_Source\PSoC5/GraphicLCDIntf.c ****             
 197:Generated_Source\PSoC5/GraphicLCDIntf.c ****         for(l=0; l<=k; l++){
 286              		.loc 1 197 0
 287 0058 0026     		movs	r6, #0
 288 005a 11E0     		b	.L26
 289              	.LVL16:
 290              	.L27:
 198:Generated_Source\PSoC5/GraphicLCDIntf.c ****             for(j = 0; j<3; j++){
 199:Generated_Source\PSoC5/GraphicLCDIntf.c ****                 while((GraphicLCDIntf_STATUS_REG & GraphicLCDIntf_CMD_QUEUE_FULL) != 0u)
 291              		.loc 1 199 0 discriminator 1
 292 005c 0D4B     		ldr	r3, .L33+4
 293 005e 1B78     		ldrb	r3, [r3]	@ zero_extendqisi2
 294 0060 13F0010F 		tst	r3, #1
 295 0064 FAD1     		bne	.L27
 200:Generated_Source\PSoC5/GraphicLCDIntf.c ****                 {
 201:Generated_Source\PSoC5/GraphicLCDIntf.c ****                     /* The command queue is full */
 202:Generated_Source\PSoC5/GraphicLCDIntf.c ****                 }   
 203:Generated_Source\PSoC5/GraphicLCDIntf.c ****                 GraphicLCDIntf_CMD_FIFO_REG = d_c;  
 296              		.loc 1 203 0 discriminator 2
 297 0066 0C4B     		ldr	r3, .L33+8
 298 0068 1870     		strb	r0, [r3]
 204:Generated_Source\PSoC5/GraphicLCDIntf.c ****          
 205:Generated_Source\PSoC5/GraphicLCDIntf.c ****                 #if (GraphicLCDIntf_BUS_WIDTH == 16u)
 206:Generated_Source\PSoC5/GraphicLCDIntf.c ****                     CY_SET_REG16(GraphicLCDIntf_DATA_FIFO_PTR, wrData[i]);
 207:Generated_Source\PSoC5/GraphicLCDIntf.c ****                 #else /* 8-bit interface */
 208:Generated_Source\PSoC5/GraphicLCDIntf.c ****                     GraphicLCDIntf_DATA_FIFO_REG = color[j];
 299              		.loc 1 208 0 discriminator 2
 300 006a 3D5D     		ldrb	r5, [r7, r4]	@ zero_extendqisi2
 301 006c 1033     		adds	r3, r3, #16
 302 006e 1D70     		strb	r5, [r3]
ARM GAS  C:\Users\leoja\AppData\Local\Temp\ccytvroa.s 			page 10


 198:Generated_Source\PSoC5/GraphicLCDIntf.c ****                 while((GraphicLCDIntf_STATUS_REG & GraphicLCDIntf_CMD_QUEUE_FULL) != 0u)
 303              		.loc 1 198 0 discriminator 2
 304 0070 0134     		adds	r4, r4, #1
 305              	.LVL17:
 306 0072 E4B2     		uxtb	r4, r4
 307              	.LVL18:
 308 0074 00E0     		b	.L28
 309              	.LVL19:
 310              	.L31:
 311 0076 0024     		movs	r4, #0
 312              	.L28:
 313              	.LVL20:
 198:Generated_Source\PSoC5/GraphicLCDIntf.c ****                 while((GraphicLCDIntf_STATUS_REG & GraphicLCDIntf_CMD_QUEUE_FULL) != 0u)
 314              		.loc 1 198 0 is_stmt 0 discriminator 1
 315 0078 022C     		cmp	r4, #2
 316 007a EFD9     		bls	.L27
 197:Generated_Source\PSoC5/GraphicLCDIntf.c ****             for(j = 0; j<3; j++){
 317              		.loc 1 197 0 is_stmt 1 discriminator 2
 318 007c 0136     		adds	r6, r6, #1
 319              	.LVL21:
 320 007e F6B2     		uxtb	r6, r6
 321              	.LVL22:
 322              	.L26:
 197:Generated_Source\PSoC5/GraphicLCDIntf.c ****             for(j = 0; j<3; j++){
 323              		.loc 1 197 0 is_stmt 0 discriminator 1
 324 0080 B645     		cmp	lr, r6
 325 0082 F8D2     		bcs	.L31
 182:Generated_Source\PSoC5/GraphicLCDIntf.c ****     {
 326              		.loc 1 182 0 is_stmt 1 discriminator 2
 327 0084 0CF1010C 		add	ip, ip, #1
 328              	.LVL23:
 329              	.L22:
 182:Generated_Source\PSoC5/GraphicLCDIntf.c ****     {
 330              		.loc 1 182 0 is_stmt 0 discriminator 1
 331 0088 9445     		cmp	ip, r2
 332 008a D4D3     		bcc	.L29
 209:Generated_Source\PSoC5/GraphicLCDIntf.c ****                 #endif /* GraphicLCDIntf_BUS_WIDTH == 16u */
 210:Generated_Source\PSoC5/GraphicLCDIntf.c ****             }
 211:Generated_Source\PSoC5/GraphicLCDIntf.c ****         }
 212:Generated_Source\PSoC5/GraphicLCDIntf.c ****     }
 213:Generated_Source\PSoC5/GraphicLCDIntf.c **** }
 333              		.loc 1 213 0 is_stmt 1
 334 008c 05B0     		add	sp, sp, #20
 335              		.cfi_def_cfa_offset 20
 336              		@ sp needed
 337 008e F0BD     		pop	{r4, r5, r6, r7, pc}
 338              	.L34:
 339              		.align	2
 340              	.L33:
 341 0090 00000000 		.word	.LANCHOR1
 342 0094 63640040 		.word	1073767523
 343 0098 42640040 		.word	1073767490
 344              		.cfi_endproc
 345              	.LFE6:
 346              		.size	GraphicLCDIntf_WriteM8_Compressed, .-GraphicLCDIntf_WriteM8_Compressed
 347              		.section	.text.GraphicLCDIntf_Read8,"ax",%progbits
 348              		.align	2
ARM GAS  C:\Users\leoja\AppData\Local\Temp\ccytvroa.s 			page 11


 349              		.global	GraphicLCDIntf_Read8
 350              		.thumb
 351              		.thumb_func
 352              		.type	GraphicLCDIntf_Read8, %function
 353              	GraphicLCDIntf_Read8:
 354              	.LFB7:
 214:Generated_Source\PSoC5/GraphicLCDIntf.c **** 
 215:Generated_Source\PSoC5/GraphicLCDIntf.c **** 
 216:Generated_Source\PSoC5/GraphicLCDIntf.c **** /*******************************************************************************
 217:Generated_Source\PSoC5/GraphicLCDIntf.c **** * Function Name: GraphicLCDIntf_Read8
 218:Generated_Source\PSoC5/GraphicLCDIntf.c **** ********************************************************************************
 219:Generated_Source\PSoC5/GraphicLCDIntf.c **** *
 220:Generated_Source\PSoC5/GraphicLCDIntf.c **** * Summary:
 221:Generated_Source\PSoC5/GraphicLCDIntf.c **** *  Initiates a read transaction on the 8-bit parallel interface.
 222:Generated_Source\PSoC5/GraphicLCDIntf.c **** *  The read will execute after all currently posted writes have completed. This 
 223:Generated_Source\PSoC5/GraphicLCDIntf.c **** *  function will wait until the read completes and then returns the read value.
 224:Generated_Source\PSoC5/GraphicLCDIntf.c **** *
 225:Generated_Source\PSoC5/GraphicLCDIntf.c **** * Parameters:
 226:Generated_Source\PSoC5/GraphicLCDIntf.c **** *  d_c: Data(1) or Command(0) indication. Passed to the d_c pin.
 227:Generated_Source\PSoC5/GraphicLCDIntf.c **** *
 228:Generated_Source\PSoC5/GraphicLCDIntf.c **** * Return:
 229:Generated_Source\PSoC5/GraphicLCDIntf.c **** *  The 16-bit read value from the di_msb[7:0] (most significant byte) and 
 230:Generated_Source\PSoC5/GraphicLCDIntf.c **** *  di_lsb[7:0] (least significant byte) pins for the 16-bit interface or the 
 231:Generated_Source\PSoC5/GraphicLCDIntf.c **** *  8-bit read value from the di_lsb[7:0] for 8-bit interface.
 232:Generated_Source\PSoC5/GraphicLCDIntf.c **** *
 233:Generated_Source\PSoC5/GraphicLCDIntf.c **** *******************************************************************************/
 234:Generated_Source\PSoC5/GraphicLCDIntf.c **** uint8 GraphicLCDIntf_Read8(uint8 d_c) 
 235:Generated_Source\PSoC5/GraphicLCDIntf.c **** {
 355              		.loc 1 235 0
 356              		.cfi_startproc
 357              		@ args = 0, pretend = 0, frame = 0
 358              		@ frame_needed = 0, uses_anonymous_args = 0
 359              		@ link register save eliminated.
 360              	.LVL24:
 361              	.L36:
 236:Generated_Source\PSoC5/GraphicLCDIntf.c ****     while((GraphicLCDIntf_STATUS_REG & GraphicLCDIntf_CMD_QUEUE_FULL) != 0u)
 362              		.loc 1 236 0 discriminator 1
 363 0000 084B     		ldr	r3, .L38
 364 0002 1B78     		ldrb	r3, [r3]	@ zero_extendqisi2
 365 0004 13F0010F 		tst	r3, #1
 366 0008 FAD1     		bne	.L36
 237:Generated_Source\PSoC5/GraphicLCDIntf.c ****     {
 238:Generated_Source\PSoC5/GraphicLCDIntf.c ****         /* The command queue is full */
 239:Generated_Source\PSoC5/GraphicLCDIntf.c ****     }   
 240:Generated_Source\PSoC5/GraphicLCDIntf.c ****     GraphicLCDIntf_CMD_FIFO_REG = d_c | GraphicLCDIntf_READ_COMMAND;
 367              		.loc 1 240 0
 368 000a 40F00200 		orr	r0, r0, #2
 369              	.LVL25:
 370 000e 064B     		ldr	r3, .L38+4
 371 0010 1870     		strb	r0, [r3]
 372              	.L37:
 241:Generated_Source\PSoC5/GraphicLCDIntf.c ****     
 242:Generated_Source\PSoC5/GraphicLCDIntf.c ****     while((GraphicLCDIntf_STATUS_REG & GraphicLCDIntf_DATA_VALID) != GraphicLCDIntf_DATA_VALID)
 373              		.loc 1 242 0 discriminator 1
 374 0012 044B     		ldr	r3, .L38
 375 0014 1B78     		ldrb	r3, [r3]	@ zero_extendqisi2
 376 0016 13F0020F 		tst	r3, #2
ARM GAS  C:\Users\leoja\AppData\Local\Temp\ccytvroa.s 			page 12


 377 001a FAD0     		beq	.L37
 243:Generated_Source\PSoC5/GraphicLCDIntf.c ****     {
 244:Generated_Source\PSoC5/GraphicLCDIntf.c ****         /* Wait until input data is valid */
 245:Generated_Source\PSoC5/GraphicLCDIntf.c ****     }
 246:Generated_Source\PSoC5/GraphicLCDIntf.c ****     
 247:Generated_Source\PSoC5/GraphicLCDIntf.c ****     #if (GraphicLCDIntf_BUS_WIDTH == 8u)  /* 8-bit interface */
 248:Generated_Source\PSoC5/GraphicLCDIntf.c ****         return (GraphicLCDIntf_DIN_LSB_DATA_REG);
 378              		.loc 1 248 0
 379 001c 034B     		ldr	r3, .L38+8
 380 001e 1878     		ldrb	r0, [r3]	@ zero_extendqisi2
 249:Generated_Source\PSoC5/GraphicLCDIntf.c ****     #else   /* 16-bit interface */
 250:Generated_Source\PSoC5/GraphicLCDIntf.c ****         return (uint16)((uint16)GraphicLCDIntf_DIN_MSB_DATA_REG << 8u) | GraphicLCDIntf_DIN_LSB_DAT
 251:Generated_Source\PSoC5/GraphicLCDIntf.c ****     #endif /* GraphicLCDIntf_BUS_WIDTH == 8u */
 252:Generated_Source\PSoC5/GraphicLCDIntf.c **** }
 381              		.loc 1 252 0
 382 0020 7047     		bx	lr
 383              	.L39:
 384 0022 00BF     		.align	2
 385              	.L38:
 386 0024 63640040 		.word	1073767523
 387 0028 42640040 		.word	1073767490
 388 002c 62640040 		.word	1073767522
 389              		.cfi_endproc
 390              	.LFE7:
 391              		.size	GraphicLCDIntf_Read8, .-GraphicLCDIntf_Read8
 392              		.section	.text.GraphicLCDIntf_ReadM8,"ax",%progbits
 393              		.align	2
 394              		.global	GraphicLCDIntf_ReadM8
 395              		.thumb
 396              		.thumb_func
 397              		.type	GraphicLCDIntf_ReadM8, %function
 398              	GraphicLCDIntf_ReadM8:
 399              	.LFB8:
 253:Generated_Source\PSoC5/GraphicLCDIntf.c **** 
 254:Generated_Source\PSoC5/GraphicLCDIntf.c **** 
 255:Generated_Source\PSoC5/GraphicLCDIntf.c **** /*******************************************************************************
 256:Generated_Source\PSoC5/GraphicLCDIntf.c **** * Function Name: GraphicLCDIntf_ReadM8
 257:Generated_Source\PSoC5/GraphicLCDIntf.c **** ********************************************************************************
 258:Generated_Source\PSoC5/GraphicLCDIntf.c **** *
 259:Generated_Source\PSoC5/GraphicLCDIntf.c **** * Summary:
 260:Generated_Source\PSoC5/GraphicLCDIntf.c **** *  Initiates multiple read transactions on the 8-bit 
 261:Generated_Source\PSoC5/GraphicLCDIntf.c **** *  parallel interface. The read will execute after all currently posted writes 
 262:Generated_Source\PSoC5/GraphicLCDIntf.c **** *  have completed. This function will wait until the read completes and then 
 263:Generated_Source\PSoC5/GraphicLCDIntf.c **** *  returns the read value.
 264:Generated_Source\PSoC5/GraphicLCDIntf.c **** *
 265:Generated_Source\PSoC5/GraphicLCDIntf.c **** * Parameters:
 266:Generated_Source\PSoC5/GraphicLCDIntf.c **** *  d_c:    The Data(1) or Command(0) indication. Passed to the d_c pin.
 267:Generated_Source\PSoC5/GraphicLCDIntf.c **** *
 268:Generated_Source\PSoC5/GraphicLCDIntf.c **** *  rdData: The pointer to the the first element of a data buffer read from the do_msb[7:0]
 269:Generated_Source\PSoC5/GraphicLCDIntf.c **** *          (most significant byte) and do_lsb[7:0] (least significant byte) pins. 
 270:Generated_Source\PSoC5/GraphicLCDIntf.c **** *          do_msb[7:0] presents only for the 16-bit interface.
 271:Generated_Source\PSoC5/GraphicLCDIntf.c **** *
 272:Generated_Source\PSoC5/GraphicLCDIntf.c **** *  num:    The number of words/bytes to read.
 273:Generated_Source\PSoC5/GraphicLCDIntf.c **** *
 274:Generated_Source\PSoC5/GraphicLCDIntf.c **** *******************************************************************************/
 275:Generated_Source\PSoC5/GraphicLCDIntf.c **** void GraphicLCDIntf_ReadM8(uint8 d_c, uint8 rdData[], uint16 num) 
 276:Generated_Source\PSoC5/GraphicLCDIntf.c **** {
ARM GAS  C:\Users\leoja\AppData\Local\Temp\ccytvroa.s 			page 13


 400              		.loc 1 276 0
 401              		.cfi_startproc
 402              		@ args = 0, pretend = 0, frame = 0
 403              		@ frame_needed = 0, uses_anonymous_args = 0
 404              	.LVL26:
 405 0000 F8B5     		push	{r3, r4, r5, r6, r7, lr}
 406              		.cfi_def_cfa_offset 24
 407              		.cfi_offset 3, -24
 408              		.cfi_offset 4, -20
 409              		.cfi_offset 5, -16
 410              		.cfi_offset 6, -12
 411              		.cfi_offset 7, -8
 412              		.cfi_offset 14, -4
 413 0002 0746     		mov	r7, r0
 414 0004 0E46     		mov	r6, r1
 415 0006 1546     		mov	r5, r2
 416              	.LVL27:
 277:Generated_Source\PSoC5/GraphicLCDIntf.c ****     uint32 i;
 278:Generated_Source\PSoC5/GraphicLCDIntf.c ****     
 279:Generated_Source\PSoC5/GraphicLCDIntf.c ****     for(i = 0u; i < num; i++)
 417              		.loc 1 279 0
 418 0008 0024     		movs	r4, #0
 419 000a 04E0     		b	.L41
 420              	.LVL28:
 421              	.L42:
 280:Generated_Source\PSoC5/GraphicLCDIntf.c ****     {
 281:Generated_Source\PSoC5/GraphicLCDIntf.c ****         rdData[i] = GraphicLCDIntf_Read8(d_c);
 422              		.loc 1 281 0 discriminator 3
 423 000c 3846     		mov	r0, r7
 424 000e FFF7FEFF 		bl	GraphicLCDIntf_Read8
 425              	.LVL29:
 426 0012 3055     		strb	r0, [r6, r4]
 279:Generated_Source\PSoC5/GraphicLCDIntf.c ****     {
 427              		.loc 1 279 0 discriminator 3
 428 0014 0134     		adds	r4, r4, #1
 429              	.LVL30:
 430              	.L41:
 279:Generated_Source\PSoC5/GraphicLCDIntf.c ****     {
 431              		.loc 1 279 0 is_stmt 0 discriminator 1
 432 0016 AC42     		cmp	r4, r5
 433 0018 F8D3     		bcc	.L42
 282:Generated_Source\PSoC5/GraphicLCDIntf.c ****     }
 283:Generated_Source\PSoC5/GraphicLCDIntf.c **** }
 434              		.loc 1 283 0 is_stmt 1
 435 001a F8BD     		pop	{r3, r4, r5, r6, r7, pc}
 436              		.cfi_endproc
 437              	.LFE8:
 438              		.size	GraphicLCDIntf_ReadM8, .-GraphicLCDIntf_ReadM8
 439              		.section	.text.GraphicLCDIntf_Write8_A0,"ax",%progbits
 440              		.align	2
 441              		.global	GraphicLCDIntf_Write8_A0
 442              		.thumb
 443              		.thumb_func
 444              		.type	GraphicLCDIntf_Write8_A0, %function
 445              	GraphicLCDIntf_Write8_A0:
 446              	.LFB9:
 284:Generated_Source\PSoC5/GraphicLCDIntf.c **** 
ARM GAS  C:\Users\leoja\AppData\Local\Temp\ccytvroa.s 			page 14


 285:Generated_Source\PSoC5/GraphicLCDIntf.c **** 
 286:Generated_Source\PSoC5/GraphicLCDIntf.c **** /*******************************************************************************
 287:Generated_Source\PSoC5/GraphicLCDIntf.c **** * Function Name: GraphicLCDIntf_Write8_A0
 288:Generated_Source\PSoC5/GraphicLCDIntf.c **** ********************************************************************************
 289:Generated_Source\PSoC5/GraphicLCDIntf.c **** *
 290:Generated_Source\PSoC5/GraphicLCDIntf.c **** * Summary:
 291:Generated_Source\PSoC5/GraphicLCDIntf.c **** *  Initiates a write transaction on the 8-bit parallel
 292:Generated_Source\PSoC5/GraphicLCDIntf.c **** *  interface with the d_c pin set to 0.
 293:Generated_Source\PSoC5/GraphicLCDIntf.c **** *  The write is a posted write, so this function will return before the write 
 294:Generated_Source\PSoC5/GraphicLCDIntf.c **** *  has actually completed on the interface. If the command queue is full, this 
 295:Generated_Source\PSoC5/GraphicLCDIntf.c **** *  function will not return until space is availale to queue this write request.
 296:Generated_Source\PSoC5/GraphicLCDIntf.c **** *
 297:Generated_Source\PSoC5/GraphicLCDIntf.c **** * Parameters:
 298:Generated_Source\PSoC5/GraphicLCDIntf.c **** *  wrData: Data sent on the do_msb[7:0] (most significant byte) 
 299:Generated_Source\PSoC5/GraphicLCDIntf.c **** *         and do_lsb[7:0] (least significant byte) pins. do_msb[7:0]
 300:Generated_Source\PSoC5/GraphicLCDIntf.c **** *         presents only for 16-bit interface.
 301:Generated_Source\PSoC5/GraphicLCDIntf.c **** *
 302:Generated_Source\PSoC5/GraphicLCDIntf.c **** *******************************************************************************/
 303:Generated_Source\PSoC5/GraphicLCDIntf.c **** void GraphicLCDIntf_Write8_A0(uint8 wrData) 
 304:Generated_Source\PSoC5/GraphicLCDIntf.c **** {
 447              		.loc 1 304 0
 448              		.cfi_startproc
 449              		@ args = 0, pretend = 0, frame = 0
 450              		@ frame_needed = 0, uses_anonymous_args = 0
 451              		@ link register save eliminated.
 452              	.LVL31:
 453              	.L45:
 305:Generated_Source\PSoC5/GraphicLCDIntf.c ****     while((GraphicLCDIntf_STATUS_REG & GraphicLCDIntf_CMD_QUEUE_FULL) != 0u)
 454              		.loc 1 305 0 discriminator 1
 455 0000 054B     		ldr	r3, .L46
 456 0002 1B78     		ldrb	r3, [r3]	@ zero_extendqisi2
 457 0004 13F0010F 		tst	r3, #1
 458 0008 FAD1     		bne	.L45
 306:Generated_Source\PSoC5/GraphicLCDIntf.c ****     {
 307:Generated_Source\PSoC5/GraphicLCDIntf.c ****         /* Command queue is full */
 308:Generated_Source\PSoC5/GraphicLCDIntf.c ****     }   
 309:Generated_Source\PSoC5/GraphicLCDIntf.c ****     GraphicLCDIntf_CMD_FIFO_REG = 0u;
 459              		.loc 1 309 0
 460 000a 0022     		movs	r2, #0
 461 000c 034B     		ldr	r3, .L46+4
 462 000e 1A70     		strb	r2, [r3]
 310:Generated_Source\PSoC5/GraphicLCDIntf.c ****     #if (GraphicLCDIntf_BUS_WIDTH == 16u)
 311:Generated_Source\PSoC5/GraphicLCDIntf.c ****         CY_SET_REG16(GraphicLCDIntf_DATA_FIFO_PTR, wrData);
 312:Generated_Source\PSoC5/GraphicLCDIntf.c ****     #else /* 8-bit interface */
 313:Generated_Source\PSoC5/GraphicLCDIntf.c ****         GraphicLCDIntf_DATA_FIFO_REG = wrData;
 463              		.loc 1 313 0
 464 0010 1033     		adds	r3, r3, #16
 465 0012 1870     		strb	r0, [r3]
 466 0014 7047     		bx	lr
 467              	.L47:
 468 0016 00BF     		.align	2
 469              	.L46:
 470 0018 63640040 		.word	1073767523
 471 001c 42640040 		.word	1073767490
 472              		.cfi_endproc
 473              	.LFE9:
 474              		.size	GraphicLCDIntf_Write8_A0, .-GraphicLCDIntf_Write8_A0
ARM GAS  C:\Users\leoja\AppData\Local\Temp\ccytvroa.s 			page 15


 475              		.section	.text.GraphicLCDIntf_Write8_A1,"ax",%progbits
 476              		.align	2
 477              		.global	GraphicLCDIntf_Write8_A1
 478              		.thumb
 479              		.thumb_func
 480              		.type	GraphicLCDIntf_Write8_A1, %function
 481              	GraphicLCDIntf_Write8_A1:
 482              	.LFB10:
 314:Generated_Source\PSoC5/GraphicLCDIntf.c ****     #endif /* GraphicLCDIntf_BUS_WIDTH == 16u */
 315:Generated_Source\PSoC5/GraphicLCDIntf.c **** }
 316:Generated_Source\PSoC5/GraphicLCDIntf.c **** 
 317:Generated_Source\PSoC5/GraphicLCDIntf.c **** 
 318:Generated_Source\PSoC5/GraphicLCDIntf.c **** /*******************************************************************************
 319:Generated_Source\PSoC5/GraphicLCDIntf.c **** * Function Name: GraphicLCDIntf_Write8_A1
 320:Generated_Source\PSoC5/GraphicLCDIntf.c **** ********************************************************************************
 321:Generated_Source\PSoC5/GraphicLCDIntf.c **** *
 322:Generated_Source\PSoC5/GraphicLCDIntf.c **** * Summary:
 323:Generated_Source\PSoC5/GraphicLCDIntf.c **** *  Initiates a write transaction on the 8-bit 
 324:Generated_Source\PSoC5/GraphicLCDIntf.c **** *  parallel interface with the d_c pin set to 1. The write is a posted write, 
 325:Generated_Source\PSoC5/GraphicLCDIntf.c **** *  so this function will return before the write has actually completed on the 
 326:Generated_Source\PSoC5/GraphicLCDIntf.c **** *  interface. If the command queue is full, this function will not return until
 327:Generated_Source\PSoC5/GraphicLCDIntf.c **** *  space is availale to queue this write request.
 328:Generated_Source\PSoC5/GraphicLCDIntf.c **** *
 329:Generated_Source\PSoC5/GraphicLCDIntf.c **** * Parameters:
 330:Generated_Source\PSoC5/GraphicLCDIntf.c **** *  wrData: Data sent on the do_msb[7:0] (most significant byte) 
 331:Generated_Source\PSoC5/GraphicLCDIntf.c **** *          and do_lsb[7:0] (least significant byte) pins. do_msb[7:0]
 332:Generated_Source\PSoC5/GraphicLCDIntf.c **** *          presents only for 16-bit interface.
 333:Generated_Source\PSoC5/GraphicLCDIntf.c **** *
 334:Generated_Source\PSoC5/GraphicLCDIntf.c **** *******************************************************************************/
 335:Generated_Source\PSoC5/GraphicLCDIntf.c **** void GraphicLCDIntf_Write8_A1(uint8 wrData) 
 336:Generated_Source\PSoC5/GraphicLCDIntf.c **** {
 483              		.loc 1 336 0
 484              		.cfi_startproc
 485              		@ args = 0, pretend = 0, frame = 0
 486              		@ frame_needed = 0, uses_anonymous_args = 0
 487              		@ link register save eliminated.
 488              	.LVL32:
 489              	.L49:
 337:Generated_Source\PSoC5/GraphicLCDIntf.c ****     while((GraphicLCDIntf_STATUS_REG & GraphicLCDIntf_CMD_QUEUE_FULL) != 0u)
 490              		.loc 1 337 0 discriminator 1
 491 0000 054B     		ldr	r3, .L50
 492 0002 1B78     		ldrb	r3, [r3]	@ zero_extendqisi2
 493 0004 13F0010F 		tst	r3, #1
 494 0008 FAD1     		bne	.L49
 338:Generated_Source\PSoC5/GraphicLCDIntf.c ****     {
 339:Generated_Source\PSoC5/GraphicLCDIntf.c ****         /* Command queue is full */
 340:Generated_Source\PSoC5/GraphicLCDIntf.c ****     }   
 341:Generated_Source\PSoC5/GraphicLCDIntf.c ****     GraphicLCDIntf_CMD_FIFO_REG = 1u;
 495              		.loc 1 341 0
 496 000a 0122     		movs	r2, #1
 497 000c 034B     		ldr	r3, .L50+4
 498 000e 1A70     		strb	r2, [r3]
 342:Generated_Source\PSoC5/GraphicLCDIntf.c ****     #if (GraphicLCDIntf_BUS_WIDTH == 16u)
 343:Generated_Source\PSoC5/GraphicLCDIntf.c ****         CY_SET_REG16(GraphicLCDIntf_DATA_FIFO_PTR, wrData);
 344:Generated_Source\PSoC5/GraphicLCDIntf.c ****     #else /* 8-bit interface */
 345:Generated_Source\PSoC5/GraphicLCDIntf.c ****         GraphicLCDIntf_DATA_FIFO_REG = wrData;
 499              		.loc 1 345 0
ARM GAS  C:\Users\leoja\AppData\Local\Temp\ccytvroa.s 			page 16


 500 0010 1033     		adds	r3, r3, #16
 501 0012 1870     		strb	r0, [r3]
 502 0014 7047     		bx	lr
 503              	.L51:
 504 0016 00BF     		.align	2
 505              	.L50:
 506 0018 63640040 		.word	1073767523
 507 001c 42640040 		.word	1073767490
 508              		.cfi_endproc
 509              	.LFE10:
 510              		.size	GraphicLCDIntf_Write8_A1, .-GraphicLCDIntf_Write8_A1
 511              		.section	.text.GraphicLCDIntf_WriteM8_A0,"ax",%progbits
 512              		.align	2
 513              		.global	GraphicLCDIntf_WriteM8_A0
 514              		.thumb
 515              		.thumb_func
 516              		.type	GraphicLCDIntf_WriteM8_A0, %function
 517              	GraphicLCDIntf_WriteM8_A0:
 518              	.LFB11:
 346:Generated_Source\PSoC5/GraphicLCDIntf.c ****     #endif /* GraphicLCDIntf_BUS_WIDTH == 16u */
 347:Generated_Source\PSoC5/GraphicLCDIntf.c **** }
 348:Generated_Source\PSoC5/GraphicLCDIntf.c **** 
 349:Generated_Source\PSoC5/GraphicLCDIntf.c **** 
 350:Generated_Source\PSoC5/GraphicLCDIntf.c **** /*******************************************************************************
 351:Generated_Source\PSoC5/GraphicLCDIntf.c **** * Function Name: GraphicLCDIntf_WriteM8_A0
 352:Generated_Source\PSoC5/GraphicLCDIntf.c **** ********************************************************************************
 353:Generated_Source\PSoC5/GraphicLCDIntf.c **** *
 354:Generated_Source\PSoC5/GraphicLCDIntf.c **** * Summary:
 355:Generated_Source\PSoC5/GraphicLCDIntf.c **** *  Initiates multiple write transactions on the 8-bit 
 356:Generated_Source\PSoC5/GraphicLCDIntf.c **** *  parallel interface with the d_c pin set to 0. The write is a posted write, 
 357:Generated_Source\PSoC5/GraphicLCDIntf.c **** *  so this function will return before the write has actually completed on the 
 358:Generated_Source\PSoC5/GraphicLCDIntf.c **** *  interface. If the command queue is full, this function will not return until
 359:Generated_Source\PSoC5/GraphicLCDIntf.c **** *  space is availale to queue this write request.
 360:Generated_Source\PSoC5/GraphicLCDIntf.c **** *
 361:Generated_Source\PSoC5/GraphicLCDIntf.c **** * Parameters:
 362:Generated_Source\PSoC5/GraphicLCDIntf.c **** *  wrData: Pointer to the the first element of a data buffer sent on the 
 363:Generated_Source\PSoC5/GraphicLCDIntf.c **** *          do_msb[7:0] (most significant byte) and do_lsb[7:0] (least significant
 364:Generated_Source\PSoC5/GraphicLCDIntf.c **** *          byte) pins. do_msb[7:0] presents only for 16-bit interface.
 365:Generated_Source\PSoC5/GraphicLCDIntf.c **** *
 366:Generated_Source\PSoC5/GraphicLCDIntf.c **** *  num:  Number of words/bytes to write.
 367:Generated_Source\PSoC5/GraphicLCDIntf.c **** *
 368:Generated_Source\PSoC5/GraphicLCDIntf.c **** *******************************************************************************/
 369:Generated_Source\PSoC5/GraphicLCDIntf.c **** void GraphicLCDIntf_WriteM8_A0(uint8 wrData[], int num) 
 370:Generated_Source\PSoC5/GraphicLCDIntf.c **** {
 519              		.loc 1 370 0
 520              		.cfi_startproc
 521              		@ args = 0, pretend = 0, frame = 0
 522              		@ frame_needed = 0, uses_anonymous_args = 0
 523              	.LVL33:
 524 0000 08B5     		push	{r3, lr}
 525              		.cfi_def_cfa_offset 8
 526              		.cfi_offset 3, -8
 527              		.cfi_offset 14, -4
 371:Generated_Source\PSoC5/GraphicLCDIntf.c ****     GraphicLCDIntf_WriteM8(0u, wrData, (uint16)num);
 528              		.loc 1 371 0
 529 0002 8AB2     		uxth	r2, r1
 530 0004 0146     		mov	r1, r0
ARM GAS  C:\Users\leoja\AppData\Local\Temp\ccytvroa.s 			page 17


 531              	.LVL34:
 532 0006 0020     		movs	r0, #0
 533              	.LVL35:
 534 0008 FFF7FEFF 		bl	GraphicLCDIntf_WriteM8
 535              	.LVL36:
 536 000c 08BD     		pop	{r3, pc}
 537              		.cfi_endproc
 538              	.LFE11:
 539              		.size	GraphicLCDIntf_WriteM8_A0, .-GraphicLCDIntf_WriteM8_A0
 540 000e 00BF     		.section	.text.GraphicLCDIntf_WriteM8_A1,"ax",%progbits
 541              		.align	2
 542              		.global	GraphicLCDIntf_WriteM8_A1
 543              		.thumb
 544              		.thumb_func
 545              		.type	GraphicLCDIntf_WriteM8_A1, %function
 546              	GraphicLCDIntf_WriteM8_A1:
 547              	.LFB12:
 372:Generated_Source\PSoC5/GraphicLCDIntf.c **** }
 373:Generated_Source\PSoC5/GraphicLCDIntf.c **** 
 374:Generated_Source\PSoC5/GraphicLCDIntf.c **** 
 375:Generated_Source\PSoC5/GraphicLCDIntf.c **** /*******************************************************************************
 376:Generated_Source\PSoC5/GraphicLCDIntf.c **** * Function Name: GraphicLCDIntf_WriteM8_A1
 377:Generated_Source\PSoC5/GraphicLCDIntf.c **** ********************************************************************************
 378:Generated_Source\PSoC5/GraphicLCDIntf.c **** *
 379:Generated_Source\PSoC5/GraphicLCDIntf.c **** * Summary:
 380:Generated_Source\PSoC5/GraphicLCDIntf.c **** *  Initiates multiple data write transactions on the 8-bit 
 381:Generated_Source\PSoC5/GraphicLCDIntf.c **** *  parallel interface with the d_c pin set to 1. The write is a posted write, 
 382:Generated_Source\PSoC5/GraphicLCDIntf.c **** *  so this function will return before the write has actually completed on the 
 383:Generated_Source\PSoC5/GraphicLCDIntf.c **** *  interface. If the command queue is full, this function will not return until
 384:Generated_Source\PSoC5/GraphicLCDIntf.c **** *  space is availale to queue this write request.
 385:Generated_Source\PSoC5/GraphicLCDIntf.c **** *
 386:Generated_Source\PSoC5/GraphicLCDIntf.c **** * Parameters:
 387:Generated_Source\PSoC5/GraphicLCDIntf.c **** *  wrData: Pointer to the the first element of a data buffer sent on the 
 388:Generated_Source\PSoC5/GraphicLCDIntf.c **** *          do_msb[7:0] (most significant byte) and do_lsb[7:0] (least significant
 389:Generated_Source\PSoC5/GraphicLCDIntf.c **** *          byte) pins. do_msb[7:0] presents only for 16-bit interface.
 390:Generated_Source\PSoC5/GraphicLCDIntf.c **** *
 391:Generated_Source\PSoC5/GraphicLCDIntf.c **** *  num:  Number of words/bytes to write.
 392:Generated_Source\PSoC5/GraphicLCDIntf.c **** *
 393:Generated_Source\PSoC5/GraphicLCDIntf.c **** *******************************************************************************/
 394:Generated_Source\PSoC5/GraphicLCDIntf.c **** void GraphicLCDIntf_WriteM8_A1(uint8 wrData[], int num) 
 395:Generated_Source\PSoC5/GraphicLCDIntf.c **** {
 548              		.loc 1 395 0
 549              		.cfi_startproc
 550              		@ args = 0, pretend = 0, frame = 0
 551              		@ frame_needed = 0, uses_anonymous_args = 0
 552              	.LVL37:
 553 0000 08B5     		push	{r3, lr}
 554              		.cfi_def_cfa_offset 8
 555              		.cfi_offset 3, -8
 556              		.cfi_offset 14, -4
 396:Generated_Source\PSoC5/GraphicLCDIntf.c ****     GraphicLCDIntf_WriteM8(1u, wrData, (uint16)num);
 557              		.loc 1 396 0
 558 0002 8AB2     		uxth	r2, r1
 559 0004 0146     		mov	r1, r0
 560              	.LVL38:
 561 0006 0120     		movs	r0, #1
 562              	.LVL39:
ARM GAS  C:\Users\leoja\AppData\Local\Temp\ccytvroa.s 			page 18


 563 0008 FFF7FEFF 		bl	GraphicLCDIntf_WriteM8
 564              	.LVL40:
 565 000c 08BD     		pop	{r3, pc}
 566              		.cfi_endproc
 567              	.LFE12:
 568              		.size	GraphicLCDIntf_WriteM8_A1, .-GraphicLCDIntf_WriteM8_A1
 569 000e 00BF     		.section	.text.GraphicLCDIntf_Read8_A1,"ax",%progbits
 570              		.align	2
 571              		.global	GraphicLCDIntf_Read8_A1
 572              		.thumb
 573              		.thumb_func
 574              		.type	GraphicLCDIntf_Read8_A1, %function
 575              	GraphicLCDIntf_Read8_A1:
 576              	.LFB13:
 397:Generated_Source\PSoC5/GraphicLCDIntf.c **** }
 398:Generated_Source\PSoC5/GraphicLCDIntf.c **** 
 399:Generated_Source\PSoC5/GraphicLCDIntf.c **** 
 400:Generated_Source\PSoC5/GraphicLCDIntf.c **** /*******************************************************************************
 401:Generated_Source\PSoC5/GraphicLCDIntf.c **** * Function Name: GraphicLCDIntf_Read8_A1
 402:Generated_Source\PSoC5/GraphicLCDIntf.c **** ********************************************************************************
 403:Generated_Source\PSoC5/GraphicLCDIntf.c **** *
 404:Generated_Source\PSoC5/GraphicLCDIntf.c **** * Summary:
 405:Generated_Source\PSoC5/GraphicLCDIntf.c **** *  Initiates data read transaction on the 8-bit 
 406:Generated_Source\PSoC5/GraphicLCDIntf.c **** *  parallel interface with the d_c pin set to 1. The read will execute after 
 407:Generated_Source\PSoC5/GraphicLCDIntf.c **** *  all currently posted writes have completed. This function will wait until 
 408:Generated_Source\PSoC5/GraphicLCDIntf.c **** *  the read completes and then returns the read value.
 409:Generated_Source\PSoC5/GraphicLCDIntf.c **** *
 410:Generated_Source\PSoC5/GraphicLCDIntf.c **** * Return:
 411:Generated_Source\PSoC5/GraphicLCDIntf.c **** *  The 16-bit read value from the di_msb[7:0] (most significant byte) and 
 412:Generated_Source\PSoC5/GraphicLCDIntf.c **** *  di_lsb[7:0] (least significant byte) pins for the 16-bit interface or the 
 413:Generated_Source\PSoC5/GraphicLCDIntf.c **** *  8-bit read value from the di_lsb[7:0] for 8-bit interface.
 414:Generated_Source\PSoC5/GraphicLCDIntf.c **** *
 415:Generated_Source\PSoC5/GraphicLCDIntf.c **** *******************************************************************************/
 416:Generated_Source\PSoC5/GraphicLCDIntf.c **** uint8 GraphicLCDIntf_Read8_A1(void) 
 417:Generated_Source\PSoC5/GraphicLCDIntf.c **** {
 577              		.loc 1 417 0
 578              		.cfi_startproc
 579              		@ args = 0, pretend = 0, frame = 0
 580              		@ frame_needed = 0, uses_anonymous_args = 0
 581 0000 08B5     		push	{r3, lr}
 582              		.cfi_def_cfa_offset 8
 583              		.cfi_offset 3, -8
 584              		.cfi_offset 14, -4
 418:Generated_Source\PSoC5/GraphicLCDIntf.c ****     return GraphicLCDIntf_Read8(1u);
 585              		.loc 1 418 0
 586 0002 0120     		movs	r0, #1
 587 0004 FFF7FEFF 		bl	GraphicLCDIntf_Read8
 588              	.LVL41:
 419:Generated_Source\PSoC5/GraphicLCDIntf.c **** }
 589              		.loc 1 419 0
 590 0008 08BD     		pop	{r3, pc}
 591              		.cfi_endproc
 592              	.LFE13:
 593              		.size	GraphicLCDIntf_Read8_A1, .-GraphicLCDIntf_Read8_A1
 594 000a 00BF     		.section	.text.GraphicLCDIntf_ReadM8_A1,"ax",%progbits
 595              		.align	2
 596              		.global	GraphicLCDIntf_ReadM8_A1
ARM GAS  C:\Users\leoja\AppData\Local\Temp\ccytvroa.s 			page 19


 597              		.thumb
 598              		.thumb_func
 599              		.type	GraphicLCDIntf_ReadM8_A1, %function
 600              	GraphicLCDIntf_ReadM8_A1:
 601              	.LFB14:
 420:Generated_Source\PSoC5/GraphicLCDIntf.c **** 
 421:Generated_Source\PSoC5/GraphicLCDIntf.c **** 
 422:Generated_Source\PSoC5/GraphicLCDIntf.c **** /*******************************************************************************
 423:Generated_Source\PSoC5/GraphicLCDIntf.c **** * Function Name: GraphicLCDIntf_ReadM8_A1
 424:Generated_Source\PSoC5/GraphicLCDIntf.c **** ********************************************************************************
 425:Generated_Source\PSoC5/GraphicLCDIntf.c **** *
 426:Generated_Source\PSoC5/GraphicLCDIntf.c **** * Summary:
 427:Generated_Source\PSoC5/GraphicLCDIntf.c **** *  Initiates multiple data read transactions on the 8-bit 
 428:Generated_Source\PSoC5/GraphicLCDIntf.c **** *  parallel interface with the d_c pin set to 1. The read will execute after all 
 429:Generated_Source\PSoC5/GraphicLCDIntf.c **** *  currently posted writes have completed. This function will wait until the 
 430:Generated_Source\PSoC5/GraphicLCDIntf.c **** *  read completes and then returns the read value.
 431:Generated_Source\PSoC5/GraphicLCDIntf.c **** *
 432:Generated_Source\PSoC5/GraphicLCDIntf.c **** * Parameters:
 433:Generated_Source\PSoC5/GraphicLCDIntf.c **** *  rdData: Pointer to the the first element of a data buffer read from the do_msb[7:0]
 434:Generated_Source\PSoC5/GraphicLCDIntf.c **** *        (most significant byte) and do_lsb[7:0] (least significant byte) pins. 
 435:Generated_Source\PSoC5/GraphicLCDIntf.c **** *        do_msb[7:0] presents only for 16-bit interface.
 436:Generated_Source\PSoC5/GraphicLCDIntf.c **** *
 437:Generated_Source\PSoC5/GraphicLCDIntf.c **** *  num:  Number of words/bytes to read.
 438:Generated_Source\PSoC5/GraphicLCDIntf.c **** *
 439:Generated_Source\PSoC5/GraphicLCDIntf.c **** *******************************************************************************/
 440:Generated_Source\PSoC5/GraphicLCDIntf.c **** void GraphicLCDIntf_ReadM8_A1(uint8 rdData[], int num) 
 441:Generated_Source\PSoC5/GraphicLCDIntf.c **** {
 602              		.loc 1 441 0
 603              		.cfi_startproc
 604              		@ args = 0, pretend = 0, frame = 0
 605              		@ frame_needed = 0, uses_anonymous_args = 0
 606              	.LVL42:
 607 0000 08B5     		push	{r3, lr}
 608              		.cfi_def_cfa_offset 8
 609              		.cfi_offset 3, -8
 610              		.cfi_offset 14, -4
 442:Generated_Source\PSoC5/GraphicLCDIntf.c ****     GraphicLCDIntf_ReadM8(1u, rdData, (uint16)num);
 611              		.loc 1 442 0
 612 0002 8AB2     		uxth	r2, r1
 613 0004 0146     		mov	r1, r0
 614              	.LVL43:
 615 0006 0120     		movs	r0, #1
 616              	.LVL44:
 617 0008 FFF7FEFF 		bl	GraphicLCDIntf_ReadM8
 618              	.LVL45:
 619 000c 08BD     		pop	{r3, pc}
 620              		.cfi_endproc
 621              	.LFE14:
 622              		.size	GraphicLCDIntf_ReadM8_A1, .-GraphicLCDIntf_ReadM8_A1
 623              		.global	GraphicLCDIntf_initVar
 624 000e 00BF     		.section	.rodata
 625              		.align	2
 626              		.set	.LANCHOR1,. + 0
 627              	.LC0:
 628 0000 02       		.byte	2
 629 0001 28       		.byte	40
 630 0002 51       		.byte	81
ARM GAS  C:\Users\leoja\AppData\Local\Temp\ccytvroa.s 			page 20


 631 0003 00       		.space	1
 632              	.LC1:
 633 0004 FF       		.byte	-1
 634 0005 BF       		.byte	-65
 635 0006 00       		.byte	0
 636 0007 00       		.space	1
 637              	.LC2:
 638 0008 FF       		.byte	-1
 639 0009 FF       		.byte	-1
 640 000a FF       		.byte	-1
 641              		.bss
 642              		.set	.LANCHOR0,. + 0
 643              		.type	GraphicLCDIntf_initVar, %object
 644              		.size	GraphicLCDIntf_initVar, 1
 645              	GraphicLCDIntf_initVar:
 646 0000 00       		.space	1
 647              		.text
 648              	.Letext0:
 649              		.file 2 "c:\\program files (x86)\\cypress\\psoc creator\\4.4\\psoc creator\\import\\gnu\\arm\\5.4.
 650              		.file 3 "c:\\program files (x86)\\cypress\\psoc creator\\4.4\\psoc creator\\import\\gnu\\arm\\5.4.
 651              		.file 4 "Generated_Source\\PSoC5\\cytypes.h"