ARM GAS  C:\Users\leoja\AppData\Local\Temp\ccskq7NH.s 			page 1


   1              		.syntax unified
   2              		.cpu cortex-m3
   3              		.fpu softvfp
   4              		.eabi_attribute 20, 1
   5              		.eabi_attribute 21, 1
   6              		.eabi_attribute 23, 3
   7              		.eabi_attribute 24, 1
   8              		.eabi_attribute 25, 1
   9              		.eabi_attribute 26, 1
  10              		.eabi_attribute 30, 1
  11              		.eabi_attribute 34, 1
  12              		.eabi_attribute 18, 4
  13              		.thumb
  14              		.syntax unified
  15              		.file	"ReadyToDrive_Int.c"
  16              		.text
  17              	.Ltext0:
  18              		.cfi_sections	.debug_frame
  19              		.section	.text.ReadyToDrive_Int_Interrupt,"ax",%progbits
  20              		.align	2
  21              		.global	ReadyToDrive_Int_Interrupt
  22              		.thumb
  23              		.thumb_func
  24              		.type	ReadyToDrive_Int_Interrupt, %function
  25              	ReadyToDrive_Int_Interrupt:
  26              	.LFB3:
  27              		.file 1 "Generated_Source\\PSoC5\\ReadyToDrive_Int.c"
   1:Generated_Source\PSoC5/ReadyToDrive_Int.c **** /*******************************************************************************
   2:Generated_Source\PSoC5/ReadyToDrive_Int.c **** * File Name: ReadyToDrive_Int.c  
   3:Generated_Source\PSoC5/ReadyToDrive_Int.c **** * Version 1.70
   4:Generated_Source\PSoC5/ReadyToDrive_Int.c **** *
   5:Generated_Source\PSoC5/ReadyToDrive_Int.c **** *  Description:
   6:Generated_Source\PSoC5/ReadyToDrive_Int.c **** *   API for controlling the state of an interrupt.
   7:Generated_Source\PSoC5/ReadyToDrive_Int.c **** *
   8:Generated_Source\PSoC5/ReadyToDrive_Int.c **** *
   9:Generated_Source\PSoC5/ReadyToDrive_Int.c **** *  Note:
  10:Generated_Source\PSoC5/ReadyToDrive_Int.c **** *
  11:Generated_Source\PSoC5/ReadyToDrive_Int.c **** ********************************************************************************
  12:Generated_Source\PSoC5/ReadyToDrive_Int.c **** * Copyright 2008-2015, Cypress Semiconductor Corporation.  All rights reserved.
  13:Generated_Source\PSoC5/ReadyToDrive_Int.c **** * You may use this file only in accordance with the license, terms, conditions, 
  14:Generated_Source\PSoC5/ReadyToDrive_Int.c **** * disclaimers, and limitations in the end user license agreement accompanying 
  15:Generated_Source\PSoC5/ReadyToDrive_Int.c **** * the software package with which this file was provided.
  16:Generated_Source\PSoC5/ReadyToDrive_Int.c **** *******************************************************************************/
  17:Generated_Source\PSoC5/ReadyToDrive_Int.c **** 
  18:Generated_Source\PSoC5/ReadyToDrive_Int.c **** 
  19:Generated_Source\PSoC5/ReadyToDrive_Int.c **** #include <cydevice_trm.h>
  20:Generated_Source\PSoC5/ReadyToDrive_Int.c **** #include <CyLib.h>
  21:Generated_Source\PSoC5/ReadyToDrive_Int.c **** #include <ReadyToDrive_Int.h>
  22:Generated_Source\PSoC5/ReadyToDrive_Int.c **** #include "cyapicallbacks.h"
  23:Generated_Source\PSoC5/ReadyToDrive_Int.c **** 
  24:Generated_Source\PSoC5/ReadyToDrive_Int.c **** #if !defined(ReadyToDrive_Int__REMOVED) /* Check for removal by optimization */
  25:Generated_Source\PSoC5/ReadyToDrive_Int.c **** 
  26:Generated_Source\PSoC5/ReadyToDrive_Int.c **** /*******************************************************************************
  27:Generated_Source\PSoC5/ReadyToDrive_Int.c **** *  Place your includes, defines and code here 
  28:Generated_Source\PSoC5/ReadyToDrive_Int.c **** ********************************************************************************/
  29:Generated_Source\PSoC5/ReadyToDrive_Int.c **** /* `#START ReadyToDrive_Int_intc` */
  30:Generated_Source\PSoC5/ReadyToDrive_Int.c **** /* `#END` */
ARM GAS  C:\Users\leoja\AppData\Local\Temp\ccskq7NH.s 			page 2


  31:Generated_Source\PSoC5/ReadyToDrive_Int.c **** 
  32:Generated_Source\PSoC5/ReadyToDrive_Int.c **** #ifndef CYINT_IRQ_BASE
  33:Generated_Source\PSoC5/ReadyToDrive_Int.c **** #define CYINT_IRQ_BASE      16
  34:Generated_Source\PSoC5/ReadyToDrive_Int.c **** #endif /* CYINT_IRQ_BASE */
  35:Generated_Source\PSoC5/ReadyToDrive_Int.c **** #ifndef CYINT_VECT_TABLE
  36:Generated_Source\PSoC5/ReadyToDrive_Int.c **** #define CYINT_VECT_TABLE    ((cyisraddress **) CYREG_NVIC_VECT_OFFSET)
  37:Generated_Source\PSoC5/ReadyToDrive_Int.c **** #endif /* CYINT_VECT_TABLE */
  38:Generated_Source\PSoC5/ReadyToDrive_Int.c **** 
  39:Generated_Source\PSoC5/ReadyToDrive_Int.c **** /* Declared in startup, used to set unused interrupts to. */
  40:Generated_Source\PSoC5/ReadyToDrive_Int.c **** CY_ISR_PROTO(IntDefaultHandler);
  41:Generated_Source\PSoC5/ReadyToDrive_Int.c **** 
  42:Generated_Source\PSoC5/ReadyToDrive_Int.c **** 
  43:Generated_Source\PSoC5/ReadyToDrive_Int.c **** /*******************************************************************************
  44:Generated_Source\PSoC5/ReadyToDrive_Int.c **** * Function Name: ReadyToDrive_Int_Start
  45:Generated_Source\PSoC5/ReadyToDrive_Int.c **** ********************************************************************************
  46:Generated_Source\PSoC5/ReadyToDrive_Int.c **** *
  47:Generated_Source\PSoC5/ReadyToDrive_Int.c **** * Summary:
  48:Generated_Source\PSoC5/ReadyToDrive_Int.c **** *  Set up the interrupt and enable it. This function disables the interrupt, 
  49:Generated_Source\PSoC5/ReadyToDrive_Int.c **** *  sets the default interrupt vector, sets the priority from the value in the
  50:Generated_Source\PSoC5/ReadyToDrive_Int.c **** *  Design Wide Resources Interrupt Editor, then enables the interrupt to the 
  51:Generated_Source\PSoC5/ReadyToDrive_Int.c **** *  interrupt controller.
  52:Generated_Source\PSoC5/ReadyToDrive_Int.c **** *
  53:Generated_Source\PSoC5/ReadyToDrive_Int.c **** * Parameters:  
  54:Generated_Source\PSoC5/ReadyToDrive_Int.c **** *   None
  55:Generated_Source\PSoC5/ReadyToDrive_Int.c **** *
  56:Generated_Source\PSoC5/ReadyToDrive_Int.c **** * Return:
  57:Generated_Source\PSoC5/ReadyToDrive_Int.c **** *   None
  58:Generated_Source\PSoC5/ReadyToDrive_Int.c **** *
  59:Generated_Source\PSoC5/ReadyToDrive_Int.c **** *******************************************************************************/
  60:Generated_Source\PSoC5/ReadyToDrive_Int.c **** void ReadyToDrive_Int_Start(void)
  61:Generated_Source\PSoC5/ReadyToDrive_Int.c **** {
  62:Generated_Source\PSoC5/ReadyToDrive_Int.c ****     /* For all we know the interrupt is active. */
  63:Generated_Source\PSoC5/ReadyToDrive_Int.c ****     ReadyToDrive_Int_Disable();
  64:Generated_Source\PSoC5/ReadyToDrive_Int.c **** 
  65:Generated_Source\PSoC5/ReadyToDrive_Int.c ****     /* Set the ISR to point to the ReadyToDrive_Int Interrupt. */
  66:Generated_Source\PSoC5/ReadyToDrive_Int.c ****     ReadyToDrive_Int_SetVector(&ReadyToDrive_Int_Interrupt);
  67:Generated_Source\PSoC5/ReadyToDrive_Int.c **** 
  68:Generated_Source\PSoC5/ReadyToDrive_Int.c ****     /* Set the priority. */
  69:Generated_Source\PSoC5/ReadyToDrive_Int.c ****     ReadyToDrive_Int_SetPriority((uint8)ReadyToDrive_Int_INTC_PRIOR_NUMBER);
  70:Generated_Source\PSoC5/ReadyToDrive_Int.c **** 
  71:Generated_Source\PSoC5/ReadyToDrive_Int.c ****     /* Enable it. */
  72:Generated_Source\PSoC5/ReadyToDrive_Int.c ****     ReadyToDrive_Int_Enable();
  73:Generated_Source\PSoC5/ReadyToDrive_Int.c **** }
  74:Generated_Source\PSoC5/ReadyToDrive_Int.c **** 
  75:Generated_Source\PSoC5/ReadyToDrive_Int.c **** 
  76:Generated_Source\PSoC5/ReadyToDrive_Int.c **** /*******************************************************************************
  77:Generated_Source\PSoC5/ReadyToDrive_Int.c **** * Function Name: ReadyToDrive_Int_StartEx
  78:Generated_Source\PSoC5/ReadyToDrive_Int.c **** ********************************************************************************
  79:Generated_Source\PSoC5/ReadyToDrive_Int.c **** *
  80:Generated_Source\PSoC5/ReadyToDrive_Int.c **** * Summary:
  81:Generated_Source\PSoC5/ReadyToDrive_Int.c **** *  Sets up the interrupt and enables it. This function disables the interrupt,
  82:Generated_Source\PSoC5/ReadyToDrive_Int.c **** *  sets the interrupt vector based on the address passed in, sets the priority 
  83:Generated_Source\PSoC5/ReadyToDrive_Int.c **** *  from the value in the Design Wide Resources Interrupt Editor, then enables 
  84:Generated_Source\PSoC5/ReadyToDrive_Int.c **** *  the interrupt to the interrupt controller.
  85:Generated_Source\PSoC5/ReadyToDrive_Int.c **** *  
  86:Generated_Source\PSoC5/ReadyToDrive_Int.c **** *  When defining ISR functions, the CY_ISR and CY_ISR_PROTO macros should be 
  87:Generated_Source\PSoC5/ReadyToDrive_Int.c **** *  used to provide consistent definition across compilers:
ARM GAS  C:\Users\leoja\AppData\Local\Temp\ccskq7NH.s 			page 3


  88:Generated_Source\PSoC5/ReadyToDrive_Int.c **** *  
  89:Generated_Source\PSoC5/ReadyToDrive_Int.c **** *  Function definition example:
  90:Generated_Source\PSoC5/ReadyToDrive_Int.c **** *   CY_ISR(MyISR)
  91:Generated_Source\PSoC5/ReadyToDrive_Int.c **** *   {
  92:Generated_Source\PSoC5/ReadyToDrive_Int.c **** *   }
  93:Generated_Source\PSoC5/ReadyToDrive_Int.c **** *   Function prototype example:
  94:Generated_Source\PSoC5/ReadyToDrive_Int.c **** *   CY_ISR_PROTO(MyISR);
  95:Generated_Source\PSoC5/ReadyToDrive_Int.c **** *
  96:Generated_Source\PSoC5/ReadyToDrive_Int.c **** * Parameters:  
  97:Generated_Source\PSoC5/ReadyToDrive_Int.c **** *   address: Address of the ISR to set in the interrupt vector table.
  98:Generated_Source\PSoC5/ReadyToDrive_Int.c **** *
  99:Generated_Source\PSoC5/ReadyToDrive_Int.c **** * Return:
 100:Generated_Source\PSoC5/ReadyToDrive_Int.c **** *   None
 101:Generated_Source\PSoC5/ReadyToDrive_Int.c **** *
 102:Generated_Source\PSoC5/ReadyToDrive_Int.c **** *******************************************************************************/
 103:Generated_Source\PSoC5/ReadyToDrive_Int.c **** void ReadyToDrive_Int_StartEx(cyisraddress address)
 104:Generated_Source\PSoC5/ReadyToDrive_Int.c **** {
 105:Generated_Source\PSoC5/ReadyToDrive_Int.c ****     /* For all we know the interrupt is active. */
 106:Generated_Source\PSoC5/ReadyToDrive_Int.c ****     ReadyToDrive_Int_Disable();
 107:Generated_Source\PSoC5/ReadyToDrive_Int.c **** 
 108:Generated_Source\PSoC5/ReadyToDrive_Int.c ****     /* Set the ISR to point to the ReadyToDrive_Int Interrupt. */
 109:Generated_Source\PSoC5/ReadyToDrive_Int.c ****     ReadyToDrive_Int_SetVector(address);
 110:Generated_Source\PSoC5/ReadyToDrive_Int.c **** 
 111:Generated_Source\PSoC5/ReadyToDrive_Int.c ****     /* Set the priority. */
 112:Generated_Source\PSoC5/ReadyToDrive_Int.c ****     ReadyToDrive_Int_SetPriority((uint8)ReadyToDrive_Int_INTC_PRIOR_NUMBER);
 113:Generated_Source\PSoC5/ReadyToDrive_Int.c **** 
 114:Generated_Source\PSoC5/ReadyToDrive_Int.c ****     /* Enable it. */
 115:Generated_Source\PSoC5/ReadyToDrive_Int.c ****     ReadyToDrive_Int_Enable();
 116:Generated_Source\PSoC5/ReadyToDrive_Int.c **** }
 117:Generated_Source\PSoC5/ReadyToDrive_Int.c **** 
 118:Generated_Source\PSoC5/ReadyToDrive_Int.c **** 
 119:Generated_Source\PSoC5/ReadyToDrive_Int.c **** /*******************************************************************************
 120:Generated_Source\PSoC5/ReadyToDrive_Int.c **** * Function Name: ReadyToDrive_Int_Stop
 121:Generated_Source\PSoC5/ReadyToDrive_Int.c **** ********************************************************************************
 122:Generated_Source\PSoC5/ReadyToDrive_Int.c **** *
 123:Generated_Source\PSoC5/ReadyToDrive_Int.c **** * Summary:
 124:Generated_Source\PSoC5/ReadyToDrive_Int.c **** *   Disables and removes the interrupt.
 125:Generated_Source\PSoC5/ReadyToDrive_Int.c **** *
 126:Generated_Source\PSoC5/ReadyToDrive_Int.c **** * Parameters:  
 127:Generated_Source\PSoC5/ReadyToDrive_Int.c **** *   None
 128:Generated_Source\PSoC5/ReadyToDrive_Int.c **** *
 129:Generated_Source\PSoC5/ReadyToDrive_Int.c **** * Return:
 130:Generated_Source\PSoC5/ReadyToDrive_Int.c **** *   None
 131:Generated_Source\PSoC5/ReadyToDrive_Int.c **** *
 132:Generated_Source\PSoC5/ReadyToDrive_Int.c **** *******************************************************************************/
 133:Generated_Source\PSoC5/ReadyToDrive_Int.c **** void ReadyToDrive_Int_Stop(void)
 134:Generated_Source\PSoC5/ReadyToDrive_Int.c **** {
 135:Generated_Source\PSoC5/ReadyToDrive_Int.c ****     /* Disable this interrupt. */
 136:Generated_Source\PSoC5/ReadyToDrive_Int.c ****     ReadyToDrive_Int_Disable();
 137:Generated_Source\PSoC5/ReadyToDrive_Int.c **** 
 138:Generated_Source\PSoC5/ReadyToDrive_Int.c ****     /* Set the ISR to point to the passive one. */
 139:Generated_Source\PSoC5/ReadyToDrive_Int.c ****     ReadyToDrive_Int_SetVector(&IntDefaultHandler);
 140:Generated_Source\PSoC5/ReadyToDrive_Int.c **** }
 141:Generated_Source\PSoC5/ReadyToDrive_Int.c **** 
 142:Generated_Source\PSoC5/ReadyToDrive_Int.c **** 
 143:Generated_Source\PSoC5/ReadyToDrive_Int.c **** /*******************************************************************************
 144:Generated_Source\PSoC5/ReadyToDrive_Int.c **** * Function Name: ReadyToDrive_Int_Interrupt
ARM GAS  C:\Users\leoja\AppData\Local\Temp\ccskq7NH.s 			page 4


 145:Generated_Source\PSoC5/ReadyToDrive_Int.c **** ********************************************************************************
 146:Generated_Source\PSoC5/ReadyToDrive_Int.c **** *
 147:Generated_Source\PSoC5/ReadyToDrive_Int.c **** * Summary:
 148:Generated_Source\PSoC5/ReadyToDrive_Int.c **** *   The default Interrupt Service Routine for ReadyToDrive_Int.
 149:Generated_Source\PSoC5/ReadyToDrive_Int.c **** *
 150:Generated_Source\PSoC5/ReadyToDrive_Int.c **** *   Add custom code between the coments to keep the next version of this file
 151:Generated_Source\PSoC5/ReadyToDrive_Int.c **** *   from over writting your code.
 152:Generated_Source\PSoC5/ReadyToDrive_Int.c **** *
 153:Generated_Source\PSoC5/ReadyToDrive_Int.c **** * Parameters:  
 154:Generated_Source\PSoC5/ReadyToDrive_Int.c **** *
 155:Generated_Source\PSoC5/ReadyToDrive_Int.c **** * Return:
 156:Generated_Source\PSoC5/ReadyToDrive_Int.c **** *   None
 157:Generated_Source\PSoC5/ReadyToDrive_Int.c **** *
 158:Generated_Source\PSoC5/ReadyToDrive_Int.c **** *******************************************************************************/
 159:Generated_Source\PSoC5/ReadyToDrive_Int.c **** CY_ISR(ReadyToDrive_Int_Interrupt)
 160:Generated_Source\PSoC5/ReadyToDrive_Int.c **** {
  28              		.loc 1 160 0
  29              		.cfi_startproc
  30              		@ args = 0, pretend = 0, frame = 0
  31              		@ frame_needed = 0, uses_anonymous_args = 0
  32 0000 08B5     		push	{r3, lr}
  33              		.cfi_def_cfa_offset 8
  34              		.cfi_offset 3, -8
  35              		.cfi_offset 14, -4
 161:Generated_Source\PSoC5/ReadyToDrive_Int.c ****     #ifdef ReadyToDrive_Int_INTERRUPT_INTERRUPT_CALLBACK
 162:Generated_Source\PSoC5/ReadyToDrive_Int.c ****         ReadyToDrive_Int_Interrupt_InterruptCallback();
 163:Generated_Source\PSoC5/ReadyToDrive_Int.c ****     #endif /* ReadyToDrive_Int_INTERRUPT_INTERRUPT_CALLBACK */ 
 164:Generated_Source\PSoC5/ReadyToDrive_Int.c **** 
 165:Generated_Source\PSoC5/ReadyToDrive_Int.c ****     /*  Place your Interrupt code here. */
 166:Generated_Source\PSoC5/ReadyToDrive_Int.c ****     /* `#START ReadyToDrive_Int_Interrupt` */
 167:Generated_Source\PSoC5/ReadyToDrive_Int.c ****     Buzzer_Write(0);
  36              		.loc 1 167 0
  37 0002 0020     		movs	r0, #0
  38 0004 FFF7FEFF 		bl	Buzzer_Write
  39              	.LVL0:
 168:Generated_Source\PSoC5/ReadyToDrive_Int.c ****     ReadyToDrive_Timer_Stop();
  40              		.loc 1 168 0
  41 0008 FFF7FEFF 		bl	ReadyToDrive_Timer_Stop
  42              	.LVL1:
  43 000c 08BD     		pop	{r3, pc}
  44              		.cfi_endproc
  45              	.LFE3:
  46              		.size	ReadyToDrive_Int_Interrupt, .-ReadyToDrive_Int_Interrupt
  47 000e 00BF     		.section	.text.ReadyToDrive_Int_SetVector,"ax",%progbits
  48              		.align	2
  49              		.global	ReadyToDrive_Int_SetVector
  50              		.thumb
  51              		.thumb_func
  52              		.type	ReadyToDrive_Int_SetVector, %function
  53              	ReadyToDrive_Int_SetVector:
  54              	.LFB4:
 169:Generated_Source\PSoC5/ReadyToDrive_Int.c ****     /* `#END` */
 170:Generated_Source\PSoC5/ReadyToDrive_Int.c **** }
 171:Generated_Source\PSoC5/ReadyToDrive_Int.c **** 
 172:Generated_Source\PSoC5/ReadyToDrive_Int.c **** 
 173:Generated_Source\PSoC5/ReadyToDrive_Int.c **** /*******************************************************************************
 174:Generated_Source\PSoC5/ReadyToDrive_Int.c **** * Function Name: ReadyToDrive_Int_SetVector
ARM GAS  C:\Users\leoja\AppData\Local\Temp\ccskq7NH.s 			page 5


 175:Generated_Source\PSoC5/ReadyToDrive_Int.c **** ********************************************************************************
 176:Generated_Source\PSoC5/ReadyToDrive_Int.c **** *
 177:Generated_Source\PSoC5/ReadyToDrive_Int.c **** * Summary:
 178:Generated_Source\PSoC5/ReadyToDrive_Int.c **** *   Change the ISR vector for the Interrupt. Note calling ReadyToDrive_Int_Start
 179:Generated_Source\PSoC5/ReadyToDrive_Int.c **** *   will override any effect this method would have had. To set the vector 
 180:Generated_Source\PSoC5/ReadyToDrive_Int.c **** *   before the component has been started use ReadyToDrive_Int_StartEx instead.
 181:Generated_Source\PSoC5/ReadyToDrive_Int.c **** * 
 182:Generated_Source\PSoC5/ReadyToDrive_Int.c **** *   When defining ISR functions, the CY_ISR and CY_ISR_PROTO macros should be 
 183:Generated_Source\PSoC5/ReadyToDrive_Int.c **** *   used to provide consistent definition across compilers:
 184:Generated_Source\PSoC5/ReadyToDrive_Int.c **** *
 185:Generated_Source\PSoC5/ReadyToDrive_Int.c **** *   Function definition example:
 186:Generated_Source\PSoC5/ReadyToDrive_Int.c **** *   CY_ISR(MyISR)
 187:Generated_Source\PSoC5/ReadyToDrive_Int.c **** *   {
 188:Generated_Source\PSoC5/ReadyToDrive_Int.c **** *   }
 189:Generated_Source\PSoC5/ReadyToDrive_Int.c **** *
 190:Generated_Source\PSoC5/ReadyToDrive_Int.c **** *   Function prototype example:
 191:Generated_Source\PSoC5/ReadyToDrive_Int.c **** *     CY_ISR_PROTO(MyISR);
 192:Generated_Source\PSoC5/ReadyToDrive_Int.c **** *
 193:Generated_Source\PSoC5/ReadyToDrive_Int.c **** * Parameters:
 194:Generated_Source\PSoC5/ReadyToDrive_Int.c **** *   address: Address of the ISR to set in the interrupt vector table.
 195:Generated_Source\PSoC5/ReadyToDrive_Int.c **** *
 196:Generated_Source\PSoC5/ReadyToDrive_Int.c **** * Return:
 197:Generated_Source\PSoC5/ReadyToDrive_Int.c **** *   None
 198:Generated_Source\PSoC5/ReadyToDrive_Int.c **** *
 199:Generated_Source\PSoC5/ReadyToDrive_Int.c **** *******************************************************************************/
 200:Generated_Source\PSoC5/ReadyToDrive_Int.c **** void ReadyToDrive_Int_SetVector(cyisraddress address)
 201:Generated_Source\PSoC5/ReadyToDrive_Int.c **** {
  55              		.loc 1 201 0
  56              		.cfi_startproc
  57              		@ args = 0, pretend = 0, frame = 0
  58              		@ frame_needed = 0, uses_anonymous_args = 0
  59              		@ link register save eliminated.
  60              	.LVL2:
 202:Generated_Source\PSoC5/ReadyToDrive_Int.c ****     cyisraddress * ramVectorTable;
 203:Generated_Source\PSoC5/ReadyToDrive_Int.c **** 
 204:Generated_Source\PSoC5/ReadyToDrive_Int.c ****     ramVectorTable = (cyisraddress *) *CYINT_VECT_TABLE;
  61              		.loc 1 204 0
  62 0000 014B     		ldr	r3, .L4
  63 0002 1B68     		ldr	r3, [r3]
  64              	.LVL3:
 205:Generated_Source\PSoC5/ReadyToDrive_Int.c **** 
 206:Generated_Source\PSoC5/ReadyToDrive_Int.c ****     ramVectorTable[CYINT_IRQ_BASE + (uint32)ReadyToDrive_Int__INTC_NUMBER] = address;
  65              		.loc 1 206 0
  66 0004 1864     		str	r0, [r3, #64]
  67 0006 7047     		bx	lr
  68              	.L5:
  69              		.align	2
  70              	.L4:
  71 0008 08ED00E0 		.word	-536810232
  72              		.cfi_endproc
  73              	.LFE4:
  74              		.size	ReadyToDrive_Int_SetVector, .-ReadyToDrive_Int_SetVector
  75              		.section	.text.ReadyToDrive_Int_GetVector,"ax",%progbits
  76              		.align	2
  77              		.global	ReadyToDrive_Int_GetVector
  78              		.thumb
  79              		.thumb_func
ARM GAS  C:\Users\leoja\AppData\Local\Temp\ccskq7NH.s 			page 6


  80              		.type	ReadyToDrive_Int_GetVector, %function
  81              	ReadyToDrive_Int_GetVector:
  82              	.LFB5:
 207:Generated_Source\PSoC5/ReadyToDrive_Int.c **** }
 208:Generated_Source\PSoC5/ReadyToDrive_Int.c **** 
 209:Generated_Source\PSoC5/ReadyToDrive_Int.c **** 
 210:Generated_Source\PSoC5/ReadyToDrive_Int.c **** /*******************************************************************************
 211:Generated_Source\PSoC5/ReadyToDrive_Int.c **** * Function Name: ReadyToDrive_Int_GetVector
 212:Generated_Source\PSoC5/ReadyToDrive_Int.c **** ********************************************************************************
 213:Generated_Source\PSoC5/ReadyToDrive_Int.c **** *
 214:Generated_Source\PSoC5/ReadyToDrive_Int.c **** * Summary:
 215:Generated_Source\PSoC5/ReadyToDrive_Int.c **** *   Gets the "address" of the current ISR vector for the Interrupt.
 216:Generated_Source\PSoC5/ReadyToDrive_Int.c **** *
 217:Generated_Source\PSoC5/ReadyToDrive_Int.c **** * Parameters:
 218:Generated_Source\PSoC5/ReadyToDrive_Int.c **** *   None
 219:Generated_Source\PSoC5/ReadyToDrive_Int.c **** *
 220:Generated_Source\PSoC5/ReadyToDrive_Int.c **** * Return:
 221:Generated_Source\PSoC5/ReadyToDrive_Int.c **** *   Address of the ISR in the interrupt vector table.
 222:Generated_Source\PSoC5/ReadyToDrive_Int.c **** *
 223:Generated_Source\PSoC5/ReadyToDrive_Int.c **** *******************************************************************************/
 224:Generated_Source\PSoC5/ReadyToDrive_Int.c **** cyisraddress ReadyToDrive_Int_GetVector(void)
 225:Generated_Source\PSoC5/ReadyToDrive_Int.c **** {
  83              		.loc 1 225 0
  84              		.cfi_startproc
  85              		@ args = 0, pretend = 0, frame = 0
  86              		@ frame_needed = 0, uses_anonymous_args = 0
  87              		@ link register save eliminated.
 226:Generated_Source\PSoC5/ReadyToDrive_Int.c ****     cyisraddress * ramVectorTable;
 227:Generated_Source\PSoC5/ReadyToDrive_Int.c **** 
 228:Generated_Source\PSoC5/ReadyToDrive_Int.c ****     ramVectorTable = (cyisraddress *) *CYINT_VECT_TABLE;
  88              		.loc 1 228 0
  89 0000 014B     		ldr	r3, .L7
  90 0002 1B68     		ldr	r3, [r3]
  91              	.LVL4:
 229:Generated_Source\PSoC5/ReadyToDrive_Int.c **** 
 230:Generated_Source\PSoC5/ReadyToDrive_Int.c ****     return ramVectorTable[CYINT_IRQ_BASE + (uint32)ReadyToDrive_Int__INTC_NUMBER];
 231:Generated_Source\PSoC5/ReadyToDrive_Int.c **** }
  92              		.loc 1 231 0
  93 0004 186C     		ldr	r0, [r3, #64]
  94 0006 7047     		bx	lr
  95              	.L8:
  96              		.align	2
  97              	.L7:
  98 0008 08ED00E0 		.word	-536810232
  99              		.cfi_endproc
 100              	.LFE5:
 101              		.size	ReadyToDrive_Int_GetVector, .-ReadyToDrive_Int_GetVector
 102              		.section	.text.ReadyToDrive_Int_SetPriority,"ax",%progbits
 103              		.align	2
 104              		.global	ReadyToDrive_Int_SetPriority
 105              		.thumb
 106              		.thumb_func
 107              		.type	ReadyToDrive_Int_SetPriority, %function
 108              	ReadyToDrive_Int_SetPriority:
 109              	.LFB6:
 232:Generated_Source\PSoC5/ReadyToDrive_Int.c **** 
 233:Generated_Source\PSoC5/ReadyToDrive_Int.c **** 
ARM GAS  C:\Users\leoja\AppData\Local\Temp\ccskq7NH.s 			page 7


 234:Generated_Source\PSoC5/ReadyToDrive_Int.c **** /*******************************************************************************
 235:Generated_Source\PSoC5/ReadyToDrive_Int.c **** * Function Name: ReadyToDrive_Int_SetPriority
 236:Generated_Source\PSoC5/ReadyToDrive_Int.c **** ********************************************************************************
 237:Generated_Source\PSoC5/ReadyToDrive_Int.c **** *
 238:Generated_Source\PSoC5/ReadyToDrive_Int.c **** * Summary:
 239:Generated_Source\PSoC5/ReadyToDrive_Int.c **** *   Sets the Priority of the Interrupt. 
 240:Generated_Source\PSoC5/ReadyToDrive_Int.c **** *
 241:Generated_Source\PSoC5/ReadyToDrive_Int.c **** *   Note calling ReadyToDrive_Int_Start or ReadyToDrive_Int_StartEx will 
 242:Generated_Source\PSoC5/ReadyToDrive_Int.c **** *   override any effect this API would have had. This API should only be called
 243:Generated_Source\PSoC5/ReadyToDrive_Int.c **** *   after ReadyToDrive_Int_Start or ReadyToDrive_Int_StartEx has been called. 
 244:Generated_Source\PSoC5/ReadyToDrive_Int.c **** *   To set the initial priority for the component, use the Design-Wide Resources
 245:Generated_Source\PSoC5/ReadyToDrive_Int.c **** *   Interrupt Editor.
 246:Generated_Source\PSoC5/ReadyToDrive_Int.c **** *
 247:Generated_Source\PSoC5/ReadyToDrive_Int.c **** *   Note This API has no effect on Non-maskable interrupt NMI).
 248:Generated_Source\PSoC5/ReadyToDrive_Int.c **** *
 249:Generated_Source\PSoC5/ReadyToDrive_Int.c **** * Parameters:
 250:Generated_Source\PSoC5/ReadyToDrive_Int.c **** *   priority: Priority of the interrupt, 0 being the highest priority
 251:Generated_Source\PSoC5/ReadyToDrive_Int.c **** *             PSoC 3 and PSoC 5LP: Priority is from 0 to 7.
 252:Generated_Source\PSoC5/ReadyToDrive_Int.c **** *             PSoC 4: Priority is from 0 to 3.
 253:Generated_Source\PSoC5/ReadyToDrive_Int.c **** *
 254:Generated_Source\PSoC5/ReadyToDrive_Int.c **** * Return:
 255:Generated_Source\PSoC5/ReadyToDrive_Int.c **** *   None
 256:Generated_Source\PSoC5/ReadyToDrive_Int.c **** *
 257:Generated_Source\PSoC5/ReadyToDrive_Int.c **** *******************************************************************************/
 258:Generated_Source\PSoC5/ReadyToDrive_Int.c **** void ReadyToDrive_Int_SetPriority(uint8 priority)
 259:Generated_Source\PSoC5/ReadyToDrive_Int.c **** {
 110              		.loc 1 259 0
 111              		.cfi_startproc
 112              		@ args = 0, pretend = 0, frame = 0
 113              		@ frame_needed = 0, uses_anonymous_args = 0
 114              		@ link register save eliminated.
 115              	.LVL5:
 260:Generated_Source\PSoC5/ReadyToDrive_Int.c ****     *ReadyToDrive_Int_INTC_PRIOR = priority << 5;
 116              		.loc 1 260 0
 117 0000 4001     		lsls	r0, r0, #5
 118              	.LVL6:
 119 0002 C0B2     		uxtb	r0, r0
 120 0004 014B     		ldr	r3, .L10
 121 0006 1870     		strb	r0, [r3]
 122 0008 7047     		bx	lr
 123              	.L11:
 124 000a 00BF     		.align	2
 125              	.L10:
 126 000c 00E400E0 		.word	-536812544
 127              		.cfi_endproc
 128              	.LFE6:
 129              		.size	ReadyToDrive_Int_SetPriority, .-ReadyToDrive_Int_SetPriority
 130              		.section	.text.ReadyToDrive_Int_GetPriority,"ax",%progbits
 131              		.align	2
 132              		.global	ReadyToDrive_Int_GetPriority
 133              		.thumb
 134              		.thumb_func
 135              		.type	ReadyToDrive_Int_GetPriority, %function
 136              	ReadyToDrive_Int_GetPriority:
 137              	.LFB7:
 261:Generated_Source\PSoC5/ReadyToDrive_Int.c **** }
 262:Generated_Source\PSoC5/ReadyToDrive_Int.c **** 
ARM GAS  C:\Users\leoja\AppData\Local\Temp\ccskq7NH.s 			page 8


 263:Generated_Source\PSoC5/ReadyToDrive_Int.c **** 
 264:Generated_Source\PSoC5/ReadyToDrive_Int.c **** /*******************************************************************************
 265:Generated_Source\PSoC5/ReadyToDrive_Int.c **** * Function Name: ReadyToDrive_Int_GetPriority
 266:Generated_Source\PSoC5/ReadyToDrive_Int.c **** ********************************************************************************
 267:Generated_Source\PSoC5/ReadyToDrive_Int.c **** *
 268:Generated_Source\PSoC5/ReadyToDrive_Int.c **** * Summary:
 269:Generated_Source\PSoC5/ReadyToDrive_Int.c **** *   Gets the Priority of the Interrupt.
 270:Generated_Source\PSoC5/ReadyToDrive_Int.c **** *
 271:Generated_Source\PSoC5/ReadyToDrive_Int.c **** * Parameters:
 272:Generated_Source\PSoC5/ReadyToDrive_Int.c **** *   None
 273:Generated_Source\PSoC5/ReadyToDrive_Int.c **** *
 274:Generated_Source\PSoC5/ReadyToDrive_Int.c **** * Return:
 275:Generated_Source\PSoC5/ReadyToDrive_Int.c **** *   Priority of the interrupt, 0 being the highest priority
 276:Generated_Source\PSoC5/ReadyToDrive_Int.c **** *    PSoC 3 and PSoC 5LP: Priority is from 0 to 7.
 277:Generated_Source\PSoC5/ReadyToDrive_Int.c **** *    PSoC 4: Priority is from 0 to 3.
 278:Generated_Source\PSoC5/ReadyToDrive_Int.c **** *
 279:Generated_Source\PSoC5/ReadyToDrive_Int.c **** *******************************************************************************/
 280:Generated_Source\PSoC5/ReadyToDrive_Int.c **** uint8 ReadyToDrive_Int_GetPriority(void)
 281:Generated_Source\PSoC5/ReadyToDrive_Int.c **** {
 138              		.loc 1 281 0
 139              		.cfi_startproc
 140              		@ args = 0, pretend = 0, frame = 0
 141              		@ frame_needed = 0, uses_anonymous_args = 0
 142              		@ link register save eliminated.
 282:Generated_Source\PSoC5/ReadyToDrive_Int.c ****     uint8 priority;
 283:Generated_Source\PSoC5/ReadyToDrive_Int.c **** 
 284:Generated_Source\PSoC5/ReadyToDrive_Int.c **** 
 285:Generated_Source\PSoC5/ReadyToDrive_Int.c ****     priority = *ReadyToDrive_Int_INTC_PRIOR >> 5;
 143              		.loc 1 285 0
 144 0000 014B     		ldr	r3, .L13
 145 0002 1878     		ldrb	r0, [r3]	@ zero_extendqisi2
 146              	.LVL7:
 286:Generated_Source\PSoC5/ReadyToDrive_Int.c **** 
 287:Generated_Source\PSoC5/ReadyToDrive_Int.c ****     return priority;
 288:Generated_Source\PSoC5/ReadyToDrive_Int.c **** }
 147              		.loc 1 288 0
 148 0004 4009     		lsrs	r0, r0, #5
 149              	.LVL8:
 150 0006 7047     		bx	lr
 151              	.L14:
 152              		.align	2
 153              	.L13:
 154 0008 00E400E0 		.word	-536812544
 155              		.cfi_endproc
 156              	.LFE7:
 157              		.size	ReadyToDrive_Int_GetPriority, .-ReadyToDrive_Int_GetPriority
 158              		.section	.text.ReadyToDrive_Int_Enable,"ax",%progbits
 159              		.align	2
 160              		.global	ReadyToDrive_Int_Enable
 161              		.thumb
 162              		.thumb_func
 163              		.type	ReadyToDrive_Int_Enable, %function
 164              	ReadyToDrive_Int_Enable:
 165              	.LFB8:
 289:Generated_Source\PSoC5/ReadyToDrive_Int.c **** 
 290:Generated_Source\PSoC5/ReadyToDrive_Int.c **** 
 291:Generated_Source\PSoC5/ReadyToDrive_Int.c **** /*******************************************************************************
ARM GAS  C:\Users\leoja\AppData\Local\Temp\ccskq7NH.s 			page 9


 292:Generated_Source\PSoC5/ReadyToDrive_Int.c **** * Function Name: ReadyToDrive_Int_Enable
 293:Generated_Source\PSoC5/ReadyToDrive_Int.c **** ********************************************************************************
 294:Generated_Source\PSoC5/ReadyToDrive_Int.c **** *
 295:Generated_Source\PSoC5/ReadyToDrive_Int.c **** * Summary:
 296:Generated_Source\PSoC5/ReadyToDrive_Int.c **** *   Enables the interrupt to the interrupt controller. Do not call this function
 297:Generated_Source\PSoC5/ReadyToDrive_Int.c **** *   unless ISR_Start() has been called or the functionality of the ISR_Start() 
 298:Generated_Source\PSoC5/ReadyToDrive_Int.c **** *   function, which sets the vector and the priority, has been called.
 299:Generated_Source\PSoC5/ReadyToDrive_Int.c **** *
 300:Generated_Source\PSoC5/ReadyToDrive_Int.c **** * Parameters:
 301:Generated_Source\PSoC5/ReadyToDrive_Int.c **** *   None
 302:Generated_Source\PSoC5/ReadyToDrive_Int.c **** *
 303:Generated_Source\PSoC5/ReadyToDrive_Int.c **** * Return:
 304:Generated_Source\PSoC5/ReadyToDrive_Int.c **** *   None
 305:Generated_Source\PSoC5/ReadyToDrive_Int.c **** *
 306:Generated_Source\PSoC5/ReadyToDrive_Int.c **** *******************************************************************************/
 307:Generated_Source\PSoC5/ReadyToDrive_Int.c **** void ReadyToDrive_Int_Enable(void)
 308:Generated_Source\PSoC5/ReadyToDrive_Int.c **** {
 166              		.loc 1 308 0
 167              		.cfi_startproc
 168              		@ args = 0, pretend = 0, frame = 0
 169              		@ frame_needed = 0, uses_anonymous_args = 0
 170              		@ link register save eliminated.
 309:Generated_Source\PSoC5/ReadyToDrive_Int.c ****     /* Enable the general interrupt. */
 310:Generated_Source\PSoC5/ReadyToDrive_Int.c ****     *ReadyToDrive_Int_INTC_SET_EN = ReadyToDrive_Int__INTC_MASK;
 171              		.loc 1 310 0
 172 0000 0122     		movs	r2, #1
 173 0002 014B     		ldr	r3, .L16
 174 0004 1A60     		str	r2, [r3]
 175 0006 7047     		bx	lr
 176              	.L17:
 177              		.align	2
 178              	.L16:
 179 0008 00E100E0 		.word	-536813312
 180              		.cfi_endproc
 181              	.LFE8:
 182              		.size	ReadyToDrive_Int_Enable, .-ReadyToDrive_Int_Enable
 183              		.section	.text.ReadyToDrive_Int_GetState,"ax",%progbits
 184              		.align	2
 185              		.global	ReadyToDrive_Int_GetState
 186              		.thumb
 187              		.thumb_func
 188              		.type	ReadyToDrive_Int_GetState, %function
 189              	ReadyToDrive_Int_GetState:
 190              	.LFB9:
 311:Generated_Source\PSoC5/ReadyToDrive_Int.c **** }
 312:Generated_Source\PSoC5/ReadyToDrive_Int.c **** 
 313:Generated_Source\PSoC5/ReadyToDrive_Int.c **** 
 314:Generated_Source\PSoC5/ReadyToDrive_Int.c **** /*******************************************************************************
 315:Generated_Source\PSoC5/ReadyToDrive_Int.c **** * Function Name: ReadyToDrive_Int_GetState
 316:Generated_Source\PSoC5/ReadyToDrive_Int.c **** ********************************************************************************
 317:Generated_Source\PSoC5/ReadyToDrive_Int.c **** *
 318:Generated_Source\PSoC5/ReadyToDrive_Int.c **** * Summary:
 319:Generated_Source\PSoC5/ReadyToDrive_Int.c **** *   Gets the state (enabled, disabled) of the Interrupt.
 320:Generated_Source\PSoC5/ReadyToDrive_Int.c **** *
 321:Generated_Source\PSoC5/ReadyToDrive_Int.c **** * Parameters:
 322:Generated_Source\PSoC5/ReadyToDrive_Int.c **** *   None
 323:Generated_Source\PSoC5/ReadyToDrive_Int.c **** *
ARM GAS  C:\Users\leoja\AppData\Local\Temp\ccskq7NH.s 			page 10


 324:Generated_Source\PSoC5/ReadyToDrive_Int.c **** * Return:
 325:Generated_Source\PSoC5/ReadyToDrive_Int.c **** *   1 if enabled, 0 if disabled.
 326:Generated_Source\PSoC5/ReadyToDrive_Int.c **** *
 327:Generated_Source\PSoC5/ReadyToDrive_Int.c **** *******************************************************************************/
 328:Generated_Source\PSoC5/ReadyToDrive_Int.c **** uint8 ReadyToDrive_Int_GetState(void)
 329:Generated_Source\PSoC5/ReadyToDrive_Int.c **** {
 191              		.loc 1 329 0
 192              		.cfi_startproc
 193              		@ args = 0, pretend = 0, frame = 0
 194              		@ frame_needed = 0, uses_anonymous_args = 0
 195              		@ link register save eliminated.
 330:Generated_Source\PSoC5/ReadyToDrive_Int.c ****     /* Get the state of the general interrupt. */
 331:Generated_Source\PSoC5/ReadyToDrive_Int.c ****     return ((*ReadyToDrive_Int_INTC_SET_EN & (uint32)ReadyToDrive_Int__INTC_MASK) != 0u) ? 1u:0u;
 196              		.loc 1 331 0
 197 0000 024B     		ldr	r3, .L19
 198 0002 1868     		ldr	r0, [r3]
 332:Generated_Source\PSoC5/ReadyToDrive_Int.c **** }
 199              		.loc 1 332 0
 200 0004 00F00100 		and	r0, r0, #1
 201 0008 7047     		bx	lr
 202              	.L20:
 203 000a 00BF     		.align	2
 204              	.L19:
 205 000c 00E100E0 		.word	-536813312
 206              		.cfi_endproc
 207              	.LFE9:
 208              		.size	ReadyToDrive_Int_GetState, .-ReadyToDrive_Int_GetState
 209              		.section	.text.ReadyToDrive_Int_Disable,"ax",%progbits
 210              		.align	2
 211              		.global	ReadyToDrive_Int_Disable
 212              		.thumb
 213              		.thumb_func
 214              		.type	ReadyToDrive_Int_Disable, %function
 215              	ReadyToDrive_Int_Disable:
 216              	.LFB10:
 333:Generated_Source\PSoC5/ReadyToDrive_Int.c **** 
 334:Generated_Source\PSoC5/ReadyToDrive_Int.c **** 
 335:Generated_Source\PSoC5/ReadyToDrive_Int.c **** /*******************************************************************************
 336:Generated_Source\PSoC5/ReadyToDrive_Int.c **** * Function Name: ReadyToDrive_Int_Disable
 337:Generated_Source\PSoC5/ReadyToDrive_Int.c **** ********************************************************************************
 338:Generated_Source\PSoC5/ReadyToDrive_Int.c **** *
 339:Generated_Source\PSoC5/ReadyToDrive_Int.c **** * Summary:
 340:Generated_Source\PSoC5/ReadyToDrive_Int.c **** *   Disables the Interrupt in the interrupt controller.
 341:Generated_Source\PSoC5/ReadyToDrive_Int.c **** *
 342:Generated_Source\PSoC5/ReadyToDrive_Int.c **** * Parameters:
 343:Generated_Source\PSoC5/ReadyToDrive_Int.c **** *   None
 344:Generated_Source\PSoC5/ReadyToDrive_Int.c **** *
 345:Generated_Source\PSoC5/ReadyToDrive_Int.c **** * Return:
 346:Generated_Source\PSoC5/ReadyToDrive_Int.c **** *   None
 347:Generated_Source\PSoC5/ReadyToDrive_Int.c **** *
 348:Generated_Source\PSoC5/ReadyToDrive_Int.c **** *******************************************************************************/
 349:Generated_Source\PSoC5/ReadyToDrive_Int.c **** void ReadyToDrive_Int_Disable(void)
 350:Generated_Source\PSoC5/ReadyToDrive_Int.c **** {
 217              		.loc 1 350 0
 218              		.cfi_startproc
 219              		@ args = 0, pretend = 0, frame = 0
 220              		@ frame_needed = 0, uses_anonymous_args = 0
ARM GAS  C:\Users\leoja\AppData\Local\Temp\ccskq7NH.s 			page 11


 221              		@ link register save eliminated.
 351:Generated_Source\PSoC5/ReadyToDrive_Int.c ****     /* Disable the general interrupt. */
 352:Generated_Source\PSoC5/ReadyToDrive_Int.c ****     *ReadyToDrive_Int_INTC_CLR_EN = ReadyToDrive_Int__INTC_MASK;
 222              		.loc 1 352 0
 223 0000 0122     		movs	r2, #1
 224 0002 014B     		ldr	r3, .L22
 225 0004 1A60     		str	r2, [r3]
 226 0006 7047     		bx	lr
 227              	.L23:
 228              		.align	2
 229              	.L22:
 230 0008 80E100E0 		.word	-536813184
 231              		.cfi_endproc
 232              	.LFE10:
 233              		.size	ReadyToDrive_Int_Disable, .-ReadyToDrive_Int_Disable
 234              		.section	.text.ReadyToDrive_Int_Start,"ax",%progbits
 235              		.align	2
 236              		.global	ReadyToDrive_Int_Start
 237              		.thumb
 238              		.thumb_func
 239              		.type	ReadyToDrive_Int_Start, %function
 240              	ReadyToDrive_Int_Start:
 241              	.LFB0:
  61:Generated_Source\PSoC5/ReadyToDrive_Int.c ****     /* For all we know the interrupt is active. */
 242              		.loc 1 61 0
 243              		.cfi_startproc
 244              		@ args = 0, pretend = 0, frame = 0
 245              		@ frame_needed = 0, uses_anonymous_args = 0
 246 0000 08B5     		push	{r3, lr}
 247              		.cfi_def_cfa_offset 8
 248              		.cfi_offset 3, -8
 249              		.cfi_offset 14, -4
  63:Generated_Source\PSoC5/ReadyToDrive_Int.c **** 
 250              		.loc 1 63 0
 251 0002 FFF7FEFF 		bl	ReadyToDrive_Int_Disable
 252              	.LVL9:
  66:Generated_Source\PSoC5/ReadyToDrive_Int.c **** 
 253              		.loc 1 66 0
 254 0006 0448     		ldr	r0, .L26
 255 0008 FFF7FEFF 		bl	ReadyToDrive_Int_SetVector
 256              	.LVL10:
  69:Generated_Source\PSoC5/ReadyToDrive_Int.c **** 
 257              		.loc 1 69 0
 258 000c 0720     		movs	r0, #7
 259 000e FFF7FEFF 		bl	ReadyToDrive_Int_SetPriority
 260              	.LVL11:
  72:Generated_Source\PSoC5/ReadyToDrive_Int.c **** }
 261              		.loc 1 72 0
 262 0012 FFF7FEFF 		bl	ReadyToDrive_Int_Enable
 263              	.LVL12:
 264 0016 08BD     		pop	{r3, pc}
 265              	.L27:
 266              		.align	2
 267              	.L26:
 268 0018 00000000 		.word	ReadyToDrive_Int_Interrupt
 269              		.cfi_endproc
 270              	.LFE0:
ARM GAS  C:\Users\leoja\AppData\Local\Temp\ccskq7NH.s 			page 12


 271              		.size	ReadyToDrive_Int_Start, .-ReadyToDrive_Int_Start
 272              		.section	.text.ReadyToDrive_Int_StartEx,"ax",%progbits
 273              		.align	2
 274              		.global	ReadyToDrive_Int_StartEx
 275              		.thumb
 276              		.thumb_func
 277              		.type	ReadyToDrive_Int_StartEx, %function
 278              	ReadyToDrive_Int_StartEx:
 279              	.LFB1:
 104:Generated_Source\PSoC5/ReadyToDrive_Int.c ****     /* For all we know the interrupt is active. */
 280              		.loc 1 104 0
 281              		.cfi_startproc
 282              		@ args = 0, pretend = 0, frame = 0
 283              		@ frame_needed = 0, uses_anonymous_args = 0
 284              	.LVL13:
 285 0000 10B5     		push	{r4, lr}
 286              		.cfi_def_cfa_offset 8
 287              		.cfi_offset 4, -8
 288              		.cfi_offset 14, -4
 289 0002 0446     		mov	r4, r0
 106:Generated_Source\PSoC5/ReadyToDrive_Int.c **** 
 290              		.loc 1 106 0
 291 0004 FFF7FEFF 		bl	ReadyToDrive_Int_Disable
 292              	.LVL14:
 109:Generated_Source\PSoC5/ReadyToDrive_Int.c **** 
 293              		.loc 1 109 0
 294 0008 2046     		mov	r0, r4
 295 000a FFF7FEFF 		bl	ReadyToDrive_Int_SetVector
 296              	.LVL15:
 112:Generated_Source\PSoC5/ReadyToDrive_Int.c **** 
 297              		.loc 1 112 0
 298 000e 0720     		movs	r0, #7
 299 0010 FFF7FEFF 		bl	ReadyToDrive_Int_SetPriority
 300              	.LVL16:
 115:Generated_Source\PSoC5/ReadyToDrive_Int.c **** }
 301              		.loc 1 115 0
 302 0014 FFF7FEFF 		bl	ReadyToDrive_Int_Enable
 303              	.LVL17:
 304 0018 10BD     		pop	{r4, pc}
 305              		.cfi_endproc
 306              	.LFE1:
 307              		.size	ReadyToDrive_Int_StartEx, .-ReadyToDrive_Int_StartEx
 308 001a 00BF     		.section	.text.ReadyToDrive_Int_Stop,"ax",%progbits
 309              		.align	2
 310              		.global	ReadyToDrive_Int_Stop
 311              		.thumb
 312              		.thumb_func
 313              		.type	ReadyToDrive_Int_Stop, %function
 314              	ReadyToDrive_Int_Stop:
 315              	.LFB2:
 134:Generated_Source\PSoC5/ReadyToDrive_Int.c ****     /* Disable this interrupt. */
 316              		.loc 1 134 0
 317              		.cfi_startproc
 318              		@ args = 0, pretend = 0, frame = 0
 319              		@ frame_needed = 0, uses_anonymous_args = 0
 320 0000 08B5     		push	{r3, lr}
 321              		.cfi_def_cfa_offset 8
ARM GAS  C:\Users\leoja\AppData\Local\Temp\ccskq7NH.s 			page 13


 322              		.cfi_offset 3, -8
 323              		.cfi_offset 14, -4
 136:Generated_Source\PSoC5/ReadyToDrive_Int.c **** 
 324              		.loc 1 136 0
 325 0002 FFF7FEFF 		bl	ReadyToDrive_Int_Disable
 326              	.LVL18:
 139:Generated_Source\PSoC5/ReadyToDrive_Int.c **** }
 327              		.loc 1 139 0
 328 0006 0248     		ldr	r0, .L32
 329 0008 FFF7FEFF 		bl	ReadyToDrive_Int_SetVector
 330              	.LVL19:
 331 000c 08BD     		pop	{r3, pc}
 332              	.L33:
 333 000e 00BF     		.align	2
 334              	.L32:
 335 0010 00000000 		.word	IntDefaultHandler
 336              		.cfi_endproc
 337              	.LFE2:
 338              		.size	ReadyToDrive_Int_Stop, .-ReadyToDrive_Int_Stop
 339              		.section	.text.ReadyToDrive_Int_SetPending,"ax",%progbits
 340              		.align	2
 341              		.global	ReadyToDrive_Int_SetPending
 342              		.thumb
 343              		.thumb_func
 344              		.type	ReadyToDrive_Int_SetPending, %function
 345              	ReadyToDrive_Int_SetPending:
 346              	.LFB11:
 353:Generated_Source\PSoC5/ReadyToDrive_Int.c **** }
 354:Generated_Source\PSoC5/ReadyToDrive_Int.c **** 
 355:Generated_Source\PSoC5/ReadyToDrive_Int.c **** 
 356:Generated_Source\PSoC5/ReadyToDrive_Int.c **** /*******************************************************************************
 357:Generated_Source\PSoC5/ReadyToDrive_Int.c **** * Function Name: ReadyToDrive_Int_SetPending
 358:Generated_Source\PSoC5/ReadyToDrive_Int.c **** ********************************************************************************
 359:Generated_Source\PSoC5/ReadyToDrive_Int.c **** *
 360:Generated_Source\PSoC5/ReadyToDrive_Int.c **** * Summary:
 361:Generated_Source\PSoC5/ReadyToDrive_Int.c **** *   Causes the Interrupt to enter the pending state, a software method of
 362:Generated_Source\PSoC5/ReadyToDrive_Int.c **** *   generating the interrupt.
 363:Generated_Source\PSoC5/ReadyToDrive_Int.c **** *
 364:Generated_Source\PSoC5/ReadyToDrive_Int.c **** * Parameters:
 365:Generated_Source\PSoC5/ReadyToDrive_Int.c **** *   None
 366:Generated_Source\PSoC5/ReadyToDrive_Int.c **** *
 367:Generated_Source\PSoC5/ReadyToDrive_Int.c **** * Return:
 368:Generated_Source\PSoC5/ReadyToDrive_Int.c **** *   None
 369:Generated_Source\PSoC5/ReadyToDrive_Int.c **** *
 370:Generated_Source\PSoC5/ReadyToDrive_Int.c **** * Side Effects:
 371:Generated_Source\PSoC5/ReadyToDrive_Int.c **** *   If interrupts are enabled and the interrupt is set up properly, the ISR is
 372:Generated_Source\PSoC5/ReadyToDrive_Int.c **** *   entered (depending on the priority of this interrupt and other pending 
 373:Generated_Source\PSoC5/ReadyToDrive_Int.c **** *   interrupts).
 374:Generated_Source\PSoC5/ReadyToDrive_Int.c **** *
 375:Generated_Source\PSoC5/ReadyToDrive_Int.c **** *******************************************************************************/
 376:Generated_Source\PSoC5/ReadyToDrive_Int.c **** void ReadyToDrive_Int_SetPending(void)
 377:Generated_Source\PSoC5/ReadyToDrive_Int.c **** {
 347              		.loc 1 377 0
 348              		.cfi_startproc
 349              		@ args = 0, pretend = 0, frame = 0
 350              		@ frame_needed = 0, uses_anonymous_args = 0
 351              		@ link register save eliminated.
ARM GAS  C:\Users\leoja\AppData\Local\Temp\ccskq7NH.s 			page 14


 378:Generated_Source\PSoC5/ReadyToDrive_Int.c ****     *ReadyToDrive_Int_INTC_SET_PD = ReadyToDrive_Int__INTC_MASK;
 352              		.loc 1 378 0
 353 0000 0122     		movs	r2, #1
 354 0002 014B     		ldr	r3, .L35
 355 0004 1A60     		str	r2, [r3]
 356 0006 7047     		bx	lr
 357              	.L36:
 358              		.align	2
 359              	.L35:
 360 0008 00E200E0 		.word	-536813056
 361              		.cfi_endproc
 362              	.LFE11:
 363              		.size	ReadyToDrive_Int_SetPending, .-ReadyToDrive_Int_SetPending
 364              		.section	.text.ReadyToDrive_Int_ClearPending,"ax",%progbits
 365              		.align	2
 366              		.global	ReadyToDrive_Int_ClearPending
 367              		.thumb
 368              		.thumb_func
 369              		.type	ReadyToDrive_Int_ClearPending, %function
 370              	ReadyToDrive_Int_ClearPending:
 371              	.LFB12:
 379:Generated_Source\PSoC5/ReadyToDrive_Int.c **** }
 380:Generated_Source\PSoC5/ReadyToDrive_Int.c **** 
 381:Generated_Source\PSoC5/ReadyToDrive_Int.c **** 
 382:Generated_Source\PSoC5/ReadyToDrive_Int.c **** /*******************************************************************************
 383:Generated_Source\PSoC5/ReadyToDrive_Int.c **** * Function Name: ReadyToDrive_Int_ClearPending
 384:Generated_Source\PSoC5/ReadyToDrive_Int.c **** ********************************************************************************
 385:Generated_Source\PSoC5/ReadyToDrive_Int.c **** *
 386:Generated_Source\PSoC5/ReadyToDrive_Int.c **** * Summary:
 387:Generated_Source\PSoC5/ReadyToDrive_Int.c **** *   Clears a pending interrupt in the interrupt controller.
 388:Generated_Source\PSoC5/ReadyToDrive_Int.c **** *
 389:Generated_Source\PSoC5/ReadyToDrive_Int.c **** *   Note Some interrupt sources are clear-on-read and require the block 
 390:Generated_Source\PSoC5/ReadyToDrive_Int.c **** *   interrupt/status register to be read/cleared with the appropriate block API 
 391:Generated_Source\PSoC5/ReadyToDrive_Int.c **** *   (GPIO, UART, and so on). Otherwise the ISR will continue to remain in 
 392:Generated_Source\PSoC5/ReadyToDrive_Int.c **** *   pending state even though the interrupt itself is cleared using this API.
 393:Generated_Source\PSoC5/ReadyToDrive_Int.c **** *
 394:Generated_Source\PSoC5/ReadyToDrive_Int.c **** * Parameters:
 395:Generated_Source\PSoC5/ReadyToDrive_Int.c **** *   None
 396:Generated_Source\PSoC5/ReadyToDrive_Int.c **** *
 397:Generated_Source\PSoC5/ReadyToDrive_Int.c **** * Return:
 398:Generated_Source\PSoC5/ReadyToDrive_Int.c **** *   None
 399:Generated_Source\PSoC5/ReadyToDrive_Int.c **** *
 400:Generated_Source\PSoC5/ReadyToDrive_Int.c **** *******************************************************************************/
 401:Generated_Source\PSoC5/ReadyToDrive_Int.c **** void ReadyToDrive_Int_ClearPending(void)
 402:Generated_Source\PSoC5/ReadyToDrive_Int.c **** {
 372              		.loc 1 402 0
 373              		.cfi_startproc
 374              		@ args = 0, pretend = 0, frame = 0
 375              		@ frame_needed = 0, uses_anonymous_args = 0
 376              		@ link register save eliminated.
 403:Generated_Source\PSoC5/ReadyToDrive_Int.c ****     *ReadyToDrive_Int_INTC_CLR_PD = ReadyToDrive_Int__INTC_MASK;
 377              		.loc 1 403 0
 378 0000 0122     		movs	r2, #1
 379 0002 014B     		ldr	r3, .L38
 380 0004 1A60     		str	r2, [r3]
 381 0006 7047     		bx	lr
 382              	.L39:
ARM GAS  C:\Users\leoja\AppData\Local\Temp\ccskq7NH.s 			page 15


 383              		.align	2
 384              	.L38:
 385 0008 80E200E0 		.word	-536812928
 386              		.cfi_endproc
 387              	.LFE12:
 388              		.size	ReadyToDrive_Int_ClearPending, .-ReadyToDrive_Int_ClearPending
 389              		.text
 390              	.Letext0:
 391              		.file 2 "Generated_Source\\PSoC5/cytypes.h"