ARM GAS  C:\Users\leoja\AppData\Local\Temp\cc7PdGai.s 			page 1


   1              		.syntax unified
   2              		.cpu cortex-m3
   3              		.fpu softvfp
   4              		.eabi_attribute 20, 1
   5              		.eabi_attribute 21, 1
   6              		.eabi_attribute 23, 3
   7              		.eabi_attribute 24, 1
   8              		.eabi_attribute 25, 1
   9              		.eabi_attribute 26, 1
  10              		.eabi_attribute 30, 1
  11              		.eabi_attribute 34, 1
  12              		.eabi_attribute 18, 4
  13              		.thumb
  14              		.syntax unified
  15              		.file	"ugui_SSD1963.c"
  16              		.text
  17              	.Ltext0:
  18              		.cfi_sections	.debug_frame
  19              		.section	.text.Display_Init,"ax",%progbits
  20              		.align	2
  21              		.global	Display_Init
  22              		.thumb
  23              		.thumb_func
  24              		.type	Display_Init, %function
  25              	Display_Init:
  26              	.LFB67:
  27              		.file 1 "ugui_SSD1963.c"
   1:ugui_SSD1963.c **** /*******************************************************************************
   2:ugui_SSD1963.c **** * File Name: ugui_SSD1963.c
   3:ugui_SSD1963.c **** *
   4:ugui_SSD1963.c **** * Description:
   5:ugui_SSD1963.c **** *  This is a driver for the uGui graphical library developed by 
   6:ugui_SSD1963.c **** *  Achim Döbler.
   7:ugui_SSD1963.c **** *  It is for SSD1963 graphic controller found in a lot of low cost graphics 
   8:ugui_SSD1963.c **** *  chinese displays an to be used with PSoC microcontrollers from Cypress.
   9:ugui_SSD1963.c **** *  Will test it with other PSoC micros as soon as I can.
  10:ugui_SSD1963.c **** *
  11:ugui_SSD1963.c **** * Note:
  12:ugui_SSD1963.c **** *  For more information about uGui...
  13:ugui_SSD1963.c **** *  Website: http://www.embeddedlightning.com/ugui/
  14:ugui_SSD1963.c **** *  Git: https://github.com/achimdoebler/UGUI
  15:ugui_SSD1963.c **** *  Forum: http://www.embeddedlightning.com/forum/
  16:ugui_SSD1963.c **** *  PDF Reference manual (excellent): http://www.embeddedlightning.com/download/reference-guide/?wpd
  17:ugui_SSD1963.c **** *
  18:ugui_SSD1963.c **** *  Thanks to Achim Döbler for such a god job.
  19:ugui_SSD1963.c **** *
  20:ugui_SSD1963.c **** * Log version:
  21:ugui_SSD1963.c **** *  1.0 - June, 2018.       First version.
  22:ugui_SSD1963.c **** *
  23:ugui_SSD1963.c **** ********************************************************************************
  24:ugui_SSD1963.c **** * Copyright (c) 2018 Andres F. Navas
  25:ugui_SSD1963.c **** * This driver follows the same license than the uGui library.
  26:ugui_SSD1963.c **** *******************************************************************************/
  27:ugui_SSD1963.c **** 
  28:ugui_SSD1963.c **** #include <project.h>
  29:ugui_SSD1963.c **** #include "ugui.h"
  30:ugui_SSD1963.c **** #include "ugui_SSD1963.h"
ARM GAS  C:\Users\leoja\AppData\Local\Temp\cc7PdGai.s 			page 2


  31:ugui_SSD1963.c **** 
  32:ugui_SSD1963.c **** #define HDP (DISPLAY_WIDTH - 1)
  33:ugui_SSD1963.c **** #define VDP (DISPLAY_HEIGHT - 1)
  34:ugui_SSD1963.c **** 
  35:ugui_SSD1963.c **** inline void Display_WriteCommand(uint8_t command)
  36:ugui_SSD1963.c **** {
  37:ugui_SSD1963.c ****     GraphicLCDIntf_Write8(0, command);
  38:ugui_SSD1963.c **** }
  39:ugui_SSD1963.c **** 
  40:ugui_SSD1963.c **** inline void Display_WriteData(uint8_t data)
  41:ugui_SSD1963.c **** {
  42:ugui_SSD1963.c ****     GraphicLCDIntf_Write8(1, data);
  43:ugui_SSD1963.c **** }
  44:ugui_SSD1963.c **** 
  45:ugui_SSD1963.c **** inline void Display_WriteMultiData(uint8_t *data, uint16 size)
  46:ugui_SSD1963.c **** {
  47:ugui_SSD1963.c ****     GraphicLCDIntf_WriteM8(1, data, size);
  48:ugui_SSD1963.c **** }
  49:ugui_SSD1963.c **** 
  50:ugui_SSD1963.c **** inline void Display_Reset()
  51:ugui_SSD1963.c **** {
  52:ugui_SSD1963.c ****     Display_WriteCommand(0x01);         //Software reset
  53:ugui_SSD1963.c ****     CyDelay(10);
  54:ugui_SSD1963.c **** }
  55:ugui_SSD1963.c **** 
  56:ugui_SSD1963.c **** void Display_Init()
  57:ugui_SSD1963.c **** {
  28              		.loc 1 57 0
  29              		.cfi_startproc
  30              		@ args = 0, pretend = 0, frame = 0
  31              		@ frame_needed = 0, uses_anonymous_args = 0
  32 0000 10B5     		push	{r4, lr}
  33              		.cfi_def_cfa_offset 8
  34              		.cfi_offset 4, -8
  35              		.cfi_offset 14, -4
  58:ugui_SSD1963.c ****     int i;
  59:ugui_SSD1963.c ****     
  60:ugui_SSD1963.c ****     CyDelay(100);
  36              		.loc 1 60 0
  37 0002 6420     		movs	r0, #100
  38 0004 FFF7FEFF 		bl	CyDelay
  39              	.LVL0:
  61:ugui_SSD1963.c **** 	
  62:ugui_SSD1963.c ****     for(i = 0; i < 5; i++)              // Hardware reset
  40              		.loc 1 62 0
  41 0008 0024     		movs	r4, #0
  42 000a 0CE0     		b	.L2
  43              	.LVL1:
  44              	.L3:
  63:ugui_SSD1963.c ****     {
  64:ugui_SSD1963.c ****         D_RST_Write(0);
  45              		.loc 1 64 0 discriminator 3
  46 000c 0020     		movs	r0, #0
  47 000e FFF7FEFF 		bl	D_RST_Write
  48              	.LVL2:
  65:ugui_SSD1963.c **** 		CyDelay(50);
  49              		.loc 1 65 0 discriminator 3
ARM GAS  C:\Users\leoja\AppData\Local\Temp\cc7PdGai.s 			page 3


  50 0012 3220     		movs	r0, #50
  51 0014 FFF7FEFF 		bl	CyDelay
  52              	.LVL3:
  66:ugui_SSD1963.c ****         D_RST_Write(1);
  53              		.loc 1 66 0 discriminator 3
  54 0018 0120     		movs	r0, #1
  55 001a FFF7FEFF 		bl	D_RST_Write
  56              	.LVL4:
  67:ugui_SSD1963.c ****         CyDelay(50);
  57              		.loc 1 67 0 discriminator 3
  58 001e 3220     		movs	r0, #50
  59 0020 FFF7FEFF 		bl	CyDelay
  60              	.LVL5:
  62:ugui_SSD1963.c ****     {
  61              		.loc 1 62 0 discriminator 3
  62 0024 0134     		adds	r4, r4, #1
  63              	.LVL6:
  64              	.L2:
  62:ugui_SSD1963.c ****     {
  65              		.loc 1 62 0 is_stmt 0 discriminator 1
  66 0026 042C     		cmp	r4, #4
  67 0028 F0DD     		ble	.L3
  68              	.LVL7:
  69              	.LBB142:
  70              	.LBB143:
  71              	.LBB144:
  72              	.LBB145:
  37:ugui_SSD1963.c **** }
  73              		.loc 1 37 0 is_stmt 1
  74 002a 0121     		movs	r1, #1
  75 002c 0020     		movs	r0, #0
  76 002e FFF7FEFF 		bl	GraphicLCDIntf_Write8
  77              	.LVL8:
  78              	.LBE145:
  79              	.LBE144:
  53:ugui_SSD1963.c **** }
  80              		.loc 1 53 0
  81 0032 0A20     		movs	r0, #10
  82 0034 FFF7FEFF 		bl	CyDelay
  83              	.LVL9:
  84              	.LBE143:
  85              	.LBE142:
  68:ugui_SSD1963.c **** 	}
  69:ugui_SSD1963.c ****     
  70:ugui_SSD1963.c ****     Display_Reset();                    //Software reset
  71:ugui_SSD1963.c ****     CyDelay(10);
  86              		.loc 1 71 0
  87 0038 0A20     		movs	r0, #10
  88 003a FFF7FEFF 		bl	CyDelay
  89              	.LVL10:
  90              	.LBB146:
  91              	.LBB147:
  92              	.LBB148:
  93              	.LBB149:
  37:ugui_SSD1963.c **** }
  94              		.loc 1 37 0
  95 003e 0121     		movs	r1, #1
ARM GAS  C:\Users\leoja\AppData\Local\Temp\cc7PdGai.s 			page 4


  96 0040 0020     		movs	r0, #0
  97 0042 FFF7FEFF 		bl	GraphicLCDIntf_Write8
  98              	.LVL11:
  99              	.LBE149:
 100              	.LBE148:
  53:ugui_SSD1963.c **** }
 101              		.loc 1 53 0
 102 0046 0A20     		movs	r0, #10
 103 0048 FFF7FEFF 		bl	CyDelay
 104              	.LVL12:
 105              	.LBE147:
 106              	.LBE146:
  72:ugui_SSD1963.c ****     Display_Reset();                    //Software reset
  73:ugui_SSD1963.c ****     CyDelay(10);
 107              		.loc 1 73 0
 108 004c 0A20     		movs	r0, #10
 109 004e FFF7FEFF 		bl	CyDelay
 110              	.LVL13:
 111              	.LBB150:
 112              	.LBB151:
 113              	.LBB152:
 114              	.LBB153:
  37:ugui_SSD1963.c **** }
 115              		.loc 1 37 0
 116 0052 0121     		movs	r1, #1
 117 0054 0020     		movs	r0, #0
 118 0056 FFF7FEFF 		bl	GraphicLCDIntf_Write8
 119              	.LVL14:
 120              	.LBE153:
 121              	.LBE152:
  53:ugui_SSD1963.c **** }
 122              		.loc 1 53 0
 123 005a 0A20     		movs	r0, #10
 124 005c FFF7FEFF 		bl	CyDelay
 125              	.LVL15:
 126              	.LBE151:
 127              	.LBE150:
  74:ugui_SSD1963.c ****     Display_Reset();                    //Software reset
  75:ugui_SSD1963.c ****     CyDelay(10);
 128              		.loc 1 75 0
 129 0060 0A20     		movs	r0, #10
 130 0062 FFF7FEFF 		bl	CyDelay
 131              	.LVL16:
 132              	.LBB154:
 133              	.LBB155:
  37:ugui_SSD1963.c **** }
 134              		.loc 1 37 0
 135 0066 E021     		movs	r1, #224
 136 0068 0020     		movs	r0, #0
 137 006a FFF7FEFF 		bl	GraphicLCDIntf_Write8
 138              	.LVL17:
 139              	.LBE155:
 140              	.LBE154:
 141              	.LBB156:
 142              	.LBB157:
  42:ugui_SSD1963.c **** }
 143              		.loc 1 42 0
ARM GAS  C:\Users\leoja\AppData\Local\Temp\cc7PdGai.s 			page 5


 144 006e 0121     		movs	r1, #1
 145 0070 0846     		mov	r0, r1
 146 0072 FFF7FEFF 		bl	GraphicLCDIntf_Write8
 147              	.LVL18:
 148              	.LBE157:
 149              	.LBE156:
  76:ugui_SSD1963.c **** 
  77:ugui_SSD1963.c ****     //Display_WriteCommand(0xe2);         //set multiplier and divider of PLL
  78:ugui_SSD1963.c ****     //Display_WriteData(0x23);            //PLL = 120MHz
  79:ugui_SSD1963.c ****     //Display_WriteData(0x02);
  80:ugui_SSD1963.c ****     //Display_WriteData(0x04);
  81:ugui_SSD1963.c ****     
  82:ugui_SSD1963.c ****     Display_WriteCommand(0xe0);
  83:ugui_SSD1963.c ****     Display_WriteData(0x01);            //Enable PLL
  84:ugui_SSD1963.c ****     CyDelay(50);
 150              		.loc 1 84 0
 151 0076 3220     		movs	r0, #50
 152 0078 FFF7FEFF 		bl	CyDelay
 153              	.LVL19:
 154              	.LBB158:
 155              	.LBB159:
  37:ugui_SSD1963.c **** }
 156              		.loc 1 37 0
 157 007c E021     		movs	r1, #224
 158 007e 0020     		movs	r0, #0
 159 0080 FFF7FEFF 		bl	GraphicLCDIntf_Write8
 160              	.LVL20:
 161              	.LBE159:
 162              	.LBE158:
 163              	.LBB160:
 164              	.LBB161:
  42:ugui_SSD1963.c **** }
 165              		.loc 1 42 0
 166 0084 0321     		movs	r1, #3
 167 0086 0120     		movs	r0, #1
 168 0088 FFF7FEFF 		bl	GraphicLCDIntf_Write8
 169              	.LVL21:
 170              	.LBE161:
 171              	.LBE160:
  85:ugui_SSD1963.c ****     
  86:ugui_SSD1963.c ****     Display_WriteCommand(0xe0);
  87:ugui_SSD1963.c ****     Display_WriteData(0x03);            //Lock PLL
  88:ugui_SSD1963.c ****     CyDelay(50);
 172              		.loc 1 88 0
 173 008c 3220     		movs	r0, #50
 174 008e FFF7FEFF 		bl	CyDelay
 175              	.LVL22:
 176              	.LBB162:
 177              	.LBB163:
 178              	.LBB164:
 179              	.LBB165:
  37:ugui_SSD1963.c **** }
 180              		.loc 1 37 0
 181 0092 0121     		movs	r1, #1
 182 0094 0020     		movs	r0, #0
 183 0096 FFF7FEFF 		bl	GraphicLCDIntf_Write8
 184              	.LVL23:
ARM GAS  C:\Users\leoja\AppData\Local\Temp\cc7PdGai.s 			page 6


 185              	.LBE165:
 186              	.LBE164:
  53:ugui_SSD1963.c **** }
 187              		.loc 1 53 0
 188 009a 0A20     		movs	r0, #10
 189 009c FFF7FEFF 		bl	CyDelay
 190              	.LVL24:
 191              	.LBE163:
 192              	.LBE162:
  89:ugui_SSD1963.c ****     Display_Reset();                    //Software reset
  90:ugui_SSD1963.c ****     CyDelay(50);
 193              		.loc 1 90 0
 194 00a0 3220     		movs	r0, #50
 195 00a2 FFF7FEFF 		bl	CyDelay
 196              	.LVL25:
 197              	.LBB166:
 198              	.LBB167:
  37:ugui_SSD1963.c **** }
 199              		.loc 1 37 0
 200 00a6 B021     		movs	r1, #176
 201 00a8 0020     		movs	r0, #0
 202 00aa FFF7FEFF 		bl	GraphicLCDIntf_Write8
 203              	.LVL26:
 204              	.LBE167:
 205              	.LBE166:
 206              	.LBB168:
 207              	.LBB169:
  42:ugui_SSD1963.c **** }
 208              		.loc 1 42 0
 209 00ae 0821     		movs	r1, #8
 210 00b0 0120     		movs	r0, #1
 211 00b2 FFF7FEFF 		bl	GraphicLCDIntf_Write8
 212              	.LVL27:
 213              	.LBE169:
 214              	.LBE168:
 215              	.LBB170:
 216              	.LBB171:
 217 00b6 8021     		movs	r1, #128
 218 00b8 0120     		movs	r0, #1
 219 00ba FFF7FEFF 		bl	GraphicLCDIntf_Write8
 220              	.LVL28:
 221              	.LBE171:
 222              	.LBE170:
 223              	.LBB172:
 224              	.LBB173:
 225 00be 0121     		movs	r1, #1
 226 00c0 0846     		mov	r0, r1
 227 00c2 FFF7FEFF 		bl	GraphicLCDIntf_Write8
 228              	.LVL29:
 229              	.LBE173:
 230              	.LBE172:
 231              	.LBB174:
 232              	.LBB175:
 233 00c6 DF21     		movs	r1, #223
 234 00c8 0120     		movs	r0, #1
 235 00ca FFF7FEFF 		bl	GraphicLCDIntf_Write8
 236              	.LVL30:
ARM GAS  C:\Users\leoja\AppData\Local\Temp\cc7PdGai.s 			page 7


 237              	.LBE175:
 238              	.LBE174:
 239              	.LBB176:
 240              	.LBB177:
 241 00ce 0121     		movs	r1, #1
 242 00d0 0846     		mov	r0, r1
 243 00d2 FFF7FEFF 		bl	GraphicLCDIntf_Write8
 244              	.LVL31:
 245              	.LBE177:
 246              	.LBE176:
 247              	.LBB178:
 248              	.LBB179:
 249 00d6 0F21     		movs	r1, #15
 250 00d8 0120     		movs	r0, #1
 251 00da FFF7FEFF 		bl	GraphicLCDIntf_Write8
 252              	.LVL32:
 253              	.LBE179:
 254              	.LBE178:
 255              	.LBB180:
 256              	.LBB181:
 257 00de 0021     		movs	r1, #0
 258 00e0 0120     		movs	r0, #1
 259 00e2 FFF7FEFF 		bl	GraphicLCDIntf_Write8
 260              	.LVL33:
 261              	.LBE181:
 262              	.LBE180:
 263              	.LBB182:
 264              	.LBB183:
  37:ugui_SSD1963.c **** }
 265              		.loc 1 37 0
 266 00e6 F021     		movs	r1, #240
 267 00e8 0020     		movs	r0, #0
 268 00ea FFF7FEFF 		bl	GraphicLCDIntf_Write8
 269              	.LVL34:
 270              	.LBE183:
 271              	.LBE182:
 272              	.LBB184:
 273              	.LBB185:
  42:ugui_SSD1963.c **** }
 274              		.loc 1 42 0
 275 00ee 0021     		movs	r1, #0
 276 00f0 0120     		movs	r0, #1
 277 00f2 FFF7FEFF 		bl	GraphicLCDIntf_Write8
 278              	.LVL35:
 279              	.LBE185:
 280              	.LBE184:
 281              	.LBB186:
 282              	.LBB187:
  37:ugui_SSD1963.c **** }
 283              		.loc 1 37 0
 284 00f6 3A21     		movs	r1, #58
 285 00f8 0020     		movs	r0, #0
 286 00fa FFF7FEFF 		bl	GraphicLCDIntf_Write8
 287              	.LVL36:
 288              	.LBE187:
 289              	.LBE186:
 290              	.LBB188:
ARM GAS  C:\Users\leoja\AppData\Local\Temp\cc7PdGai.s 			page 8


 291              	.LBB189:
  42:ugui_SSD1963.c **** }
 292              		.loc 1 42 0
 293 00fe 6021     		movs	r1, #96
 294 0100 0120     		movs	r0, #1
 295 0102 FFF7FEFF 		bl	GraphicLCDIntf_Write8
 296              	.LVL37:
 297              	.LBE189:
 298              	.LBE188:
 299              	.LBB190:
 300              	.LBB191:
  37:ugui_SSD1963.c **** }
 301              		.loc 1 37 0
 302 0106 E621     		movs	r1, #230
 303 0108 0020     		movs	r0, #0
 304 010a FFF7FEFF 		bl	GraphicLCDIntf_Write8
 305              	.LVL38:
 306              	.LBE191:
 307              	.LBE190:
 308              	.LBB192:
 309              	.LBB193:
  42:ugui_SSD1963.c **** }
 310              		.loc 1 42 0
 311 010e 0121     		movs	r1, #1
 312 0110 0846     		mov	r0, r1
 313 0112 FFF7FEFF 		bl	GraphicLCDIntf_Write8
 314              	.LVL39:
 315              	.LBE193:
 316              	.LBE192:
 317              	.LBB194:
 318              	.LBB195:
 319 0116 4521     		movs	r1, #69
 320 0118 0120     		movs	r0, #1
 321 011a FFF7FEFF 		bl	GraphicLCDIntf_Write8
 322              	.LVL40:
 323              	.LBE195:
 324              	.LBE194:
 325              	.LBB196:
 326              	.LBB197:
 327 011e 4721     		movs	r1, #71
 328 0120 0120     		movs	r0, #1
 329 0122 FFF7FEFF 		bl	GraphicLCDIntf_Write8
 330              	.LVL41:
 331              	.LBE197:
 332              	.LBE196:
 333              	.LBB198:
 334              	.LBB199:
  37:ugui_SSD1963.c **** }
 335              		.loc 1 37 0
 336 0126 B421     		movs	r1, #180
 337 0128 0020     		movs	r0, #0
 338 012a FFF7FEFF 		bl	GraphicLCDIntf_Write8
 339              	.LVL42:
 340              	.LBE199:
 341              	.LBE198:
 342              	.LBB200:
 343              	.LBB201:
ARM GAS  C:\Users\leoja\AppData\Local\Temp\cc7PdGai.s 			page 9


  42:ugui_SSD1963.c **** }
 344              		.loc 1 42 0
 345 012e 0221     		movs	r1, #2
 346 0130 0120     		movs	r0, #1
 347 0132 FFF7FEFF 		bl	GraphicLCDIntf_Write8
 348              	.LVL43:
 349              	.LBE201:
 350              	.LBE200:
 351              	.LBB202:
 352              	.LBB203:
 353 0136 0D21     		movs	r1, #13
 354 0138 0120     		movs	r0, #1
 355 013a FFF7FEFF 		bl	GraphicLCDIntf_Write8
 356              	.LVL44:
 357              	.LBE203:
 358              	.LBE202:
 359              	.LBB204:
 360              	.LBB205:
 361 013e 0021     		movs	r1, #0
 362 0140 0120     		movs	r0, #1
 363 0142 FFF7FEFF 		bl	GraphicLCDIntf_Write8
 364              	.LVL45:
 365              	.LBE205:
 366              	.LBE204:
 367              	.LBB206:
 368              	.LBB207:
 369 0146 2B21     		movs	r1, #43
 370 0148 0120     		movs	r0, #1
 371 014a FFF7FEFF 		bl	GraphicLCDIntf_Write8
 372              	.LVL46:
 373              	.LBE207:
 374              	.LBE206:
 375              	.LBB208:
 376              	.LBB209:
 377 014e 2821     		movs	r1, #40
 378 0150 0120     		movs	r0, #1
 379 0152 FFF7FEFF 		bl	GraphicLCDIntf_Write8
 380              	.LVL47:
 381              	.LBE209:
 382              	.LBE208:
 383              	.LBB210:
 384              	.LBB211:
 385 0156 0021     		movs	r1, #0
 386 0158 0120     		movs	r0, #1
 387 015a FFF7FEFF 		bl	GraphicLCDIntf_Write8
 388              	.LVL48:
 389              	.LBE211:
 390              	.LBE210:
 391              	.LBB212:
 392              	.LBB213:
 393 015e 0021     		movs	r1, #0
 394 0160 0120     		movs	r0, #1
 395 0162 FFF7FEFF 		bl	GraphicLCDIntf_Write8
 396              	.LVL49:
 397              	.LBE213:
 398              	.LBE212:
 399              	.LBB214:
ARM GAS  C:\Users\leoja\AppData\Local\Temp\cc7PdGai.s 			page 10


 400              	.LBB215:
 401 0166 0021     		movs	r1, #0
 402 0168 0120     		movs	r0, #1
 403 016a FFF7FEFF 		bl	GraphicLCDIntf_Write8
 404              	.LVL50:
 405              	.LBE215:
 406              	.LBE214:
 407              	.LBB216:
 408              	.LBB217:
  37:ugui_SSD1963.c **** }
 409              		.loc 1 37 0
 410 016e B621     		movs	r1, #182
 411 0170 0020     		movs	r0, #0
 412 0172 FFF7FEFF 		bl	GraphicLCDIntf_Write8
 413              	.LVL51:
 414              	.LBE217:
 415              	.LBE216:
 416              	.LBB218:
 417              	.LBB219:
  42:ugui_SSD1963.c **** }
 418              		.loc 1 42 0
 419 0176 0121     		movs	r1, #1
 420 0178 0846     		mov	r0, r1
 421 017a FFF7FEFF 		bl	GraphicLCDIntf_Write8
 422              	.LVL52:
 423              	.LBE219:
 424              	.LBE218:
 425              	.LBB220:
 426              	.LBB221:
 427 017e 1D21     		movs	r1, #29
 428 0180 0120     		movs	r0, #1
 429 0182 FFF7FEFF 		bl	GraphicLCDIntf_Write8
 430              	.LVL53:
 431              	.LBE221:
 432              	.LBE220:
 433              	.LBB222:
 434              	.LBB223:
 435 0186 0021     		movs	r1, #0
 436 0188 0120     		movs	r0, #1
 437 018a FFF7FEFF 		bl	GraphicLCDIntf_Write8
 438              	.LVL54:
 439              	.LBE223:
 440              	.LBE222:
 441              	.LBB224:
 442              	.LBB225:
 443 018e 0C21     		movs	r1, #12
 444 0190 0120     		movs	r0, #1
 445 0192 FFF7FEFF 		bl	GraphicLCDIntf_Write8
 446              	.LVL55:
 447              	.LBE225:
 448              	.LBE224:
 449              	.LBB226:
 450              	.LBB227:
 451 0196 0921     		movs	r1, #9
 452 0198 0120     		movs	r0, #1
 453 019a FFF7FEFF 		bl	GraphicLCDIntf_Write8
 454              	.LVL56:
ARM GAS  C:\Users\leoja\AppData\Local\Temp\cc7PdGai.s 			page 11


 455              	.LBE227:
 456              	.LBE226:
 457              	.LBB228:
 458              	.LBB229:
 459 019e 0021     		movs	r1, #0
 460 01a0 0120     		movs	r0, #1
 461 01a2 FFF7FEFF 		bl	GraphicLCDIntf_Write8
 462              	.LVL57:
 463              	.LBE229:
 464              	.LBE228:
 465              	.LBB230:
 466              	.LBB231:
 467 01a6 0021     		movs	r1, #0
 468 01a8 0120     		movs	r0, #1
 469 01aa FFF7FEFF 		bl	GraphicLCDIntf_Write8
 470              	.LVL58:
 471              	.LBE231:
 472              	.LBE230:
 473              	.LBB232:
 474              	.LBB233:
  37:ugui_SSD1963.c **** }
 475              		.loc 1 37 0
 476 01ae 2A21     		movs	r1, #42
 477 01b0 0020     		movs	r0, #0
 478 01b2 FFF7FEFF 		bl	GraphicLCDIntf_Write8
 479              	.LVL59:
 480              	.LBE233:
 481              	.LBE232:
 482              	.LBB234:
 483              	.LBB235:
  42:ugui_SSD1963.c **** }
 484              		.loc 1 42 0
 485 01b6 0021     		movs	r1, #0
 486 01b8 0120     		movs	r0, #1
 487 01ba FFF7FEFF 		bl	GraphicLCDIntf_Write8
 488              	.LVL60:
 489              	.LBE235:
 490              	.LBE234:
 491              	.LBB236:
 492              	.LBB237:
 493 01be 0021     		movs	r1, #0
 494 01c0 0120     		movs	r0, #1
 495 01c2 FFF7FEFF 		bl	GraphicLCDIntf_Write8
 496              	.LVL61:
 497              	.LBE237:
 498              	.LBE236:
 499              	.LBB238:
 500              	.LBB239:
 501 01c6 0121     		movs	r1, #1
 502 01c8 0846     		mov	r0, r1
 503 01ca FFF7FEFF 		bl	GraphicLCDIntf_Write8
 504              	.LVL62:
 505              	.LBE239:
 506              	.LBE238:
 507              	.LBB240:
 508              	.LBB241:
 509 01ce DF21     		movs	r1, #223
ARM GAS  C:\Users\leoja\AppData\Local\Temp\cc7PdGai.s 			page 12


 510 01d0 0120     		movs	r0, #1
 511 01d2 FFF7FEFF 		bl	GraphicLCDIntf_Write8
 512              	.LVL63:
 513              	.LBE241:
 514              	.LBE240:
 515              	.LBB242:
 516              	.LBB243:
  37:ugui_SSD1963.c **** }
 517              		.loc 1 37 0
 518 01d6 2B21     		movs	r1, #43
 519 01d8 0020     		movs	r0, #0
 520 01da FFF7FEFF 		bl	GraphicLCDIntf_Write8
 521              	.LVL64:
 522              	.LBE243:
 523              	.LBE242:
 524              	.LBB244:
 525              	.LBB245:
  42:ugui_SSD1963.c **** }
 526              		.loc 1 42 0
 527 01de 0021     		movs	r1, #0
 528 01e0 0120     		movs	r0, #1
 529 01e2 FFF7FEFF 		bl	GraphicLCDIntf_Write8
 530              	.LVL65:
 531              	.LBE245:
 532              	.LBE244:
 533              	.LBB246:
 534              	.LBB247:
 535 01e6 0021     		movs	r1, #0
 536 01e8 0120     		movs	r0, #1
 537 01ea FFF7FEFF 		bl	GraphicLCDIntf_Write8
 538              	.LVL66:
 539              	.LBE247:
 540              	.LBE246:
 541              	.LBB248:
 542              	.LBB249:
 543 01ee 0121     		movs	r1, #1
 544 01f0 0846     		mov	r0, r1
 545 01f2 FFF7FEFF 		bl	GraphicLCDIntf_Write8
 546              	.LVL67:
 547              	.LBE249:
 548              	.LBE248:
 549              	.LBB250:
 550              	.LBB251:
 551 01f6 0F21     		movs	r1, #15
 552 01f8 0120     		movs	r0, #1
 553 01fa FFF7FEFF 		bl	GraphicLCDIntf_Write8
 554              	.LVL68:
 555              	.LBE251:
 556              	.LBE250:
 557              	.LBB252:
 558              	.LBB253:
  37:ugui_SSD1963.c **** }
 559              		.loc 1 37 0
 560 01fe 1321     		movs	r1, #19
 561 0200 0020     		movs	r0, #0
 562 0202 FFF7FEFF 		bl	GraphicLCDIntf_Write8
 563              	.LVL69:
ARM GAS  C:\Users\leoja\AppData\Local\Temp\cc7PdGai.s 			page 13


 564              	.LBE253:
 565              	.LBE252:
 566              	.LBB254:
 567              	.LBB255:
 568 0206 3821     		movs	r1, #56
 569 0208 0020     		movs	r0, #0
 570 020a FFF7FEFF 		bl	GraphicLCDIntf_Write8
 571              	.LVL70:
 572              	.LBE255:
 573              	.LBE254:
 574              	.LBB256:
 575              	.LBB257:
 576 020e 2921     		movs	r1, #41
 577 0210 0020     		movs	r0, #0
 578 0212 FFF7FEFF 		bl	GraphicLCDIntf_Write8
 579              	.LVL71:
 580              	.LBE257:
 581              	.LBE256:
  91:ugui_SSD1963.c ****     
  92:ugui_SSD1963.c ****     Display_WriteCommand(0xb0);  //set LCD mode set TFT 18Bits mode
  93:ugui_SSD1963.c ****     
  94:ugui_SSD1963.c **** 	Display_WriteData(0x08); //set TFT Mode - 0x0c
  95:ugui_SSD1963.c ****     Display_WriteData(0x80); //set TFT mode and hsync + vsync + DEN mode
  96:ugui_SSD1963.c ****     Display_WriteData(0x01); //set horizontal size = 480 - 1 hightbyte
  97:ugui_SSD1963.c ****     Display_WriteData(0xdf); //set horizontal size = 480 - 1 lowbyte
  98:ugui_SSD1963.c ****     Display_WriteData(0x01); //set vertical sive = 272 - 1 hightbyte
  99:ugui_SSD1963.c ****     Display_WriteData(0x0f); //set vertical size = 272 - 1 lowbyte
 100:ugui_SSD1963.c ****     Display_WriteData(0x00); //set even/odd line RGB seq
 101:ugui_SSD1963.c **** 
 102:ugui_SSD1963.c ****     Display_WriteCommand(0xf0); //set pixel data I/F format = 8 bit
 103:ugui_SSD1963.c ****     Display_WriteData(0x00);
 104:ugui_SSD1963.c ****     
 105:ugui_SSD1963.c ****     Display_WriteCommand(0x3a); //set RGB format = 6 6 6
 106:ugui_SSD1963.c ****     Display_WriteData(0x60);
 107:ugui_SSD1963.c ****     
 108:ugui_SSD1963.c ****     Display_WriteCommand(0xe6); //set PCLK freq = 4.94 MHz; pixel clock frequency
 109:ugui_SSD1963.c ****     Display_WriteData(0x01);    //02
 110:ugui_SSD1963.c ****     Display_WriteData(0x45);    //ff
 111:ugui_SSD1963.c ****     Display_WriteData(0x47);    //ff
 112:ugui_SSD1963.c ****     
 113:ugui_SSD1963.c ****     Display_WriteCommand(0xb4); //set HBP
 114:ugui_SSD1963.c ****     Display_WriteData(0x02); //set Hsync = 600
 115:ugui_SSD1963.c ****     Display_WriteData(0x0d);
 116:ugui_SSD1963.c ****     Display_WriteData(0x00);    //set HBP 68
 117:ugui_SSD1963.c ****     Display_WriteData(0x2b);
 118:ugui_SSD1963.c ****     Display_WriteData(0x28);    //set VBP 16
 119:ugui_SSD1963.c ****     Display_WriteData(0x00);    //Set Hsync start position
 120:ugui_SSD1963.c ****     Display_WriteData(0x00);    
 121:ugui_SSD1963.c ****     Display_WriteData(0x00);    //set Hsync pulse subpixel start pos
 122:ugui_SSD1963.c ****     
 123:ugui_SSD1963.c ****     Display_WriteCommand(0xb6); //set VBP  
 124:ugui_SSD1963.c ****     Display_WriteData(0x01);    //set Vsync total 360
 125:ugui_SSD1963.c ****     Display_WriteData(0x1d);    
 126:ugui_SSD1963.c ****     Display_WriteData(0x00);    //set VBP = 19
 127:ugui_SSD1963.c ****     Display_WriteData(0x0c);    
 128:ugui_SSD1963.c ****     Display_WriteData(0x09);    //set Vsync pulse 8
 129:ugui_SSD1963.c ****     Display_WriteData(0x00);    //set Vsync pulse start pos
ARM GAS  C:\Users\leoja\AppData\Local\Temp\cc7PdGai.s 			page 14


 130:ugui_SSD1963.c ****     Display_WriteData(0x00);
 131:ugui_SSD1963.c ****     
 132:ugui_SSD1963.c ****     Display_WriteCommand(0x2a); //set column address
 133:ugui_SSD1963.c ****     Display_WriteData(0x00);    //set start column address 0
 134:ugui_SSD1963.c ****     Display_WriteData(0x00);    
 135:ugui_SSD1963.c ****     Display_WriteData(0x01);    //set end column address = 479
 136:ugui_SSD1963.c ****     Display_WriteData(0xdf);
 137:ugui_SSD1963.c ****     
 138:ugui_SSD1963.c ****     Display_WriteCommand(0x2b); //set page address
 139:ugui_SSD1963.c ****     Display_WriteData(0x00);    //set start page address = 0
 140:ugui_SSD1963.c ****     Display_WriteData(0x00);    
 141:ugui_SSD1963.c ****     Display_WriteData(0x01);    //set end column address = 479
 142:ugui_SSD1963.c ****     Display_WriteData(0x0f);
 143:ugui_SSD1963.c ****     
 144:ugui_SSD1963.c ****     Display_WriteCommand(0x13); //set normal mode
 145:ugui_SSD1963.c ****     Display_WriteCommand(0x38); //set normal mode
 146:ugui_SSD1963.c ****     Display_WriteCommand(0x29); //set display on
 147:ugui_SSD1963.c ****     
 148:ugui_SSD1963.c ****     // Initialize global structure and set PSET to this.PSET. 
 149:ugui_SSD1963.c ****     UG_Init(&gui1963, Display_PSet, DISPLAY_WIDTH, DISPLAY_HEIGHT); 
 582              		.loc 1 149 0
 583 0216 4FF48873 		mov	r3, #272
 584 021a 4FF4F072 		mov	r2, #480
 585 021e 0849     		ldr	r1, .L5
 586 0220 0848     		ldr	r0, .L5+4
 587 0222 FFF7FEFF 		bl	UG_Init
 588              	.LVL72:
 150:ugui_SSD1963.c ****     
 151:ugui_SSD1963.c ****     // Register acceleratos.
 152:ugui_SSD1963.c ****     UG_DriverRegister(DRIVER_FILL_FRAME, (void*)HW_FillFrame);
 589              		.loc 1 152 0
 590 0226 0849     		ldr	r1, .L5+8
 591 0228 0120     		movs	r0, #1
 592 022a FFF7FEFF 		bl	UG_DriverRegister
 593              	.LVL73:
 153:ugui_SSD1963.c ****     UG_DriverRegister(DRIVER_DRAW_LINE, (void*)HW_DrawLine);
 594              		.loc 1 153 0
 595 022e 0749     		ldr	r1, .L5+12
 596 0230 0020     		movs	r0, #0
 597 0232 FFF7FEFF 		bl	UG_DriverRegister
 598              	.LVL74:
 154:ugui_SSD1963.c ****     UG_DriverRegister(DRIVER_DRAW_IMAGE, (void*)HW_DrawImage);
 599              		.loc 1 154 0
 600 0236 0649     		ldr	r1, .L5+16
 601 0238 0320     		movs	r0, #3
 602 023a FFF7FEFF 		bl	UG_DriverRegister
 603              	.LVL75:
 604 023e 10BD     		pop	{r4, pc}
 605              	.LVL76:
 606              	.L6:
 607              		.align	2
 608              	.L5:
 609 0240 00000000 		.word	Display_PSet
 610 0244 00000000 		.word	gui1963
 611 0248 00000000 		.word	HW_FillFrame
 612 024c 00000000 		.word	HW_DrawLine
 613 0250 00000000 		.word	HW_DrawImage
ARM GAS  C:\Users\leoja\AppData\Local\Temp\cc7PdGai.s 			page 15


 614              		.cfi_endproc
 615              	.LFE67:
 616              		.size	Display_Init, .-Display_Init
 617              		.section	.text.Display_WindowSet,"ax",%progbits
 618              		.align	2
 619              		.global	Display_WindowSet
 620              		.thumb
 621              		.thumb_func
 622              		.type	Display_WindowSet, %function
 623              	Display_WindowSet:
 624              	.LFB68:
 155:ugui_SSD1963.c ****     
 156:ugui_SSD1963.c **** }
 157:ugui_SSD1963.c **** 
 158:ugui_SSD1963.c **** void Display_WindowSet(unsigned int s_x,unsigned int e_x,unsigned int s_y,unsigned int e_y)
 159:ugui_SSD1963.c **** {
 625              		.loc 1 159 0
 626              		.cfi_startproc
 627              		@ args = 0, pretend = 0, frame = 8
 628              		@ frame_needed = 0, uses_anonymous_args = 0
 629              	.LVL77:
 630 0000 30B5     		push	{r4, r5, lr}
 631              		.cfi_def_cfa_offset 12
 632              		.cfi_offset 4, -12
 633              		.cfi_offset 5, -8
 634              		.cfi_offset 14, -4
 635 0002 83B0     		sub	sp, sp, #12
 636              		.cfi_def_cfa_offset 24
 637 0004 1546     		mov	r5, r2
 638 0006 1C46     		mov	r4, r3
 160:ugui_SSD1963.c ****     uint8_t data[4];
 161:ugui_SSD1963.c ****     
 162:ugui_SSD1963.c ****     data[0] = ((s_x)>>8);                   //SET start column address
 639              		.loc 1 162 0
 640 0008 030A     		lsrs	r3, r0, #8
 641              	.LVL78:
 642 000a 8DF80430 		strb	r3, [sp, #4]
 163:ugui_SSD1963.c ****     data[1] = (s_x);
 643              		.loc 1 163 0
 644 000e 8DF80500 		strb	r0, [sp, #5]
 164:ugui_SSD1963.c ****     data[2] = ((e_x)>>8);			        //SET end column address
 645              		.loc 1 164 0
 646 0012 0B0A     		lsrs	r3, r1, #8
 647 0014 8DF80630 		strb	r3, [sp, #6]
 165:ugui_SSD1963.c ****     data[3] = (e_x);
 648              		.loc 1 165 0
 649 0018 8DF80710 		strb	r1, [sp, #7]
 650              	.LVL79:
 651              	.LBB258:
 652              	.LBB259:
  37:ugui_SSD1963.c **** }
 653              		.loc 1 37 0
 654 001c 2A21     		movs	r1, #42
 655              	.LVL80:
 656 001e 0020     		movs	r0, #0
 657              	.LVL81:
 658 0020 FFF7FEFF 		bl	GraphicLCDIntf_Write8
ARM GAS  C:\Users\leoja\AppData\Local\Temp\cc7PdGai.s 			page 16


 659              	.LVL82:
 660              	.LBE259:
 661              	.LBE258:
 662              	.LBB260:
 663              	.LBB261:
  47:ugui_SSD1963.c **** }
 664              		.loc 1 47 0
 665 0024 0422     		movs	r2, #4
 666 0026 0DEB0201 		add	r1, sp, r2
 667 002a 0120     		movs	r0, #1
 668 002c FFF7FEFF 		bl	GraphicLCDIntf_WriteM8
 669              	.LVL83:
 670              	.LBE261:
 671              	.LBE260:
 166:ugui_SSD1963.c **** 	Display_WriteCommand(0x2a);		        //SET column address
 167:ugui_SSD1963.c ****     Display_WriteMultiData(data, 4);
 168:ugui_SSD1963.c **** 
 169:ugui_SSD1963.c **** 	
 170:ugui_SSD1963.c ****     data[0] = ((s_y)>>8);                   //SET start row address
 672              		.loc 1 170 0
 673 0030 2B0A     		lsrs	r3, r5, #8
 674 0032 8DF80430 		strb	r3, [sp, #4]
 171:ugui_SSD1963.c ****     data[1] = (s_y);
 675              		.loc 1 171 0
 676 0036 8DF80550 		strb	r5, [sp, #5]
 172:ugui_SSD1963.c ****     data[2] = ((e_y)>>8);			        //SET end row address
 677              		.loc 1 172 0
 678 003a 230A     		lsrs	r3, r4, #8
 679 003c 8DF80630 		strb	r3, [sp, #6]
 173:ugui_SSD1963.c ****     data[3] = (e_y);
 680              		.loc 1 173 0
 681 0040 8DF80740 		strb	r4, [sp, #7]
 682              	.LVL84:
 683              	.LBB262:
 684              	.LBB263:
  37:ugui_SSD1963.c **** }
 685              		.loc 1 37 0
 686 0044 2B21     		movs	r1, #43
 687 0046 0020     		movs	r0, #0
 688 0048 FFF7FEFF 		bl	GraphicLCDIntf_Write8
 689              	.LVL85:
 690              	.LBE263:
 691              	.LBE262:
 692              	.LBB264:
 693              	.LBB265:
  47:ugui_SSD1963.c **** }
 694              		.loc 1 47 0
 695 004c 0422     		movs	r2, #4
 696 004e 0DEB0201 		add	r1, sp, r2
 697 0052 0120     		movs	r0, #1
 698 0054 FFF7FEFF 		bl	GraphicLCDIntf_WriteM8
 699              	.LVL86:
 700              	.LBE265:
 701              	.LBE264:
 174:ugui_SSD1963.c **** 	Display_WriteCommand(0x2b);		        //SET row address
 175:ugui_SSD1963.c ****     Display_WriteMultiData(data, 4);
 176:ugui_SSD1963.c **** }
ARM GAS  C:\Users\leoja\AppData\Local\Temp\cc7PdGai.s 			page 17


 702              		.loc 1 176 0
 703 0058 03B0     		add	sp, sp, #12
 704              		.cfi_def_cfa_offset 12
 705              		@ sp needed
 706 005a 30BD     		pop	{r4, r5, pc}
 707              		.cfi_endproc
 708              	.LFE68:
 709              		.size	Display_WindowSet, .-Display_WindowSet
 710              		.section	.text.Display_PSet,"ax",%progbits
 711              		.align	2
 712              		.global	Display_PSet
 713              		.thumb
 714              		.thumb_func
 715              		.type	Display_PSet, %function
 716              	Display_PSet:
 717              	.LFB69:
 177:ugui_SSD1963.c **** 
 178:ugui_SSD1963.c **** void Display_PSet(UG_S16 x, UG_S16 y, UG_COLOR c)
 179:ugui_SSD1963.c **** {    
 718              		.loc 1 179 0
 719              		.cfi_startproc
 720              		@ args = 0, pretend = 0, frame = 8
 721              		@ frame_needed = 0, uses_anonymous_args = 0
 722              	.LVL87:
 723 0000 00B5     		push	{lr}
 724              		.cfi_def_cfa_offset 4
 725              		.cfi_offset 14, -4
 726 0002 83B0     		sub	sp, sp, #12
 727              		.cfi_def_cfa_offset 16
 180:ugui_SSD1963.c ****     uint8_t data[3];
 181:ugui_SSD1963.c ****     
 182:ugui_SSD1963.c ****     data[0] = (c >> 16);
 728              		.loc 1 182 0
 729 0004 130C     		lsrs	r3, r2, #16
 730 0006 8DF80430 		strb	r3, [sp, #4]
 183:ugui_SSD1963.c ****     data[1] = (c >> 8);
 731              		.loc 1 183 0
 732 000a 130A     		lsrs	r3, r2, #8
 733 000c 8DF80530 		strb	r3, [sp, #5]
 184:ugui_SSD1963.c ****     data[2] = (c);
 734              		.loc 1 184 0
 735 0010 8DF80620 		strb	r2, [sp, #6]
 185:ugui_SSD1963.c ****     
 186:ugui_SSD1963.c ****     if((x < 0) ||(x >= DISPLAY_WIDTH) || (y < 0) || (y >= DISPLAY_HEIGHT)) return;
 736              		.loc 1 186 0
 737 0014 83B2     		uxth	r3, r0
 738 0016 B3F5F07F 		cmp	r3, #480
 739 001a 12D2     		bcs	.L9
 740              		.loc 1 186 0 is_stmt 0 discriminator 1
 741 001c 0029     		cmp	r1, #0
 742 001e 10DB     		blt	.L9
 743              		.loc 1 186 0 discriminator 2
 744 0020 B1F5887F 		cmp	r1, #272
 745 0024 0DDA     		bge	.L9
 746 0026 0A46     		mov	r2, r1
 747              	.LVL88:
 187:ugui_SSD1963.c ****  
ARM GAS  C:\Users\leoja\AppData\Local\Temp\cc7PdGai.s 			page 18


 188:ugui_SSD1963.c ****     Display_WindowSet(x, x + 1, y, y + 1);    
 748              		.loc 1 188 0 is_stmt 1
 749 0028 4B1C     		adds	r3, r1, #1
 750 002a 411C     		adds	r1, r0, #1
 751              	.LVL89:
 752 002c FFF7FEFF 		bl	Display_WindowSet
 753              	.LVL90:
 754              	.LBB266:
 755              	.LBB267:
  37:ugui_SSD1963.c **** }
 756              		.loc 1 37 0
 757 0030 2C21     		movs	r1, #44
 758 0032 0020     		movs	r0, #0
 759 0034 FFF7FEFF 		bl	GraphicLCDIntf_Write8
 760              	.LVL91:
 761              	.LBE267:
 762              	.LBE266:
 763              	.LBB268:
 764              	.LBB269:
  47:ugui_SSD1963.c **** }
 765              		.loc 1 47 0
 766 0038 0322     		movs	r2, #3
 767 003a 01A9     		add	r1, sp, #4
 768              	.LVL92:
 769 003c 0120     		movs	r0, #1
 770 003e FFF7FEFF 		bl	GraphicLCDIntf_WriteM8
 771              	.LVL93:
 772              	.L9:
 773              	.LBE269:
 774              	.LBE268:
 189:ugui_SSD1963.c ****     Display_WriteCommand(0x2c);
 190:ugui_SSD1963.c ****     Display_WriteMultiData(data, 3);
 191:ugui_SSD1963.c **** 
 192:ugui_SSD1963.c **** }
 775              		.loc 1 192 0
 776 0042 03B0     		add	sp, sp, #12
 777              		.cfi_def_cfa_offset 4
 778              		@ sp needed
 779 0044 5DF804FB 		ldr	pc, [sp], #4
 780              		.cfi_endproc
 781              	.LFE69:
 782              		.size	Display_PSet, .-Display_PSet
 783              		.section	.text.HW_FillFrame,"ax",%progbits
 784              		.align	2
 785              		.global	HW_FillFrame
 786              		.thumb
 787              		.thumb_func
 788              		.type	HW_FillFrame, %function
 789              	HW_FillFrame:
 790              	.LFB70:
 193:ugui_SSD1963.c **** 
 194:ugui_SSD1963.c **** UG_RESULT HW_FillFrame(UG_S16 x1, UG_S16 y1, UG_S16 x2, UG_S16 y2, UG_COLOR c)
 195:ugui_SSD1963.c **** {
 791              		.loc 1 195 0
 792              		.cfi_startproc
 793              		@ args = 4, pretend = 0, frame = 8
 794              		@ frame_needed = 0, uses_anonymous_args = 0
ARM GAS  C:\Users\leoja\AppData\Local\Temp\cc7PdGai.s 			page 19


 795              	.LVL94:
 796 0000 2DE9F041 		push	{r4, r5, r6, r7, r8, lr}
 797              		.cfi_def_cfa_offset 24
 798              		.cfi_offset 4, -24
 799              		.cfi_offset 5, -20
 800              		.cfi_offset 6, -16
 801              		.cfi_offset 7, -12
 802              		.cfi_offset 8, -8
 803              		.cfi_offset 14, -4
 804 0004 82B0     		sub	sp, sp, #8
 805              		.cfi_def_cfa_offset 32
 806 0006 089C     		ldr	r4, [sp, #32]
 196:ugui_SSD1963.c ****     uint16 loopx, loopy;
 197:ugui_SSD1963.c ****     uint8_t data[3];
 198:ugui_SSD1963.c ****     
 199:ugui_SSD1963.c ****     data[0] = (c >> 16);
 807              		.loc 1 199 0
 808 0008 250C     		lsrs	r5, r4, #16
 809 000a 8DF80450 		strb	r5, [sp, #4]
 200:ugui_SSD1963.c ****     data[1] = (c >> 8);
 810              		.loc 1 200 0
 811 000e 250A     		lsrs	r5, r4, #8
 812 0010 8DF80550 		strb	r5, [sp, #5]
 201:ugui_SSD1963.c ****     data[2] = (c);
 813              		.loc 1 201 0
 814 0014 8DF80640 		strb	r4, [sp, #6]
 202:ugui_SSD1963.c ****     
 203:ugui_SSD1963.c ****     if((x1 < 0) ||(x1 >= DISPLAY_WIDTH) || (y1 < 0) || (y1 >= DISPLAY_HEIGHT)) return UG_RESULT_FAI
 815              		.loc 1 203 0
 816 0018 86B2     		uxth	r6, r0
 817 001a B6F5F07F 		cmp	r6, #480
 818 001e 2DD2     		bcs	.L19
 819              		.loc 1 203 0 is_stmt 0 discriminator 2
 820 0020 0029     		cmp	r1, #0
 821 0022 2EDB     		blt	.L20
 822              		.loc 1 203 0 discriminator 4
 823 0024 B1F5887F 		cmp	r1, #272
 824 0028 2EDA     		bge	.L21
 204:ugui_SSD1963.c ****     if((x2 < 0) ||(x2 >= DISPLAY_WIDTH) || (y2 < 0) || (y2 >= DISPLAY_HEIGHT)) return UG_RESULT_FAI
 825              		.loc 1 204 0 is_stmt 1
 826 002a 94B2     		uxth	r4, r2
 827 002c B4F5F07F 		cmp	r4, #480
 828 0030 2DD2     		bcs	.L22
 829              		.loc 1 204 0 is_stmt 0 discriminator 2
 830 0032 002B     		cmp	r3, #0
 831 0034 2EDB     		blt	.L23
 832              		.loc 1 204 0 discriminator 4
 833 0036 B3F5887F 		cmp	r3, #272
 834 003a 2EDA     		bge	.L24
 835 003c 1D46     		mov	r5, r3
 836 003e 9046     		mov	r8, r2
 837 0040 0F46     		mov	r7, r1
 205:ugui_SSD1963.c **** 
 206:ugui_SSD1963.c ****     Display_WindowSet(x1,x2,y1,y2);
 838              		.loc 1 206 0 is_stmt 1
 839 0042 0A46     		mov	r2, r1
 840              	.LVL95:
ARM GAS  C:\Users\leoja\AppData\Local\Temp\cc7PdGai.s 			page 20


 841 0044 4146     		mov	r1, r8
 842              	.LVL96:
 843 0046 FFF7FEFF 		bl	Display_WindowSet
 844              	.LVL97:
 845              	.LBB270:
 846              	.LBB271:
  37:ugui_SSD1963.c **** }
 847              		.loc 1 37 0
 848 004a 2C21     		movs	r1, #44
 849 004c 0020     		movs	r0, #0
 850 004e FFF7FEFF 		bl	GraphicLCDIntf_Write8
 851              	.LVL98:
 852              	.LBE271:
 853              	.LBE270:
 207:ugui_SSD1963.c **** 
 208:ugui_SSD1963.c ****     Display_WriteCommand(0x2c);            
 209:ugui_SSD1963.c ****     for (loopx = x1; loopx < x2 + 1; loopx++)
 854              		.loc 1 209 0
 855 0052 0DE0     		b	.L15
 856              	.LVL99:
 857              	.L18:
 210:ugui_SSD1963.c ****     {
 211:ugui_SSD1963.c ****         for (loopy = y1; loopy < y2 + 1; loopy++)
 858              		.loc 1 211 0
 859 0054 BCB2     		uxth	r4, r7
 860              	.LVL100:
 861 0056 06E0     		b	.L16
 862              	.L17:
 863              	.LVL101:
 864              	.LBB272:
 865              	.LBB273:
  47:ugui_SSD1963.c **** }
 866              		.loc 1 47 0
 867 0058 0322     		movs	r2, #3
 868 005a 01A9     		add	r1, sp, #4
 869              	.LVL102:
 870 005c 0120     		movs	r0, #1
 871 005e FFF7FEFF 		bl	GraphicLCDIntf_WriteM8
 872              	.LVL103:
 873              	.LBE273:
 874              	.LBE272:
 875              		.loc 1 211 0
 876 0062 0134     		adds	r4, r4, #1
 877              	.LVL104:
 878 0064 A4B2     		uxth	r4, r4
 879              	.LVL105:
 880              	.L16:
 881              		.loc 1 211 0 is_stmt 0 discriminator 1
 882 0066 681C     		adds	r0, r5, #1
 883 0068 8442     		cmp	r4, r0
 884 006a F5DB     		blt	.L17
 209:ugui_SSD1963.c ****     {
 885              		.loc 1 209 0 is_stmt 1 discriminator 2
 886 006c 0136     		adds	r6, r6, #1
 887              	.LVL106:
 888 006e B6B2     		uxth	r6, r6
 889              	.LVL107:
ARM GAS  C:\Users\leoja\AppData\Local\Temp\cc7PdGai.s 			page 21


 890              	.L15:
 209:ugui_SSD1963.c ****     {
 891              		.loc 1 209 0 is_stmt 0 discriminator 1
 892 0070 08F10103 		add	r3, r8, #1
 893 0074 9E42     		cmp	r6, r3
 894 0076 EDDB     		blt	.L18
 212:ugui_SSD1963.c ****         {
 213:ugui_SSD1963.c ****             Display_WriteMultiData(data, 3);
 214:ugui_SSD1963.c ****         }
 215:ugui_SSD1963.c ****     } 
 216:ugui_SSD1963.c ****     
 217:ugui_SSD1963.c ****     return UG_RESULT_OK;
 895              		.loc 1 217 0 is_stmt 1
 896 0078 0020     		movs	r0, #0
 897 007a 10E0     		b	.L14
 898              	.LVL108:
 899              	.L19:
 203:ugui_SSD1963.c ****     if((x2 < 0) ||(x2 >= DISPLAY_WIDTH) || (y2 < 0) || (y2 >= DISPLAY_HEIGHT)) return UG_RESULT_FAI
 900              		.loc 1 203 0
 901 007c 4FF0FF30 		mov	r0, #-1
 902              	.LVL109:
 903 0080 0DE0     		b	.L14
 904              	.LVL110:
 905              	.L20:
 906 0082 4FF0FF30 		mov	r0, #-1
 907              	.LVL111:
 908 0086 0AE0     		b	.L14
 909              	.LVL112:
 910              	.L21:
 911 0088 4FF0FF30 		mov	r0, #-1
 912              	.LVL113:
 913 008c 07E0     		b	.L14
 914              	.LVL114:
 915              	.L22:
 204:ugui_SSD1963.c **** 
 916              		.loc 1 204 0
 917 008e 4FF0FF30 		mov	r0, #-1
 918              	.LVL115:
 919 0092 04E0     		b	.L14
 920              	.LVL116:
 921              	.L23:
 922 0094 4FF0FF30 		mov	r0, #-1
 923              	.LVL117:
 924 0098 01E0     		b	.L14
 925              	.LVL118:
 926              	.L24:
 927 009a 4FF0FF30 		mov	r0, #-1
 928              	.LVL119:
 929              	.L14:
 218:ugui_SSD1963.c **** }
 930              		.loc 1 218 0
 931 009e 02B0     		add	sp, sp, #8
 932              		.cfi_def_cfa_offset 24
 933              		@ sp needed
 934 00a0 BDE8F081 		pop	{r4, r5, r6, r7, r8, pc}
 935              		.cfi_endproc
 936              	.LFE70:
ARM GAS  C:\Users\leoja\AppData\Local\Temp\cc7PdGai.s 			page 22


 937              		.size	HW_FillFrame, .-HW_FillFrame
 938              		.section	.text.HW_DrawLine,"ax",%progbits
 939              		.align	2
 940              		.global	HW_DrawLine
 941              		.thumb
 942              		.thumb_func
 943              		.type	HW_DrawLine, %function
 944              	HW_DrawLine:
 945              	.LFB71:
 219:ugui_SSD1963.c **** 
 220:ugui_SSD1963.c **** UG_RESULT HW_DrawLine( UG_S16 x1 , UG_S16 y1 , UG_S16 x2 , UG_S16 y2 , UG_COLOR c )
 221:ugui_SSD1963.c **** {
 946              		.loc 1 221 0
 947              		.cfi_startproc
 948              		@ args = 4, pretend = 0, frame = 0
 949              		@ frame_needed = 0, uses_anonymous_args = 0
 950              	.LVL120:
 951 0000 10B5     		push	{r4, lr}
 952              		.cfi_def_cfa_offset 8
 953              		.cfi_offset 4, -8
 954              		.cfi_offset 14, -4
 955 0002 82B0     		sub	sp, sp, #8
 956              		.cfi_def_cfa_offset 16
 222:ugui_SSD1963.c ****     if((x1 < 0) ||(x1 >= DISPLAY_WIDTH) || (y1 < 0) || (y1 >= DISPLAY_HEIGHT)) return UG_RESULT_FAI
 957              		.loc 1 222 0
 958 0004 84B2     		uxth	r4, r0
 959 0006 B4F5F07F 		cmp	r4, #480
 960 000a 17D2     		bcs	.L29
 961              		.loc 1 222 0 is_stmt 0 discriminator 2
 962 000c 0029     		cmp	r1, #0
 963 000e 18DB     		blt	.L30
 964              		.loc 1 222 0 discriminator 4
 965 0010 B1F5887F 		cmp	r1, #272
 966 0014 18DA     		bge	.L31
 223:ugui_SSD1963.c ****     if((x2 < 0) ||(x2 >= DISPLAY_WIDTH) || (y2 < 0) || (y2 >= DISPLAY_HEIGHT)) return UG_RESULT_FAI
 967              		.loc 1 223 0 is_stmt 1
 968 0016 94B2     		uxth	r4, r2
 969 0018 B4F5F07F 		cmp	r4, #480
 970 001c 17D2     		bcs	.L32
 971              		.loc 1 223 0 is_stmt 0 discriminator 2
 972 001e 002B     		cmp	r3, #0
 973 0020 18DB     		blt	.L33
 974              		.loc 1 223 0 discriminator 4
 975 0022 B3F5887F 		cmp	r3, #272
 976 0026 18DA     		bge	.L34
 224:ugui_SSD1963.c ****     
 225:ugui_SSD1963.c ****     // If it is a vertical or a horizontal line, draw it.
 226:ugui_SSD1963.c ****     // If not, then use original drawline routine.
 227:ugui_SSD1963.c ****     if ((x1 == x2) || (y1 == y2)) 
 977              		.loc 1 227 0 is_stmt 1
 978 0028 9042     		cmp	r0, r2
 979 002a 01D0     		beq	.L28
 980              		.loc 1 227 0 is_stmt 0 discriminator 1
 981 002c 9942     		cmp	r1, r3
 982 002e 17D1     		bne	.L35
 983              	.L28:
 228:ugui_SSD1963.c ****     {
ARM GAS  C:\Users\leoja\AppData\Local\Temp\cc7PdGai.s 			page 23


 229:ugui_SSD1963.c ****         HW_FillFrame(x1, y1, x2, y2, c);
 984              		.loc 1 229 0 is_stmt 1
 985 0030 049C     		ldr	r4, [sp, #16]
 986 0032 0094     		str	r4, [sp]
 987 0034 FFF7FEFF 		bl	HW_FillFrame
 988              	.LVL121:
 230:ugui_SSD1963.c ****         return UG_RESULT_OK;
 989              		.loc 1 230 0
 990 0038 0020     		movs	r0, #0
 991 003a 13E0     		b	.L27
 992              	.LVL122:
 993              	.L29:
 222:ugui_SSD1963.c ****     if((x2 < 0) ||(x2 >= DISPLAY_WIDTH) || (y2 < 0) || (y2 >= DISPLAY_HEIGHT)) return UG_RESULT_FAI
 994              		.loc 1 222 0
 995 003c 4FF0FF30 		mov	r0, #-1
 996              	.LVL123:
 997 0040 10E0     		b	.L27
 998              	.LVL124:
 999              	.L30:
 1000 0042 4FF0FF30 		mov	r0, #-1
 1001              	.LVL125:
 1002 0046 0DE0     		b	.L27
 1003              	.LVL126:
 1004              	.L31:
 1005 0048 4FF0FF30 		mov	r0, #-1
 1006              	.LVL127:
 1007 004c 0AE0     		b	.L27
 1008              	.LVL128:
 1009              	.L32:
 223:ugui_SSD1963.c ****     
 1010              		.loc 1 223 0
 1011 004e 4FF0FF30 		mov	r0, #-1
 1012              	.LVL129:
 1013 0052 07E0     		b	.L27
 1014              	.LVL130:
 1015              	.L33:
 1016 0054 4FF0FF30 		mov	r0, #-1
 1017              	.LVL131:
 1018 0058 04E0     		b	.L27
 1019              	.LVL132:
 1020              	.L34:
 1021 005a 4FF0FF30 		mov	r0, #-1
 1022              	.LVL133:
 1023 005e 01E0     		b	.L27
 1024              	.LVL134:
 1025              	.L35:
 231:ugui_SSD1963.c ****     }
 232:ugui_SSD1963.c ****     
 233:ugui_SSD1963.c ****     return UG_RESULT_FAIL;
 1026              		.loc 1 233 0
 1027 0060 4FF0FF30 		mov	r0, #-1
 1028              	.LVL135:
 1029              	.L27:
 234:ugui_SSD1963.c **** }
 1030              		.loc 1 234 0
 1031 0064 02B0     		add	sp, sp, #8
 1032              		.cfi_def_cfa_offset 8
ARM GAS  C:\Users\leoja\AppData\Local\Temp\cc7PdGai.s 			page 24


 1033              		@ sp needed
 1034 0066 10BD     		pop	{r4, pc}
 1035              		.cfi_endproc
 1036              	.LFE71:
 1037              		.size	HW_DrawLine, .-HW_DrawLine
 1038              		.section	.text.HW_DrawImage,"ax",%progbits
 1039              		.align	2
 1040              		.global	HW_DrawImage
 1041              		.thumb
 1042              		.thumb_func
 1043              		.type	HW_DrawImage, %function
 1044              	HW_DrawImage:
 1045              	.LFB72:
 235:ugui_SSD1963.c **** 
 236:ugui_SSD1963.c **** UG_RESULT HW_DrawImage(UG_S16 x1, UG_S16 y1, UG_S16 x2, UG_S16 y2, uint8_t *image, uint16_t pSize)
 237:ugui_SSD1963.c **** {
 1046              		.loc 1 237 0
 1047              		.cfi_startproc
 1048              		@ args = 8, pretend = 0, frame = 0
 1049              		@ frame_needed = 0, uses_anonymous_args = 0
 1050              	.LVL136:
 1051 0000 38B5     		push	{r3, r4, r5, lr}
 1052              		.cfi_def_cfa_offset 16
 1053              		.cfi_offset 3, -16
 1054              		.cfi_offset 4, -12
 1055              		.cfi_offset 5, -8
 1056              		.cfi_offset 14, -4
 1057 0002 BDF81440 		ldrh	r4, [sp, #20]
 238:ugui_SSD1963.c ****         
 239:ugui_SSD1963.c ****     if((x1 < 0) ||(x1 >= DISPLAY_WIDTH) || (y1 < 0) || (y1 >= DISPLAY_HEIGHT)) return UG_RESULT_FAI
 1058              		.loc 1 239 0
 1059 0006 85B2     		uxth	r5, r0
 1060 0008 B5F5F07F 		cmp	r5, #480
 1061 000c 1FD2     		bcs	.L39
 1062              		.loc 1 239 0 is_stmt 0 discriminator 2
 1063 000e 0029     		cmp	r1, #0
 1064 0010 20DB     		blt	.L40
 1065              		.loc 1 239 0 discriminator 4
 1066 0012 B1F5887F 		cmp	r1, #272
 1067 0016 20DA     		bge	.L41
 240:ugui_SSD1963.c ****     if((x2 < 0) ||(x2 >= DISPLAY_WIDTH) || (y2 < 0) || (y2 >= DISPLAY_HEIGHT)) return UG_RESULT_FAI
 1068              		.loc 1 240 0 is_stmt 1
 1069 0018 95B2     		uxth	r5, r2
 1070 001a B5F5F07F 		cmp	r5, #480
 1071 001e 1FD2     		bcs	.L42
 1072              		.loc 1 240 0 is_stmt 0 discriminator 2
 1073 0020 002B     		cmp	r3, #0
 1074 0022 20DB     		blt	.L43
 1075              		.loc 1 240 0 discriminator 4
 1076 0024 B3F5887F 		cmp	r3, #272
 1077 0028 20DA     		bge	.L44
 1078 002a 1546     		mov	r5, r2
 1079 002c 0A46     		mov	r2, r1
 1080              	.LVL137:
 241:ugui_SSD1963.c **** 
 242:ugui_SSD1963.c ****     Display_WindowSet(x1,x2,y1,y2);
 1081              		.loc 1 242 0 is_stmt 1
ARM GAS  C:\Users\leoja\AppData\Local\Temp\cc7PdGai.s 			page 25


 1082 002e 2946     		mov	r1, r5
 1083              	.LVL138:
 1084 0030 FFF7FEFF 		bl	Display_WindowSet
 1085              	.LVL139:
 1086              	.LBB274:
 1087              	.LBB275:
  37:ugui_SSD1963.c **** }
 1088              		.loc 1 37 0
 1089 0034 2C21     		movs	r1, #44
 1090 0036 0020     		movs	r0, #0
 1091 0038 FFF7FEFF 		bl	GraphicLCDIntf_Write8
 1092              	.LVL140:
 1093              	.LBE275:
 1094              	.LBE274:
 243:ugui_SSD1963.c **** 
 244:ugui_SSD1963.c ****     Display_WriteCommand(0x2c);            
 245:ugui_SSD1963.c ****     Display_WriteMultiData(image, pSize*3);
 1095              		.loc 1 245 0
 1096 003c 04EB4402 		add	r2, r4, r4, lsl #1
 1097              	.LVL141:
 1098              	.LBB276:
 1099              	.LBB277:
  47:ugui_SSD1963.c **** }
 1100              		.loc 1 47 0
 1101 0040 92B2     		uxth	r2, r2
 1102 0042 0499     		ldr	r1, [sp, #16]
 1103 0044 0120     		movs	r0, #1
 1104 0046 FFF7FEFF 		bl	GraphicLCDIntf_WriteM8
 1105              	.LVL142:
 1106              	.LBE277:
 1107              	.LBE276:
 246:ugui_SSD1963.c ****     
 247:ugui_SSD1963.c ****     return UG_RESULT_OK;
 1108              		.loc 1 247 0
 1109 004a 0020     		movs	r0, #0
 1110 004c 38BD     		pop	{r3, r4, r5, pc}
 1111              	.LVL143:
 1112              	.L39:
 239:ugui_SSD1963.c ****     if((x2 < 0) ||(x2 >= DISPLAY_WIDTH) || (y2 < 0) || (y2 >= DISPLAY_HEIGHT)) return UG_RESULT_FAI
 1113              		.loc 1 239 0
 1114 004e 4FF0FF30 		mov	r0, #-1
 1115              	.LVL144:
 1116 0052 38BD     		pop	{r3, r4, r5, pc}
 1117              	.LVL145:
 1118              	.L40:
 1119 0054 4FF0FF30 		mov	r0, #-1
 1120              	.LVL146:
 1121 0058 38BD     		pop	{r3, r4, r5, pc}
 1122              	.LVL147:
 1123              	.L41:
 1124 005a 4FF0FF30 		mov	r0, #-1
 1125              	.LVL148:
 1126 005e 38BD     		pop	{r3, r4, r5, pc}
 1127              	.LVL149:
 1128              	.L42:
 240:ugui_SSD1963.c **** 
 1129              		.loc 1 240 0
ARM GAS  C:\Users\leoja\AppData\Local\Temp\cc7PdGai.s 			page 26


 1130 0060 4FF0FF30 		mov	r0, #-1
 1131              	.LVL150:
 1132 0064 38BD     		pop	{r3, r4, r5, pc}
 1133              	.LVL151:
 1134              	.L43:
 1135 0066 4FF0FF30 		mov	r0, #-1
 1136              	.LVL152:
 1137 006a 38BD     		pop	{r3, r4, r5, pc}
 1138              	.LVL153:
 1139              	.L44:
 1140 006c 4FF0FF30 		mov	r0, #-1
 1141              	.LVL154:
 248:ugui_SSD1963.c **** }
 1142              		.loc 1 248 0
 1143 0070 38BD     		pop	{r3, r4, r5, pc}
 1144              		.cfi_endproc
 1145              	.LFE72:
 1146              		.size	HW_DrawImage, .-HW_DrawImage
 1147 0072 00BF     		.section	.text.HW_DrawImage_Special,"ax",%progbits
 1148              		.align	2
 1149              		.global	HW_DrawImage_Special
 1150              		.thumb
 1151              		.thumb_func
 1152              		.type	HW_DrawImage_Special, %function
 1153              	HW_DrawImage_Special:
 1154              	.LFB73:
 249:ugui_SSD1963.c **** 
 250:ugui_SSD1963.c **** UG_RESULT HW_DrawImage_Special(UG_S16 x1, UG_S16 y1, UG_S16 x2, UG_S16 y2, uint8_t *image, uint16_t
 251:ugui_SSD1963.c **** {
 1155              		.loc 1 251 0
 1156              		.cfi_startproc
 1157              		@ args = 8, pretend = 0, frame = 0
 1158              		@ frame_needed = 0, uses_anonymous_args = 0
 1159              	.LVL155:
 1160 0000 10B5     		push	{r4, lr}
 1161              		.cfi_def_cfa_offset 8
 1162              		.cfi_offset 4, -8
 1163              		.cfi_offset 14, -4
 252:ugui_SSD1963.c ****         
 253:ugui_SSD1963.c ****     if((x1 < 0) ||(x1 >= DISPLAY_WIDTH) || (y1 < 0) || (y1 >= DISPLAY_HEIGHT)) return UG_RESULT_FAI
 1164              		.loc 1 253 0
 1165 0002 84B2     		uxth	r4, r0
 1166 0004 B4F5F07F 		cmp	r4, #480
 1167 0008 1ED2     		bcs	.L48
 1168              		.loc 1 253 0 is_stmt 0 discriminator 2
 1169 000a 0029     		cmp	r1, #0
 1170 000c 1FDB     		blt	.L49
 1171              		.loc 1 253 0 discriminator 4
 1172 000e B1F5887F 		cmp	r1, #272
 1173 0012 1FDA     		bge	.L50
 254:ugui_SSD1963.c ****     if((x2 < 0) ||(x2 >= DISPLAY_WIDTH) || (y2 < 0) || (y2 >= DISPLAY_HEIGHT)) return UG_RESULT_FAI
 1174              		.loc 1 254 0 is_stmt 1
 1175 0014 94B2     		uxth	r4, r2
 1176 0016 B4F5F07F 		cmp	r4, #480
 1177 001a 1ED2     		bcs	.L51
 1178              		.loc 1 254 0 is_stmt 0 discriminator 2
 1179 001c 002B     		cmp	r3, #0
ARM GAS  C:\Users\leoja\AppData\Local\Temp\cc7PdGai.s 			page 27


 1180 001e 1FDB     		blt	.L52
 1181              		.loc 1 254 0 discriminator 4
 1182 0020 B3F5887F 		cmp	r3, #272
 1183 0024 1FDA     		bge	.L53
 1184 0026 1446     		mov	r4, r2
 1185 0028 0A46     		mov	r2, r1
 1186              	.LVL156:
 255:ugui_SSD1963.c **** 
 256:ugui_SSD1963.c ****     Display_WindowSet(x1,x2,y1,y2);
 1187              		.loc 1 256 0 is_stmt 1
 1188 002a 2146     		mov	r1, r4
 1189              	.LVL157:
 1190 002c FFF7FEFF 		bl	Display_WindowSet
 1191              	.LVL158:
 1192              	.LBB278:
 1193              	.LBB279:
  37:ugui_SSD1963.c **** }
 1194              		.loc 1 37 0
 1195 0030 2C21     		movs	r1, #44
 1196 0032 0020     		movs	r0, #0
 1197 0034 FFF7FEFF 		bl	GraphicLCDIntf_Write8
 1198              	.LVL159:
 1199              	.LBE279:
 1200              	.LBE278:
 257:ugui_SSD1963.c **** 
 258:ugui_SSD1963.c ****     Display_WriteCommand(0x2c); 
 259:ugui_SSD1963.c ****     
 260:ugui_SSD1963.c ****     GraphicLCDIntf_WriteM8_Compressed(1, image, pSize);
 1201              		.loc 1 260 0
 1202 0038 BDF80C20 		ldrh	r2, [sp, #12]
 1203 003c 0299     		ldr	r1, [sp, #8]
 1204 003e 0120     		movs	r0, #1
 1205 0040 FFF7FEFF 		bl	GraphicLCDIntf_WriteM8_Compressed
 1206              	.LVL160:
 261:ugui_SSD1963.c ****     
 262:ugui_SSD1963.c ****     return UG_RESULT_OK;
 1207              		.loc 1 262 0
 1208 0044 0020     		movs	r0, #0
 1209 0046 10BD     		pop	{r4, pc}
 1210              	.LVL161:
 1211              	.L48:
 253:ugui_SSD1963.c ****     if((x2 < 0) ||(x2 >= DISPLAY_WIDTH) || (y2 < 0) || (y2 >= DISPLAY_HEIGHT)) return UG_RESULT_FAI
 1212              		.loc 1 253 0
 1213 0048 4FF0FF30 		mov	r0, #-1
 1214              	.LVL162:
 1215 004c 10BD     		pop	{r4, pc}
 1216              	.LVL163:
 1217              	.L49:
 1218 004e 4FF0FF30 		mov	r0, #-1
 1219              	.LVL164:
 1220 0052 10BD     		pop	{r4, pc}
 1221              	.LVL165:
 1222              	.L50:
 1223 0054 4FF0FF30 		mov	r0, #-1
 1224              	.LVL166:
 1225 0058 10BD     		pop	{r4, pc}
 1226              	.LVL167:
ARM GAS  C:\Users\leoja\AppData\Local\Temp\cc7PdGai.s 			page 28


 1227              	.L51:
 254:ugui_SSD1963.c **** 
 1228              		.loc 1 254 0
 1229 005a 4FF0FF30 		mov	r0, #-1
 1230              	.LVL168:
 1231 005e 10BD     		pop	{r4, pc}
 1232              	.LVL169:
 1233              	.L52:
 1234 0060 4FF0FF30 		mov	r0, #-1
 1235              	.LVL170:
 1236 0064 10BD     		pop	{r4, pc}
 1237              	.LVL171:
 1238              	.L53:
 1239 0066 4FF0FF30 		mov	r0, #-1
 1240              	.LVL172:
 263:ugui_SSD1963.c **** }
 1241              		.loc 1 263 0
 1242 006a 10BD     		pop	{r4, pc}
 1243              		.cfi_endproc
 1244              	.LFE73:
 1245              		.size	HW_DrawImage_Special, .-HW_DrawImage_Special
 1246              		.comm	gui1963,120,4
 1247              		.text
 1248              	.Letext0:
 1249              		.file 2 "c:\\program files (x86)\\cypress\\psoc creator\\4.4\\psoc creator\\import\\gnu\\arm\\5.4.
 1250              		.file 3 "c:\\program files (x86)\\cypress\\psoc creator\\4.4\\psoc creator\\import\\gnu\\arm\\5.4.
 1251              		.file 4 "Generated_Source\\PSoC5/cytypes.h"
 1252              		.file 5 "ugui_config.h"
 1253              		.file 6 "ugui.h"
 1254              		.file 7 "Generated_Source\\PSoC5/core_cm3.h"
 1255              		.file 8 "ugui_SSD1963.h"
 1256              		.file 9 "Generated_Source\\PSoC5/GraphicLCDIntf.h"
 1257              		.file 10 "Generated_Source\\PSoC5/CyLib.h"
 1258              		.file 11 "Generated_Source\\PSoC5/D_RST.h"